Component: ARM Compiler 5.06 update 6 (build 750) Tool: armlink [4d35ed]

==============================================================================

Section Cross References

    loader_src.o(i.EraseSector) refers to loader_src.o(i.QSPI_WriteEnable) for QSPI_WriteEnable
    loader_src.o(i.EraseSector) refers to stm32f7xx_hal_qspi.o(i.HAL_QSPI_Command) for HAL_QSPI_Command
    loader_src.o(i.EraseSector) refers to loader_src.o(i.QSPI_AutoPollingMemReady) for QSPI_AutoPollingMemReady
    loader_src.o(i.EraseSector) refers to loader_src.o(.bss) for QSPIHandle
    loader_src.o(i.Init) refers to system_stm32f7xx.o(i.SystemInit) for SystemInit
    loader_src.o(i.Init) refers to loader_src.o(i.SystemClock_Config) for SystemClock_Config
    loader_src.o(i.Init) refers to memseta.o(.text) for __aeabi_memclr4
    loader_src.o(i.Init) refers to stm32f7xx_hal_qspi.o(i.HAL_QSPI_DeInit) for HAL_QSPI_DeInit
    loader_src.o(i.Init) refers to stm32f7xx_hal_qspi.o(i.HAL_QSPI_Init) for HAL_QSPI_Init
    loader_src.o(i.Init) refers to loader_src.o(i.ResetMemory) for ResetMemory
    loader_src.o(i.Init) refers to loader_src.o(i.QSPI_AutoPollingMemReady) for QSPI_AutoPollingMemReady
    loader_src.o(i.Init) refers to loader_src.o(i.QUADSPI_MappedMode) for QUADSPI_MappedMode
    loader_src.o(i.Init) refers to loader_src.o(.bss) for QSPIHandle
    loader_src.o(i.QSPI_AutoPollingMemReady) refers to stm32f7xx_hal_qspi.o(i.HAL_QSPI_AutoPolling) for HAL_QSPI_AutoPolling
    loader_src.o(i.QSPI_AutoPollingMemReady) refers to loader_src.o(.bss) for sCommand
    loader_src.o(i.QSPI_WriteEnable) refers to stm32f7xx_hal_qspi.o(i.HAL_QSPI_Command) for HAL_QSPI_Command
    loader_src.o(i.QSPI_WriteEnable) refers to stm32f7xx_hal_qspi.o(i.HAL_QSPI_AutoPolling) for HAL_QSPI_AutoPolling
    loader_src.o(i.QSPI_WriteEnable) refers to loader_src.o(.bss) for sCommand
    loader_src.o(i.QSPI_WritePage) refers to loader_src.o(i.QSPI_WriteEnable) for QSPI_WriteEnable
    loader_src.o(i.QSPI_WritePage) refers to stm32f7xx_hal_qspi.o(i.HAL_QSPI_Command) for HAL_QSPI_Command
    loader_src.o(i.QSPI_WritePage) refers to stm32f7xx_hal_qspi.o(i.HAL_QSPI_Transmit) for HAL_QSPI_Transmit
    loader_src.o(i.QSPI_WritePage) refers to loader_src.o(i.QSPI_AutoPollingMemReady) for QSPI_AutoPollingMemReady
    loader_src.o(i.QSPI_WritePage) refers to loader_src.o(.bss) for QSPIHandle
    loader_src.o(i.QUADSPI_MappedMode) refers to loader_src.o(i.QSPI_DummyCyclesCfg) for QSPI_DummyCyclesCfg
    loader_src.o(i.QUADSPI_MappedMode) refers to stm32f7xx_hal_qspi.o(i.HAL_QSPI_MemoryMapped) for HAL_QSPI_MemoryMapped
    loader_src.o(i.QUADSPI_MappedMode) refers to loader_src.o(.bss) for QSPIHandle
    loader_src.o(i.ResetMemory) refers to loader_src.o(.bss) for QSPIHandle
    loader_src.o(i.SectorErase) refers to loader_src.o(i.EraseSector) for EraseSector
    loader_src.o(i.SystemClock_Config) refers to stm32f7xx_hal_rcc.o(i.HAL_RCC_OscConfig) for HAL_RCC_OscConfig
    loader_src.o(i.SystemClock_Config) refers to stm32f7xx_hal_pwr_ex.o(i.HAL_PWREx_EnableOverDrive) for HAL_PWREx_EnableOverDrive
    loader_src.o(i.SystemClock_Config) refers to stm32f7xx_hal_rcc.o(i.HAL_RCC_ClockConfig) for HAL_RCC_ClockConfig
    loader_src.o(i.Verify) refers to loader_src.o(i.QUADSPI_MappedMode) for QUADSPI_MappedMode
    loader_src.o(i.Verify) refers to loader_src.o(i.CheckSum) for CheckSum
    loader_src.o(i.Write) refers to loader_src.o(i.QSPI_WritePage) for QSPI_WritePage
    stm32f7xx_hal_msp.o(i.HAL_QSPI_MspDeInit) refers to stm32f7xx_hal_gpio.o(i.HAL_GPIO_DeInit) for HAL_GPIO_DeInit
    stm32f7xx_hal_msp.o(i.HAL_QSPI_MspInit) refers to stm32f7xx_hal_gpio.o(i.HAL_GPIO_Init) for HAL_GPIO_Init
    stm32f7xx_hal_msp.o(i.HAL_QSPI_MspInit) refers to stm32f7xx_hal_cortex.o(i.HAL_NVIC_SetPriority) for HAL_NVIC_SetPriority
    stm32f7xx_hal_msp.o(i.HAL_QSPI_MspInit) refers to stm32f7xx_hal_cortex.o(i.HAL_NVIC_EnableIRQ) for HAL_NVIC_EnableIRQ
    stm32f7xx_hal.o(i.HAL_DeInit) refers to stm32f7xx_hal.o(i.HAL_MspDeInit) for HAL_MspDeInit
    stm32f7xx_hal.o(i.HAL_Delay) refers to stm32f7xx_hal.o(i.HAL_GetTick) for HAL_GetTick
    stm32f7xx_hal.o(i.HAL_Delay) refers to stm32f7xx_hal.o(.data) for uwTickFreq
    stm32f7xx_hal.o(i.HAL_GetTick) refers to stm32f7xx_hal.o(.data) for uwTick
    stm32f7xx_hal.o(i.HAL_GetTickFreq) refers to stm32f7xx_hal.o(.data) for uwTickFreq
    stm32f7xx_hal.o(i.HAL_GetTickPrio) refers to stm32f7xx_hal.o(.data) for uwTickPrio
    stm32f7xx_hal.o(i.HAL_IncTick) refers to stm32f7xx_hal.o(.data) for uwTick
    stm32f7xx_hal.o(i.HAL_Init) refers to stm32f7xx_hal_cortex.o(i.HAL_NVIC_SetPriorityGrouping) for HAL_NVIC_SetPriorityGrouping
    stm32f7xx_hal.o(i.HAL_Init) refers to loader_src.o(i.HAL_InitTick) for HAL_InitTick
    stm32f7xx_hal.o(i.HAL_Init) refers to stm32f7xx_hal.o(i.HAL_MspInit) for HAL_MspInit
    stm32f7xx_hal.o(i.HAL_InitTick) refers to stm32f7xx_hal_cortex.o(i.HAL_SYSTICK_Config) for HAL_SYSTICK_Config
    stm32f7xx_hal.o(i.HAL_InitTick) refers to stm32f7xx_hal_cortex.o(i.HAL_NVIC_SetPriority) for HAL_NVIC_SetPriority
    stm32f7xx_hal.o(i.HAL_InitTick) refers to stm32f7xx_hal.o(.data) for uwTickFreq
    stm32f7xx_hal.o(i.HAL_InitTick) refers to system_stm32f7xx.o(.data) for SystemCoreClock
    stm32f7xx_hal.o(i.HAL_SetTickFreq) refers to loader_src.o(i.HAL_InitTick) for HAL_InitTick
    stm32f7xx_hal.o(i.HAL_SetTickFreq) refers to stm32f7xx_hal.o(.data) for uwTickFreq
    stm32f7xx_hal_cortex.o(i.HAL_NVIC_GetPriorityGrouping) refers to stm32f7xx_hal_cortex.o(i.NVIC_GetPriorityGrouping) for NVIC_GetPriorityGrouping
    stm32f7xx_hal_cortex.o(i.HAL_NVIC_SetPriority) refers to stm32f7xx_hal_cortex.o(i.NVIC_GetPriorityGrouping) for NVIC_GetPriorityGrouping
    stm32f7xx_hal_cortex.o(i.HAL_NVIC_SetPriority) refers to stm32f7xx_hal_cortex.o(i.NVIC_SetPriority) for NVIC_SetPriority
    stm32f7xx_hal_cortex.o(i.HAL_SYSTICK_Config) refers to stm32f7xx_hal_cortex.o(i.NVIC_SetPriority) for NVIC_SetPriority
    stm32f7xx_hal_cortex.o(i.HAL_SYSTICK_IRQHandler) refers to stm32f7xx_hal_cortex.o(i.HAL_SYSTICK_Callback) for HAL_SYSTICK_Callback
    stm32f7xx_hal_gpio.o(i.HAL_GPIO_EXTI_IRQHandler) refers to stm32f7xx_hal_gpio.o(i.HAL_GPIO_EXTI_Callback) for HAL_GPIO_EXTI_Callback
    stm32f7xx_hal_pwr_ex.o(i.HAL_PWREx_ControlVoltageScaling) refers to stm32f7xx_hal.o(i.HAL_GetTick) for HAL_GetTick
    stm32f7xx_hal_pwr_ex.o(i.HAL_PWREx_DisableBkUpReg) refers to stm32f7xx_hal.o(i.HAL_GetTick) for HAL_GetTick
    stm32f7xx_hal_pwr_ex.o(i.HAL_PWREx_DisableOverDrive) refers to stm32f7xx_hal.o(i.HAL_GetTick) for HAL_GetTick
    stm32f7xx_hal_pwr_ex.o(i.HAL_PWREx_EnableBkUpReg) refers to stm32f7xx_hal.o(i.HAL_GetTick) for HAL_GetTick
    stm32f7xx_hal_pwr_ex.o(i.HAL_PWREx_EnableOverDrive) refers to stm32f7xx_hal.o(i.HAL_GetTick) for HAL_GetTick
    stm32f7xx_hal_pwr_ex.o(i.HAL_PWREx_EnterUnderDriveSTOPMode) refers to stm32f7xx_hal.o(i.HAL_GetTick) for HAL_GetTick
    stm32f7xx_hal_pwr.o(i.HAL_PWR_PVD_IRQHandler) refers to stm32f7xx_hal_pwr.o(i.HAL_PWR_PVDCallback) for HAL_PWR_PVDCallback
    stm32f7xx_hal_qspi.o(i.HAL_QSPI_Abort) refers to stm32f7xx_hal.o(i.HAL_GetTick) for HAL_GetTick
    stm32f7xx_hal_qspi.o(i.HAL_QSPI_Abort) refers to stm32f7xx_hal_dma.o(i.HAL_DMA_Abort) for HAL_DMA_Abort
    stm32f7xx_hal_qspi.o(i.HAL_QSPI_Abort) refers to stm32f7xx_hal_qspi.o(i.QSPI_WaitFlagStateUntilTimeout) for QSPI_WaitFlagStateUntilTimeout
    stm32f7xx_hal_qspi.o(i.HAL_QSPI_Abort_IT) refers to stm32f7xx_hal_dma.o(i.HAL_DMA_Abort_IT) for HAL_DMA_Abort_IT
    stm32f7xx_hal_qspi.o(i.HAL_QSPI_Abort_IT) refers to stm32f7xx_hal_qspi.o(i.QSPI_DMAAbortCplt) for QSPI_DMAAbortCplt
    stm32f7xx_hal_qspi.o(i.HAL_QSPI_AutoPolling) refers to stm32f7xx_hal.o(i.HAL_GetTick) for HAL_GetTick
    stm32f7xx_hal_qspi.o(i.HAL_QSPI_AutoPolling) refers to stm32f7xx_hal_qspi.o(i.QSPI_WaitFlagStateUntilTimeout) for QSPI_WaitFlagStateUntilTimeout
    stm32f7xx_hal_qspi.o(i.HAL_QSPI_AutoPolling) refers to stm32f7xx_hal_qspi.o(i.QSPI_Config) for QSPI_Config
    stm32f7xx_hal_qspi.o(i.HAL_QSPI_AutoPolling_IT) refers to stm32f7xx_hal.o(i.HAL_GetTick) for HAL_GetTick
    stm32f7xx_hal_qspi.o(i.HAL_QSPI_AutoPolling_IT) refers to stm32f7xx_hal_qspi.o(i.QSPI_WaitFlagStateUntilTimeout) for QSPI_WaitFlagStateUntilTimeout
    stm32f7xx_hal_qspi.o(i.HAL_QSPI_AutoPolling_IT) refers to stm32f7xx_hal_qspi.o(i.QSPI_Config) for QSPI_Config
    stm32f7xx_hal_qspi.o(i.HAL_QSPI_Command) refers to stm32f7xx_hal.o(i.HAL_GetTick) for HAL_GetTick
    stm32f7xx_hal_qspi.o(i.HAL_QSPI_Command) refers to stm32f7xx_hal_qspi.o(i.QSPI_WaitFlagStateUntilTimeout) for QSPI_WaitFlagStateUntilTimeout
    stm32f7xx_hal_qspi.o(i.HAL_QSPI_Command) refers to stm32f7xx_hal_qspi.o(i.QSPI_Config) for QSPI_Config
    stm32f7xx_hal_qspi.o(i.HAL_QSPI_Command_IT) refers to stm32f7xx_hal.o(i.HAL_GetTick) for HAL_GetTick
    stm32f7xx_hal_qspi.o(i.HAL_QSPI_Command_IT) refers to stm32f7xx_hal_qspi.o(i.QSPI_WaitFlagStateUntilTimeout) for QSPI_WaitFlagStateUntilTimeout
    stm32f7xx_hal_qspi.o(i.HAL_QSPI_Command_IT) refers to stm32f7xx_hal_qspi.o(i.QSPI_Config) for QSPI_Config
    stm32f7xx_hal_qspi.o(i.HAL_QSPI_DeInit) refers to stm32f7xx_hal_msp.o(i.HAL_QSPI_MspDeInit) for HAL_QSPI_MspDeInit
    stm32f7xx_hal_qspi.o(i.HAL_QSPI_IRQHandler) refers to stm32f7xx_hal_qspi.o(i.HAL_QSPI_FifoThresholdCallback) for HAL_QSPI_FifoThresholdCallback
    stm32f7xx_hal_qspi.o(i.HAL_QSPI_IRQHandler) refers to stm32f7xx_hal_qspi.o(i.HAL_QSPI_TxCpltCallback) for HAL_QSPI_TxCpltCallback
    stm32f7xx_hal_qspi.o(i.HAL_QSPI_IRQHandler) refers to stm32f7xx_hal_qspi.o(i.HAL_QSPI_RxCpltCallback) for HAL_QSPI_RxCpltCallback
    stm32f7xx_hal_qspi.o(i.HAL_QSPI_IRQHandler) refers to stm32f7xx_hal_qspi.o(i.HAL_QSPI_CmdCpltCallback) for HAL_QSPI_CmdCpltCallback
    stm32f7xx_hal_qspi.o(i.HAL_QSPI_IRQHandler) refers to stm32f7xx_hal_qspi.o(i.HAL_QSPI_AbortCpltCallback) for HAL_QSPI_AbortCpltCallback
    stm32f7xx_hal_qspi.o(i.HAL_QSPI_IRQHandler) refers to stm32f7xx_hal_qspi.o(i.HAL_QSPI_ErrorCallback) for HAL_QSPI_ErrorCallback
    stm32f7xx_hal_qspi.o(i.HAL_QSPI_IRQHandler) refers to stm32f7xx_hal_qspi.o(i.HAL_QSPI_StatusMatchCallback) for HAL_QSPI_StatusMatchCallback
    stm32f7xx_hal_qspi.o(i.HAL_QSPI_IRQHandler) refers to stm32f7xx_hal_dma.o(i.HAL_DMA_Abort_IT) for HAL_DMA_Abort_IT
    stm32f7xx_hal_qspi.o(i.HAL_QSPI_IRQHandler) refers to stm32f7xx_hal_qspi.o(i.HAL_QSPI_TimeOutCallback) for HAL_QSPI_TimeOutCallback
    stm32f7xx_hal_qspi.o(i.HAL_QSPI_IRQHandler) refers to stm32f7xx_hal_qspi.o(i.QSPI_DMAAbortCplt) for QSPI_DMAAbortCplt
    stm32f7xx_hal_qspi.o(i.HAL_QSPI_Init) refers to stm32f7xx_hal.o(i.HAL_GetTick) for HAL_GetTick
    stm32f7xx_hal_qspi.o(i.HAL_QSPI_Init) refers to stm32f7xx_hal_msp.o(i.HAL_QSPI_MspInit) for HAL_QSPI_MspInit
    stm32f7xx_hal_qspi.o(i.HAL_QSPI_Init) refers to stm32f7xx_hal_qspi.o(i.HAL_QSPI_SetTimeout) for HAL_QSPI_SetTimeout
    stm32f7xx_hal_qspi.o(i.HAL_QSPI_Init) refers to stm32f7xx_hal_qspi.o(i.QSPI_WaitFlagStateUntilTimeout) for QSPI_WaitFlagStateUntilTimeout
    stm32f7xx_hal_qspi.o(i.HAL_QSPI_MemoryMapped) refers to stm32f7xx_hal.o(i.HAL_GetTick) for HAL_GetTick
    stm32f7xx_hal_qspi.o(i.HAL_QSPI_MemoryMapped) refers to stm32f7xx_hal_qspi.o(i.QSPI_WaitFlagStateUntilTimeout) for QSPI_WaitFlagStateUntilTimeout
    stm32f7xx_hal_qspi.o(i.HAL_QSPI_MemoryMapped) refers to stm32f7xx_hal_qspi.o(i.QSPI_Config) for QSPI_Config
    stm32f7xx_hal_qspi.o(i.HAL_QSPI_Receive) refers to stm32f7xx_hal.o(i.HAL_GetTick) for HAL_GetTick
    stm32f7xx_hal_qspi.o(i.HAL_QSPI_Receive) refers to stm32f7xx_hal_qspi.o(i.QSPI_WaitFlagStateUntilTimeout) for QSPI_WaitFlagStateUntilTimeout
    stm32f7xx_hal_qspi.o(i.HAL_QSPI_Receive_DMA) refers to stm32f7xx_hal_dma.o(i.HAL_DMA_Start_IT) for HAL_DMA_Start_IT
    stm32f7xx_hal_qspi.o(i.HAL_QSPI_Receive_DMA) refers to stm32f7xx_hal_qspi.o(i.QSPI_DMARxCplt) for QSPI_DMARxCplt
    stm32f7xx_hal_qspi.o(i.HAL_QSPI_Receive_DMA) refers to stm32f7xx_hal_qspi.o(i.QSPI_DMARxHalfCplt) for QSPI_DMARxHalfCplt
    stm32f7xx_hal_qspi.o(i.HAL_QSPI_Receive_DMA) refers to stm32f7xx_hal_qspi.o(i.QSPI_DMAError) for QSPI_DMAError
    stm32f7xx_hal_qspi.o(i.HAL_QSPI_Transmit) refers to stm32f7xx_hal.o(i.HAL_GetTick) for HAL_GetTick
    stm32f7xx_hal_qspi.o(i.HAL_QSPI_Transmit) refers to stm32f7xx_hal_qspi.o(i.QSPI_WaitFlagStateUntilTimeout) for QSPI_WaitFlagStateUntilTimeout
    stm32f7xx_hal_qspi.o(i.HAL_QSPI_Transmit_DMA) refers to stm32f7xx_hal_dma.o(i.HAL_DMA_Start_IT) for HAL_DMA_Start_IT
    stm32f7xx_hal_qspi.o(i.HAL_QSPI_Transmit_DMA) refers to stm32f7xx_hal_qspi.o(i.QSPI_DMATxCplt) for QSPI_DMATxCplt
    stm32f7xx_hal_qspi.o(i.HAL_QSPI_Transmit_DMA) refers to stm32f7xx_hal_qspi.o(i.QSPI_DMATxHalfCplt) for QSPI_DMATxHalfCplt
    stm32f7xx_hal_qspi.o(i.HAL_QSPI_Transmit_DMA) refers to stm32f7xx_hal_qspi.o(i.QSPI_DMAError) for QSPI_DMAError
    stm32f7xx_hal_qspi.o(i.QSPI_DMAAbortCplt) refers to stm32f7xx_hal_qspi.o(i.HAL_QSPI_ErrorCallback) for HAL_QSPI_ErrorCallback
    stm32f7xx_hal_qspi.o(i.QSPI_DMAError) refers to stm32f7xx_hal_dma.o(i.HAL_DMA_GetError) for HAL_DMA_GetError
    stm32f7xx_hal_qspi.o(i.QSPI_DMAError) refers to stm32f7xx_hal_qspi.o(i.HAL_QSPI_Abort_IT) for HAL_QSPI_Abort_IT
    stm32f7xx_hal_qspi.o(i.QSPI_DMARxHalfCplt) refers to stm32f7xx_hal_qspi.o(i.HAL_QSPI_RxHalfCpltCallback) for HAL_QSPI_RxHalfCpltCallback
    stm32f7xx_hal_qspi.o(i.QSPI_DMATxHalfCplt) refers to stm32f7xx_hal_qspi.o(i.HAL_QSPI_TxHalfCpltCallback) for HAL_QSPI_TxHalfCpltCallback
    stm32f7xx_hal_qspi.o(i.QSPI_WaitFlagStateUntilTimeout) refers to stm32f7xx_hal.o(i.HAL_GetTick) for HAL_GetTick
    stm32f7xx_hal_rcc.o(i.HAL_RCC_ClockConfig) refers to stm32f7xx_hal.o(i.HAL_GetTick) for HAL_GetTick
    stm32f7xx_hal_rcc.o(i.HAL_RCC_ClockConfig) refers to stm32f7xx_hal_rcc.o(i.HAL_RCC_GetSysClockFreq) for HAL_RCC_GetSysClockFreq
    stm32f7xx_hal_rcc.o(i.HAL_RCC_ClockConfig) refers to loader_src.o(i.HAL_InitTick) for HAL_InitTick
    stm32f7xx_hal_rcc.o(i.HAL_RCC_ClockConfig) refers to system_stm32f7xx.o(.constdata) for AHBPrescTable
    stm32f7xx_hal_rcc.o(i.HAL_RCC_ClockConfig) refers to system_stm32f7xx.o(.data) for SystemCoreClock
    stm32f7xx_hal_rcc.o(i.HAL_RCC_DeInit) refers to stm32f7xx_hal.o(i.HAL_GetTick) for HAL_GetTick
    stm32f7xx_hal_rcc.o(i.HAL_RCC_DeInit) refers to loader_src.o(i.HAL_InitTick) for HAL_InitTick
    stm32f7xx_hal_rcc.o(i.HAL_RCC_DeInit) refers to system_stm32f7xx.o(.data) for SystemCoreClock
    stm32f7xx_hal_rcc.o(i.HAL_RCC_GetHCLKFreq) refers to system_stm32f7xx.o(.data) for SystemCoreClock
    stm32f7xx_hal_rcc.o(i.HAL_RCC_GetPCLK1Freq) refers to stm32f7xx_hal_rcc.o(i.HAL_RCC_GetHCLKFreq) for HAL_RCC_GetHCLKFreq
    stm32f7xx_hal_rcc.o(i.HAL_RCC_GetPCLK1Freq) refers to system_stm32f7xx.o(.constdata) for APBPrescTable
    stm32f7xx_hal_rcc.o(i.HAL_RCC_GetPCLK2Freq) refers to stm32f7xx_hal_rcc.o(i.HAL_RCC_GetHCLKFreq) for HAL_RCC_GetHCLKFreq
    stm32f7xx_hal_rcc.o(i.HAL_RCC_GetPCLK2Freq) refers to system_stm32f7xx.o(.constdata) for APBPrescTable
    stm32f7xx_hal_rcc.o(i.HAL_RCC_GetSysClockFreq) refers to uldiv.o(.text) for __aeabi_uldivmod
    stm32f7xx_hal_rcc.o(i.HAL_RCC_MCOConfig) refers to stm32f7xx_hal_gpio.o(i.HAL_GPIO_Init) for HAL_GPIO_Init
    stm32f7xx_hal_rcc.o(i.HAL_RCC_NMI_IRQHandler) refers to stm32f7xx_hal_rcc.o(i.HAL_RCC_CSSCallback) for HAL_RCC_CSSCallback
    stm32f7xx_hal_rcc.o(i.HAL_RCC_OscConfig) refers to stm32f7xx_hal.o(i.HAL_GetTick) for HAL_GetTick
    stm32f7xx_hal_rcc_ex.o(i.HAL_RCCEx_DisablePLLI2S) refers to stm32f7xx_hal.o(i.HAL_GetTick) for HAL_GetTick
    stm32f7xx_hal_rcc_ex.o(i.HAL_RCCEx_DisablePLLSAI) refers to stm32f7xx_hal.o(i.HAL_GetTick) for HAL_GetTick
    stm32f7xx_hal_rcc_ex.o(i.HAL_RCCEx_EnablePLLI2S) refers to stm32f7xx_hal.o(i.HAL_GetTick) for HAL_GetTick
    stm32f7xx_hal_rcc_ex.o(i.HAL_RCCEx_EnablePLLSAI) refers to stm32f7xx_hal.o(i.HAL_GetTick) for HAL_GetTick
    stm32f7xx_hal_rcc_ex.o(i.HAL_RCCEx_PeriphCLKConfig) refers to stm32f7xx_hal.o(i.HAL_GetTick) for HAL_GetTick
    stm32f7xx_hal_dma.o(i.DMA_CalcBaseAndBitshift) refers to stm32f7xx_hal_dma.o(.constdata) for flagBitshiftOffset
    stm32f7xx_hal_dma.o(i.HAL_DMA_Abort) refers to stm32f7xx_hal.o(i.HAL_GetTick) for HAL_GetTick
    stm32f7xx_hal_dma.o(i.HAL_DMA_DeInit) refers to stm32f7xx_hal_dma.o(i.DMA_CalcBaseAndBitshift) for DMA_CalcBaseAndBitshift
    stm32f7xx_hal_dma.o(i.HAL_DMA_IRQHandler) refers to system_stm32f7xx.o(.data) for SystemCoreClock
    stm32f7xx_hal_dma.o(i.HAL_DMA_Init) refers to stm32f7xx_hal.o(i.HAL_GetTick) for HAL_GetTick
    stm32f7xx_hal_dma.o(i.HAL_DMA_Init) refers to stm32f7xx_hal_dma.o(i.DMA_CheckFifoParam) for DMA_CheckFifoParam
    stm32f7xx_hal_dma.o(i.HAL_DMA_Init) refers to stm32f7xx_hal_dma.o(i.DMA_CalcBaseAndBitshift) for DMA_CalcBaseAndBitshift
    stm32f7xx_hal_dma.o(i.HAL_DMA_PollForTransfer) refers to stm32f7xx_hal.o(i.HAL_GetTick) for HAL_GetTick
    stm32f7xx_hal_dma.o(i.HAL_DMA_PollForTransfer) refers to stm32f7xx_hal_dma.o(i.HAL_DMA_Abort) for HAL_DMA_Abort
    stm32f7xx_hal_dma.o(i.HAL_DMA_Start) refers to stm32f7xx_hal_dma.o(i.DMA_SetConfig) for DMA_SetConfig
    stm32f7xx_hal_dma.o(i.HAL_DMA_Start_IT) refers to stm32f7xx_hal_dma.o(i.DMA_SetConfig) for DMA_SetConfig
    system_stm32f7xx.o(i.SystemCoreClockUpdate) refers to system_stm32f7xx.o(.data) for SystemCoreClock
    system_stm32f7xx.o(i.SystemCoreClockUpdate) refers to system_stm32f7xx.o(.constdata) for AHBPrescTable
    uldiv.o(.text) refers to llushr.o(.text) for __aeabi_llsr
    uldiv.o(.text) refers to llshl.o(.text) for __aeabi_llsl


==============================================================================

Image Symbol Table

    Local Symbols

    Symbol Name                              Value     Ov Type        Size  Object(Section)

    ../clib/microlib/division.c              0x00000000   Number         0  uldiv.o ABSOLUTE
    ../clib/microlib/longlong.c              0x00000000   Number         0  llshl.o ABSOLUTE
    ../clib/microlib/longlong.c              0x00000000   Number         0  llushr.o ABSOLUTE
    ../clib/microlib/string/memset.c         0x00000000   Number         0  memseta.o ABSOLUTE
    ..\..\..\..\..\..\..\Drivers\CMSIS\Device\ST\STM32F7xx\Source\Templates\system_stm32f7xx.c 0x00000000   Number         0  system_stm32f7xx.o ABSOLUTE
    ..\..\..\..\..\..\..\Drivers\STM32F7xx_HAL_Driver\Src\stm32f7xx_hal.c 0x00000000   Number         0  stm32f7xx_hal.o ABSOLUTE
    ..\..\..\..\..\..\..\Drivers\STM32F7xx_HAL_Driver\Src\stm32f7xx_hal_cortex.c 0x00000000   Number         0  stm32f7xx_hal_cortex.o ABSOLUTE
    ..\..\..\..\..\..\..\Drivers\STM32F7xx_HAL_Driver\Src\stm32f7xx_hal_dma.c 0x00000000   Number         0  stm32f7xx_hal_dma.o ABSOLUTE
    ..\..\..\..\..\..\..\Drivers\STM32F7xx_HAL_Driver\Src\stm32f7xx_hal_gpio.c 0x00000000   Number         0  stm32f7xx_hal_gpio.o ABSOLUTE
    ..\..\..\..\..\..\..\Drivers\STM32F7xx_HAL_Driver\Src\stm32f7xx_hal_pwr.c 0x00000000   Number         0  stm32f7xx_hal_pwr.o ABSOLUTE
    ..\..\..\..\..\..\..\Drivers\STM32F7xx_HAL_Driver\Src\stm32f7xx_hal_pwr_ex.c 0x00000000   Number         0  stm32f7xx_hal_pwr_ex.o ABSOLUTE
    ..\..\..\..\..\..\..\Drivers\STM32F7xx_HAL_Driver\Src\stm32f7xx_hal_qspi.c 0x00000000   Number         0  stm32f7xx_hal_qspi.o ABSOLUTE
    ..\..\..\..\..\..\..\Drivers\STM32F7xx_HAL_Driver\Src\stm32f7xx_hal_rcc.c 0x00000000   Number         0  stm32f7xx_hal_rcc.o ABSOLUTE
    ..\..\..\..\..\..\..\Drivers\STM32F7xx_HAL_Driver\Src\stm32f7xx_hal_rcc_ex.c 0x00000000   Number         0  stm32f7xx_hal_rcc_ex.o ABSOLUTE
    ..\Src\Dev_Inf.c                         0x00000000   Number         0  dev_inf.o ABSOLUTE
    ..\Src\Loader_Src.c                      0x00000000   Number         0  loader_src.o ABSOLUTE
    ..\Src\stm32f7xx_hal_msp.c               0x00000000   Number         0  stm32f7xx_hal_msp.o ABSOLUTE
    ..\\..\\..\\..\\..\\..\\..\\Drivers\\CMSIS\\Device\\ST\\STM32F7xx\\Source\\Templates\\system_stm32f7xx.c 0x00000000   Number         0  system_stm32f7xx.o ABSOLUTE
    ..\\..\\..\\..\\..\\..\\..\\Drivers\\STM32F7xx_HAL_Driver\\Src\\stm32f7xx_hal.c 0x00000000   Number         0  stm32f7xx_hal.o ABSOLUTE
    ..\\..\\..\\..\\..\\..\\..\\Drivers\\STM32F7xx_HAL_Driver\\Src\\stm32f7xx_hal_cortex.c 0x00000000   Number         0  stm32f7xx_hal_cortex.o ABSOLUTE
    ..\\..\\..\\..\\..\\..\\..\\Drivers\\STM32F7xx_HAL_Driver\\Src\\stm32f7xx_hal_dma.c 0x00000000   Number         0  stm32f7xx_hal_dma.o ABSOLUTE
    ..\\..\\..\\..\\..\\..\\..\\Drivers\\STM32F7xx_HAL_Driver\\Src\\stm32f7xx_hal_gpio.c 0x00000000   Number         0  stm32f7xx_hal_gpio.o ABSOLUTE
    ..\\..\\..\\..\\..\\..\\..\\Drivers\\STM32F7xx_HAL_Driver\\Src\\stm32f7xx_hal_pwr.c 0x00000000   Number         0  stm32f7xx_hal_pwr.o ABSOLUTE
    ..\\..\\..\\..\\..\\..\\..\\Drivers\\STM32F7xx_HAL_Driver\\Src\\stm32f7xx_hal_pwr_ex.c 0x00000000   Number         0  stm32f7xx_hal_pwr_ex.o ABSOLUTE
    ..\\..\\..\\..\\..\\..\\..\\Drivers\\STM32F7xx_HAL_Driver\\Src\\stm32f7xx_hal_qspi.c 0x00000000   Number         0  stm32f7xx_hal_qspi.o ABSOLUTE
    ..\\..\\..\\..\\..\\..\\..\\Drivers\\STM32F7xx_HAL_Driver\\Src\\stm32f7xx_hal_rcc.c 0x00000000   Number         0  stm32f7xx_hal_rcc.o ABSOLUTE
    ..\\..\\..\\..\\..\\..\\..\\Drivers\\STM32F7xx_HAL_Driver\\Src\\stm32f7xx_hal_rcc_ex.c 0x00000000   Number         0  stm32f7xx_hal_rcc_ex.o ABSOLUTE
    ..\\Src\\Loader_Src.c                    0x00000000   Number         0  loader_src.o ABSOLUTE
    ..\\Src\\stm32f7xx_hal_msp.c             0x00000000   Number         0  stm32f7xx_hal_msp.o ABSOLUTE
    dc.s                                     0x00000000   Number         0  dc.o ABSOLUTE
    .rev16_text                              0x20000004   Section        4  loader_src.o(.rev16_text)
    $v0                                      0x20000004   Number         0  loader_src.o(.rev16_text)
    .rev16_text                              0x20000008   Section        4  stm32f7xx_hal_msp.o(.rev16_text)
    $v0                                      0x20000008   Number         0  stm32f7xx_hal_msp.o(.rev16_text)
    .rev16_text                              0x2000000c   Section        4  stm32f7xx_hal.o(.rev16_text)
    $v0                                      0x2000000c   Number         0  stm32f7xx_hal.o(.rev16_text)
    .rev16_text                              0x20000010   Section        4  stm32f7xx_hal_cortex.o(.rev16_text)
    $v0                                      0x20000010   Number         0  stm32f7xx_hal_cortex.o(.rev16_text)
    .rev16_text                              0x20000014   Section        4  stm32f7xx_hal_gpio.o(.rev16_text)
    $v0                                      0x20000014   Number         0  stm32f7xx_hal_gpio.o(.rev16_text)
    .rev16_text                              0x20000018   Section        4  stm32f7xx_hal_pwr_ex.o(.rev16_text)
    $v0                                      0x20000018   Number         0  stm32f7xx_hal_pwr_ex.o(.rev16_text)
    .rev16_text                              0x2000001c   Section        4  stm32f7xx_hal_pwr.o(.rev16_text)
    $v0                                      0x2000001c   Number         0  stm32f7xx_hal_pwr.o(.rev16_text)
    .rev16_text                              0x20000020   Section        4  stm32f7xx_hal_qspi.o(.rev16_text)
    $v0                                      0x20000020   Number         0  stm32f7xx_hal_qspi.o(.rev16_text)
    .rev16_text                              0x20000024   Section        4  stm32f7xx_hal_rcc.o(.rev16_text)
    $v0                                      0x20000024   Number         0  stm32f7xx_hal_rcc.o(.rev16_text)
    .rev16_text                              0x20000028   Section        4  stm32f7xx_hal_rcc_ex.o(.rev16_text)
    $v0                                      0x20000028   Number         0  stm32f7xx_hal_rcc_ex.o(.rev16_text)
    .rev16_text                              0x2000002c   Section        4  stm32f7xx_hal_dma.o(.rev16_text)
    $v0                                      0x2000002c   Number         0  stm32f7xx_hal_dma.o(.rev16_text)
    .rev16_text                              0x20000030   Section        4  system_stm32f7xx.o(.rev16_text)
    $v0                                      0x20000030   Number         0  system_stm32f7xx.o(.rev16_text)
    .revsh_text                              0x20000034   Section        4  loader_src.o(.revsh_text)
    $v0                                      0x20000034   Number         0  loader_src.o(.revsh_text)
    .revsh_text                              0x20000038   Section        4  stm32f7xx_hal_msp.o(.revsh_text)
    $v0                                      0x20000038   Number         0  stm32f7xx_hal_msp.o(.revsh_text)
    .revsh_text                              0x2000003c   Section        4  stm32f7xx_hal.o(.revsh_text)
    $v0                                      0x2000003c   Number         0  stm32f7xx_hal.o(.revsh_text)
    .revsh_text                              0x20000040   Section        4  stm32f7xx_hal_cortex.o(.revsh_text)
    $v0                                      0x20000040   Number         0  stm32f7xx_hal_cortex.o(.revsh_text)
    .revsh_text                              0x20000044   Section        4  stm32f7xx_hal_gpio.o(.revsh_text)
    $v0                                      0x20000044   Number         0  stm32f7xx_hal_gpio.o(.revsh_text)
    .revsh_text                              0x20000048   Section        4  stm32f7xx_hal_pwr_ex.o(.revsh_text)
    $v0                                      0x20000048   Number         0  stm32f7xx_hal_pwr_ex.o(.revsh_text)
    .revsh_text                              0x2000004c   Section        4  stm32f7xx_hal_pwr.o(.revsh_text)
    $v0                                      0x2000004c   Number         0  stm32f7xx_hal_pwr.o(.revsh_text)
    .revsh_text                              0x20000050   Section        4  stm32f7xx_hal_qspi.o(.revsh_text)
    $v0                                      0x20000050   Number         0  stm32f7xx_hal_qspi.o(.revsh_text)
    .revsh_text                              0x20000054   Section        4  stm32f7xx_hal_rcc.o(.revsh_text)
    $v0                                      0x20000054   Number         0  stm32f7xx_hal_rcc.o(.revsh_text)
    .revsh_text                              0x20000058   Section        4  stm32f7xx_hal_rcc_ex.o(.revsh_text)
    $v0                                      0x20000058   Number         0  stm32f7xx_hal_rcc_ex.o(.revsh_text)
    .revsh_text                              0x2000005c   Section        4  stm32f7xx_hal_dma.o(.revsh_text)
    $v0                                      0x2000005c   Number         0  stm32f7xx_hal_dma.o(.revsh_text)
    .revsh_text                              0x20000060   Section        4  system_stm32f7xx.o(.revsh_text)
    $v0                                      0x20000060   Number         0  system_stm32f7xx.o(.revsh_text)
    .rrx_text                                0x20000064   Section        6  loader_src.o(.rrx_text)
    $v0                                      0x20000064   Number         0  loader_src.o(.rrx_text)
    .rrx_text                                0x2000006c   Section        6  stm32f7xx_hal_msp.o(.rrx_text)
    $v0                                      0x2000006c   Number         0  stm32f7xx_hal_msp.o(.rrx_text)
    .rrx_text                                0x20000074   Section        6  stm32f7xx_hal.o(.rrx_text)
    $v0                                      0x20000074   Number         0  stm32f7xx_hal.o(.rrx_text)
    .rrx_text                                0x2000007c   Section        6  stm32f7xx_hal_cortex.o(.rrx_text)
    $v0                                      0x2000007c   Number         0  stm32f7xx_hal_cortex.o(.rrx_text)
    .rrx_text                                0x20000084   Section        6  stm32f7xx_hal_gpio.o(.rrx_text)
    $v0                                      0x20000084   Number         0  stm32f7xx_hal_gpio.o(.rrx_text)
    .rrx_text                                0x2000008c   Section        6  stm32f7xx_hal_pwr_ex.o(.rrx_text)
    $v0                                      0x2000008c   Number         0  stm32f7xx_hal_pwr_ex.o(.rrx_text)
    .rrx_text                                0x20000094   Section        6  stm32f7xx_hal_pwr.o(.rrx_text)
    $v0                                      0x20000094   Number         0  stm32f7xx_hal_pwr.o(.rrx_text)
    .rrx_text                                0x2000009c   Section        6  stm32f7xx_hal_qspi.o(.rrx_text)
    $v0                                      0x2000009c   Number         0  stm32f7xx_hal_qspi.o(.rrx_text)
    .rrx_text                                0x200000a4   Section        6  stm32f7xx_hal_rcc.o(.rrx_text)
    $v0                                      0x200000a4   Number         0  stm32f7xx_hal_rcc.o(.rrx_text)
    .rrx_text                                0x200000ac   Section        6  stm32f7xx_hal_rcc_ex.o(.rrx_text)
    $v0                                      0x200000ac   Number         0  stm32f7xx_hal_rcc_ex.o(.rrx_text)
    .rrx_text                                0x200000b4   Section        6  stm32f7xx_hal_dma.o(.rrx_text)
    $v0                                      0x200000b4   Number         0  stm32f7xx_hal_dma.o(.rrx_text)
    .rrx_text                                0x200000bc   Section        6  system_stm32f7xx.o(.rrx_text)
    $v0                                      0x200000bc   Number         0  system_stm32f7xx.o(.rrx_text)
    .text                                    0x200000c2   Section        0  uldiv.o(.text)
    .text                                    0x2000012a   Section        0  memseta.o(.text)
    .text                                    0x2000014e   Section        0  llshl.o(.text)
    .text                                    0x2000016c   Section        0  llushr.o(.text)
    i.CheckSum                               0x2000018c   Section        0  loader_src.o(i.CheckSum)
    i.DMA_CalcBaseAndBitshift                0x2000026c   Section        0  stm32f7xx_hal_dma.o(i.DMA_CalcBaseAndBitshift)
    DMA_CalcBaseAndBitshift                  0x2000026d   Thumb Code    46  stm32f7xx_hal_dma.o(i.DMA_CalcBaseAndBitshift)
    i.DMA_CheckFifoParam                     0x200002a0   Section        0  stm32f7xx_hal_dma.o(i.DMA_CheckFifoParam)
    DMA_CheckFifoParam                       0x200002a1   Thumb Code   170  stm32f7xx_hal_dma.o(i.DMA_CheckFifoParam)
    i.DMA_SetConfig                          0x2000034a   Section        0  stm32f7xx_hal_dma.o(i.DMA_SetConfig)
    DMA_SetConfig                            0x2000034b   Thumb Code    44  stm32f7xx_hal_dma.o(i.DMA_SetConfig)
    i.EraseSector                            0x20000378   Section        0  loader_src.o(i.EraseSector)
    __tagsym$$used                           0x20000379   Number         0  loader_src.o(i.EraseSector)
    i.HAL_DBGMCU_DisableDBGSleepMode         0x200003cc   Section        0  stm32f7xx_hal.o(i.HAL_DBGMCU_DisableDBGSleepMode)
    i.HAL_DBGMCU_DisableDBGStandbyMode       0x200003e0   Section        0  stm32f7xx_hal.o(i.HAL_DBGMCU_DisableDBGStandbyMode)
    i.HAL_DBGMCU_DisableDBGStopMode          0x200003f4   Section        0  stm32f7xx_hal.o(i.HAL_DBGMCU_DisableDBGStopMode)
    i.HAL_DBGMCU_EnableDBGSleepMode          0x20000408   Section        0  stm32f7xx_hal.o(i.HAL_DBGMCU_EnableDBGSleepMode)
    i.HAL_DBGMCU_EnableDBGStandbyMode        0x2000041c   Section        0  stm32f7xx_hal.o(i.HAL_DBGMCU_EnableDBGStandbyMode)
    i.HAL_DBGMCU_EnableDBGStopMode           0x20000430   Section        0  stm32f7xx_hal.o(i.HAL_DBGMCU_EnableDBGStopMode)
    i.HAL_DMA_Abort                          0x20000444   Section        0  stm32f7xx_hal_dma.o(i.HAL_DMA_Abort)
    i.HAL_DMA_Abort_IT                       0x200004ee   Section        0  stm32f7xx_hal_dma.o(i.HAL_DMA_Abort_IT)
    i.HAL_DMA_DeInit                         0x20000516   Section        0  stm32f7xx_hal_dma.o(i.HAL_DMA_DeInit)
    i.HAL_DMA_GetError                       0x20000584   Section        0  stm32f7xx_hal_dma.o(i.HAL_DMA_GetError)
    i.HAL_DMA_GetState                       0x2000058a   Section        0  stm32f7xx_hal_dma.o(i.HAL_DMA_GetState)
    i.HAL_DMA_IRQHandler                     0x20000594   Section        0  stm32f7xx_hal_dma.o(i.HAL_DMA_IRQHandler)
    i.HAL_DMA_Init                           0x200007d4   Section        0  stm32f7xx_hal_dma.o(i.HAL_DMA_Init)
    i.HAL_DMA_PollForTransfer                0x200008c0   Section        0  stm32f7xx_hal_dma.o(i.HAL_DMA_PollForTransfer)
    i.HAL_DMA_RegisterCallback               0x20000a20   Section        0  stm32f7xx_hal_dma.o(i.HAL_DMA_RegisterCallback)
    i.HAL_DMA_Start                          0x20000a7e   Section        0  stm32f7xx_hal_dma.o(i.HAL_DMA_Start)
    i.HAL_DMA_Start_IT                       0x20000ae4   Section        0  stm32f7xx_hal_dma.o(i.HAL_DMA_Start_IT)
    i.HAL_DMA_UnRegisterCallback             0x20000b82   Section        0  stm32f7xx_hal_dma.o(i.HAL_DMA_UnRegisterCallback)
    i.HAL_DeInit                             0x20000c00   Section        0  stm32f7xx_hal.o(i.HAL_DeInit)
    i.HAL_Delay                              0x20000c44   Section        0  loader_src.o(i.HAL_Delay)
    i.HAL_Delay                              0x20000c5c   Section        0  stm32f7xx_hal.o(i.HAL_Delay)
    i.HAL_DisableCompensationCell            0x20000c84   Section        0  stm32f7xx_hal.o(i.HAL_DisableCompensationCell)
    i.HAL_DisableFMCMemorySwapping           0x20000c98   Section        0  stm32f7xx_hal.o(i.HAL_DisableFMCMemorySwapping)
    i.HAL_DisableMemorySwappingBank          0x20000cac   Section        0  stm32f7xx_hal.o(i.HAL_DisableMemorySwappingBank)
    i.HAL_EnableCompensationCell             0x20000cc0   Section        0  stm32f7xx_hal.o(i.HAL_EnableCompensationCell)
    i.HAL_EnableFMCMemorySwapping            0x20000cd4   Section        0  stm32f7xx_hal.o(i.HAL_EnableFMCMemorySwapping)
    i.HAL_EnableMemorySwappingBank           0x20000ce8   Section        0  stm32f7xx_hal.o(i.HAL_EnableMemorySwappingBank)
    i.HAL_GPIO_DeInit                        0x20000cfc   Section        0  stm32f7xx_hal_gpio.o(i.HAL_GPIO_DeInit)
    i.HAL_GPIO_EXTI_Callback                 0x20000e7c   Section        0  stm32f7xx_hal_gpio.o(i.HAL_GPIO_EXTI_Callback)
    i.HAL_GPIO_EXTI_IRQHandler               0x20000e80   Section        0  stm32f7xx_hal_gpio.o(i.HAL_GPIO_EXTI_IRQHandler)
    i.HAL_GPIO_Init                          0x20000e9c   Section        0  stm32f7xx_hal_gpio.o(i.HAL_GPIO_Init)
    i.HAL_GPIO_LockPin                       0x200010b4   Section        0  stm32f7xx_hal_gpio.o(i.HAL_GPIO_LockPin)
    i.HAL_GPIO_ReadPin                       0x200010e2   Section        0  stm32f7xx_hal_gpio.o(i.HAL_GPIO_ReadPin)
    i.HAL_GPIO_TogglePin                     0x200010f2   Section        0  stm32f7xx_hal_gpio.o(i.HAL_GPIO_TogglePin)
    i.HAL_GPIO_WritePin                      0x200010fa   Section        0  stm32f7xx_hal_gpio.o(i.HAL_GPIO_WritePin)
    i.HAL_GetDEVID                           0x20001108   Section        0  stm32f7xx_hal.o(i.HAL_GetDEVID)
    i.HAL_GetHalVersion                      0x20001118   Section        0  stm32f7xx_hal.o(i.HAL_GetHalVersion)
    i.HAL_GetREVID                           0x20001120   Section        0  stm32f7xx_hal.o(i.HAL_GetREVID)
    i.HAL_GetTick                            0x2000112c   Section        0  stm32f7xx_hal.o(i.HAL_GetTick)
    i.HAL_GetTickFreq                        0x20001138   Section        0  stm32f7xx_hal.o(i.HAL_GetTickFreq)
    i.HAL_GetTickPrio                        0x20001144   Section        0  stm32f7xx_hal.o(i.HAL_GetTickPrio)
    i.HAL_GetUIDw0                           0x20001150   Section        0  stm32f7xx_hal.o(i.HAL_GetUIDw0)
    i.HAL_GetUIDw1                           0x2000115c   Section        0  stm32f7xx_hal.o(i.HAL_GetUIDw1)
    i.HAL_GetUIDw2                           0x20001168   Section        0  stm32f7xx_hal.o(i.HAL_GetUIDw2)
    i.HAL_IncTick                            0x20001174   Section        0  stm32f7xx_hal.o(i.HAL_IncTick)
    i.HAL_Init                               0x2000118c   Section        0  stm32f7xx_hal.o(i.HAL_Init)
    i.HAL_InitTick                           0x200011bc   Section        0  loader_src.o(i.HAL_InitTick)
    i.HAL_InitTick                           0x200011c4   Section        0  stm32f7xx_hal.o(i.HAL_InitTick)
    i.HAL_MPU_ConfigRegion                   0x20001210   Section        0  stm32f7xx_hal_cortex.o(i.HAL_MPU_ConfigRegion)
    i.HAL_MPU_Disable                        0x2000126c   Section        0  stm32f7xx_hal_cortex.o(i.HAL_MPU_Disable)
    i.HAL_MPU_Enable                         0x20001298   Section        0  stm32f7xx_hal_cortex.o(i.HAL_MPU_Enable)
    i.HAL_MspDeInit                          0x200012d8   Section        0  stm32f7xx_hal.o(i.HAL_MspDeInit)
    i.HAL_MspInit                            0x200012da   Section        0  stm32f7xx_hal.o(i.HAL_MspInit)
    i.HAL_NVIC_ClearPendingIRQ               0x200012dc   Section        0  stm32f7xx_hal_cortex.o(i.HAL_NVIC_ClearPendingIRQ)
    i.HAL_NVIC_DisableIRQ                    0x200012f8   Section        0  stm32f7xx_hal_cortex.o(i.HAL_NVIC_DisableIRQ)
    i.HAL_NVIC_EnableIRQ                     0x20001314   Section        0  stm32f7xx_hal_cortex.o(i.HAL_NVIC_EnableIRQ)
    i.HAL_NVIC_GetActive                     0x20001330   Section        0  stm32f7xx_hal_cortex.o(i.HAL_NVIC_GetActive)
    i.HAL_NVIC_GetPendingIRQ                 0x20001358   Section        0  stm32f7xx_hal_cortex.o(i.HAL_NVIC_GetPendingIRQ)
    i.HAL_NVIC_GetPriority                   0x20001380   Section        0  stm32f7xx_hal_cortex.o(i.HAL_NVIC_GetPriority)
    i.HAL_NVIC_GetPriorityGrouping           0x20001414   Section        0  stm32f7xx_hal_cortex.o(i.HAL_NVIC_GetPriorityGrouping)
    i.HAL_NVIC_SetPendingIRQ                 0x2000141c   Section        0  stm32f7xx_hal_cortex.o(i.HAL_NVIC_SetPendingIRQ)
    i.HAL_NVIC_SetPriority                   0x20001438   Section        0  stm32f7xx_hal_cortex.o(i.HAL_NVIC_SetPriority)
    i.HAL_NVIC_SetPriorityGrouping           0x200014bc   Section        0  stm32f7xx_hal_cortex.o(i.HAL_NVIC_SetPriorityGrouping)
    i.HAL_NVIC_SystemReset                   0x200014e4   Section        0  stm32f7xx_hal_cortex.o(i.HAL_NVIC_SystemReset)
    i.HAL_PWREx_ControlVoltageScaling        0x20001528   Section        0  stm32f7xx_hal_pwr_ex.o(i.HAL_PWREx_ControlVoltageScaling)
    i.HAL_PWREx_DisableBkUpReg               0x20001614   Section        0  stm32f7xx_hal_pwr_ex.o(i.HAL_PWREx_DisableBkUpReg)
    i.HAL_PWREx_DisableFlashPowerDown        0x2000165c   Section        0  stm32f7xx_hal_pwr_ex.o(i.HAL_PWREx_DisableFlashPowerDown)
    i.HAL_PWREx_DisableLowRegulatorLowVoltage 0x20001670   Section        0  stm32f7xx_hal_pwr_ex.o(i.HAL_PWREx_DisableLowRegulatorLowVoltage)
    i.HAL_PWREx_DisableMainRegulatorLowVoltage 0x20001684   Section        0  stm32f7xx_hal_pwr_ex.o(i.HAL_PWREx_DisableMainRegulatorLowVoltage)
    i.HAL_PWREx_DisableOverDrive             0x20001698   Section        0  stm32f7xx_hal_pwr_ex.o(i.HAL_PWREx_DisableOverDrive)
    i.HAL_PWREx_EnableBkUpReg                0x20001728   Section        0  stm32f7xx_hal_pwr_ex.o(i.HAL_PWREx_EnableBkUpReg)
    i.HAL_PWREx_EnableFlashPowerDown         0x20001770   Section        0  stm32f7xx_hal_pwr_ex.o(i.HAL_PWREx_EnableFlashPowerDown)
    i.HAL_PWREx_EnableLowRegulatorLowVoltage 0x20001784   Section        0  stm32f7xx_hal_pwr_ex.o(i.HAL_PWREx_EnableLowRegulatorLowVoltage)
    i.HAL_PWREx_EnableMainRegulatorLowVoltage 0x20001798   Section        0  stm32f7xx_hal_pwr_ex.o(i.HAL_PWREx_EnableMainRegulatorLowVoltage)
    i.HAL_PWREx_EnableOverDrive              0x200017ac   Section        0  stm32f7xx_hal_pwr_ex.o(i.HAL_PWREx_EnableOverDrive)
    i.HAL_PWREx_EnterUnderDriveSTOPMode      0x2000183c   Section        0  stm32f7xx_hal_pwr_ex.o(i.HAL_PWREx_EnterUnderDriveSTOPMode)
    i.HAL_PWREx_GetVoltageRange              0x200018e0   Section        0  stm32f7xx_hal_pwr_ex.o(i.HAL_PWREx_GetVoltageRange)
    i.HAL_PWR_ConfigPVD                      0x200018f0   Section        0  stm32f7xx_hal_pwr.o(i.HAL_PWR_ConfigPVD)
    i.HAL_PWR_DeInit                         0x200019a4   Section        0  stm32f7xx_hal_pwr.o(i.HAL_PWR_DeInit)
    i.HAL_PWR_DisableBkUpAccess              0x200019c0   Section        0  stm32f7xx_hal_pwr.o(i.HAL_PWR_DisableBkUpAccess)
    i.HAL_PWR_DisablePVD                     0x200019d4   Section        0  stm32f7xx_hal_pwr.o(i.HAL_PWR_DisablePVD)
    i.HAL_PWR_DisableSEVOnPend               0x200019e8   Section        0  stm32f7xx_hal_pwr.o(i.HAL_PWR_DisableSEVOnPend)
    i.HAL_PWR_DisableSleepOnExit             0x200019fc   Section        0  stm32f7xx_hal_pwr.o(i.HAL_PWR_DisableSleepOnExit)
    i.HAL_PWR_DisableWakeUpPin               0x20001a10   Section        0  stm32f7xx_hal_pwr.o(i.HAL_PWR_DisableWakeUpPin)
    i.HAL_PWR_EnableBkUpAccess               0x20001a20   Section        0  stm32f7xx_hal_pwr.o(i.HAL_PWR_EnableBkUpAccess)
    i.HAL_PWR_EnablePVD                      0x20001a34   Section        0  stm32f7xx_hal_pwr.o(i.HAL_PWR_EnablePVD)
    i.HAL_PWR_EnableSEVOnPend                0x20001a48   Section        0  stm32f7xx_hal_pwr.o(i.HAL_PWR_EnableSEVOnPend)
    i.HAL_PWR_EnableSleepOnExit              0x20001a5c   Section        0  stm32f7xx_hal_pwr.o(i.HAL_PWR_EnableSleepOnExit)
    i.HAL_PWR_EnableWakeUpPin                0x20001a70   Section        0  stm32f7xx_hal_pwr.o(i.HAL_PWR_EnableWakeUpPin)
    i.HAL_PWR_EnterSLEEPMode                 0x20001a98   Section        0  stm32f7xx_hal_pwr.o(i.HAL_PWR_EnterSLEEPMode)
    i.HAL_PWR_EnterSTANDBYMode               0x20001ad8   Section        0  stm32f7xx_hal_pwr.o(i.HAL_PWR_EnterSTANDBYMode)
    i.HAL_PWR_EnterSTOPMode                  0x20001b00   Section        0  stm32f7xx_hal_pwr.o(i.HAL_PWR_EnterSTOPMode)
    i.HAL_PWR_PVDCallback                    0x20001b64   Section        0  stm32f7xx_hal_pwr.o(i.HAL_PWR_PVDCallback)
    i.HAL_PWR_PVD_IRQHandler                 0x20001b68   Section        0  stm32f7xx_hal_pwr.o(i.HAL_PWR_PVD_IRQHandler)
    i.HAL_QSPI_Abort                         0x20001b88   Section        0  stm32f7xx_hal_qspi.o(i.HAL_QSPI_Abort)
    i.HAL_QSPI_AbortCpltCallback             0x20001c16   Section        0  stm32f7xx_hal_qspi.o(i.HAL_QSPI_AbortCpltCallback)
    i.HAL_QSPI_Abort_IT                      0x20001c18   Section        0  stm32f7xx_hal_qspi.o(i.HAL_QSPI_Abort_IT)
    i.HAL_QSPI_AutoPolling                   0x20001c90   Section        0  stm32f7xx_hal_qspi.o(i.HAL_QSPI_AutoPolling)
    i.HAL_QSPI_AutoPolling_IT                0x20001d64   Section        0  stm32f7xx_hal_qspi.o(i.HAL_QSPI_AutoPolling_IT)
    i.HAL_QSPI_CmdCpltCallback               0x20001e34   Section        0  stm32f7xx_hal_qspi.o(i.HAL_QSPI_CmdCpltCallback)
    i.HAL_QSPI_Command                       0x20001e36   Section        0  stm32f7xx_hal_qspi.o(i.HAL_QSPI_Command)
    i.HAL_QSPI_Command_IT                    0x20001edc   Section        0  stm32f7xx_hal_qspi.o(i.HAL_QSPI_Command_IT)
    i.HAL_QSPI_DeInit                        0x20001f92   Section        0  stm32f7xx_hal_qspi.o(i.HAL_QSPI_DeInit)
    i.HAL_QSPI_ErrorCallback                 0x20001fd8   Section        0  stm32f7xx_hal_qspi.o(i.HAL_QSPI_ErrorCallback)
    i.HAL_QSPI_FifoThresholdCallback         0x20001fda   Section        0  stm32f7xx_hal_qspi.o(i.HAL_QSPI_FifoThresholdCallback)
    i.HAL_QSPI_GetError                      0x20001fdc   Section        0  stm32f7xx_hal_qspi.o(i.HAL_QSPI_GetError)
    i.HAL_QSPI_GetFifoThreshold              0x20001fe2   Section        0  stm32f7xx_hal_qspi.o(i.HAL_QSPI_GetFifoThreshold)
    i.HAL_QSPI_GetState                      0x20001ff0   Section        0  stm32f7xx_hal_qspi.o(i.HAL_QSPI_GetState)
    i.HAL_QSPI_IRQHandler                    0x20001ff8   Section        0  stm32f7xx_hal_qspi.o(i.HAL_QSPI_IRQHandler)
    i.HAL_QSPI_Init                          0x20002250   Section        0  stm32f7xx_hal_qspi.o(i.HAL_QSPI_Init)
    i.HAL_QSPI_MemoryMapped                  0x20002328   Section        0  stm32f7xx_hal_qspi.o(i.HAL_QSPI_MemoryMapped)
    i.HAL_QSPI_MspDeInit                     0x200023d8   Section        0  stm32f7xx_hal_msp.o(i.HAL_QSPI_MspDeInit)
    i.HAL_QSPI_MspDeInit                     0x20002444   Section        0  stm32f7xx_hal_qspi.o(i.HAL_QSPI_MspDeInit)
    i.HAL_QSPI_MspInit                       0x20002448   Section        0  stm32f7xx_hal_msp.o(i.HAL_QSPI_MspInit)
    i.HAL_QSPI_MspInit                       0x200025bc   Section        0  stm32f7xx_hal_qspi.o(i.HAL_QSPI_MspInit)
    i.HAL_QSPI_Receive                       0x200025be   Section        0  stm32f7xx_hal_qspi.o(i.HAL_QSPI_Receive)
    i.HAL_QSPI_Receive_DMA                   0x200026a8   Section        0  stm32f7xx_hal_qspi.o(i.HAL_QSPI_Receive_DMA)
    i.HAL_QSPI_Receive_IT                    0x20002824   Section        0  stm32f7xx_hal_qspi.o(i.HAL_QSPI_Receive_IT)
    i.HAL_QSPI_RxCpltCallback                0x200028c0   Section        0  stm32f7xx_hal_qspi.o(i.HAL_QSPI_RxCpltCallback)
    i.HAL_QSPI_RxHalfCpltCallback            0x200028c2   Section        0  stm32f7xx_hal_qspi.o(i.HAL_QSPI_RxHalfCpltCallback)
    i.HAL_QSPI_SetFifoThreshold              0x200028c4   Section        0  stm32f7xx_hal_qspi.o(i.HAL_QSPI_SetFifoThreshold)
    i.HAL_QSPI_SetTimeout                    0x20002910   Section        0  stm32f7xx_hal_qspi.o(i.HAL_QSPI_SetTimeout)
    i.HAL_QSPI_StatusMatchCallback           0x20002914   Section        0  stm32f7xx_hal_qspi.o(i.HAL_QSPI_StatusMatchCallback)
    i.HAL_QSPI_TimeOutCallback               0x20002916   Section        0  stm32f7xx_hal_qspi.o(i.HAL_QSPI_TimeOutCallback)
    i.HAL_QSPI_Transmit                      0x20002918   Section        0  stm32f7xx_hal_qspi.o(i.HAL_QSPI_Transmit)
    i.HAL_QSPI_Transmit_DMA                  0x200029ec   Section        0  stm32f7xx_hal_qspi.o(i.HAL_QSPI_Transmit_DMA)
    i.HAL_QSPI_Transmit_IT                   0x20002b58   Section        0  stm32f7xx_hal_qspi.o(i.HAL_QSPI_Transmit_IT)
    i.HAL_QSPI_TxCpltCallback                0x20002be8   Section        0  stm32f7xx_hal_qspi.o(i.HAL_QSPI_TxCpltCallback)
    i.HAL_QSPI_TxHalfCpltCallback            0x20002bea   Section        0  stm32f7xx_hal_qspi.o(i.HAL_QSPI_TxHalfCpltCallback)
    i.HAL_RCCEx_DisablePLLI2S                0x20002bec   Section        0  stm32f7xx_hal_rcc_ex.o(i.HAL_RCCEx_DisablePLLI2S)
    i.HAL_RCCEx_DisablePLLSAI                0x20002c24   Section        0  stm32f7xx_hal_rcc_ex.o(i.HAL_RCCEx_DisablePLLSAI)
    i.HAL_RCCEx_EnablePLLI2S                 0x20002c5c   Section        0  stm32f7xx_hal_rcc_ex.o(i.HAL_RCCEx_EnablePLLI2S)
    i.HAL_RCCEx_EnablePLLSAI                 0x20002ce0   Section        0  stm32f7xx_hal_rcc_ex.o(i.HAL_RCCEx_EnablePLLSAI)
    i.HAL_RCCEx_GetPeriphCLKConfig           0x20002d64   Section        0  stm32f7xx_hal_rcc_ex.o(i.HAL_RCCEx_GetPeriphCLKConfig)
    i.HAL_RCCEx_GetPeriphCLKFreq             0x20002f2c   Section        0  stm32f7xx_hal_rcc_ex.o(i.HAL_RCCEx_GetPeriphCLKFreq)
    i.HAL_RCCEx_PeriphCLKConfig              0x20003130   Section        0  stm32f7xx_hal_rcc_ex.o(i.HAL_RCCEx_PeriphCLKConfig)
    i.HAL_RCC_CSSCallback                    0x20003888   Section        0  stm32f7xx_hal_rcc.o(i.HAL_RCC_CSSCallback)
    i.HAL_RCC_ClockConfig                    0x2000388c   Section        0  stm32f7xx_hal_rcc.o(i.HAL_RCC_ClockConfig)
    i.HAL_RCC_DeInit                         0x20003a1c   Section        0  stm32f7xx_hal_rcc.o(i.HAL_RCC_DeInit)
    i.HAL_RCC_DisableCSS                     0x20003bb0   Section        0  stm32f7xx_hal_rcc.o(i.HAL_RCC_DisableCSS)
    i.HAL_RCC_EnableCSS                      0x20003bc4   Section        0  stm32f7xx_hal_rcc.o(i.HAL_RCC_EnableCSS)
    i.HAL_RCC_GetClockConfig                 0x20003bd8   Section        0  stm32f7xx_hal_rcc.o(i.HAL_RCC_GetClockConfig)
    i.HAL_RCC_GetHCLKFreq                    0x20003c1c   Section        0  stm32f7xx_hal_rcc.o(i.HAL_RCC_GetHCLKFreq)
    i.HAL_RCC_GetOscConfig                   0x20003c28   Section        0  stm32f7xx_hal_rcc.o(i.HAL_RCC_GetOscConfig)
    i.HAL_RCC_GetPCLK1Freq                   0x20003d34   Section        0  stm32f7xx_hal_rcc.o(i.HAL_RCC_GetPCLK1Freq)
    i.HAL_RCC_GetPCLK2Freq                   0x20003d54   Section        0  stm32f7xx_hal_rcc.o(i.HAL_RCC_GetPCLK2Freq)
    i.HAL_RCC_GetSysClockFreq                0x20003d74   Section        0  stm32f7xx_hal_rcc.o(i.HAL_RCC_GetSysClockFreq)
    i.HAL_RCC_MCOConfig                      0x20003e24   Section        0  stm32f7xx_hal_rcc.o(i.HAL_RCC_MCOConfig)
    i.HAL_RCC_NMI_IRQHandler                 0x20003edc   Section        0  stm32f7xx_hal_rcc.o(i.HAL_RCC_NMI_IRQHandler)
    i.HAL_RCC_OscConfig                      0x20003efc   Section        0  stm32f7xx_hal_rcc.o(i.HAL_RCC_OscConfig)
    i.HAL_ResumeTick                         0x200043b4   Section        0  stm32f7xx_hal.o(i.HAL_ResumeTick)
    i.HAL_SYSTICK_CLKSourceConfig            0x200043c6   Section        0  stm32f7xx_hal_cortex.o(i.HAL_SYSTICK_CLKSourceConfig)
    i.HAL_SYSTICK_Callback                   0x200043ee   Section        0  stm32f7xx_hal_cortex.o(i.HAL_SYSTICK_Callback)
    i.HAL_SYSTICK_Config                     0x200043f0   Section        0  stm32f7xx_hal_cortex.o(i.HAL_SYSTICK_Config)
    i.HAL_SYSTICK_IRQHandler                 0x20004424   Section        0  stm32f7xx_hal_cortex.o(i.HAL_SYSTICK_IRQHandler)
    i.HAL_SetTickFreq                        0x2000442c   Section        0  stm32f7xx_hal.o(i.HAL_SetTickFreq)
    i.HAL_SuspendTick                        0x20004454   Section        0  stm32f7xx_hal.o(i.HAL_SuspendTick)
    i.Init                                   0x20004468   Section        0  loader_src.o(i.Init)
    i.NVIC_GetPriorityGrouping               0x200044fc   Section        0  stm32f7xx_hal_cortex.o(i.NVIC_GetPriorityGrouping)
    NVIC_GetPriorityGrouping                 0x200044fd   Thumb Code    10  stm32f7xx_hal_cortex.o(i.NVIC_GetPriorityGrouping)
    i.NVIC_SetPriority                       0x2000450c   Section        0  stm32f7xx_hal_cortex.o(i.NVIC_SetPriority)
    NVIC_SetPriority                         0x2000450d   Thumb Code    32  stm32f7xx_hal_cortex.o(i.NVIC_SetPriority)
    i.QSPI_AutoPollingMemReady               0x20004534   Section        0  loader_src.o(i.QSPI_AutoPollingMemReady)
    i.QSPI_Config                            0x20004598   Section        0  stm32f7xx_hal_qspi.o(i.QSPI_Config)
    QSPI_Config                              0x20004599   Thumb Code   488  stm32f7xx_hal_qspi.o(i.QSPI_Config)
    i.QSPI_DMAAbortCplt                      0x20004780   Section        0  stm32f7xx_hal_qspi.o(i.QSPI_DMAAbortCplt)
    QSPI_DMAAbortCplt                        0x20004781   Thumb Code    66  stm32f7xx_hal_qspi.o(i.QSPI_DMAAbortCplt)
    i.QSPI_DMAError                          0x200047c2   Section        0  stm32f7xx_hal_qspi.o(i.QSPI_DMAError)
    QSPI_DMAError                            0x200047c3   Thumb Code    50  stm32f7xx_hal_qspi.o(i.QSPI_DMAError)
    i.QSPI_DMARxCplt                         0x200047f4   Section        0  stm32f7xx_hal_qspi.o(i.QSPI_DMARxCplt)
    QSPI_DMARxCplt                           0x200047f5   Thumb Code    22  stm32f7xx_hal_qspi.o(i.QSPI_DMARxCplt)
    i.QSPI_DMARxHalfCplt                     0x2000480a   Section        0  stm32f7xx_hal_qspi.o(i.QSPI_DMARxHalfCplt)
    QSPI_DMARxHalfCplt                       0x2000480b   Thumb Code    14  stm32f7xx_hal_qspi.o(i.QSPI_DMARxHalfCplt)
    i.QSPI_DMATxCplt                         0x20004818   Section        0  stm32f7xx_hal_qspi.o(i.QSPI_DMATxCplt)
    QSPI_DMATxCplt                           0x20004819   Thumb Code    22  stm32f7xx_hal_qspi.o(i.QSPI_DMATxCplt)
    i.QSPI_DMATxHalfCplt                     0x2000482e   Section        0  stm32f7xx_hal_qspi.o(i.QSPI_DMATxHalfCplt)
    QSPI_DMATxHalfCplt                       0x2000482f   Thumb Code    14  stm32f7xx_hal_qspi.o(i.QSPI_DMATxHalfCplt)
    i.QSPI_DummyCyclesCfg                    0x2000483c   Section        0  loader_src.o(i.QSPI_DummyCyclesCfg)
    QSPI_DummyCyclesCfg                      0x2000483d   Thumb Code     6  loader_src.o(i.QSPI_DummyCyclesCfg)
    i.QSPI_WaitFlagStateUntilTimeout         0x20004842   Section        0  stm32f7xx_hal_qspi.o(i.QSPI_WaitFlagStateUntilTimeout)
    QSPI_WaitFlagStateUntilTimeout           0x20004843   Thumb Code    76  stm32f7xx_hal_qspi.o(i.QSPI_WaitFlagStateUntilTimeout)
    i.QSPI_WriteEnable                       0x20004890   Section        0  loader_src.o(i.QSPI_WriteEnable)
    QSPI_WriteEnable                         0x20004891   Thumb Code   106  loader_src.o(i.QSPI_WriteEnable)
    i.QSPI_WritePage                         0x20004908   Section        0  loader_src.o(i.QSPI_WritePage)
    i.QUADSPI_MappedMode                     0x2000497c   Section        0  loader_src.o(i.QUADSPI_MappedMode)
    i.ResetMemory                            0x200049f0   Section        0  loader_src.o(i.ResetMemory)
    i.SectorErase                            0x20004b6c   Section        0  loader_src.o(i.SectorErase)
    __tagsym$$used                           0x20004b6d   Number         0  loader_src.o(i.SectorErase)
    i.SystemClock_Config                     0x20004b98   Section        0  loader_src.o(i.SystemClock_Config)
    i.SystemCoreClockUpdate                  0x20004c40   Section        0  system_stm32f7xx.o(i.SystemCoreClockUpdate)
    i.SystemInit                             0x20004d00   Section        0  system_stm32f7xx.o(i.SystemInit)
    i.Verify                                 0x20004d64   Section        0  loader_src.o(i.Verify)
    __tagsym$$used                           0x20004d65   Number         0  loader_src.o(i.Verify)
    i.Write                                  0x20004dc6   Section        0  loader_src.o(i.Write)
    __tagsym$$used                           0x20004dc7   Number         0  loader_src.o(i.Write)
    .constdata                               0x20004ece   Section        8  stm32f7xx_hal_dma.o(.constdata)
    flagBitshiftOffset                       0x20004ece   Data           8  stm32f7xx_hal_dma.o(.constdata)
    .constdata                               0x20004ed6   Section       24  system_stm32f7xx.o(.constdata)
    .data                                    0x20004ef0   Section        9  stm32f7xx_hal.o(.data)
    .data                                    0x20004efc   Section        4  system_stm32f7xx.o(.data)
    .bss                                     0x20004f00   Section      156  loader_src.o(.bss)
    .constdata                               0x20004f00   Section      200  dev_inf.o(.constdata)

    Global Symbols

    Symbol Name                              Value     Ov Type        Size  Object(Section)

    StorageInfo                              0x20004f00   Data         200  dev_inf.o(.constdata)
    __asm___12_Loader_Src_c_Init____REV16    0x20000005   Thumb Code     4  loader_src.o(.rev16_text)
    __asm___12_Loader_Src_c_Init____REVSH    0x20000035   Thumb Code     4  loader_src.o(.revsh_text)
    __asm___12_Loader_Src_c_Init____RRX      0x20000065   Thumb Code     6  loader_src.o(.rrx_text)
    QSPIHandle                               0x20004f00   Data          76  loader_src.o(.bss)
    sCommand                                 0x20004f4c   Data          56  loader_src.o(.bss)
    sConfig                                  0x20004f84   Data          24  loader_src.o(.bss)
    CheckSum                                 0x2000018d   Thumb Code   222  loader_src.o(i.CheckSum)
    EraseSector                              0x20000379   Thumb Code    74  loader_src.o(i.EraseSector)
    HAL_Delay                                0x20000c45   Thumb Code    24  loader_src.o(i.HAL_Delay)
    HAL_InitTick                             0x200011bd   Thumb Code     6  loader_src.o(i.HAL_InitTick)
    Init                                     0x20004469   Thumb Code   130  loader_src.o(i.Init)
    QSPI_AutoPollingMemReady                 0x20004535   Thumb Code    86  loader_src.o(i.QSPI_AutoPollingMemReady)
    QSPI_WritePage                           0x20004909   Thumb Code   108  loader_src.o(i.QSPI_WritePage)
    QUADSPI_MappedMode                       0x2000497d   Thumb Code   106  loader_src.o(i.QUADSPI_MappedMode)
    ResetMemory                              0x200049f1   Thumb Code   374  loader_src.o(i.ResetMemory)
    SectorErase                              0x20004b6d   Thumb Code    42  loader_src.o(i.SectorErase)
    SystemClock_Config                       0x20004b99   Thumb Code   160  loader_src.o(i.SystemClock_Config)
    Verify                                   0x20004d65   Thumb Code    98  loader_src.o(i.Verify)
    Write                                    0x20004dc7   Thumb Code   258  loader_src.o(i.Write)
    HAL_PWREx_EnableOverDrive                0x200017ad   Thumb Code   136  stm32f7xx_hal_pwr_ex.o(i.HAL_PWREx_EnableOverDrive)
    HAL_QSPI_AutoPolling                     0x20001c91   Thumb Code   212  stm32f7xx_hal_qspi.o(i.HAL_QSPI_AutoPolling)
    HAL_QSPI_Command                         0x20001e37   Thumb Code   166  stm32f7xx_hal_qspi.o(i.HAL_QSPI_Command)
    HAL_QSPI_DeInit                          0x20001f93   Thumb Code    70  stm32f7xx_hal_qspi.o(i.HAL_QSPI_DeInit)
    HAL_QSPI_Init                            0x20002251   Thumb Code   208  stm32f7xx_hal_qspi.o(i.HAL_QSPI_Init)
    HAL_QSPI_MemoryMapped                    0x20002329   Thumb Code   174  stm32f7xx_hal_qspi.o(i.HAL_QSPI_MemoryMapped)
    HAL_QSPI_Transmit                        0x20002919   Thumb Code   210  stm32f7xx_hal_qspi.o(i.HAL_QSPI_Transmit)
    HAL_RCC_ClockConfig                      0x2000388d   Thumb Code   382  stm32f7xx_hal_rcc.o(i.HAL_RCC_ClockConfig)
    HAL_RCC_OscConfig                        0x20003efd   Thumb Code  1204  stm32f7xx_hal_rcc.o(i.HAL_RCC_OscConfig)
    SystemInit                               0x20004d01   Thumb Code    82  system_stm32f7xx.o(i.SystemInit)
    __asm___19_stm32f7xx_hal_msp_c_907b669a____REV16 0x20000009   Thumb Code     4  stm32f7xx_hal_msp.o(.rev16_text)
    __asm___19_stm32f7xx_hal_msp_c_907b669a____REVSH 0x20000039   Thumb Code     4  stm32f7xx_hal_msp.o(.revsh_text)
    __asm___19_stm32f7xx_hal_msp_c_907b669a____RRX 0x2000006d   Thumb Code     6  stm32f7xx_hal_msp.o(.rrx_text)
    HAL_QSPI_MspDeInit                       0x200023d9   Thumb Code    96  stm32f7xx_hal_msp.o(i.HAL_QSPI_MspDeInit)
    HAL_QSPI_MspInit                         0x20002449   Thumb Code   358  stm32f7xx_hal_msp.o(i.HAL_QSPI_MspInit)
    HAL_GPIO_DeInit                          0x20000cfd   Thumb Code   336  stm32f7xx_hal_gpio.o(i.HAL_GPIO_DeInit)
    HAL_GPIO_Init                            0x20000e9d   Thumb Code   484  stm32f7xx_hal_gpio.o(i.HAL_GPIO_Init)
    HAL_NVIC_EnableIRQ                       0x20001315   Thumb Code    26  stm32f7xx_hal_cortex.o(i.HAL_NVIC_EnableIRQ)
    HAL_NVIC_SetPriority                     0x20001439   Thumb Code   124  stm32f7xx_hal_cortex.o(i.HAL_NVIC_SetPriority)
    __asm___15_stm32f7xx_hal_c_3da258af____REV16 0x2000000d   Thumb Code     4  stm32f7xx_hal.o(.rev16_text)
    __asm___15_stm32f7xx_hal_c_3da258af____REVSH 0x2000003d   Thumb Code     4  stm32f7xx_hal.o(.revsh_text)
    __asm___15_stm32f7xx_hal_c_3da258af____RRX 0x20000075   Thumb Code     6  stm32f7xx_hal.o(.rrx_text)
    uwTick                                   0x20004ef0   Data           4  stm32f7xx_hal.o(.data)
    uwTickPrio                               0x20004ef4   Data           4  stm32f7xx_hal.o(.data)
    uwTickFreq                               0x20004ef8   Data           1  stm32f7xx_hal.o(.data)
    HAL_DBGMCU_DisableDBGSleepMode           0x200003cd   Thumb Code    14  stm32f7xx_hal.o(i.HAL_DBGMCU_DisableDBGSleepMode)
    HAL_DBGMCU_DisableDBGStandbyMode         0x200003e1   Thumb Code    14  stm32f7xx_hal.o(i.HAL_DBGMCU_DisableDBGStandbyMode)
    HAL_DBGMCU_DisableDBGStopMode            0x200003f5   Thumb Code    14  stm32f7xx_hal.o(i.HAL_DBGMCU_DisableDBGStopMode)
    HAL_DBGMCU_EnableDBGSleepMode            0x20000409   Thumb Code    14  stm32f7xx_hal.o(i.HAL_DBGMCU_EnableDBGSleepMode)
    HAL_DBGMCU_EnableDBGStandbyMode          0x2000041d   Thumb Code    14  stm32f7xx_hal.o(i.HAL_DBGMCU_EnableDBGStandbyMode)
    HAL_DBGMCU_EnableDBGStopMode             0x20000431   Thumb Code    14  stm32f7xx_hal.o(i.HAL_DBGMCU_EnableDBGStopMode)
    HAL_DeInit                               0x20000c01   Thumb Code    64  stm32f7xx_hal.o(i.HAL_DeInit)
    HAL_DisableCompensationCell              0x20000c85   Thumb Code    14  stm32f7xx_hal.o(i.HAL_DisableCompensationCell)
    HAL_DisableFMCMemorySwapping             0x20000c99   Thumb Code    14  stm32f7xx_hal.o(i.HAL_DisableFMCMemorySwapping)
    HAL_DisableMemorySwappingBank            0x20000cad   Thumb Code    14  stm32f7xx_hal.o(i.HAL_DisableMemorySwappingBank)
    HAL_EnableCompensationCell               0x20000cc1   Thumb Code    14  stm32f7xx_hal.o(i.HAL_EnableCompensationCell)
    HAL_EnableFMCMemorySwapping              0x20000cd5   Thumb Code    14  stm32f7xx_hal.o(i.HAL_EnableFMCMemorySwapping)
    HAL_EnableMemorySwappingBank             0x20000ce9   Thumb Code    14  stm32f7xx_hal.o(i.HAL_EnableMemorySwappingBank)
    HAL_GetDEVID                             0x20001109   Thumb Code    10  stm32f7xx_hal.o(i.HAL_GetDEVID)
    HAL_GetHalVersion                        0x20001119   Thumb Code     4  stm32f7xx_hal.o(i.HAL_GetHalVersion)
    HAL_GetREVID                             0x20001121   Thumb Code     8  stm32f7xx_hal.o(i.HAL_GetREVID)
    HAL_GetTickFreq                          0x20001139   Thumb Code     6  stm32f7xx_hal.o(i.HAL_GetTickFreq)
    HAL_GetTickPrio                          0x20001145   Thumb Code     6  stm32f7xx_hal.o(i.HAL_GetTickPrio)
    HAL_GetUIDw0                             0x20001151   Thumb Code     6  stm32f7xx_hal.o(i.HAL_GetUIDw0)
    HAL_GetUIDw1                             0x2000115d   Thumb Code     6  stm32f7xx_hal.o(i.HAL_GetUIDw1)
    HAL_GetUIDw2                             0x20001169   Thumb Code     6  stm32f7xx_hal.o(i.HAL_GetUIDw2)
    HAL_Init                                 0x2000118d   Thumb Code    44  stm32f7xx_hal.o(i.HAL_Init)
    HAL_SetTickFreq                          0x2000442d   Thumb Code    32  stm32f7xx_hal.o(i.HAL_SetTickFreq)
    HAL_NVIC_SetPriorityGrouping             0x200014bd   Thumb Code    32  stm32f7xx_hal_cortex.o(i.HAL_NVIC_SetPriorityGrouping)
    HAL_SYSTICK_Config                       0x200043f1   Thumb Code    52  stm32f7xx_hal_cortex.o(i.HAL_SYSTICK_Config)
    SystemCoreClock                          0x20004efc   Data           4  system_stm32f7xx.o(.data)
    HAL_GetTick                              0x2000112d   Thumb Code     6  stm32f7xx_hal.o(i.HAL_GetTick)
    HAL_IncTick                              0x20001175   Thumb Code    16  stm32f7xx_hal.o(i.HAL_IncTick)
    HAL_MspDeInit                            0x200012d9   Thumb Code     2  stm32f7xx_hal.o(i.HAL_MspDeInit)
    HAL_MspInit                              0x200012db   Thumb Code     2  stm32f7xx_hal.o(i.HAL_MspInit)
    HAL_ResumeTick                           0x200043b5   Thumb Code    18  stm32f7xx_hal.o(i.HAL_ResumeTick)
    HAL_SuspendTick                          0x20004455   Thumb Code    18  stm32f7xx_hal.o(i.HAL_SuspendTick)
    __asm___22_stm32f7xx_hal_cortex_c_2992dbc0____REV16 0x20000011   Thumb Code     4  stm32f7xx_hal_cortex.o(.rev16_text)
    __asm___22_stm32f7xx_hal_cortex_c_2992dbc0____REVSH 0x20000041   Thumb Code     4  stm32f7xx_hal_cortex.o(.revsh_text)
    __asm___22_stm32f7xx_hal_cortex_c_2992dbc0____RRX 0x2000007d   Thumb Code     6  stm32f7xx_hal_cortex.o(.rrx_text)
    HAL_MPU_ConfigRegion                     0x20001211   Thumb Code    88  stm32f7xx_hal_cortex.o(i.HAL_MPU_ConfigRegion)
    HAL_MPU_Disable                          0x2000126d   Thumb Code    38  stm32f7xx_hal_cortex.o(i.HAL_MPU_Disable)
    HAL_MPU_Enable                           0x20001299   Thumb Code    58  stm32f7xx_hal_cortex.o(i.HAL_MPU_Enable)
    HAL_NVIC_ClearPendingIRQ                 0x200012dd   Thumb Code    22  stm32f7xx_hal_cortex.o(i.HAL_NVIC_ClearPendingIRQ)
    HAL_NVIC_DisableIRQ                      0x200012f9   Thumb Code    22  stm32f7xx_hal_cortex.o(i.HAL_NVIC_DisableIRQ)
    HAL_NVIC_GetActive                       0x20001331   Thumb Code    36  stm32f7xx_hal_cortex.o(i.HAL_NVIC_GetActive)
    HAL_NVIC_GetPendingIRQ                   0x20001359   Thumb Code    36  stm32f7xx_hal_cortex.o(i.HAL_NVIC_GetPendingIRQ)
    HAL_NVIC_GetPriority                     0x20001381   Thumb Code   138  stm32f7xx_hal_cortex.o(i.HAL_NVIC_GetPriority)
    HAL_NVIC_GetPriorityGrouping             0x20001415   Thumb Code     8  stm32f7xx_hal_cortex.o(i.HAL_NVIC_GetPriorityGrouping)
    HAL_NVIC_SetPendingIRQ                   0x2000141d   Thumb Code    22  stm32f7xx_hal_cortex.o(i.HAL_NVIC_SetPendingIRQ)
    HAL_NVIC_SystemReset                     0x200014e5   Thumb Code    60  stm32f7xx_hal_cortex.o(i.HAL_NVIC_SystemReset)
    HAL_SYSTICK_CLKSourceConfig              0x200043c7   Thumb Code    40  stm32f7xx_hal_cortex.o(i.HAL_SYSTICK_CLKSourceConfig)
    HAL_SYSTICK_IRQHandler                   0x20004425   Thumb Code     8  stm32f7xx_hal_cortex.o(i.HAL_SYSTICK_IRQHandler)
    HAL_SYSTICK_Callback                     0x200043ef   Thumb Code     2  stm32f7xx_hal_cortex.o(i.HAL_SYSTICK_Callback)
    __asm___20_stm32f7xx_hal_gpio_c_ea787061____REV16 0x20000015   Thumb Code     4  stm32f7xx_hal_gpio.o(.rev16_text)
    __asm___20_stm32f7xx_hal_gpio_c_ea787061____REVSH 0x20000045   Thumb Code     4  stm32f7xx_hal_gpio.o(.revsh_text)
    __asm___20_stm32f7xx_hal_gpio_c_ea787061____RRX 0x20000085   Thumb Code     6  stm32f7xx_hal_gpio.o(.rrx_text)
    HAL_GPIO_EXTI_IRQHandler                 0x20000e81   Thumb Code    24  stm32f7xx_hal_gpio.o(i.HAL_GPIO_EXTI_IRQHandler)
    HAL_GPIO_LockPin                         0x200010b5   Thumb Code    46  stm32f7xx_hal_gpio.o(i.HAL_GPIO_LockPin)
    HAL_GPIO_ReadPin                         0x200010e3   Thumb Code    16  stm32f7xx_hal_gpio.o(i.HAL_GPIO_ReadPin)
    HAL_GPIO_TogglePin                       0x200010f3   Thumb Code     8  stm32f7xx_hal_gpio.o(i.HAL_GPIO_TogglePin)
    HAL_GPIO_WritePin                        0x200010fb   Thumb Code    12  stm32f7xx_hal_gpio.o(i.HAL_GPIO_WritePin)
    HAL_GPIO_EXTI_Callback                   0x20000e7d   Thumb Code     2  stm32f7xx_hal_gpio.o(i.HAL_GPIO_EXTI_Callback)
    __asm___22_stm32f7xx_hal_pwr_ex_c_1028ebfa____REV16 0x20000019   Thumb Code     4  stm32f7xx_hal_pwr_ex.o(.rev16_text)
    __asm___22_stm32f7xx_hal_pwr_ex_c_1028ebfa____REVSH 0x20000049   Thumb Code     4  stm32f7xx_hal_pwr_ex.o(.revsh_text)
    __asm___22_stm32f7xx_hal_pwr_ex_c_1028ebfa____RRX 0x2000008d   Thumb Code     6  stm32f7xx_hal_pwr_ex.o(.rrx_text)
    HAL_PWREx_ControlVoltageScaling          0x20001529   Thumb Code   228  stm32f7xx_hal_pwr_ex.o(i.HAL_PWREx_ControlVoltageScaling)
    HAL_PWREx_DisableBkUpReg                 0x20001615   Thumb Code    66  stm32f7xx_hal_pwr_ex.o(i.HAL_PWREx_DisableBkUpReg)
    HAL_PWREx_DisableFlashPowerDown          0x2000165d   Thumb Code    14  stm32f7xx_hal_pwr_ex.o(i.HAL_PWREx_DisableFlashPowerDown)
    HAL_PWREx_DisableLowRegulatorLowVoltage  0x20001671   Thumb Code    14  stm32f7xx_hal_pwr_ex.o(i.HAL_PWREx_DisableLowRegulatorLowVoltage)
    HAL_PWREx_DisableMainRegulatorLowVoltage 0x20001685   Thumb Code    14  stm32f7xx_hal_pwr_ex.o(i.HAL_PWREx_DisableMainRegulatorLowVoltage)
    HAL_PWREx_DisableOverDrive               0x20001699   Thumb Code   136  stm32f7xx_hal_pwr_ex.o(i.HAL_PWREx_DisableOverDrive)
    HAL_PWREx_EnableBkUpReg                  0x20001729   Thumb Code    66  stm32f7xx_hal_pwr_ex.o(i.HAL_PWREx_EnableBkUpReg)
    HAL_PWREx_EnableFlashPowerDown           0x20001771   Thumb Code    14  stm32f7xx_hal_pwr_ex.o(i.HAL_PWREx_EnableFlashPowerDown)
    HAL_PWREx_EnableLowRegulatorLowVoltage   0x20001785   Thumb Code    14  stm32f7xx_hal_pwr_ex.o(i.HAL_PWREx_EnableLowRegulatorLowVoltage)
    HAL_PWREx_EnableMainRegulatorLowVoltage  0x20001799   Thumb Code    14  stm32f7xx_hal_pwr_ex.o(i.HAL_PWREx_EnableMainRegulatorLowVoltage)
    HAL_PWREx_EnterUnderDriveSTOPMode        0x2000183d   Thumb Code   152  stm32f7xx_hal_pwr_ex.o(i.HAL_PWREx_EnterUnderDriveSTOPMode)
    HAL_PWREx_GetVoltageRange                0x200018e1   Thumb Code    10  stm32f7xx_hal_pwr_ex.o(i.HAL_PWREx_GetVoltageRange)
    __asm___19_stm32f7xx_hal_pwr_c_f2cfe8be____REV16 0x2000001d   Thumb Code     4  stm32f7xx_hal_pwr.o(.rev16_text)
    __asm___19_stm32f7xx_hal_pwr_c_f2cfe8be____REVSH 0x2000004d   Thumb Code     4  stm32f7xx_hal_pwr.o(.revsh_text)
    __asm___19_stm32f7xx_hal_pwr_c_f2cfe8be____RRX 0x20000095   Thumb Code     6  stm32f7xx_hal_pwr.o(.rrx_text)
    HAL_PWR_ConfigPVD                        0x200018f1   Thumb Code   172  stm32f7xx_hal_pwr.o(i.HAL_PWR_ConfigPVD)
    HAL_PWR_DeInit                           0x200019a5   Thumb Code    24  stm32f7xx_hal_pwr.o(i.HAL_PWR_DeInit)
    HAL_PWR_DisableBkUpAccess                0x200019c1   Thumb Code    14  stm32f7xx_hal_pwr.o(i.HAL_PWR_DisableBkUpAccess)
    HAL_PWR_DisablePVD                       0x200019d5   Thumb Code    14  stm32f7xx_hal_pwr.o(i.HAL_PWR_DisablePVD)
    HAL_PWR_DisableSEVOnPend                 0x200019e9   Thumb Code    14  stm32f7xx_hal_pwr.o(i.HAL_PWR_DisableSEVOnPend)
    HAL_PWR_DisableSleepOnExit               0x200019fd   Thumb Code    14  stm32f7xx_hal_pwr.o(i.HAL_PWR_DisableSleepOnExit)
    HAL_PWR_DisableWakeUpPin                 0x20001a11   Thumb Code    12  stm32f7xx_hal_pwr.o(i.HAL_PWR_DisableWakeUpPin)
    HAL_PWR_EnableBkUpAccess                 0x20001a21   Thumb Code    14  stm32f7xx_hal_pwr.o(i.HAL_PWR_EnableBkUpAccess)
    HAL_PWR_EnablePVD                        0x20001a35   Thumb Code    14  stm32f7xx_hal_pwr.o(i.HAL_PWR_EnablePVD)
    HAL_PWR_EnableSEVOnPend                  0x20001a49   Thumb Code    14  stm32f7xx_hal_pwr.o(i.HAL_PWR_EnableSEVOnPend)
    HAL_PWR_EnableSleepOnExit                0x20001a5d   Thumb Code    14  stm32f7xx_hal_pwr.o(i.HAL_PWR_EnableSleepOnExit)
    HAL_PWR_EnableWakeUpPin                  0x20001a71   Thumb Code    34  stm32f7xx_hal_pwr.o(i.HAL_PWR_EnableWakeUpPin)
    HAL_PWR_EnterSLEEPMode                   0x20001a99   Thumb Code    60  stm32f7xx_hal_pwr.o(i.HAL_PWR_EnterSLEEPMode)
    HAL_PWR_EnterSTANDBYMode                 0x20001ad9   Thumb Code    32  stm32f7xx_hal_pwr.o(i.HAL_PWR_EnterSTANDBYMode)
    HAL_PWR_EnterSTOPMode                    0x20001b01   Thumb Code    90  stm32f7xx_hal_pwr.o(i.HAL_PWR_EnterSTOPMode)
    HAL_PWR_PVD_IRQHandler                   0x20001b69   Thumb Code    26  stm32f7xx_hal_pwr.o(i.HAL_PWR_PVD_IRQHandler)
    HAL_PWR_PVDCallback                      0x20001b65   Thumb Code     2  stm32f7xx_hal_pwr.o(i.HAL_PWR_PVDCallback)
    __asm___20_stm32f7xx_hal_qspi_c_9f327679____REV16 0x20000021   Thumb Code     4  stm32f7xx_hal_qspi.o(.rev16_text)
    __asm___20_stm32f7xx_hal_qspi_c_9f327679____REVSH 0x20000051   Thumb Code     4  stm32f7xx_hal_qspi.o(.revsh_text)
    __asm___20_stm32f7xx_hal_qspi_c_9f327679____RRX 0x2000009d   Thumb Code     6  stm32f7xx_hal_qspi.o(.rrx_text)
    HAL_QSPI_Abort                           0x20001b89   Thumb Code   142  stm32f7xx_hal_qspi.o(i.HAL_QSPI_Abort)
    HAL_QSPI_Abort_IT                        0x20001c19   Thumb Code   114  stm32f7xx_hal_qspi.o(i.HAL_QSPI_Abort_IT)
    HAL_QSPI_AutoPolling_IT                  0x20001d65   Thumb Code   208  stm32f7xx_hal_qspi.o(i.HAL_QSPI_AutoPolling_IT)
    HAL_QSPI_Command_IT                      0x20001edd   Thumb Code   182  stm32f7xx_hal_qspi.o(i.HAL_QSPI_Command_IT)
    HAL_QSPI_GetError                        0x20001fdd   Thumb Code     6  stm32f7xx_hal_qspi.o(i.HAL_QSPI_GetError)
    HAL_QSPI_GetFifoThreshold                0x20001fe3   Thumb Code    14  stm32f7xx_hal_qspi.o(i.HAL_QSPI_GetFifoThreshold)
    HAL_QSPI_GetState                        0x20001ff1   Thumb Code     8  stm32f7xx_hal_qspi.o(i.HAL_QSPI_GetState)
    HAL_QSPI_IRQHandler                      0x20001ff9   Thumb Code   594  stm32f7xx_hal_qspi.o(i.HAL_QSPI_IRQHandler)
    HAL_QSPI_Receive                         0x200025bf   Thumb Code   226  stm32f7xx_hal_qspi.o(i.HAL_QSPI_Receive)
    HAL_QSPI_Receive_DMA                     0x200026a9   Thumb Code   366  stm32f7xx_hal_qspi.o(i.HAL_QSPI_Receive_DMA)
    HAL_QSPI_Receive_IT                      0x20002825   Thumb Code   156  stm32f7xx_hal_qspi.o(i.HAL_QSPI_Receive_IT)
    HAL_QSPI_SetFifoThreshold                0x200028c5   Thumb Code    76  stm32f7xx_hal_qspi.o(i.HAL_QSPI_SetFifoThreshold)
    HAL_QSPI_SetTimeout                      0x20002911   Thumb Code     4  stm32f7xx_hal_qspi.o(i.HAL_QSPI_SetTimeout)
    HAL_QSPI_Transmit_DMA                    0x200029ed   Thumb Code   350  stm32f7xx_hal_qspi.o(i.HAL_QSPI_Transmit_DMA)
    HAL_QSPI_Transmit_IT                     0x20002b59   Thumb Code   144  stm32f7xx_hal_qspi.o(i.HAL_QSPI_Transmit_IT)
    HAL_DMA_Abort                            0x20000445   Thumb Code   170  stm32f7xx_hal_dma.o(i.HAL_DMA_Abort)
    HAL_DMA_Abort_IT                         0x200004ef   Thumb Code    40  stm32f7xx_hal_dma.o(i.HAL_DMA_Abort_IT)
    HAL_DMA_GetError                         0x20000585   Thumb Code     6  stm32f7xx_hal_dma.o(i.HAL_DMA_GetError)
    HAL_DMA_Start_IT                         0x20000ae5   Thumb Code   158  stm32f7xx_hal_dma.o(i.HAL_DMA_Start_IT)
    HAL_QSPI_AbortCpltCallback               0x20001c17   Thumb Code     2  stm32f7xx_hal_qspi.o(i.HAL_QSPI_AbortCpltCallback)
    HAL_QSPI_CmdCpltCallback                 0x20001e35   Thumb Code     2  stm32f7xx_hal_qspi.o(i.HAL_QSPI_CmdCpltCallback)
    HAL_QSPI_ErrorCallback                   0x20001fd9   Thumb Code     2  stm32f7xx_hal_qspi.o(i.HAL_QSPI_ErrorCallback)
    HAL_QSPI_FifoThresholdCallback           0x20001fdb   Thumb Code     2  stm32f7xx_hal_qspi.o(i.HAL_QSPI_FifoThresholdCallback)
    HAL_QSPI_RxCpltCallback                  0x200028c1   Thumb Code     2  stm32f7xx_hal_qspi.o(i.HAL_QSPI_RxCpltCallback)
    HAL_QSPI_RxHalfCpltCallback              0x200028c3   Thumb Code     2  stm32f7xx_hal_qspi.o(i.HAL_QSPI_RxHalfCpltCallback)
    HAL_QSPI_StatusMatchCallback             0x20002915   Thumb Code     2  stm32f7xx_hal_qspi.o(i.HAL_QSPI_StatusMatchCallback)
    HAL_QSPI_TimeOutCallback                 0x20002917   Thumb Code     2  stm32f7xx_hal_qspi.o(i.HAL_QSPI_TimeOutCallback)
    HAL_QSPI_TxCpltCallback                  0x20002be9   Thumb Code     2  stm32f7xx_hal_qspi.o(i.HAL_QSPI_TxCpltCallback)
    HAL_QSPI_TxHalfCpltCallback              0x20002beb   Thumb Code     2  stm32f7xx_hal_qspi.o(i.HAL_QSPI_TxHalfCpltCallback)
    __asm___19_stm32f7xx_hal_rcc_c_b7071a4b____REV16 0x20000025   Thumb Code     4  stm32f7xx_hal_rcc.o(.rev16_text)
    __asm___19_stm32f7xx_hal_rcc_c_b7071a4b____REVSH 0x20000055   Thumb Code     4  stm32f7xx_hal_rcc.o(.revsh_text)
    __asm___19_stm32f7xx_hal_rcc_c_b7071a4b____RRX 0x200000a5   Thumb Code     6  stm32f7xx_hal_rcc.o(.rrx_text)
    HAL_RCC_DeInit                           0x20003a1d   Thumb Code   388  stm32f7xx_hal_rcc.o(i.HAL_RCC_DeInit)
    HAL_RCC_DisableCSS                       0x20003bb1   Thumb Code    14  stm32f7xx_hal_rcc.o(i.HAL_RCC_DisableCSS)
    HAL_RCC_EnableCSS                        0x20003bc5   Thumb Code    14  stm32f7xx_hal_rcc.o(i.HAL_RCC_EnableCSS)
    HAL_RCC_GetClockConfig                   0x20003bd9   Thumb Code    58  stm32f7xx_hal_rcc.o(i.HAL_RCC_GetClockConfig)
    HAL_RCC_GetHCLKFreq                      0x20003c1d   Thumb Code     6  stm32f7xx_hal_rcc.o(i.HAL_RCC_GetHCLKFreq)
    HAL_RCC_GetOscConfig                     0x20003c29   Thumb Code   264  stm32f7xx_hal_rcc.o(i.HAL_RCC_GetOscConfig)
    HAL_RCC_GetPCLK1Freq                     0x20003d35   Thumb Code    22  stm32f7xx_hal_rcc.o(i.HAL_RCC_GetPCLK1Freq)
    HAL_RCC_GetPCLK2Freq                     0x20003d55   Thumb Code    22  stm32f7xx_hal_rcc.o(i.HAL_RCC_GetPCLK2Freq)
    HAL_RCC_GetSysClockFreq                  0x20003d75   Thumb Code   162  stm32f7xx_hal_rcc.o(i.HAL_RCC_GetSysClockFreq)
    HAL_RCC_MCOConfig                        0x20003e25   Thumb Code   170  stm32f7xx_hal_rcc.o(i.HAL_RCC_MCOConfig)
    HAL_RCC_NMI_IRQHandler                   0x20003edd   Thumb Code    28  stm32f7xx_hal_rcc.o(i.HAL_RCC_NMI_IRQHandler)
    AHBPrescTable                            0x20004ed6   Data          16  system_stm32f7xx.o(.constdata)
    APBPrescTable                            0x20004ee6   Data           8  system_stm32f7xx.o(.constdata)
    HAL_RCC_CSSCallback                      0x20003889   Thumb Code     2  stm32f7xx_hal_rcc.o(i.HAL_RCC_CSSCallback)
    __asm___22_stm32f7xx_hal_rcc_ex_c_bed13b44____REV16 0x20000029   Thumb Code     4  stm32f7xx_hal_rcc_ex.o(.rev16_text)
    __asm___22_stm32f7xx_hal_rcc_ex_c_bed13b44____REVSH 0x20000059   Thumb Code     4  stm32f7xx_hal_rcc_ex.o(.revsh_text)
    __asm___22_stm32f7xx_hal_rcc_ex_c_bed13b44____RRX 0x200000ad   Thumb Code     6  stm32f7xx_hal_rcc_ex.o(.rrx_text)
    HAL_RCCEx_DisablePLLI2S                  0x20002bed   Thumb Code    52  stm32f7xx_hal_rcc_ex.o(i.HAL_RCCEx_DisablePLLI2S)
    HAL_RCCEx_DisablePLLSAI                  0x20002c25   Thumb Code    52  stm32f7xx_hal_rcc_ex.o(i.HAL_RCCEx_DisablePLLSAI)
    HAL_RCCEx_EnablePLLI2S                   0x20002c5d   Thumb Code   128  stm32f7xx_hal_rcc_ex.o(i.HAL_RCCEx_EnablePLLI2S)
    HAL_RCCEx_EnablePLLSAI                   0x20002ce1   Thumb Code   128  stm32f7xx_hal_rcc_ex.o(i.HAL_RCCEx_EnablePLLSAI)
    HAL_RCCEx_GetPeriphCLKConfig             0x20002d65   Thumb Code   448  stm32f7xx_hal_rcc_ex.o(i.HAL_RCCEx_GetPeriphCLKConfig)
    HAL_RCCEx_GetPeriphCLKFreq               0x20002f2d   Thumb Code   498  stm32f7xx_hal_rcc_ex.o(i.HAL_RCCEx_GetPeriphCLKFreq)
    HAL_RCCEx_PeriphCLKConfig                0x20003131   Thumb Code  1876  stm32f7xx_hal_rcc_ex.o(i.HAL_RCCEx_PeriphCLKConfig)
    __asm___19_stm32f7xx_hal_dma_c_c25f65ec____REV16 0x2000002d   Thumb Code     4  stm32f7xx_hal_dma.o(.rev16_text)
    __asm___19_stm32f7xx_hal_dma_c_c25f65ec____REVSH 0x2000005d   Thumb Code     4  stm32f7xx_hal_dma.o(.revsh_text)
    __asm___19_stm32f7xx_hal_dma_c_c25f65ec____RRX 0x200000b5   Thumb Code     6  stm32f7xx_hal_dma.o(.rrx_text)
    HAL_DMA_DeInit                           0x20000517   Thumb Code   110  stm32f7xx_hal_dma.o(i.HAL_DMA_DeInit)
    HAL_DMA_GetState                         0x2000058b   Thumb Code     8  stm32f7xx_hal_dma.o(i.HAL_DMA_GetState)
    HAL_DMA_IRQHandler                       0x20000595   Thumb Code   570  stm32f7xx_hal_dma.o(i.HAL_DMA_IRQHandler)
    HAL_DMA_Init                             0x200007d5   Thumb Code   232  stm32f7xx_hal_dma.o(i.HAL_DMA_Init)
    HAL_DMA_PollForTransfer                  0x200008c1   Thumb Code   346  stm32f7xx_hal_dma.o(i.HAL_DMA_PollForTransfer)
    HAL_DMA_RegisterCallback                 0x20000a21   Thumb Code    94  stm32f7xx_hal_dma.o(i.HAL_DMA_RegisterCallback)
    HAL_DMA_Start                            0x20000a7f   Thumb Code   102  stm32f7xx_hal_dma.o(i.HAL_DMA_Start)
    HAL_DMA_UnRegisterCallback               0x20000b83   Thumb Code   124  stm32f7xx_hal_dma.o(i.HAL_DMA_UnRegisterCallback)
    __asm___18_system_stm32f7xx_c_5d646a67____REV16 0x20000031   Thumb Code     4  system_stm32f7xx.o(.rev16_text)
    __asm___18_system_stm32f7xx_c_5d646a67____REVSH 0x20000061   Thumb Code     4  system_stm32f7xx.o(.revsh_text)
    __asm___18_system_stm32f7xx_c_5d646a67____RRX 0x200000bd   Thumb Code     6  system_stm32f7xx.o(.rrx_text)
    SystemCoreClockUpdate                    0x20004c41   Thumb Code   170  system_stm32f7xx.o(i.SystemCoreClockUpdate)
    __aeabi_uldivmod                         0x200000c3   Thumb Code    98  uldiv.o(.text)
    __aeabi_memset                           0x2000012b   Thumb Code    14  memseta.o(.text)
    __aeabi_memset4                          0x2000012b   Thumb Code     0  memseta.o(.text)
    __aeabi_memset8                          0x2000012b   Thumb Code     0  memseta.o(.text)
    __aeabi_memclr                           0x20000139   Thumb Code     4  memseta.o(.text)
    __aeabi_memclr4                          0x20000139   Thumb Code     0  memseta.o(.text)
    __aeabi_memclr8                          0x20000139   Thumb Code     0  memseta.o(.text)
    _memset$wrapper                          0x2000013d   Thumb Code    18  memseta.o(.text)
    __aeabi_llsl                             0x2000014f   Thumb Code    30  llshl.o(.text)
    _ll_shift_l                              0x2000014f   Thumb Code     0  llshl.o(.text)
    __aeabi_llsr                             0x2000016d   Thumb Code    32  llushr.o(.text)
    _ll_ushift_r                             0x2000016d   Thumb Code     0  llushr.o(.text)
    BuildAttributes$$THM_ISAv4$E$P$D$K$B$S$7EM$VFPi3$EXTD16$VFPS$VFMA$PE$A:L22UL41UL21$X:L11$S22US41US21$IEEE1$IW$USESV6$~STKCKD$USESV7$~SHL$OSPACE$EBA8$MICROLIB$REQ8$PRES8$EABIv2 0x00000000   Number         0  anon$$obj.o ABSOLUTE


