	.text
	.syntax unified
	.eabi_attribute	67, "2.09"	@ Tag_conformance
	.cpu	cortex-m7
	.eabi_attribute	6, 13	@ Tag_CPU_arch
	.eabi_attribute	7, 77	@ Tag_CPU_arch_profile
	.eabi_attribute	8, 0	@ Tag_ARM_ISA_use
	.eabi_attribute	9, 2	@ Tag_THUMB_ISA_use
	.fpu	fpv5-sp-d16
	.eabi_attribute	27, 1	@ Tag_ABI_HardFP_use
	.eabi_attribute	36, 1	@ Tag_FP_HP_extension
	.eabi_attribute	34, 1	@ Tag_CPU_unaligned_access
	.eabi_attribute	17, 1	@ Tag_ABI_PCS_GOT_use
	.eabi_attribute	20, 2	@ Tag_ABI_FP_denormal
	.eabi_attribute	21, 0	@ Tag_ABI_FP_exceptions
	.eabi_attribute	23, 1	@ Tag_ABI_FP_number_model
	.eabi_attribute	24, 1	@ Tag_ABI_align_needed
	.eabi_attribute	25, 1	@ Tag_ABI_align_preserved
	.eabi_attribute	28, 1	@ Tag_ABI_VFP_args
	.eabi_attribute	38, 1	@ Tag_ABI_FP_16bit_format
	.eabi_attribute	18, 2	@ Tag_ABI_PCS_wchar_t
	.eabi_attribute	26, 1	@ Tag_ABI_enum_size
	.eabi_attribute	14, 0	@ Tag_ABI_PCS_R9_use
	.file	"display.c"
	.file	1 "../Middlewares/ST/STemWin/inc" "LCD.h"
	.file	2 "../Middlewares/ST/STemWin/inc" "GUI_Type.h"
	.file	3 "../Src" "display.c"
	.file	4 "C:\\Keil\\ARM\\ARMCLANG\\Bin\\..\\include" "stdint.h"
	.file	5 "../Middlewares/ST/STemWin/inc" "BUTTON.h"
	.file	6 "../Middlewares/ST/STemWin/inc" "KNOB.h"
	.file	7 "../Inc" "display.h"
	.section	.text.DISPLAY_Init,"ax",%progbits
	.hidden	DISPLAY_Init            @ -- Begin function DISPLAY_Init
	.globl	DISPLAY_Init
	.p2align	2
	.type	DISPLAY_Init,%function
	.code	16                      @ @DISPLAY_Init
	.thumb_func
DISPLAY_Init:
.Lfunc_begin0:
	.loc	3 142 0                 @ ../Src/display.c:142:0
	.fnstart
	.cfi_sections .debug_frame
	.cfi_startproc
@ %bb.0:
	.save	{r4, r5, r6, r7, r8, r9, r10, r11, lr}
	.pad	#12
	push.w	{r1, r2, r3, r4, r5, r6, r7, r8, r9, r10, r11, lr}
	.cfi_def_cfa_offset 48
	.cfi_offset lr, -4
	.cfi_offset r11, -8
	.cfi_offset r10, -12
	.cfi_offset r9, -16
	.cfi_offset r8, -20
	.cfi_offset r7, -24
	.cfi_offset r6, -28
	.cfi_offset r5, -32
	.cfi_offset r4, -36
.Ltmp0:
	.loc	3 143 18 prologue_end   @ ../Src/display.c:143:18
	ldr	r1, __arm_cp.0_0
	movs	r0, #0
	strb	r0, [r1]
	.loc	3 144 2                 @ ../Src/display.c:144:2
	bl	GUI_Init
	.loc	3 145 2                 @ ../Src/display.c:145:2
	ldr	r0, __arm_cp.0_1
	bl	GUI_PID_SetHook
	.loc	3 146 2                 @ ../Src/display.c:146:2
	movs	r0, #1
	bl	WM_MULTIBUF_Enable
	.loc	3 147 2                 @ ../Src/display.c:147:2
	movs	r0, #0
	movs	r1, #1
	bl	LCD_SetVisEx
	.loc	3 148 2                 @ ../Src/display.c:148:2
	movs	r0, #1
	movs	r1, #1
	bl	LCD_SetVisEx
	.loc	3 149 2                 @ ../Src/display.c:149:2
	ldr	r1, __arm_cp.0_2
	movs	r0, #0
	blx	r1
	.loc	3 150 2                 @ ../Src/display.c:150:2
	bl	GUI_Clear
	.loc	3 151 2                 @ ../Src/display.c:151:2
	ldr	r0, __arm_cp.0_3
	movs	r1, #0
	movs	r2, #0
	bl	GUI_DrawBitmap
	.loc	3 152 18                @ ../Src/display.c:152:18
	ldr	r4, __arm_cp.0_4
	movs	r5, #2
	movw	r0, #2051
	movs	r1, #65
	movs	r2, #210
	movs	r3, #45
	strd	r0, r5, [sp]
	movs	r0, #5
	blx	r4
	.loc	3 152 14 is_stmt 0      @ ../Src/display.c:152:14
	ldr	r6, __arm_cp.0_5
	.loc	3 153 18 is_stmt 1      @ ../Src/display.c:153:18
	movs	r1, #110
	movs	r2, #210
	movs	r3, #45
	.loc	3 152 14                @ ../Src/display.c:152:14
	str	r0, [r6, #8]
	.loc	3 153 18                @ ../Src/display.c:153:18
	movw	r0, #2052
	strd	r0, r5, [sp]
	movs	r0, #5
	blx	r4
	.loc	3 153 14 is_stmt 0      @ ../Src/display.c:153:14
	str	r0, [r6, #12]
	.loc	3 154 19 is_stmt 1      @ ../Src/display.c:154:19
	movw	r0, #2053
	movs	r1, #155
	movs	r2, #210
	movs	r3, #45
	strd	r0, r5, [sp]
	movs	r0, #5
	blx	r4
	.loc	3 154 15 is_stmt 0      @ ../Src/display.c:154:15
	str	r0, [r6, #16]
	.loc	3 155 2 is_stmt 1       @ ../Src/display.c:155:2
	bl	GUI_Exec
	.loc	3 156 2                 @ ../Src/display.c:156:2
	ldr	r1, __arm_cp.0_2
	movs	r0, #1
	blx	r1
	.loc	3 157 2                 @ ../Src/display.c:157:2
	mov.w	r0, #-16777216
	bl	GUI_SetBkColor
	.loc	3 158 2                 @ ../Src/display.c:158:2
	bl	GUI_Clear
	.loc	3 159 2                 @ ../Src/display.c:159:2
	ldr	r0, __arm_cp.0_6
	movs	r1, #249
	movs	r2, #52
	bl	GUI_DrawBitmap
	.loc	3 160 2                 @ ../Src/display.c:160:2
	ldr	r4, __arm_cp.0_7
	ldr.w	r11, __arm_cp.0_8
	mov	r0, r4
	blx	r11
	.loc	3 161 2                 @ ../Src/display.c:161:2
	ldr.w	r9, __arm_cp.0_9
	add.w	r7, r6, #40
	mov	r0, r7
	blx	r9
	ldr	r0, __arm_cp.0_10
	mov	r10, r0
	.loc	3 162 2                 @ ../Src/display.c:162:2
	blx	r11
	.loc	3 163 25                @ ../Src/display.c:163:25
	ldrsh.w	r0, [r6, #40]
	.loc	3 163 39 is_stmt 0      @ ../Src/display.c:163:39
	ldrsh.w	r1, [r6, #42]
	.loc	3 163 53                @ ../Src/display.c:163:53
	ldrsh.w	r2, [r6, #44]
	.loc	3 163 67                @ ../Src/display.c:163:67
	ldrsh.w	r3, [r6, #46]
	movs	r5, #8
	.loc	3 163 2                 @ ../Src/display.c:163:2
	str	r5, [sp]
	ldr	r5, __arm_cp.0_11
	.loc	3 163 34                @ ../Src/display.c:163:34
	adds	r0, #1
	.loc	3 163 48                @ ../Src/display.c:163:48
	adds	r1, #1
	.loc	3 163 62                @ ../Src/display.c:163:62
	subs	r2, #1
	.loc	3 163 76                @ ../Src/display.c:163:76
	subs	r3, #1
	.loc	3 163 2                 @ ../Src/display.c:163:2
	blx	r5
	.loc	3 164 11 is_stmt 1      @ ../Src/display.c:164:11
	ldrh	r0, [r6, #40]
	.loc	3 165 2                 @ ../Src/display.c:165:2
	ldr	r1, __arm_cp.0_13
	.loc	3 164 11                @ ../Src/display.c:164:11
	adds	r0, #5
	strh	r0, [r6, #40]
	.loc	3 165 2                 @ ../Src/display.c:165:2
	ldr	r0, __arm_cp.0_12
	blx	r1
	.loc	3 166 2                 @ ../Src/display.c:166:2
	ldr.w	r8, __arm_cp.0_14
	movs	r0, #2
	blx	r8
	.loc	3 167 2                 @ ../Src/display.c:167:2
	movw	r0, #54995
	blx	r11
	.loc	3 168 2                 @ ../Src/display.c:168:2
	ldr	r0, __arm_cp.0_15
	ldr	r5, __arm_cp.0_16
	mov	r1, r7
	movs	r2, #14
	blx	r5
	.loc	3 169 11                @ ../Src/display.c:169:11
	ldrh	r0, [r6, #40]
	subs	r0, #5
	strh	r0, [r6, #40]
	.loc	3 170 2                 @ ../Src/display.c:170:2
	mov	r0, r4
	blx	r11
	.loc	3 171 2                 @ ../Src/display.c:171:2
	add.w	r7, r6, #48
	mov	r0, r7
	blx	r9
	.loc	3 172 2                 @ ../Src/display.c:172:2
	mov	r0, r10
	blx	r11
	.loc	3 173 25                @ ../Src/display.c:173:25
	ldrsh.w	r0, [r6, #48]
	.loc	3 173 39 is_stmt 0      @ ../Src/display.c:173:39
	ldrsh.w	r1, [r6, #50]
	.loc	3 173 53                @ ../Src/display.c:173:53
	ldrsh.w	r2, [r6, #52]
	.loc	3 173 67                @ ../Src/display.c:173:67
	ldrsh.w	r3, [r6, #54]
	.loc	3 173 2                 @ ../Src/display.c:173:2
	movs	r4, #8
	str	r4, [sp]
	ldr	r4, __arm_cp.0_11
	.loc	3 173 34                @ ../Src/display.c:173:34
	adds	r0, #1
	.loc	3 173 48                @ ../Src/display.c:173:48
	adds	r1, #1
	.loc	3 173 62                @ ../Src/display.c:173:62
	subs	r2, #1
	.loc	3 173 76                @ ../Src/display.c:173:76
	subs	r3, #1
	.loc	3 173 2                 @ ../Src/display.c:173:2
	blx	r4
	.loc	3 174 11 is_stmt 1      @ ../Src/display.c:174:11
	ldrh	r0, [r6, #48]
	.loc	3 175 2                 @ ../Src/display.c:175:2
	ldr	r1, __arm_cp.0_13
	.loc	3 174 11                @ ../Src/display.c:174:11
	adds	r0, #5
	strh	r0, [r6, #48]
	.loc	3 175 2                 @ ../Src/display.c:175:2
	ldr	r0, __arm_cp.0_12
	blx	r1
	.loc	3 176 2                 @ ../Src/display.c:176:2
	movs	r0, #2
	blx	r8
	.loc	3 177 2                 @ ../Src/display.c:177:2
	movw	r0, #54995
	blx	r11
	.loc	3 178 2                 @ ../Src/display.c:178:2
	ldr	r0, __arm_cp.0_17
	mov	r1, r7
	movs	r2, #14
	blx	r5
	.loc	3 179 11                @ ../Src/display.c:179:11
	ldrh	r0, [r6, #48]
	subs	r0, #5
	strh	r0, [r6, #48]
	.loc	3 180 2                 @ ../Src/display.c:180:2
	ldr	r0, __arm_cp.0_7
	blx	r11
	.loc	3 181 2                 @ ../Src/display.c:181:2
	add.w	r4, r6, #56
	mov	r0, r4
	blx	r9
	.loc	3 182 2                 @ ../Src/display.c:182:2
	mov	r0, r10
	blx	r11
	.loc	3 183 25                @ ../Src/display.c:183:25
	ldrsh.w	r0, [r6, #56]
	.loc	3 183 39 is_stmt 0      @ ../Src/display.c:183:39
	ldrsh.w	r1, [r6, #58]
	.loc	3 183 53                @ ../Src/display.c:183:53
	ldrsh.w	r2, [r6, #60]
	.loc	3 183 67                @ ../Src/display.c:183:67
	ldrsh.w	r3, [r6, #62]
	.loc	3 183 2                 @ ../Src/display.c:183:2
	movs	r7, #8
	str	r7, [sp]
	ldr	r7, __arm_cp.0_11
	.loc	3 183 34                @ ../Src/display.c:183:34
	adds	r0, #1
	.loc	3 183 48                @ ../Src/display.c:183:48
	adds	r1, #1
	.loc	3 183 62                @ ../Src/display.c:183:62
	subs	r2, #1
	.loc	3 183 76                @ ../Src/display.c:183:76
	subs	r3, #1
	.loc	3 183 2                 @ ../Src/display.c:183:2
	blx	r7
	.loc	3 184 11 is_stmt 1      @ ../Src/display.c:184:11
	ldrh	r0, [r6, #56]
	.loc	3 185 2                 @ ../Src/display.c:185:2
	ldr	r1, __arm_cp.0_13
	.loc	3 184 11                @ ../Src/display.c:184:11
	adds	r0, #5
	strh	r0, [r6, #56]
	.loc	3 185 2                 @ ../Src/display.c:185:2
	ldr	r0, __arm_cp.0_12
	blx	r1
	.loc	3 186 2                 @ ../Src/display.c:186:2
	movs	r0, #2
	blx	r8
	.loc	3 187 2                 @ ../Src/display.c:187:2
	movw	r0, #54995
	blx	r11
	.loc	3 188 2                 @ ../Src/display.c:188:2
	ldr	r0, __arm_cp.0_18
	mov	r1, r4
	movs	r2, #14
	blx	r5
	movs	r4, #1
	.loc	3 190 15                @ ../Src/display.c:190:15
	strb	r4, [r6]
	.loc	3 189 11                @ ../Src/display.c:189:11
	ldrh	r0, [r6, #56]
	subs	r0, #5
	strh	r0, [r6, #56]
	.loc	3 191 2                 @ ../Src/display.c:191:2
	bl	DISPLAY_DateTime
	.loc	3 192 2                 @ ../Src/display.c:192:2
	bl	DISPLAY_Knob
	.loc	3 193 18                @ ../Src/display.c:193:18
	ldr	r0, __arm_cp.0_0
	.loc	3 194 2                 @ ../Src/display.c:194:2
	ldr	r1, __arm_cp.0_2
	.loc	3 193 18                @ ../Src/display.c:193:18
	strb	r4, [r0]
	.loc	3 194 2                 @ ../Src/display.c:194:2
	movs	r0, #0
	add	sp, #12
	pop.w	{r4, r5, r6, r7, r8, r9, r10, r11, lr}
	bx	r1
.Ltmp1:
	.p2align	2
@ %bb.1:
	.loc	3 0 2 is_stmt 0         @ ../Src/display.c:0:2
__arm_cp.0_0:
	.long	GUI_Initialized
.Lcpi_end0:
	.size	__arm_cp.0_0, .Lcpi_end0-__arm_cp.0_0
__arm_cp.0_1:
	.long	PID_Hook
.Lcpi_end1:
	.size	__arm_cp.0_1, .Lcpi_end1-__arm_cp.0_1
__arm_cp.0_2:
	.long	GUI_SelectLayer
.Lcpi_end2:
	.size	__arm_cp.0_2, .Lcpi_end2-__arm_cp.0_2
__arm_cp.0_3:
	.long	bmbckgnd_thermostat
.Lcpi_end3:
	.size	__arm_cp.0_3, .Lcpi_end3-__arm_cp.0_3
__arm_cp.0_4:
	.long	BUTTON_Create
.Lcpi_end4:
	.size	__arm_cp.0_4, .Lcpi_end4-__arm_cp.0_4
__arm_cp.0_5:
	.long	.L_MergedGlobals
.Lcpi_end5:
	.size	__arm_cp.0_5, .Lcpi_end5-__arm_cp.0_5
__arm_cp.0_6:
	.long	bmknob
.Lcpi_end6:
	.size	__arm_cp.0_6, .Lcpi_end6-__arm_cp.0_6
__arm_cp.0_7:
	.long	16777215                @ 0xffffff
.Lcpi_end7:
	.size	__arm_cp.0_7, .Lcpi_end7-__arm_cp.0_7
__arm_cp.0_8:
	.long	GUI_SetColor
.Lcpi_end8:
	.size	__arm_cp.0_8, .Lcpi_end8-__arm_cp.0_8
__arm_cp.0_9:
	.long	GUI_FillRectEx
.Lcpi_end9:
	.size	__arm_cp.0_9, .Lcpi_end9-__arm_cp.0_9
__arm_cp.0_10:
	.long	11173223                @ 0xaa7d67
.Lcpi_end10:
	.size	__arm_cp.0_10, .Lcpi_end10-__arm_cp.0_10
__arm_cp.0_11:
	.long	GUI_AA_FillRoundedRect
.Lcpi_end11:
	.size	__arm_cp.0_11, .Lcpi_end11-__arm_cp.0_11
__arm_cp.0_12:
	.long	GUI_Font23S_AA4
.Lcpi_end12:
	.size	__arm_cp.0_12, .Lcpi_end12-__arm_cp.0_12
__arm_cp.0_13:
	.long	GUI_SetFont
.Lcpi_end13:
	.size	__arm_cp.0_13, .Lcpi_end13-__arm_cp.0_13
__arm_cp.0_14:
	.long	GUI_SetTextMode
.Lcpi_end14:
	.size	__arm_cp.0_14, .Lcpi_end14-__arm_cp.0_14
__arm_cp.0_15:
	.long	.L.str
.Lcpi_end15:
	.size	__arm_cp.0_15, .Lcpi_end15-__arm_cp.0_15
__arm_cp.0_16:
	.long	GUI_DispStringInRect
.Lcpi_end16:
	.size	__arm_cp.0_16, .Lcpi_end16-__arm_cp.0_16
__arm_cp.0_17:
	.long	.L.str.1
.Lcpi_end17:
	.size	__arm_cp.0_17, .Lcpi_end17-__arm_cp.0_17
__arm_cp.0_18:
	.long	.L.str.2
.Lcpi_end18:
	.size	__arm_cp.0_18, .Lcpi_end18-__arm_cp.0_18
.Lfunc_end0:
	.size	DISPLAY_Init, .Lfunc_end0-DISPLAY_Init
	.cfi_endproc
	.cantunwind
	.fnend
                                        @ -- End function
	.section	.text.PID_Hook,"ax",%progbits
	.p2align	3               @ -- Begin function PID_Hook
	.type	PID_Hook,%function
	.code	16                      @ @PID_Hook
	.thumb_func
PID_Hook:
.Lfunc_begin1:
	.loc	3 389 0 is_stmt 1       @ ../Src/display.c:389:0
	.fnstart
	.cfi_startproc
@ %bb.0:
	.save	{r4, r5, r6, r7, lr}
	.pad	#4
	push	{r3, r4, r5, r6, r7, lr}
	.cfi_def_cfa_offset 24
	.cfi_offset lr, -4
	.cfi_offset r7, -8
	.cfi_offset r6, -12
	.cfi_offset r5, -16
	.cfi_offset r4, -20
	.vsave	{d8}
	vpush	{d8}
	.cfi_def_cfa_offset 32
	.cfi_offset d8, -32
	@DEBUG_VALUE: PID_Hook:pState <- $r0
.Ltmp2:
	.loc	3 394 5 prologue_end    @ ../Src/display.c:394:5
	ldr	r7, __arm_cp.1_0
	mov	r5, r0
.Ltmp3:
	@DEBUG_VALUE: PID_Hook:pState <- $r5
	ldrb	r0, [r7]
.Ltmp4:
	.loc	3 394 5 is_stmt 0       @ ../Src/display.c:394:5
	cmp	r0, #1
	bne	.LBB1_10
.Ltmp5:
@ %bb.1:
	@DEBUG_VALUE: PID_Hook:pState <- $r5
	.loc	3 396 16 is_stmt 1      @ ../Src/display.c:396:16
	ldr	r4, [r5]
	.loc	3 396 30 is_stmt 0      @ ../Src/display.c:396:30
	cmp	r4, #250
	blt	.LBB1_10
.Ltmp6:
@ %bb.2:
	@DEBUG_VALUE: PID_Hook:pState <- $r5
	.loc	3 397 27 is_stmt 1      @ ../Src/display.c:397:27
	cmp.w	r4, #450
	bge	.LBB1_10
.Ltmp7:
@ %bb.3:
	@DEBUG_VALUE: PID_Hook:pState <- $r5
	.loc	3 0 27 is_stmt 0        @ ../Src/display.c:0:27
	ldr	r0, [r5, #4]
	.loc	3 397 27                @ ../Src/display.c:397:27
	sub.w	r1, r0, #40
	cmp	r1, #159
	bhi	.LBB1_10
.Ltmp8:
@ %bb.4:
	@DEBUG_VALUE: PID_Hook:pState <- $r5
	.loc	3 405 9 is_stmt 1       @ ../Src/display.c:405:9
	bl	__aeabi_i2d
	.loc	3 406 21                @ ../Src/display.c:406:21
	vldr	d0, .LCPI1_1
	.loc	3 405 9                 @ ../Src/display.c:405:9
	mov	r2, r0
	movs	r0, #1
	mov	r3, r1
	.loc	3 401 18                @ ../Src/display.c:401:18
	strb	r0, [r5, #9]
	.loc	3 406 21                @ ../Src/display.c:406:21
	vmov	r0, r1, d0
	bl	__aeabi_dsub
	mov	r5, r0
.Ltmp9:
	.loc	3 404 9                 @ ../Src/display.c:404:9
	mov	r0, r4
	.loc	3 406 21                @ ../Src/display.c:406:21
	mov	r6, r1
.Ltmp10:
	@DEBUG_VALUE: PID_Hook:y0 <- 1.390000e+02
	@DEBUG_VALUE: PID_Hook:x0 <- 3.360000e+02
	.loc	3 404 9                 @ ../Src/display.c:404:9
	bl	__aeabi_i2d
	.loc	3 406 29                @ ../Src/display.c:406:29
	vldr	d0, .LCPI1_2
	.loc	3 404 9                 @ ../Src/display.c:404:9
	mov	r2, r0
	mov	r3, r1
	.loc	3 406 29                @ ../Src/display.c:406:29
	vmov	r0, r1, d0
	bl	__aeabi_dsub
	.loc	3 406 21 is_stmt 0      @ ../Src/display.c:406:21
	vmov	d0, r5, r6
	.loc	3 406 29                @ ../Src/display.c:406:29
	vmov	d1, r0, r1
	.loc	3 406 12                @ ../Src/display.c:406:12
	bl	__hardfp_atan2
	.loc	3 406 35                @ ../Src/display.c:406:35
	vldr	d1, .LCPI1_3
	vmov	r0, r1, d0
	vmov	r2, r3, d1
	bl	__aeabi_dmul
	mov	r5, r0
.Ltmp11:
	.loc	3 408 13 is_stmt 1      @ ../Src/display.c:408:13
	vldr	d0, .LCPI1_5
	adr	r0, .LCPI1_4
.Ltmp12:
	.loc	3 410 8                 @ ../Src/display.c:410:8
	cmp.w	r4, #336
.Ltmp13:
	.loc	3 406 35                @ ../Src/display.c:406:35
	mov	r6, r1
.Ltmp14:
	.loc	3 410 8                 @ ../Src/display.c:410:8
	it	gt
	addgt	r0, #8
	vldr	d8, [r0]
.Ltmp15:
	.loc	3 408 7                 @ ../Src/display.c:408:7
	mov	r0, r5
	vmov	r2, r3, d0
	bl	__aeabi_dcmplt
	vmov	r1, r2, d8
	cmp	r0, #0
	itt	ne
	movne	r6, r2
	movne	r5, r1
	.loc	3 414 64                @ ../Src/display.c:414:64
	mov	r0, r5
	mov	r1, r6
	bl	__aeabi_d2iz
	.loc	3 414 33 is_stmt 0      @ ../Src/display.c:414:33
	ldr	r1, __arm_cp.1_6
.Ltmp16:
	.loc	3 415 36 is_stmt 1      @ ../Src/display.c:415:36
	movw	r3, #65395
.Ltmp17:
	.loc	3 414 62                @ ../Src/display.c:414:62
	add.w	r2, r0, #140
	.loc	3 415 7                 @ ../Src/display.c:415:7
	cmp	r0, r3
	.loc	3 414 33                @ ../Src/display.c:414:33
	strh	r2, [r1, #6]
	.loc	3 415 7                 @ ../Src/display.c:415:7
	bls	.LBB1_6
@ %bb.5:
	.loc	3 0 7 is_stmt 0         @ ../Src/display.c:0:7
	movs	r0, #140
	b	.LBB1_8
.LBB1_6:
.Ltmp18:
	.loc	3 416 41 is_stmt 1      @ ../Src/display.c:416:41
	uxth	r0, r2
.Ltmp19:
	.loc	3 416 12 is_stmt 0      @ ../Src/display.c:416:12
	cmp.w	r0, #320
	bls	.LBB1_9
.Ltmp20:
@ %bb.7:
	.loc	3 0 12                  @ ../Src/display.c:0:12
	mov.w	r0, #320
.LBB1_8:
	strh	r0, [r1, #6]
.LBB1_9:
	.loc	3 417 4 is_stmt 1       @ ../Src/display.c:417:4
	ldr	r0, [r7, #28]
	orr	r0, r0, #512
	str	r0, [r7, #28]
.Ltmp21:
.LBB1_10:
	.loc	3 420 1                 @ ../Src/display.c:420:1
	vpop	{d8}
	add	sp, #4
	pop	{r4, r5, r6, r7, pc}
.Ltmp22:
	.p2align	3
@ %bb.11:
	.loc	3 0 1 is_stmt 0         @ ../Src/display.c:0:1
.LCPI1_1:
	.long	0                       @ double 139
	.long	1080123392
.LCPI1_2:
	.long	0                       @ double 336
	.long	1081409536
.LCPI1_3:
	.long	218353446               @ double 57.295777918682049
	.long	1078765020
.LCPI1_4:
	.long	0                       @ double 0
	.long	0
	.long	0                       @ double 180
	.long	1080459264
.LCPI1_5:
	.long	0                       @ double 0
	.long	0
__arm_cp.1_0:
	.long	.L_MergedGlobals
.Lcpi_end19:
	.size	__arm_cp.1_0, .Lcpi_end19-__arm_cp.1_0
__arm_cp.1_6:
	.long	Thermostat_1
.Lcpi_end20:
	.size	__arm_cp.1_6, .Lcpi_end20-__arm_cp.1_6
.Lfunc_end1:
	.size	PID_Hook, .Lfunc_end1-PID_Hook
	.cfi_endproc
	.cantunwind
	.fnend
                                        @ -- End function
	.section	.text.DISPLAY_DateTime,"ax",%progbits
	.p2align	2               @ -- Begin function DISPLAY_DateTime
	.type	DISPLAY_DateTime,%function
	.code	16                      @ @DISPLAY_DateTime
	.thumb_func
DISPLAY_DateTime:
.Lfunc_begin2:
	.loc	3 477 0 is_stmt 1       @ ../Src/display.c:477:0
	.fnstart
	.cfi_startproc
@ %bb.0:
	.save	{r4, r5, r6, r7, r8, lr}
	push.w	{r4, r5, r6, r7, r8, lr}
	.cfi_def_cfa_offset 24
	.cfi_offset lr, -4
	.cfi_offset r8, -8
	.cfi_offset r7, -12
	.cfi_offset r6, -16
	.cfi_offset r5, -20
	.cfi_offset r4, -24
.Ltmp23:
	.loc	3 480 2 prologue_end    @ ../Src/display.c:480:2
	ldr	r4, __arm_cp.2_0
	ldr.w	r8, __arm_cp.2_1
	movs	r2, #1
	mov	r0, r4
	mov	r1, r8
	bl	HAL_RTC_GetTime
	.loc	3 481 2                 @ ../Src/display.c:481:2
	ldr	r6, __arm_cp.2_2
	mov	r0, r4
	movs	r2, #1
	mov	r1, r6
	bl	HAL_RTC_GetDate
	.loc	3 482 2                 @ ../Src/display.c:482:2
	ldr	r4, __arm_cp.2_3
	movs	r1, #32
	add.w	r0, r4, #64
	bl	ClearBuffer
	.loc	3 483 2                 @ ../Src/display.c:483:2
	movs	r0, #1
	bl	GUI_SelectLayer
.Ltmp24:
	.loc	3 485 5                 @ ../Src/display.c:485:5
	ldrb	r0, [r4]
.Ltmp25:
	.loc	3 485 5 is_stmt 0       @ ../Src/display.c:485:5
	cmp	r0, #1
	bne.w	.LBB2_13
@ %bb.1:
.Ltmp26:
	.loc	3 487 3 is_stmt 1       @ ../Src/display.c:487:3
	movs	r0, #65
	movs	r1, #5
	movs	r2, #245
	movs	r3, #60
	bl	GUI_ClearRect
	.loc	3 488 3                 @ ../Src/display.c:488:3
	movs	r0, #5
	movs	r1, #230
	movs	r2, #245
	mov.w	r3, #270
	bl	GUI_ClearRect
	.loc	3 489 3                 @ ../Src/display.c:489:3
	ldr	r0, __arm_cp.2_4
	bl	GUI_SetFont
	.loc	3 490 3                 @ ../Src/display.c:490:3
	movw	r0, #65535
	bl	GUI_SetColor
	.loc	3 491 3                 @ ../Src/display.c:491:3
	movs	r0, #2
	bl	GUI_SetTextMode
	.loc	3 492 3                 @ ../Src/display.c:492:3
	movs	r0, #12
	bl	GUI_SetTextAlign
	ldrb	r0, [r6]
	.loc	3 494 3                 @ ../Src/display.c:494:3
	subs	r0, #1
	cmp	r0, #6
	bhi	.LBB2_5
@ %bb.2:
	.loc	3 0 3 is_stmt 0         @ ../Src/display.c:0:3
.LCPI2_12:
	tbb	[pc, r0]
@ %bb.3:
.LJTI2_0:
	.byte	(.LBB2_4-(.LCPI2_12+4))/2
	.byte	(.LBB2_7-(.LCPI2_12+4))/2
	.byte	(.LBB2_8-(.LCPI2_12+4))/2
	.byte	(.LBB2_9-(.LCPI2_12+4))/2
	.byte	(.LBB2_10-(.LCPI2_12+4))/2
	.byte	(.LBB2_11-(.LCPI2_12+4))/2
	.byte	(.LBB2_6-(.LCPI2_12+4))/2
	.p2align	1
.LBB2_4:
.Ltmp27:
	.loc	3 497 5 is_stmt 1       @ ../Src/display.c:497:5
	adr	r0, .LCPI2_11
	b	.LBB2_12
.LBB2_5:
	.loc	3 525 18                @ ../Src/display.c:525:18
	movs	r0, #7
	strb	r0, [r6]
.LBB2_6:
	.loc	3 0 18 is_stmt 0        @ ../Src/display.c:0:18
	ldr	r0, __arm_cp.2_5
	b	.LBB2_12
.LBB2_7:
	.loc	3 501 5 is_stmt 1       @ ../Src/display.c:501:5
	adr	r0, .LCPI2_10
	b	.LBB2_12
.LBB2_8:
	.loc	3 505 5                 @ ../Src/display.c:505:5
	adr	r0, .LCPI2_9
	b	.LBB2_12
.LBB2_9:
	.loc	3 509 5                 @ ../Src/display.c:509:5
	adr	r0, .LCPI2_8
	b	.LBB2_12
.LBB2_10:
	.loc	3 513 5                 @ ../Src/display.c:513:5
	adr	r0, .LCPI2_7
	b	.LBB2_12
.LBB2_11:
	.loc	3 517 5                 @ ../Src/display.c:517:5
	adr	r0, .LCPI2_6
.Ltmp28:
.LBB2_12:
	.loc	3 0 5 is_stmt 0         @ ../Src/display.c:0:5
	movs	r1, #5
	movs	r2, #240
	bl	GUI_DispStringAt
.Ltmp29:
	@DEBUG_VALUE: DISPLAY_DateTime:buff_bcnt <- 0
	.loc	3 531 39 is_stmt 1      @ ../Src/display.c:531:39
	ldrb	r1, [r6, #2]
	.loc	3 531 50 is_stmt 0      @ ../Src/display.c:531:50
	movs	r5, #48
	.loc	3 534 39 is_stmt 1      @ ../Src/display.c:534:39
	ldrb	r0, [r6, #1]
	movs	r7, #3
	.loc	3 539 39                @ ../Src/display.c:539:39
	ldrb	r2, [r6, #3]
	.loc	3 541 3                 @ ../Src/display.c:541:3
	ldr	r6, __arm_cp.2_4
	.loc	3 531 50                @ ../Src/display.c:531:50
	orr.w	r3, r5, r1, lsr #4
	.loc	3 532 52                @ ../Src/display.c:532:52
	bfi	r1, r7, #4, #28
.Ltmp30:
	@DEBUG_VALUE: DISPLAY_DateTime:buff_bcnt <- 1
	.loc	3 531 31                @ ../Src/display.c:531:31
	strb	r3, [r4, #64]!
.Ltmp31:
	@DEBUG_VALUE: DISPLAY_DateTime:buff_bcnt <- 2
	.loc	3 532 31                @ ../Src/display.c:532:31
	strb	r1, [r4, #1]
	.loc	3 533 31                @ ../Src/display.c:533:31
	movs	r1, #46
.Ltmp32:
	@DEBUG_VALUE: DISPLAY_DateTime:buff_bcnt <- 3
	strb	r1, [r4, #2]
	.loc	3 534 51                @ ../Src/display.c:534:51
	orr.w	r1, r5, r0, lsr #4
.Ltmp33:
	@DEBUG_VALUE: DISPLAY_DateTime:buff_bcnt <- 4
	.loc	3 535 53                @ ../Src/display.c:535:53
	bfi	r0, r7, #4, #28
.Ltmp34:
	@DEBUG_VALUE: DISPLAY_DateTime:buff_bcnt <- 5
	.loc	3 534 31                @ ../Src/display.c:534:31
	strb	r1, [r4, #3]
	.loc	3 535 31                @ ../Src/display.c:535:31
	strb	r0, [r4, #4]
	.loc	3 536 31                @ ../Src/display.c:536:31
	movw	r0, #12846
.Ltmp35:
	@DEBUG_VALUE: DISPLAY_DateTime:buff_bcnt <- 6
	strh.w	r0, [r4, #5]
.Ltmp36:
	@DEBUG_VALUE: DISPLAY_DateTime:buff_bcnt <- 8
	.loc	3 539 50                @ ../Src/display.c:539:50
	orr.w	r0, r5, r2, lsr #4
.Ltmp37:
	@DEBUG_VALUE: DISPLAY_DateTime:buff_bcnt <- 9
	.loc	3 538 31                @ ../Src/display.c:538:31
	strb	r5, [r4, #7]
	.loc	3 540 52                @ ../Src/display.c:540:52
	bfi	r2, r7, #4, #28
.Ltmp38:
	@DEBUG_VALUE: DISPLAY_DateTime:buff_bcnt <- [DW_OP_plus_uconst 1, DW_OP_stack_value] 9
	.loc	3 539 31                @ ../Src/display.c:539:31
	strb	r0, [r4, #8]
	.loc	3 541 3                 @ ../Src/display.c:541:3
	mov	r0, r6
	.loc	3 540 31                @ ../Src/display.c:540:31
	strb	r2, [r4, #9]
	.loc	3 541 3                 @ ../Src/display.c:541:3
	bl	GUI_SetFont
	.loc	3 542 3                 @ ../Src/display.c:542:3
	movw	r0, #65535
	bl	GUI_SetColor
	.loc	3 543 3                 @ ../Src/display.c:543:3
	movs	r0, #2
	bl	GUI_SetTextMode
	.loc	3 544 3                 @ ../Src/display.c:544:3
	movs	r0, #13
	bl	GUI_SetTextAlign
	.loc	3 545 3                 @ ../Src/display.c:545:3
	movs	r0, #220
	movs	r1, #240
	bl	GUI_GotoXY
	.loc	3 546 3                 @ ../Src/display.c:546:3
	mov	r0, r4
	bl	GUI_DispString
	.loc	3 547 3                 @ ../Src/display.c:547:3
	mov	r0, r4
	movs	r1, #32
	bl	ClearBuffer
	.loc	3 551 31                @ ../Src/display.c:551:31
	movs	r0, #58
.Ltmp39:
	@DEBUG_VALUE: DISPLAY_DateTime:buff_bcnt <- 3
	.loc	3 552 40                @ ../Src/display.c:552:40
	ldrb.w	r1, [r8, #1]
	.loc	3 551 31                @ ../Src/display.c:551:31
	strb	r0, [r4, #2]
.Ltmp40:
	@DEBUG_VALUE: DISPLAY_DateTime:buff_bcnt <- 0
	.loc	3 549 40                @ ../Src/display.c:549:40
	ldrb.w	r0, [r8]
	.loc	3 549 52 is_stmt 0      @ ../Src/display.c:549:52
	orr.w	r2, r5, r0, lsr #4
.Ltmp41:
	@DEBUG_VALUE: DISPLAY_DateTime:buff_bcnt <- 1
	.loc	3 550 54 is_stmt 1      @ ../Src/display.c:550:54
	bfi	r0, r7, #4, #28
.Ltmp42:
	@DEBUG_VALUE: DISPLAY_DateTime:buff_bcnt <- 2
	.loc	3 549 31                @ ../Src/display.c:549:31
	strb	r2, [r4]
	.loc	3 550 31                @ ../Src/display.c:550:31
	strb	r0, [r4, #1]
	.loc	3 552 54                @ ../Src/display.c:552:54
	orr.w	r0, r5, r1, lsr #4
.Ltmp43:
	@DEBUG_VALUE: DISPLAY_DateTime:buff_bcnt <- 4
	.loc	3 553 56                @ ../Src/display.c:553:56
	bfi	r1, r7, #4, #28
.Ltmp44:
	@DEBUG_VALUE: DISPLAY_DateTime:buff_bcnt <- [DW_OP_plus_uconst 1, DW_OP_stack_value] 4
	.loc	3 552 31                @ ../Src/display.c:552:31
	strb	r0, [r4, #3]
	.loc	3 554 3                 @ ../Src/display.c:554:3
	mov	r0, r6
	.loc	3 553 31                @ ../Src/display.c:553:31
	strb	r1, [r4, #4]
	.loc	3 554 3                 @ ../Src/display.c:554:3
	bl	GUI_SetFont
	.loc	3 555 3                 @ ../Src/display.c:555:3
	movw	r0, #65535
	bl	GUI_SetColor
	.loc	3 556 3                 @ ../Src/display.c:556:3
	movs	r0, #2
	bl	GUI_SetTextMode
	.loc	3 557 3                 @ ../Src/display.c:557:3
	movs	r0, #1
	bl	GUI_SetTextAlign
	.loc	3 558 3                 @ ../Src/display.c:558:3
	movs	r0, #220
	movs	r1, #20
	bl	GUI_GotoXY
	.loc	3 559 3                 @ ../Src/display.c:559:3
	mov	r0, r4
	bl	GUI_DispString
.Ltmp45:
.LBB2_13:
	.loc	3 562 2                 @ ../Src/display.c:562:2
	movs	r0, #0
	pop.w	{r4, r5, r6, r7, r8, lr}
	b	GUI_SelectLayer
.Ltmp46:
	.p2align	2
@ %bb.14:
	.loc	3 0 2 is_stmt 0         @ ../Src/display.c:0:2
__arm_cp.2_0:
	.long	hrtc
.Lcpi_end21:
	.size	__arm_cp.2_0, .Lcpi_end21-__arm_cp.2_0
__arm_cp.2_1:
	.long	time
.Lcpi_end22:
	.size	__arm_cp.2_1, .Lcpi_end22-__arm_cp.2_1
__arm_cp.2_2:
	.long	date
.Lcpi_end23:
	.size	__arm_cp.2_2, .Lcpi_end23-__arm_cp.2_2
__arm_cp.2_3:
	.long	.L_MergedGlobals
.Lcpi_end24:
	.size	__arm_cp.2_3, .Lcpi_end24-__arm_cp.2_3
__arm_cp.2_4:
	.long	GUI_Font32_1
.Lcpi_end25:
	.size	__arm_cp.2_4, .Lcpi_end25-__arm_cp.2_4
__arm_cp.2_5:
	.long	.L.str.13
.Lcpi_end26:
	.size	__arm_cp.2_5, .Lcpi_end26-__arm_cp.2_5
.LCPI2_6:
.L.str.12:
	.asciz	"SAT"
.LCPI2_7:
.L.str.11:
	.asciz	"FRI"
.LCPI2_8:
.L.str.10:
	.asciz	"THU"
.LCPI2_9:
.L.str.9:
	.asciz	"WED"
.LCPI2_10:
.L.str.8:
	.asciz	"TUE"
.LCPI2_11:
.L.str.7:
	.asciz	"MON"
.Lfunc_end2:
	.size	DISPLAY_DateTime, .Lfunc_end2-DISPLAY_DateTime
	.cfi_endproc
	.cantunwind
	.fnend
                                        @ -- End function
	.section	.text.DISPLAY_Knob,"ax",%progbits
	.p2align	2               @ -- Begin function DISPLAY_Knob
	.type	DISPLAY_Knob,%function
	.code	16                      @ @DISPLAY_Knob
	.thumb_func
DISPLAY_Knob:
.Lfunc_begin3:
	.loc	3 424 0 is_stmt 1       @ ../Src/display.c:424:0
	.fnstart
	.cfi_startproc
@ %bb.0:
	.loc	3 428 5 prologue_end    @ ../Src/display.c:428:5
	ldr	r0, __arm_cp.3_0
	ldrb	r0, [r0]
.Ltmp47:
	.loc	3 428 5 is_stmt 0       @ ../Src/display.c:428:5
	cmp	r0, #1
	.loc	3 449 1 is_stmt 1       @ ../Src/display.c:449:1
	it	ne
	bxne	lr
	.save	{r4, r5, r6, lr}
	push	{r4, r5, r6, lr}
	.cfi_def_cfa_offset 16
	.cfi_offset lr, -4
	.cfi_offset r6, -8
	.cfi_offset r5, -12
	.cfi_offset r4, -16
.Ltmp48:
	.loc	3 430 3                 @ ../Src/display.c:430:3
	movs	r0, #1
	bl	GUI_SelectLayer
	.loc	3 431 27                @ ../Src/display.c:431:27
	ldr	r4, __arm_cp.3_1
	.loc	3 431 43 is_stmt 0      @ ../Src/display.c:431:43
	movs	r5, #10
	.loc	3 432 5 is_stmt 1       @ ../Src/display.c:432:5
	movs	r1, #18
	.loc	3 431 27                @ ../Src/display.c:431:27
	ldrh	r0, [r4, #6]
	.loc	3 431 43 is_stmt 0      @ ../Src/display.c:431:43
	udiv	r0, r0, r5
	.loc	3 431 85                @ ../Src/display.c:431:85
	rsb	r0, r0, r0, lsl #8
	subw	r0, r0, #3570
	.loc	3 432 5 is_stmt 1       @ ../Src/display.c:432:5
	udiv	r0, r0, r1
.Ltmp49:
	@DEBUG_VALUE: DISPLAY_Knob:index <- $r0
	.loc	3 433 11                @ ../Src/display.c:433:11
	ldr	r1, __arm_cp.3_2
	ldr.w	r0, [r1, r0, lsl #2]
.Ltmp50:
	@DEBUG_VALUE: DISPLAY_Knob:color <- $r0
	.loc	3 434 3                 @ ../Src/display.c:434:3
	bl	GUI_SetColor
.Ltmp51:
	.loc	3 435 3                 @ ../Src/display.c:435:3
	mov.w	r0, #336
	movs	r1, #139
	movs	r2, #56
	bl	GUI_FillCircle
	.loc	3 436 3                 @ ../Src/display.c:436:3
	ldr	r0, __arm_cp.3_3
	bl	GUI_SetColor
	.loc	3 437 3                 @ ../Src/display.c:437:3
	movs	r0, #13
	bl	GUI_SetTextAlign
	.loc	3 438 3                 @ ../Src/display.c:438:3
	movs	r0, #2
	bl	GUI_SetTextMode
	.loc	3 439 3                 @ ../Src/display.c:439:3
	ldr	r6, __arm_cp.3_4
	movw	r0, #335
	movs	r1, #150
	blx	r6
	.loc	3 440 3                 @ ../Src/display.c:440:3
	ldr	r0, __arm_cp.3_5
	bl	GUI_SetFont
	.loc	3 441 34                @ ../Src/display.c:441:34
	ldrh	r0, [r4, #6]
	.loc	3 441 3 is_stmt 0       @ ../Src/display.c:441:3
	movs	r1, #2
	.loc	3 441 50                @ ../Src/display.c:441:50
	udiv	r0, r0, r5
	.loc	3 441 3                 @ ../Src/display.c:441:3
	bl	GUI_DispDecSpace
	.loc	3 442 3 is_stmt 1       @ ../Src/display.c:442:3
	ldr	r0, __arm_cp.3_6
	bl	GUI_DispString
	.loc	3 443 3                 @ ../Src/display.c:443:3
	mov.w	r0, #300
	movs	r1, #115
	blx	r6
	.loc	3 444 3                 @ ../Src/display.c:444:3
	ldr	r0, __arm_cp.3_7
	bl	GUI_SetFont
	.loc	3 445 3                 @ ../Src/display.c:445:3
	adr	r0, .LCPI3_8
	bl	GUI_DispString
	.loc	3 446 3                 @ ../Src/display.c:446:3
	mov.w	r0, #370
	movs	r1, #20
	blx	r6
	.loc	3 447 3                 @ ../Src/display.c:447:3
	movs	r0, #0
	pop.w	{r4, r5, r6, lr}
	b	GUI_SelectLayer
.Ltmp52:
	.p2align	2
@ %bb.1:
	.loc	3 0 3 is_stmt 0         @ ../Src/display.c:0:3
__arm_cp.3_0:
	.long	.L_MergedGlobals
.Lcpi_end27:
	.size	__arm_cp.3_0, .Lcpi_end27-__arm_cp.3_0
__arm_cp.3_1:
	.long	Thermostat_1
.Lcpi_end28:
	.size	__arm_cp.3_1, .Lcpi_end28-__arm_cp.3_1
__arm_cp.3_2:
	.long	_aGradient
.Lcpi_end29:
	.size	__arm_cp.3_2, .Lcpi_end29-__arm_cp.3_2
__arm_cp.3_3:
	.long	16777215                @ 0xffffff
.Lcpi_end30:
	.size	__arm_cp.3_3, .Lcpi_end30-__arm_cp.3_3
__arm_cp.3_4:
	.long	GUI_GotoXY
.Lcpi_end31:
	.size	__arm_cp.3_4, .Lcpi_end31-__arm_cp.3_4
__arm_cp.3_5:
	.long	GUI_Font32S_AA4
.Lcpi_end32:
	.size	__arm_cp.3_5, .Lcpi_end32-__arm_cp.3_5
__arm_cp.3_6:
	.long	.L.str.3
.Lcpi_end33:
	.size	__arm_cp.3_6, .Lcpi_end33-__arm_cp.3_6
__arm_cp.3_7:
	.long	GUI_Font32SL_AA4
.Lcpi_end34:
	.size	__arm_cp.3_7, .Lcpi_end34-__arm_cp.3_7
.LCPI3_8:
.L.str.4:
	.asciz	"Setup\000\000"
.Lfunc_end3:
	.size	DISPLAY_Knob, .Lfunc_end3-DISPLAY_Knob
	.cfi_endproc
	.cantunwind
	.fnend
                                        @ -- End function
	.section	.text.DISPLAY_Service,"ax",%progbits
	.hidden	DISPLAY_Service         @ -- Begin function DISPLAY_Service
	.globl	DISPLAY_Service
	.p2align	2
	.type	DISPLAY_Service,%function
	.code	16                      @ @DISPLAY_Service
	.thumb_func
DISPLAY_Service:
.Lfunc_begin4:
	.loc	3 199 0 is_stmt 1       @ ../Src/display.c:199:0
	.fnstart
	.cfi_startproc
@ %bb.0:
	.save	{r4, r5, r6, r7, r8, lr}
	.pad	#8
	push.w	{r2, r3, r4, r5, r6, r7, r8, lr}
	.cfi_def_cfa_offset 32
	.cfi_offset lr, -4
	.cfi_offset r8, -8
	.cfi_offset r7, -12
	.cfi_offset r6, -16
	.cfi_offset r5, -20
	.cfi_offset r4, -24
.Ltmp53:
	.loc	3 206 5 prologue_end    @ ../Src/display.c:206:5
	ldr.w	r6, __arm_cp.4_0
	ldr	r0, [r6, #20]
.Ltmp54:
	.loc	3 206 5 is_stmt 0       @ ../Src/display.c:206:5
	cmp	r0, #0
	bne.w	.LBB4_43
@ %bb.1:
.Ltmp55:
	.loc	3 208 3 is_stmt 1       @ ../Src/display.c:208:3
	movs	r0, #33
	str	r0, [r6, #20]
	.loc	3 209 3                 @ ../Src/display.c:209:3
	bl	GUI_Exec
.Ltmp56:
	.loc	3 216 5                 @ ../Src/display.c:216:5
	ldr	r0, [r6, #24]
.Ltmp57:
	.loc	3 216 5 is_stmt 0       @ ../Src/display.c:216:5
	cbnz	r0, .LBB4_3
@ %bb.2:
.Ltmp58:
	.loc	3 218 3 is_stmt 1       @ ../Src/display.c:218:3
	movw	r0, #60000
	str	r0, [r6, #24]
	.loc	3 219 3                 @ ../Src/display.c:219:3
	movs	r0, #1
	bl	GUI_MULTIBUF_BeginEx
	.loc	3 220 3                 @ ../Src/display.c:220:3
	bl	DISPLAY_DateTime
	.loc	3 221 3                 @ ../Src/display.c:221:3
	movs	r0, #1
	bl	GUI_MULTIBUF_EndEx
.Ltmp59:
.LBB4_3:
	.loc	3 224 5                 @ ../Src/display.c:224:5
	ldr	r0, [r6, #28]
.Ltmp60:
	.loc	3 224 5 is_stmt 0       @ ../Src/display.c:224:5
	tst.w	r0, #4
	beq	.LBB4_9
@ %bb.4:
.Ltmp61:
	.loc	3 226 3 is_stmt 1       @ ../Src/display.c:226:3
	bic	r0, r0, #4
	str	r0, [r6, #28]
	.loc	3 227 3                 @ ../Src/display.c:227:3
	movs	r0, #1
	bl	GUI_MULTIBUF_BeginEx
.Ltmp62:
	.loc	3 453 5                 @ ../Src/display.c:453:5
	ldrb	r0, [r6]
.Ltmp63:
	.loc	3 453 5 is_stmt 0       @ ../Src/display.c:453:5
	cmp	r0, #1
	bne	.LBB4_8
@ %bb.5:
.Ltmp64:
	.loc	3 455 3 is_stmt 1       @ ../Src/display.c:455:3
	movs	r0, #1
	bl	GUI_SelectLayer
	.loc	3 456 3                 @ ../Src/display.c:456:3
	mov.w	r0, #-16777216
	bl	GUI_SetBkColor
	.loc	3 457 3                 @ ../Src/display.c:457:3
	mov.w	r0, #320
	movs	r1, #5
	mov.w	r2, #480
	movs	r3, #40
	bl	GUI_ClearRect
	.loc	3 458 3                 @ ../Src/display.c:458:3
	mov.w	r0, #370
	movs	r1, #20
	bl	GUI_GotoXY
	.loc	3 459 3                 @ ../Src/display.c:459:3
	ldr.w	r0, __arm_cp.4_1
	bl	GUI_SetFont
	.loc	3 460 3                 @ ../Src/display.c:460:3
	movw	r0, #65535
	bl	GUI_SetColor
	.loc	3 461 3                 @ ../Src/display.c:461:3
	movs	r0, #2
	bl	GUI_SetTextMode
	.loc	3 462 3                 @ ../Src/display.c:462:3
	movs	r0, #13
	bl	GUI_SetTextAlign
	.loc	3 463 3                 @ ../Src/display.c:463:3
	adr.w	r0, .LCPI4_2
	bl	GUI_DispString
	.loc	3 464 3                 @ ../Src/display.c:464:3
	mov.w	r0, #400
	movs	r1, #20
	bl	GUI_GotoXY
	.loc	3 465 3                 @ ../Src/display.c:465:3
	ldr.w	r0, __arm_cp.4_3
	bl	GUI_SetFont
	.loc	3 466 3                 @ ../Src/display.c:466:3
	movw	r0, #65535
	bl	GUI_SetColor
	.loc	3 467 3                 @ ../Src/display.c:467:3
	movs	r0, #2
	bl	GUI_SetTextMode
	.loc	3 468 3                 @ ../Src/display.c:468:3
	movs	r0, #12
	bl	GUI_SetTextAlign
.Ltmp65:
	.loc	3 469 19                @ ../Src/display.c:469:19
	ldr.w	r4, __arm_cp.4_4
	ldrsh.w	r0, [r4, #4]
.Ltmp66:
	.loc	3 469 6 is_stmt 0       @ ../Src/display.c:469:6
	cmp.w	r0, #-1
	bgt	.LBB4_7
@ %bb.6:
.Ltmp67:
	.loc	3 469 48                @ ../Src/display.c:469:48
	adr.w	r0, .LCPI4_5
	bl	GUI_DispString
.Ltmp68:
	.loc	3 470 35 is_stmt 1      @ ../Src/display.c:470:35
	ldrh	r0, [r4, #4]
.LBB4_7:
	.loc	3 470 54 is_stmt 0      @ ../Src/display.c:470:54
	bfc	r0, #12, #20
	.loc	3 470 64                @ ../Src/display.c:470:64
	movs	r1, #10
	udiv	r0, r0, r1
	.loc	3 470 3                 @ ../Src/display.c:470:3
	movs	r1, #2
	bl	GUI_DispDecSpace
	.loc	3 471 3 is_stmt 1       @ ../Src/display.c:471:3
	ldr.w	r0, __arm_cp.4_6
	bl	GUI_DispString
	.loc	3 472 3                 @ ../Src/display.c:472:3
	movs	r0, #0
	bl	GUI_SelectLayer
.Ltmp69:
.LBB4_8:
	.loc	3 229 3                 @ ../Src/display.c:229:3
	movs	r0, #1
	bl	GUI_MULTIBUF_EndEx
.Ltmp70:
	.loc	3 232 5                 @ ../Src/display.c:232:5
	ldr	r0, [r6, #28]
.Ltmp71:
.LBB4_9:
	.loc	3 232 5 is_stmt 0       @ ../Src/display.c:232:5
	lsls	r1, r0, #22
	bpl	.LBB4_11
@ %bb.10:
.Ltmp72:
	.loc	3 234 3 is_stmt 1       @ ../Src/display.c:234:3
	bic	r0, r0, #512
	str	r0, [r6, #28]
	.loc	3 235 3                 @ ../Src/display.c:235:3
	movs	r0, #1
	bl	GUI_MULTIBUF_BeginEx
	.loc	3 236 3                 @ ../Src/display.c:236:3
	bl	DISPLAY_Knob
	.loc	3 237 3                 @ ../Src/display.c:237:3
	movs	r0, #1
	bl	GUI_MULTIBUF_EndEx
.Ltmp73:
	.loc	3 240 5                 @ ../Src/display.c:240:5
	ldr	r0, [r6, #28]
.LBB4_11:
	.loc	3 240 24 is_stmt 0      @ ../Src/display.c:240:24
	and	r1, r0, #25
	cmp	r1, #1
	bne	.LBB4_13
@ %bb.12:
.Ltmp74:
	.loc	3 242 3 is_stmt 1       @ ../Src/display.c:242:3
	orr	r0, r0, #8
	str	r0, [r6, #28]
	.loc	3 243 3                 @ ../Src/display.c:243:3
	movs	r0, #1
	bl	GUI_SelectLayer
	.loc	3 244 3                 @ ../Src/display.c:244:3
	movs	r0, #1
	bl	GUI_MULTIBUF_BeginEx
	.loc	3 245 3                 @ ../Src/display.c:245:3
	mov.w	r0, #16711680
	bl	GUI_SetColor
	.loc	3 246 3                 @ ../Src/display.c:246:3
	mov.w	r0, #336
	movs	r1, #139
	movs	r2, #56
	bl	GUI_FillCircle
	.loc	3 247 21                @ ../Src/display.c:247:21
	movs	r0, #9
	movs	r1, #0
	movs	r2, #85
	movs	r3, #100
	strd	r1, r0, [sp]
	ldr.w	r0, __arm_cp.4_7
	movw	r1, #275
	adds	r0, #4
	bl	GUI_SPRITE_CreateAnim
	.loc	3 247 19 is_stmt 0      @ ../Src/display.c:247:19
	str	r0, [r6, #32]
	.loc	3 248 3 is_stmt 1       @ ../Src/display.c:248:3
	movw	r0, #4321
	str	r0, [r6, #36]
	.loc	3 249 3                 @ ../Src/display.c:249:3
	movs	r0, #1
	bl	GUI_MULTIBUF_EndEx
	.loc	3 250 3                 @ ../Src/display.c:250:3
	movs	r0, #0
	bl	GUI_SelectLayer
	b	.LBB4_14
.Ltmp75:
.LBB4_13:
	.loc	3 252 30                @ ../Src/display.c:252:30
	and	r0, r0, #9
	cmp	r0, #8
	.loc	3 252 74 is_stmt 0      @ ../Src/display.c:252:74
	itt	eq
	ldreq	r0, [r6, #36]
.Ltmp76:
	.loc	3 252 10                @ ../Src/display.c:252:10
	cmpeq	r0, #0
	beq	.LBB4_24
.Ltmp77:
.LBB4_14:
	.loc	3 264 5 is_stmt 1       @ ../Src/display.c:264:5
	ldrb	r0, [r6]
.Ltmp78:
	.loc	3 264 5 is_stmt 0       @ ../Src/display.c:264:5
	cmp	r0, #1
	bne.w	.LBB4_43
@ %bb.15:
.Ltmp79:
	.loc	3 266 23 is_stmt 1      @ ../Src/display.c:266:23
	ldr	r0, [r6, #8]
	.loc	3 266 6 is_stmt 0       @ ../Src/display.c:266:6
	bl	BUTTON_IsPressed
	.loc	3 266 36                @ ../Src/display.c:266:36
	cmp	r0, #0
	beq	.LBB4_21
@ %bb.16:
	ldrb	r0, [r6, #1]
	cmp	r0, #0
	bne	.LBB4_21
@ %bb.17:
	.loc	3 0 36                  @ ../Src/display.c:0:36
	movs	r0, #1
.Ltmp80:
	.loc	3 268 22 is_stmt 1      @ ../Src/display.c:268:22
	strb	r0, [r6, #1]
.Ltmp81:
	.loc	3 270 7                 @ ../Src/display.c:270:7
	ldrb	r0, [r6, #2]
.Ltmp82:
	.loc	3 270 7 is_stmt 0       @ ../Src/display.c:270:7
	cmp	r0, #1
	beq	.LBB4_25
@ %bb.18:
	cmp	r0, #0
	bne.w	.LBB4_26
@ %bb.19:
	.loc	3 0 7                   @ ../Src/display.c:0:7
	movs	r0, #1
.Ltmp83:
	.loc	3 272 19 is_stmt 1      @ ../Src/display.c:272:19
	strb	r0, [r6, #2]
	.loc	3 273 5                 @ ../Src/display.c:273:5
	movs	r0, #1
	bl	GUI_SelectLayer
	.loc	3 274 5                 @ ../Src/display.c:274:5
	movs	r0, #1
	bl	GUI_MULTIBUF_BeginEx
	.loc	3 275 5                 @ ../Src/display.c:275:5
	ldr	r0, __arm_cp.4_8
	ldr	r7, __arm_cp.4_9
	mov	r8, r0
	blx	r7
	.loc	3 276 5                 @ ../Src/display.c:276:5
	add.w	r4, r6, #40
	mov	r0, r4
	bl	GUI_FillRectEx
	.loc	3 277 5                 @ ../Src/display.c:277:5
	movs	r0, #255
	blx	r7
	.loc	3 278 28                @ ../Src/display.c:278:28
	ldrsh.w	r0, [r6, #40]
	.loc	3 278 42 is_stmt 0      @ ../Src/display.c:278:42
	ldrsh.w	r1, [r6, #42]
	.loc	3 278 56                @ ../Src/display.c:278:56
	ldrsh.w	r2, [r6, #44]
	.loc	3 278 70                @ ../Src/display.c:278:70
	ldrsh.w	r3, [r6, #46]
	.loc	3 278 5                 @ ../Src/display.c:278:5
	movs	r5, #8
	str	r5, [sp]
	.loc	3 278 37                @ ../Src/display.c:278:37
	adds	r0, #1
	.loc	3 278 51                @ ../Src/display.c:278:51
	adds	r1, #1
	.loc	3 278 65                @ ../Src/display.c:278:65
	subs	r2, #1
	.loc	3 278 79                @ ../Src/display.c:278:79
	subs	r3, #1
	.loc	3 278 5                 @ ../Src/display.c:278:5
	bl	GUI_AA_FillRoundedRect
	.loc	3 279 14 is_stmt 1      @ ../Src/display.c:279:14
	ldrh	r0, [r6, #40]
	adds	r0, #5
	strh	r0, [r6, #40]
	.loc	3 280 5                 @ ../Src/display.c:280:5
	ldr	r0, __arm_cp.4_13
	bl	GUI_SetFont
	.loc	3 281 5                 @ ../Src/display.c:281:5
	movs	r0, #2
	bl	GUI_SetTextMode
	.loc	3 282 5                 @ ../Src/display.c:282:5
	mov	r0, r8
	blx	r7
	.loc	3 283 5                 @ ../Src/display.c:283:5
	ldr	r0, __arm_cp.4_12
	mov	r1, r4
	movs	r2, #14
	bl	GUI_DispStringInRect
	.loc	3 284 14                @ ../Src/display.c:284:14
	ldrh	r0, [r6, #40]
	subs	r0, #5
	strh	r0, [r6, #40]
	.loc	3 285 5                 @ ../Src/display.c:285:5
	movs	r0, #1
	bl	GUI_MULTIBUF_EndEx
	.loc	3 286 5                 @ ../Src/display.c:286:5
	movs	r0, #0
	bl	GUI_SelectLayer
	.loc	3 287 5                 @ ../Src/display.c:287:5
	ldr	r0, [r6, #28]
	orr	r1, r0, #16
	.loc	3 288 8                 @ ../Src/display.c:288:8
	tst.w	r0, #64
	.loc	3 287 5                 @ ../Src/display.c:287:5
	str	r1, [r6, #28]
	.loc	3 288 8                 @ ../Src/display.c:288:8
	beq	.LBB4_26
@ %bb.20:
.Ltmp84:
	.loc	3 288 52 is_stmt 0      @ ../Src/display.c:288:52
	ldr	r0, [r6, #16]
	.loc	3 288 34                @ ../Src/display.c:288:34
	movs	r1, #1
	bl	BUTTON_SetPressed
	b	.LBB4_26
.Ltmp85:
.LBB4_21:
	.loc	3 311 29 is_stmt 1      @ ../Src/display.c:311:29
	ldr	r0, [r6, #8]
	.loc	3 311 12 is_stmt 0      @ ../Src/display.c:311:12
	bl	BUTTON_IsPressed
	.loc	3 311 42                @ ../Src/display.c:311:42
	cmp	r0, #0
	bne	.LBB4_26
@ %bb.22:
	ldrb	r0, [r6, #1]
	cmp	r0, #0
	beq	.LBB4_26
@ %bb.23:
	.loc	3 311 82                @ ../Src/display.c:311:82
	movs	r0, #0
	strb	r0, [r6, #1]
	b	.LBB4_26
.Ltmp86:
.LBB4_24:
	.loc	3 254 3 is_stmt 1       @ ../Src/display.c:254:3
	movs	r0, #1
	bl	GUI_MULTIBUF_BeginEx
	.loc	3 255 3                 @ ../Src/display.c:255:3
	ldrd	r1, r0, [r6, #28]
	bic	r1, r1, #8
	str	r1, [r6, #28]
	.loc	3 256 3                 @ ../Src/display.c:256:3
	bl	GUI_SPRITE_StopAnim
	.loc	3 257 21                @ ../Src/display.c:257:21
	ldr	r0, [r6, #32]
	.loc	3 257 3 is_stmt 0       @ ../Src/display.c:257:3
	bl	GUI_SPRITE_Delete
	.loc	3 258 3 is_stmt 1       @ ../Src/display.c:258:3
	bl	DISPLAY_Knob
	.loc	3 259 3                 @ ../Src/display.c:259:3
	movs	r0, #1
	bl	GUI_MULTIBUF_EndEx
	b	.LBB4_14
.Ltmp87:
.LBB4_25:
	.loc	3 0 3 is_stmt 0         @ ../Src/display.c:0:3
	movs	r0, #0
.Ltmp88:
	.loc	3 292 19 is_stmt 1      @ ../Src/display.c:292:19
	strb	r0, [r6, #2]
	.loc	3 293 5                 @ ../Src/display.c:293:5
	movs	r0, #1
	bl	GUI_SelectLayer
	.loc	3 294 5                 @ ../Src/display.c:294:5
	movs	r0, #1
	bl	GUI_MULTIBUF_BeginEx
	.loc	3 295 5                 @ ../Src/display.c:295:5
	ldr	r0, __arm_cp.4_8
	ldr	r5, __arm_cp.4_9
	blx	r5
	.loc	3 296 5                 @ ../Src/display.c:296:5
	add.w	r4, r6, #40
	mov	r0, r4
	bl	GUI_FillRectEx
	ldr	r0, __arm_cp.4_10
	.loc	3 297 5                 @ ../Src/display.c:297:5
	blx	r5
	.loc	3 298 28                @ ../Src/display.c:298:28
	ldrsh.w	r0, [r6, #40]
	.loc	3 298 42 is_stmt 0      @ ../Src/display.c:298:42
	ldrsh.w	r1, [r6, #42]
	.loc	3 298 56                @ ../Src/display.c:298:56
	ldrsh.w	r2, [r6, #44]
	.loc	3 298 70                @ ../Src/display.c:298:70
	ldrsh.w	r3, [r6, #46]
	.loc	3 298 5                 @ ../Src/display.c:298:5
	movs	r7, #8
	str	r7, [sp]
	.loc	3 298 37                @ ../Src/display.c:298:37
	adds	r0, #1
	.loc	3 298 51                @ ../Src/display.c:298:51
	adds	r1, #1
	.loc	3 298 65                @ ../Src/display.c:298:65
	subs	r2, #1
	.loc	3 298 79                @ ../Src/display.c:298:79
	subs	r3, #1
	.loc	3 298 5                 @ ../Src/display.c:298:5
	bl	GUI_AA_FillRoundedRect
	.loc	3 299 14 is_stmt 1      @ ../Src/display.c:299:14
	ldrh	r0, [r6, #40]
	adds	r0, #5
	strh	r0, [r6, #40]
	.loc	3 300 5                 @ ../Src/display.c:300:5
	ldr	r0, __arm_cp.4_11
	bl	GUI_SetFont
	.loc	3 301 5                 @ ../Src/display.c:301:5
	movs	r0, #2
	bl	GUI_SetTextMode
	.loc	3 302 5                 @ ../Src/display.c:302:5
	movw	r0, #54995
	blx	r5
	.loc	3 303 5                 @ ../Src/display.c:303:5
	ldr	r0, __arm_cp.4_12
	mov	r1, r4
	movs	r2, #14
	bl	GUI_DispStringInRect
	.loc	3 304 14                @ ../Src/display.c:304:14
	ldrh	r0, [r6, #40]
	subs	r0, #5
	strh	r0, [r6, #40]
	.loc	3 305 5                 @ ../Src/display.c:305:5
	movs	r0, #1
	bl	GUI_MULTIBUF_EndEx
	.loc	3 306 5                 @ ../Src/display.c:306:5
	movs	r0, #0
	bl	GUI_SelectLayer
	.loc	3 307 5                 @ ../Src/display.c:307:5
	ldr	r0, [r6, #28]
	bic	r0, r0, #16
	str	r0, [r6, #28]
.Ltmp89:
.LBB4_26:
	.loc	3 313 23                @ ../Src/display.c:313:23
	ldr	r0, [r6, #12]
	.loc	3 313 6 is_stmt 0       @ ../Src/display.c:313:6
	bl	BUTTON_IsPressed
	.loc	3 313 36                @ ../Src/display.c:313:36
	cmp	r0, #0
	beq	.LBB4_31
@ %bb.27:
	ldrb	r0, [r6, #3]
	cmp	r0, #0
	bne	.LBB4_31
.Ltmp90:
@ %bb.28:
	.loc	3 313 6                 @ ../Src/display.c:313:6
	ldrb	r0, [r6, #28]
	lsls	r0, r0, #26
	bpl	.LBB4_31
@ %bb.29:
	.loc	3 0 6                   @ ../Src/display.c:0:6
	movs	r0, #1
.Ltmp91:
	.loc	3 315 22 is_stmt 1      @ ../Src/display.c:315:22
	strb	r0, [r6, #3]
.Ltmp92:
	.loc	3 317 7                 @ ../Src/display.c:317:7
	ldrb	r0, [r6, #4]
.Ltmp93:
	.loc	3 317 7 is_stmt 0       @ ../Src/display.c:317:7
	cmp	r0, #1
	bne	.LBB4_31
@ %bb.30:
	.loc	3 0 7                   @ ../Src/display.c:0:7
	movs	r0, #0
.Ltmp94:
	.loc	3 319 19 is_stmt 1      @ ../Src/display.c:319:19
	strb	r0, [r6, #4]
	.loc	3 320 5                 @ ../Src/display.c:320:5
	movs	r0, #1
	bl	GUI_SelectLayer
	.loc	3 321 5                 @ ../Src/display.c:321:5
	movs	r0, #1
	bl	GUI_MULTIBUF_BeginEx
	.loc	3 322 5                 @ ../Src/display.c:322:5
	ldr	r0, __arm_cp.4_8
	ldr	r5, __arm_cp.4_9
	blx	r5
	.loc	3 323 5                 @ ../Src/display.c:323:5
	add.w	r4, r6, #48
	mov	r0, r4
	bl	GUI_FillRectEx
	ldr	r0, __arm_cp.4_10
	.loc	3 324 5                 @ ../Src/display.c:324:5
	blx	r5
	.loc	3 325 28                @ ../Src/display.c:325:28
	ldrsh.w	r0, [r6, #48]
	.loc	3 325 42 is_stmt 0      @ ../Src/display.c:325:42
	ldrsh.w	r1, [r6, #50]
	.loc	3 325 56                @ ../Src/display.c:325:56
	ldrsh.w	r2, [r6, #52]
	.loc	3 325 70                @ ../Src/display.c:325:70
	ldrsh.w	r3, [r6, #54]
	.loc	3 325 5                 @ ../Src/display.c:325:5
	movs	r7, #8
	str	r7, [sp]
	.loc	3 325 37                @ ../Src/display.c:325:37
	adds	r0, #1
	.loc	3 325 51                @ ../Src/display.c:325:51
	adds	r1, #1
	.loc	3 325 65                @ ../Src/display.c:325:65
	subs	r2, #1
	.loc	3 325 79                @ ../Src/display.c:325:79
	subs	r3, #1
	.loc	3 325 5                 @ ../Src/display.c:325:5
	bl	GUI_AA_FillRoundedRect
	.loc	3 326 14 is_stmt 1      @ ../Src/display.c:326:14
	ldrh	r0, [r6, #48]
	adds	r0, #5
	strh	r0, [r6, #48]
	.loc	3 327 5                 @ ../Src/display.c:327:5
	ldr	r0, __arm_cp.4_11
	bl	GUI_SetFont
	.loc	3 328 5                 @ ../Src/display.c:328:5
	movs	r0, #2
	bl	GUI_SetTextMode
	.loc	3 329 5                 @ ../Src/display.c:329:5
	movw	r0, #54995
	blx	r5
	.loc	3 330 5                 @ ../Src/display.c:330:5
	ldr	r0, __arm_cp.4_14
	mov	r1, r4
	movs	r2, #14
	bl	GUI_DispStringInRect
	.loc	3 331 14                @ ../Src/display.c:331:14
	ldrh	r0, [r6, #48]
	subs	r0, #5
	strh	r0, [r6, #48]
	.loc	3 332 5                 @ ../Src/display.c:332:5
	movs	r0, #1
	bl	GUI_MULTIBUF_EndEx
	.loc	3 333 5                 @ ../Src/display.c:333:5
	movs	r0, #0
	bl	GUI_SelectLayer
	.loc	3 334 5                 @ ../Src/display.c:334:5
	ldr	r0, [r6, #28]
	bic	r0, r0, #32
	str	r0, [r6, #28]
.Ltmp95:
.LBB4_31:
	.loc	3 337 24                @ ../Src/display.c:337:24
	ldr	r0, [r6, #12]
	.loc	3 337 7 is_stmt 0       @ ../Src/display.c:337:7
	bl	BUTTON_IsPressed
	.loc	3 337 37                @ ../Src/display.c:337:37
	cbnz	r0, .LBB4_34
@ %bb.32:
	ldrb	r0, [r6, #3]
	cbz	r0, .LBB4_34
@ %bb.33:
	.loc	3 337 77                @ ../Src/display.c:337:77
	movs	r0, #0
	strb	r0, [r6, #3]
.Ltmp96:
.LBB4_34:
	.loc	3 339 23 is_stmt 1      @ ../Src/display.c:339:23
	ldr	r0, [r6, #16]
	.loc	3 339 6 is_stmt 0       @ ../Src/display.c:339:6
	bl	BUTTON_IsPressed
	.loc	3 339 37                @ ../Src/display.c:339:37
	cmp	r0, #0
	beq	.LBB4_40
@ %bb.35:
	ldrb	r0, [r6, #5]
	cmp	r0, #0
	bne	.LBB4_40
@ %bb.36:
	.loc	3 0 37                  @ ../Src/display.c:0:37
	movs	r0, #1
.Ltmp97:
	.loc	3 341 23 is_stmt 1      @ ../Src/display.c:341:23
	strb	r0, [r6, #5]
.Ltmp98:
	.loc	3 343 7                 @ ../Src/display.c:343:7
	ldrb	r0, [r6, #6]
.Ltmp99:
	.loc	3 343 7 is_stmt 0       @ ../Src/display.c:343:7
	cmp	r0, #1
	beq	.LBB4_44
@ %bb.37:
	cmp	r0, #0
	bne	.LBB4_43
@ %bb.38:
	.loc	3 0 7                   @ ../Src/display.c:0:7
	movs	r0, #1
.Ltmp100:
	.loc	3 345 20 is_stmt 1      @ ../Src/display.c:345:20
	strb	r0, [r6, #6]
	.loc	3 346 5                 @ ../Src/display.c:346:5
	movs	r0, #1
	bl	GUI_SelectLayer
	.loc	3 347 5                 @ ../Src/display.c:347:5
	movs	r0, #1
	bl	GUI_MULTIBUF_BeginEx
	.loc	3 348 5                 @ ../Src/display.c:348:5
	ldr	r0, __arm_cp.4_8
	ldr	r7, __arm_cp.4_9
	mov	r8, r0
	blx	r7
	.loc	3 349 5                 @ ../Src/display.c:349:5
	add.w	r4, r6, #56
	mov	r0, r4
	bl	GUI_FillRectEx
	.loc	3 350 5                 @ ../Src/display.c:350:5
	mov.w	r0, #65280
	blx	r7
	.loc	3 351 28                @ ../Src/display.c:351:28
	ldrsh.w	r0, [r6, #56]
	.loc	3 351 42 is_stmt 0      @ ../Src/display.c:351:42
	ldrsh.w	r1, [r6, #58]
	.loc	3 351 56                @ ../Src/display.c:351:56
	ldrsh.w	r2, [r6, #60]
	.loc	3 351 70                @ ../Src/display.c:351:70
	ldrsh.w	r3, [r6, #62]
	.loc	3 351 5                 @ ../Src/display.c:351:5
	movs	r5, #8
	str	r5, [sp]
	.loc	3 351 37                @ ../Src/display.c:351:37
	adds	r0, #1
	.loc	3 351 51                @ ../Src/display.c:351:51
	adds	r1, #1
	.loc	3 351 65                @ ../Src/display.c:351:65
	subs	r2, #1
	.loc	3 351 79                @ ../Src/display.c:351:79
	subs	r3, #1
	.loc	3 351 5                 @ ../Src/display.c:351:5
	bl	GUI_AA_FillRoundedRect
	.loc	3 352 14 is_stmt 1      @ ../Src/display.c:352:14
	ldrh	r0, [r6, #56]
	adds	r0, #5
	strh	r0, [r6, #56]
	.loc	3 353 5                 @ ../Src/display.c:353:5
	ldr	r0, __arm_cp.4_13
	bl	GUI_SetFont
	.loc	3 354 5                 @ ../Src/display.c:354:5
	movs	r0, #2
	bl	GUI_SetTextMode
	.loc	3 355 5                 @ ../Src/display.c:355:5
	mov	r0, r8
	blx	r7
	.loc	3 356 5                 @ ../Src/display.c:356:5
	ldr	r0, __arm_cp.4_15
	mov	r1, r4
	movs	r2, #14
	bl	GUI_DispStringInRect
	.loc	3 357 14                @ ../Src/display.c:357:14
	ldrh	r0, [r6, #56]
	subs	r0, #5
	strh	r0, [r6, #56]
	.loc	3 358 5                 @ ../Src/display.c:358:5
	movs	r0, #1
	bl	GUI_MULTIBUF_EndEx
	.loc	3 359 5                 @ ../Src/display.c:359:5
	movs	r0, #0
	bl	GUI_SelectLayer
	.loc	3 360 5                 @ ../Src/display.c:360:5
	ldr	r0, [r6, #28]
	orr	r1, r0, #64
	.loc	3 361 8                 @ ../Src/display.c:361:8
	tst.w	r0, #16
	.loc	3 360 5                 @ ../Src/display.c:360:5
	str	r1, [r6, #28]
	.loc	3 361 8                 @ ../Src/display.c:361:8
	beq	.LBB4_43
@ %bb.39:
.Ltmp101:
	.loc	3 361 47 is_stmt 0      @ ../Src/display.c:361:47
	ldr	r0, [r6, #8]
	.loc	3 361 29                @ ../Src/display.c:361:29
	movs	r1, #1
	pop.w	{r2, r3, r4, r5, r6, r7, r8, lr}
	b	BUTTON_SetPressed
.Ltmp102:
.LBB4_40:
	.loc	3 383 29 is_stmt 1      @ ../Src/display.c:383:29
	ldr	r0, [r6, #16]
	.loc	3 383 12 is_stmt 0      @ ../Src/display.c:383:12
	bl	BUTTON_IsPressed
	.loc	3 383 43                @ ../Src/display.c:383:43
	cbnz	r0, .LBB4_43
@ %bb.41:
	ldrb	r0, [r6, #5]
	cbz	r0, .LBB4_43
@ %bb.42:
	.loc	3 383 85                @ ../Src/display.c:383:85
	movs	r0, #0
	strb	r0, [r6, #5]
.Ltmp103:
.LBB4_43:
	.loc	3 385 1 is_stmt 1       @ ../Src/display.c:385:1
	pop.w	{r2, r3, r4, r5, r6, r7, r8, pc}
.LBB4_44:
	.loc	3 0 1 is_stmt 0         @ ../Src/display.c:0:1
	movs	r0, #0
.Ltmp104:
	.loc	3 365 20 is_stmt 1      @ ../Src/display.c:365:20
	strb	r0, [r6, #6]
	.loc	3 366 5                 @ ../Src/display.c:366:5
	movs	r0, #1
	bl	GUI_SelectLayer
	.loc	3 367 5                 @ ../Src/display.c:367:5
	movs	r0, #1
	bl	GUI_MULTIBUF_BeginEx
	.loc	3 368 5                 @ ../Src/display.c:368:5
	ldr	r0, __arm_cp.4_8
	ldr	r5, __arm_cp.4_9
	blx	r5
	.loc	3 369 5                 @ ../Src/display.c:369:5
	add.w	r4, r6, #56
	mov	r0, r4
	bl	GUI_FillRectEx
	ldr	r0, __arm_cp.4_10
	.loc	3 370 5                 @ ../Src/display.c:370:5
	blx	r5
	.loc	3 371 28                @ ../Src/display.c:371:28
	ldrsh.w	r0, [r6, #56]
	.loc	3 371 42 is_stmt 0      @ ../Src/display.c:371:42
	ldrsh.w	r1, [r6, #58]
	.loc	3 371 56                @ ../Src/display.c:371:56
	ldrsh.w	r2, [r6, #60]
	.loc	3 371 70                @ ../Src/display.c:371:70
	ldrsh.w	r3, [r6, #62]
	.loc	3 371 5                 @ ../Src/display.c:371:5
	movs	r7, #8
	str	r7, [sp]
	.loc	3 371 37                @ ../Src/display.c:371:37
	adds	r0, #1
	.loc	3 371 51                @ ../Src/display.c:371:51
	adds	r1, #1
	.loc	3 371 65                @ ../Src/display.c:371:65
	subs	r2, #1
	.loc	3 371 79                @ ../Src/display.c:371:79
	subs	r3, #1
	.loc	3 371 5                 @ ../Src/display.c:371:5
	bl	GUI_AA_FillRoundedRect
	.loc	3 372 14 is_stmt 1      @ ../Src/display.c:372:14
	ldrh	r0, [r6, #56]
	adds	r0, #5
	strh	r0, [r6, #56]
	.loc	3 373 5                 @ ../Src/display.c:373:5
	ldr	r0, __arm_cp.4_11
	bl	GUI_SetFont
	.loc	3 374 5                 @ ../Src/display.c:374:5
	movs	r0, #2
	bl	GUI_SetTextMode
	.loc	3 375 5                 @ ../Src/display.c:375:5
	movw	r0, #54995
	blx	r5
	.loc	3 376 5                 @ ../Src/display.c:376:5
	ldr	r0, __arm_cp.4_15
	mov	r1, r4
	movs	r2, #14
	bl	GUI_DispStringInRect
	.loc	3 377 14                @ ../Src/display.c:377:14
	ldrh	r0, [r6, #56]
	subs	r0, #5
	strh	r0, [r6, #56]
	.loc	3 378 5                 @ ../Src/display.c:378:5
	movs	r0, #1
	bl	GUI_MULTIBUF_EndEx
	.loc	3 379 5                 @ ../Src/display.c:379:5
	movs	r0, #0
	bl	GUI_SelectLayer
	.loc	3 380 5                 @ ../Src/display.c:380:5
	ldr	r0, [r6, #28]
	bic	r0, r0, #64
	str	r0, [r6, #28]
.Ltmp105:
	.loc	3 385 1                 @ ../Src/display.c:385:1
	pop.w	{r2, r3, r4, r5, r6, r7, r8, pc}
.Ltmp106:
	.p2align	2
@ %bb.45:
	.loc	3 0 1 is_stmt 0         @ ../Src/display.c:0:1
__arm_cp.4_0:
	.long	.L_MergedGlobals
.Lcpi_end35:
	.size	__arm_cp.4_0, .Lcpi_end35-__arm_cp.4_0
__arm_cp.4_1:
	.long	GUI_Font20_1
.Lcpi_end36:
	.size	__arm_cp.4_1, .Lcpi_end36-__arm_cp.4_1
.LCPI4_2:
.L.str.5:
	.asciz	"INDOOR:"
__arm_cp.4_3:
	.long	GUI_Font32_1
.Lcpi_end37:
	.size	__arm_cp.4_3, .Lcpi_end37-__arm_cp.4_3
__arm_cp.4_4:
	.long	Thermostat_1
.Lcpi_end38:
	.size	__arm_cp.4_4, .Lcpi_end38-__arm_cp.4_4
.LCPI4_5:
.L.str.6:
	.asciz	"-\000\000"
__arm_cp.4_6:
	.long	.L.str.3
.Lcpi_end39:
	.size	__arm_cp.4_6, .Lcpi_end39-__arm_cp.4_6
__arm_cp.4_7:
	.long	apbmdoor_bell_anim
.Lcpi_end40:
	.size	__arm_cp.4_7, .Lcpi_end40-__arm_cp.4_7
__arm_cp.4_8:
	.long	16777215                @ 0xffffff
.Lcpi_end41:
	.size	__arm_cp.4_8, .Lcpi_end41-__arm_cp.4_8
__arm_cp.4_9:
	.long	GUI_SetColor
.Lcpi_end42:
	.size	__arm_cp.4_9, .Lcpi_end42-__arm_cp.4_9
__arm_cp.4_10:
	.long	11173223                @ 0xaa7d67
.Lcpi_end43:
	.size	__arm_cp.4_10, .Lcpi_end43-__arm_cp.4_10
__arm_cp.4_11:
	.long	GUI_Font23S_AA4
.Lcpi_end44:
	.size	__arm_cp.4_11, .Lcpi_end44-__arm_cp.4_11
__arm_cp.4_12:
	.long	.L.str
.Lcpi_end45:
	.size	__arm_cp.4_12, .Lcpi_end45-__arm_cp.4_12
__arm_cp.4_13:
	.long	GUI_Font32S_AA4
.Lcpi_end46:
	.size	__arm_cp.4_13, .Lcpi_end46-__arm_cp.4_13
__arm_cp.4_14:
	.long	.L.str.1
.Lcpi_end47:
	.size	__arm_cp.4_14, .Lcpi_end47-__arm_cp.4_14
__arm_cp.4_15:
	.long	.L.str.2
.Lcpi_end48:
	.size	__arm_cp.4_15, .Lcpi_end48-__arm_cp.4_15
.Lfunc_end4:
	.size	DISPLAY_Service, .Lfunc_end4-DISPLAY_Service
	.cfi_endproc
	.cantunwind
	.fnend
                                        @ -- End function
	.section	.text.BUTTON_SetNewState,"ax",%progbits
	.hidden	BUTTON_SetNewState      @ -- Begin function BUTTON_SetNewState
	.globl	BUTTON_SetNewState
	.p2align	2
	.type	BUTTON_SetNewState,%function
	.code	16                      @ @BUTTON_SetNewState
	.thumb_func
BUTTON_SetNewState:
.Lfunc_begin5:
	.loc	3 567 0 is_stmt 1       @ ../Src/display.c:567:0
	.fnstart
	.cfi_startproc
@ %bb.0:
	.save	{r4, r5, r6, r7, r8, lr}
	.pad	#8
	push.w	{r2, r3, r4, r5, r6, r7, r8, lr}
	.cfi_def_cfa_offset 32
	.cfi_offset lr, -4
	.cfi_offset r8, -8
	.cfi_offset r7, -12
	.cfi_offset r6, -16
	.cfi_offset r5, -20
	.cfi_offset r4, -24
	@DEBUG_VALUE: BUTTON_SetNewState:button_id <- $r0
	@DEBUG_VALUE: BUTTON_SetNewState:button_id <- $r0
	@DEBUG_VALUE: BUTTON_SetNewState:new_state <- $r1
	@DEBUG_VALUE: BUTTON_SetNewState:new_state <- $r1
.Ltmp107:
	.loc	3 568 2 prologue_end    @ ../Src/display.c:568:2
	movw	r2, #2053
	cmp	r0, r2
	beq.w	.LBB5_9
.Ltmp108:
@ %bb.1:
	@DEBUG_VALUE: BUTTON_SetNewState:new_state <- $r1
	@DEBUG_VALUE: BUTTON_SetNewState:button_id <- $r0
	.loc	3 0 2 is_stmt 0         @ ../Src/display.c:0:2
	movw	r2, #2052
	.loc	3 568 2                 @ ../Src/display.c:568:2
	cmp	r0, r2
	beq	.LBB5_6
.Ltmp109:
@ %bb.2:
	@DEBUG_VALUE: BUTTON_SetNewState:new_state <- $r1
	@DEBUG_VALUE: BUTTON_SetNewState:button_id <- $r0
	.loc	3 0 2                   @ ../Src/display.c:0:2
	movw	r2, #2051
	.loc	3 568 2                 @ ../Src/display.c:568:2
	cmp	r0, r2
	bne.w	.LBB5_15
.Ltmp110:
@ %bb.3:
	@DEBUG_VALUE: BUTTON_SetNewState:new_state <- $r1
	@DEBUG_VALUE: BUTTON_SetNewState:button_id <- $r0
	.loc	3 572 7 is_stmt 1       @ ../Src/display.c:572:7
	cmp	r1, #1
	beq.w	.LBB5_11
.Ltmp111:
@ %bb.4:
	@DEBUG_VALUE: BUTTON_SetNewState:new_state <- $r1
	@DEBUG_VALUE: BUTTON_SetNewState:button_id <- $r0
	cmp	r1, #0
	bne.w	.LBB5_15
.Ltmp112:
@ %bb.5:
	@DEBUG_VALUE: BUTTON_SetNewState:new_state <- $r1
	@DEBUG_VALUE: BUTTON_SetNewState:button_id <- $r0
	.loc	3 574 19                @ ../Src/display.c:574:19
	ldr	r5, __arm_cp.5_0
	movs	r0, #0
.Ltmp113:
	strb	r0, [r5, #2]
	.loc	3 575 5                 @ ../Src/display.c:575:5
	movs	r0, #1
	bl	GUI_SelectLayer
.Ltmp114:
	.loc	3 576 5                 @ ../Src/display.c:576:5
	movs	r0, #1
	bl	GUI_MULTIBUF_BeginEx
	.loc	3 577 5                 @ ../Src/display.c:577:5
	ldr	r0, __arm_cp.5_1
	ldr	r6, __arm_cp.5_2
	blx	r6
	.loc	3 578 5                 @ ../Src/display.c:578:5
	add.w	r4, r5, #40
	mov	r0, r4
	bl	GUI_FillRectEx
	ldr	r0, __arm_cp.5_5
	.loc	3 579 5                 @ ../Src/display.c:579:5
	blx	r6
	.loc	3 580 28                @ ../Src/display.c:580:28
	ldrsh.w	r0, [r5, #40]
	.loc	3 580 42 is_stmt 0      @ ../Src/display.c:580:42
	ldrsh.w	r1, [r5, #42]
	.loc	3 580 56                @ ../Src/display.c:580:56
	ldrsh.w	r2, [r5, #44]
	.loc	3 580 70                @ ../Src/display.c:580:70
	ldrsh.w	r3, [r5, #46]
	.loc	3 580 5                 @ ../Src/display.c:580:5
	movs	r7, #8
	str	r7, [sp]
	.loc	3 580 37                @ ../Src/display.c:580:37
	adds	r0, #1
	.loc	3 580 51                @ ../Src/display.c:580:51
	adds	r1, #1
	.loc	3 580 65                @ ../Src/display.c:580:65
	subs	r2, #1
	.loc	3 580 79                @ ../Src/display.c:580:79
	subs	r3, #1
	.loc	3 580 5                 @ ../Src/display.c:580:5
	bl	GUI_AA_FillRoundedRect
	.loc	3 581 14 is_stmt 1      @ ../Src/display.c:581:14
	ldrh	r0, [r5, #40]
	adds	r0, #5
	strh	r0, [r5, #40]
	.loc	3 582 5                 @ ../Src/display.c:582:5
	ldr	r0, __arm_cp.5_6
	bl	GUI_SetFont
	.loc	3 583 5                 @ ../Src/display.c:583:5
	movs	r0, #2
	bl	GUI_SetTextMode
	.loc	3 584 5                 @ ../Src/display.c:584:5
	movw	r0, #54995
	blx	r6
	.loc	3 585 5                 @ ../Src/display.c:585:5
	ldr	r0, __arm_cp.5_8
	mov	r1, r4
	movs	r2, #14
	bl	GUI_DispStringInRect
	.loc	3 586 14                @ ../Src/display.c:586:14
	ldrh	r0, [r5, #40]
	subs	r0, #5
	strh	r0, [r5, #40]
	.loc	3 587 5                 @ ../Src/display.c:587:5
	movs	r0, #1
	bl	GUI_MULTIBUF_EndEx
	.loc	3 588 5                 @ ../Src/display.c:588:5
	movs	r0, #0
	bl	GUI_SelectLayer
	.loc	3 589 5                 @ ../Src/display.c:589:5
	ldr	r0, [r5, #28]
	bic	r0, r0, #16
	str	r0, [r5, #28]
.Ltmp115:
	.loc	3 701 1                 @ ../Src/display.c:701:1
	pop.w	{r2, r3, r4, r5, r6, r7, r8, pc}
.LBB5_6:
.Ltmp116:
	@DEBUG_VALUE: BUTTON_SetNewState:new_state <- $r1
	@DEBUG_VALUE: BUTTON_SetNewState:button_id <- $r0
	.loc	3 616 7                 @ ../Src/display.c:616:7
	cmp	r1, #1
	beq.w	.LBB5_12
.Ltmp117:
@ %bb.7:
	@DEBUG_VALUE: BUTTON_SetNewState:new_state <- $r1
	@DEBUG_VALUE: BUTTON_SetNewState:button_id <- $r0
	cmp	r1, #0
	bne.w	.LBB5_15
.Ltmp118:
@ %bb.8:
	@DEBUG_VALUE: BUTTON_SetNewState:new_state <- $r1
	@DEBUG_VALUE: BUTTON_SetNewState:button_id <- $r0
	.loc	3 618 19                @ ../Src/display.c:618:19
	ldr	r5, __arm_cp.5_0
	movs	r0, #0
.Ltmp119:
	strb	r0, [r5, #4]
	.loc	3 619 5                 @ ../Src/display.c:619:5
	movs	r0, #1
	bl	GUI_SelectLayer
.Ltmp120:
	.loc	3 620 5                 @ ../Src/display.c:620:5
	movs	r0, #1
	bl	GUI_MULTIBUF_BeginEx
	.loc	3 621 5                 @ ../Src/display.c:621:5
	ldr	r0, __arm_cp.5_1
	ldr	r6, __arm_cp.5_2
	blx	r6
	.loc	3 622 5                 @ ../Src/display.c:622:5
	add.w	r4, r5, #48
	mov	r0, r4
	bl	GUI_FillRectEx
	ldr	r0, __arm_cp.5_5
	.loc	3 623 5                 @ ../Src/display.c:623:5
	blx	r6
	.loc	3 624 28                @ ../Src/display.c:624:28
	ldrsh.w	r0, [r5, #48]
	.loc	3 624 42 is_stmt 0      @ ../Src/display.c:624:42
	ldrsh.w	r1, [r5, #50]
	.loc	3 624 56                @ ../Src/display.c:624:56
	ldrsh.w	r2, [r5, #52]
	.loc	3 624 70                @ ../Src/display.c:624:70
	ldrsh.w	r3, [r5, #54]
	.loc	3 624 5                 @ ../Src/display.c:624:5
	movs	r7, #8
	str	r7, [sp]
	.loc	3 624 37                @ ../Src/display.c:624:37
	adds	r0, #1
	.loc	3 624 51                @ ../Src/display.c:624:51
	adds	r1, #1
	.loc	3 624 65                @ ../Src/display.c:624:65
	subs	r2, #1
	.loc	3 624 79                @ ../Src/display.c:624:79
	subs	r3, #1
	.loc	3 624 5                 @ ../Src/display.c:624:5
	bl	GUI_AA_FillRoundedRect
	.loc	3 625 14 is_stmt 1      @ ../Src/display.c:625:14
	ldrh	r0, [r5, #48]
	adds	r0, #5
	strh	r0, [r5, #48]
	.loc	3 626 5                 @ ../Src/display.c:626:5
	ldr	r0, __arm_cp.5_6
	bl	GUI_SetFont
	.loc	3 627 5                 @ ../Src/display.c:627:5
	movs	r0, #2
	bl	GUI_SetTextMode
	.loc	3 628 5                 @ ../Src/display.c:628:5
	movw	r0, #54995
	blx	r6
	.loc	3 629 5                 @ ../Src/display.c:629:5
	ldr	r0, __arm_cp.5_7
	mov	r1, r4
	movs	r2, #14
	bl	GUI_DispStringInRect
	.loc	3 630 14                @ ../Src/display.c:630:14
	ldrh	r0, [r5, #48]
	subs	r0, #5
	strh	r0, [r5, #48]
	.loc	3 631 5                 @ ../Src/display.c:631:5
	movs	r0, #1
	bl	GUI_MULTIBUF_EndEx
	.loc	3 632 5                 @ ../Src/display.c:632:5
	movs	r0, #0
	bl	GUI_SelectLayer
	.loc	3 633 5                 @ ../Src/display.c:633:5
	ldr	r0, [r5, #28]
	bic	r0, r0, #32
	str	r0, [r5, #28]
.Ltmp121:
	.loc	3 701 1                 @ ../Src/display.c:701:1
	pop.w	{r2, r3, r4, r5, r6, r7, r8, pc}
.LBB5_9:
.Ltmp122:
	@DEBUG_VALUE: BUTTON_SetNewState:new_state <- $r1
	@DEBUG_VALUE: BUTTON_SetNewState:button_id <- $r0
	.loc	3 660 7                 @ ../Src/display.c:660:7
	cmp	r1, #1
	beq.w	.LBB5_13
.Ltmp123:
@ %bb.10:
	@DEBUG_VALUE: BUTTON_SetNewState:new_state <- $r1
	@DEBUG_VALUE: BUTTON_SetNewState:button_id <- $r0
	cmp	r1, #0
.Ltmp124:
	.loc	3 701 1                 @ ../Src/display.c:701:1
	it	ne
	popne.w	{r2, r3, r4, r5, r6, r7, r8, pc}
.Ltmp125:
	.loc	3 662 20                @ ../Src/display.c:662:20
	ldr	r5, __arm_cp.5_0
	movs	r0, #0
.Ltmp126:
	strb	r0, [r5, #6]
	.loc	3 663 5                 @ ../Src/display.c:663:5
	movs	r0, #1
	bl	GUI_SelectLayer
.Ltmp127:
	.loc	3 664 5                 @ ../Src/display.c:664:5
	movs	r0, #1
	bl	GUI_MULTIBUF_BeginEx
	.loc	3 665 5                 @ ../Src/display.c:665:5
	ldr	r0, __arm_cp.5_1
	ldr	r6, __arm_cp.5_2
	blx	r6
	.loc	3 666 5                 @ ../Src/display.c:666:5
	add.w	r4, r5, #56
	mov	r0, r4
	bl	GUI_FillRectEx
	ldr	r0, __arm_cp.5_5
	.loc	3 667 5                 @ ../Src/display.c:667:5
	blx	r6
	.loc	3 668 28                @ ../Src/display.c:668:28
	ldrsh.w	r0, [r5, #56]
	.loc	3 668 42 is_stmt 0      @ ../Src/display.c:668:42
	ldrsh.w	r1, [r5, #58]
	.loc	3 668 56                @ ../Src/display.c:668:56
	ldrsh.w	r2, [r5, #60]
	.loc	3 668 70                @ ../Src/display.c:668:70
	ldrsh.w	r3, [r5, #62]
	.loc	3 668 5                 @ ../Src/display.c:668:5
	movs	r7, #8
	str	r7, [sp]
	.loc	3 668 37                @ ../Src/display.c:668:37
	adds	r0, #1
	.loc	3 668 51                @ ../Src/display.c:668:51
	adds	r1, #1
	.loc	3 668 65                @ ../Src/display.c:668:65
	subs	r2, #1
	.loc	3 668 79                @ ../Src/display.c:668:79
	subs	r3, #1
	.loc	3 668 5                 @ ../Src/display.c:668:5
	bl	GUI_AA_FillRoundedRect
	.loc	3 669 14 is_stmt 1      @ ../Src/display.c:669:14
	ldrh	r0, [r5, #56]
	adds	r0, #5
	strh	r0, [r5, #56]
	.loc	3 670 5                 @ ../Src/display.c:670:5
	ldr	r0, __arm_cp.5_6
	bl	GUI_SetFont
	.loc	3 671 5                 @ ../Src/display.c:671:5
	movs	r0, #2
	bl	GUI_SetTextMode
	.loc	3 672 5                 @ ../Src/display.c:672:5
	movw	r0, #54995
	blx	r6
	.loc	3 673 5                 @ ../Src/display.c:673:5
	ldr	r0, __arm_cp.5_4
	mov	r1, r4
	movs	r2, #14
	bl	GUI_DispStringInRect
	.loc	3 674 14                @ ../Src/display.c:674:14
	ldrh	r0, [r5, #56]
	subs	r0, #5
	strh	r0, [r5, #56]
	.loc	3 675 5                 @ ../Src/display.c:675:5
	movs	r0, #1
	bl	GUI_MULTIBUF_EndEx
	.loc	3 676 5                 @ ../Src/display.c:676:5
	movs	r0, #0
	bl	GUI_SelectLayer
	.loc	3 677 5                 @ ../Src/display.c:677:5
	ldr	r0, [r5, #28]
	bic	r0, r0, #64
	str	r0, [r5, #28]
.Ltmp128:
	.loc	3 701 1                 @ ../Src/display.c:701:1
	pop.w	{r2, r3, r4, r5, r6, r7, r8, pc}
.LBB5_11:
.Ltmp129:
	@DEBUG_VALUE: BUTTON_SetNewState:new_state <- $r1
	@DEBUG_VALUE: BUTTON_SetNewState:button_id <- $r0
	.loc	3 593 19                @ ../Src/display.c:593:19
	ldr	r6, __arm_cp.5_0
	movs	r0, #1
.Ltmp130:
	strb	r0, [r6, #2]
	.loc	3 594 5                 @ ../Src/display.c:594:5
	movs	r0, #1
	bl	GUI_SelectLayer
.Ltmp131:
	.loc	3 595 5                 @ ../Src/display.c:595:5
	movs	r0, #1
	bl	GUI_MULTIBUF_BeginEx
	.loc	3 596 5                 @ ../Src/display.c:596:5
	ldr	r0, __arm_cp.5_1
	ldr	r7, __arm_cp.5_2
	mov	r8, r0
	blx	r7
	.loc	3 597 5                 @ ../Src/display.c:597:5
	add.w	r4, r6, #40
	mov	r0, r4
	bl	GUI_FillRectEx
	.loc	3 598 5                 @ ../Src/display.c:598:5
	movs	r0, #255
	blx	r7
	.loc	3 599 28                @ ../Src/display.c:599:28
	ldrsh.w	r0, [r6, #40]
	.loc	3 599 42 is_stmt 0      @ ../Src/display.c:599:42
	ldrsh.w	r1, [r6, #42]
	.loc	3 599 56                @ ../Src/display.c:599:56
	ldrsh.w	r2, [r6, #44]
	.loc	3 599 70                @ ../Src/display.c:599:70
	ldrsh.w	r3, [r6, #46]
	.loc	3 599 5                 @ ../Src/display.c:599:5
	movs	r5, #8
	str	r5, [sp]
	.loc	3 599 37                @ ../Src/display.c:599:37
	adds	r0, #1
	.loc	3 599 51                @ ../Src/display.c:599:51
	adds	r1, #1
	.loc	3 599 65                @ ../Src/display.c:599:65
	subs	r2, #1
	.loc	3 599 79                @ ../Src/display.c:599:79
	subs	r3, #1
	.loc	3 599 5                 @ ../Src/display.c:599:5
	bl	GUI_AA_FillRoundedRect
	.loc	3 600 14 is_stmt 1      @ ../Src/display.c:600:14
	ldrh	r0, [r6, #40]
	adds	r0, #5
	strh	r0, [r6, #40]
	.loc	3 601 5                 @ ../Src/display.c:601:5
	ldr	r0, __arm_cp.5_3
	bl	GUI_SetFont
	.loc	3 602 5                 @ ../Src/display.c:602:5
	movs	r0, #2
	bl	GUI_SetTextMode
	.loc	3 603 5                 @ ../Src/display.c:603:5
	mov	r0, r8
	blx	r7
	.loc	3 604 5                 @ ../Src/display.c:604:5
	ldr	r0, __arm_cp.5_8
	mov	r1, r4
	movs	r2, #14
	bl	GUI_DispStringInRect
	.loc	3 605 14                @ ../Src/display.c:605:14
	ldrh	r0, [r6, #40]
	subs	r0, #5
	strh	r0, [r6, #40]
	.loc	3 606 5                 @ ../Src/display.c:606:5
	movs	r0, #1
	bl	GUI_MULTIBUF_EndEx
	.loc	3 607 5                 @ ../Src/display.c:607:5
	movs	r0, #0
	bl	GUI_SelectLayer
	.loc	3 608 5                 @ ../Src/display.c:608:5
	ldr	r0, [r6, #28]
	orr	r0, r0, #16
	b	.LBB5_14
.Ltmp132:
.LBB5_12:
	@DEBUG_VALUE: BUTTON_SetNewState:new_state <- $r1
	@DEBUG_VALUE: BUTTON_SetNewState:button_id <- $r0
	.loc	3 637 19                @ ../Src/display.c:637:19
	ldr	r6, __arm_cp.5_0
	movs	r0, #1
.Ltmp133:
	strb	r0, [r6, #4]
	.loc	3 638 5                 @ ../Src/display.c:638:5
	movs	r0, #1
	bl	GUI_SelectLayer
.Ltmp134:
	.loc	3 639 5                 @ ../Src/display.c:639:5
	movs	r0, #1
	bl	GUI_MULTIBUF_BeginEx
	.loc	3 640 5                 @ ../Src/display.c:640:5
	ldr	r0, __arm_cp.5_1
	ldr	r7, __arm_cp.5_2
	mov	r8, r0
	blx	r7
	.loc	3 641 5                 @ ../Src/display.c:641:5
	add.w	r4, r6, #48
	mov	r0, r4
	bl	GUI_FillRectEx
	.loc	3 642 5                 @ ../Src/display.c:642:5
	movs	r0, #255
	blx	r7
	.loc	3 643 28                @ ../Src/display.c:643:28
	ldrsh.w	r0, [r6, #48]
	.loc	3 643 42 is_stmt 0      @ ../Src/display.c:643:42
	ldrsh.w	r1, [r6, #50]
	.loc	3 643 56                @ ../Src/display.c:643:56
	ldrsh.w	r2, [r6, #52]
	.loc	3 643 70                @ ../Src/display.c:643:70
	ldrsh.w	r3, [r6, #54]
	.loc	3 643 5                 @ ../Src/display.c:643:5
	movs	r5, #8
	str	r5, [sp]
	.loc	3 643 37                @ ../Src/display.c:643:37
	adds	r0, #1
	.loc	3 643 51                @ ../Src/display.c:643:51
	adds	r1, #1
	.loc	3 643 65                @ ../Src/display.c:643:65
	subs	r2, #1
	.loc	3 643 79                @ ../Src/display.c:643:79
	subs	r3, #1
	.loc	3 643 5                 @ ../Src/display.c:643:5
	bl	GUI_AA_FillRoundedRect
	.loc	3 644 14 is_stmt 1      @ ../Src/display.c:644:14
	ldrh	r0, [r6, #48]
	adds	r0, #5
	strh	r0, [r6, #48]
	.loc	3 645 5                 @ ../Src/display.c:645:5
	ldr	r0, __arm_cp.5_3
	bl	GUI_SetFont
	.loc	3 646 5                 @ ../Src/display.c:646:5
	movs	r0, #2
	bl	GUI_SetTextMode
	.loc	3 647 5                 @ ../Src/display.c:647:5
	mov	r0, r8
	blx	r7
	.loc	3 648 5                 @ ../Src/display.c:648:5
	ldr	r0, __arm_cp.5_7
	mov	r1, r4
	movs	r2, #14
	bl	GUI_DispStringInRect
	.loc	3 649 14                @ ../Src/display.c:649:14
	ldrh	r0, [r6, #48]
	subs	r0, #5
	strh	r0, [r6, #48]
	.loc	3 650 5                 @ ../Src/display.c:650:5
	movs	r0, #1
	bl	GUI_MULTIBUF_EndEx
	.loc	3 651 5                 @ ../Src/display.c:651:5
	movs	r0, #0
	bl	GUI_SelectLayer
	.loc	3 652 5                 @ ../Src/display.c:652:5
	ldr	r0, [r6, #28]
	orr	r0, r0, #32
	b	.LBB5_14
.Ltmp135:
.LBB5_13:
	@DEBUG_VALUE: BUTTON_SetNewState:new_state <- $r1
	@DEBUG_VALUE: BUTTON_SetNewState:button_id <- $r0
	.loc	3 681 20                @ ../Src/display.c:681:20
	ldr	r6, __arm_cp.5_0
	movs	r0, #1
.Ltmp136:
	strb	r0, [r6, #6]
	.loc	3 682 5                 @ ../Src/display.c:682:5
	movs	r0, #1
	bl	GUI_SelectLayer
.Ltmp137:
	.loc	3 683 5                 @ ../Src/display.c:683:5
	movs	r0, #1
	bl	GUI_MULTIBUF_BeginEx
	.loc	3 684 5                 @ ../Src/display.c:684:5
	ldr	r0, __arm_cp.5_1
	ldr	r7, __arm_cp.5_2
	mov	r8, r0
	blx	r7
	.loc	3 685 5                 @ ../Src/display.c:685:5
	add.w	r4, r6, #56
	mov	r0, r4
	bl	GUI_FillRectEx
	.loc	3 686 5                 @ ../Src/display.c:686:5
	mov.w	r0, #65280
	blx	r7
	.loc	3 687 28                @ ../Src/display.c:687:28
	ldrsh.w	r0, [r6, #56]
	.loc	3 687 42 is_stmt 0      @ ../Src/display.c:687:42
	ldrsh.w	r1, [r6, #58]
	.loc	3 687 56                @ ../Src/display.c:687:56
	ldrsh.w	r2, [r6, #60]
	.loc	3 687 70                @ ../Src/display.c:687:70
	ldrsh.w	r3, [r6, #62]
	.loc	3 687 5                 @ ../Src/display.c:687:5
	movs	r5, #8
	str	r5, [sp]
	.loc	3 687 37                @ ../Src/display.c:687:37
	adds	r0, #1
	.loc	3 687 51                @ ../Src/display.c:687:51
	adds	r1, #1
	.loc	3 687 65                @ ../Src/display.c:687:65
	subs	r2, #1
	.loc	3 687 79                @ ../Src/display.c:687:79
	subs	r3, #1
	.loc	3 687 5                 @ ../Src/display.c:687:5
	bl	GUI_AA_FillRoundedRect
	.loc	3 688 14 is_stmt 1      @ ../Src/display.c:688:14
	ldrh	r0, [r6, #56]
	adds	r0, #5
	strh	r0, [r6, #56]
	.loc	3 689 5                 @ ../Src/display.c:689:5
	ldr	r0, __arm_cp.5_3
	bl	GUI_SetFont
	.loc	3 690 5                 @ ../Src/display.c:690:5
	movs	r0, #2
	bl	GUI_SetTextMode
	.loc	3 691 5                 @ ../Src/display.c:691:5
	mov	r0, r8
	blx	r7
	.loc	3 692 5                 @ ../Src/display.c:692:5
	ldr	r0, __arm_cp.5_4
	mov	r1, r4
	movs	r2, #14
	bl	GUI_DispStringInRect
	.loc	3 693 14                @ ../Src/display.c:693:14
	ldrh	r0, [r6, #56]
	subs	r0, #5
	strh	r0, [r6, #56]
	.loc	3 694 5                 @ ../Src/display.c:694:5
	movs	r0, #1
	bl	GUI_MULTIBUF_EndEx
	.loc	3 695 5                 @ ../Src/display.c:695:5
	movs	r0, #0
	bl	GUI_SelectLayer
	.loc	3 696 5                 @ ../Src/display.c:696:5
	ldr	r0, [r6, #28]
	orr	r0, r0, #64
.Ltmp138:
.LBB5_14:
	.loc	3 0 5 is_stmt 0         @ ../Src/display.c:0:5
	str	r0, [r6, #28]
.LBB5_15:
	.loc	3 701 1 is_stmt 1       @ ../Src/display.c:701:1
	pop.w	{r2, r3, r4, r5, r6, r7, r8, pc}
.Ltmp139:
	.p2align	2
@ %bb.16:
	.loc	3 0 1 is_stmt 0         @ ../Src/display.c:0:1
__arm_cp.5_0:
	.long	.L_MergedGlobals
.Lcpi_end49:
	.size	__arm_cp.5_0, .Lcpi_end49-__arm_cp.5_0
__arm_cp.5_1:
	.long	16777215                @ 0xffffff
.Lcpi_end50:
	.size	__arm_cp.5_1, .Lcpi_end50-__arm_cp.5_1
__arm_cp.5_2:
	.long	GUI_SetColor
.Lcpi_end51:
	.size	__arm_cp.5_2, .Lcpi_end51-__arm_cp.5_2
__arm_cp.5_3:
	.long	GUI_Font32S_AA4
.Lcpi_end52:
	.size	__arm_cp.5_3, .Lcpi_end52-__arm_cp.5_3
__arm_cp.5_4:
	.long	.L.str.2
.Lcpi_end53:
	.size	__arm_cp.5_4, .Lcpi_end53-__arm_cp.5_4
__arm_cp.5_5:
	.long	11173223                @ 0xaa7d67
.Lcpi_end54:
	.size	__arm_cp.5_5, .Lcpi_end54-__arm_cp.5_5
__arm_cp.5_6:
	.long	GUI_Font23S_AA4
.Lcpi_end55:
	.size	__arm_cp.5_6, .Lcpi_end55-__arm_cp.5_6
__arm_cp.5_7:
	.long	.L.str.1
.Lcpi_end56:
	.size	__arm_cp.5_7, .Lcpi_end56-__arm_cp.5_7
__arm_cp.5_8:
	.long	.L.str
.Lcpi_end57:
	.size	__arm_cp.5_8, .Lcpi_end57-__arm_cp.5_8
.Lfunc_end5:
	.size	BUTTON_SetNewState, .Lfunc_end5-BUTTON_SetNewState
	.cfi_endproc
	.cantunwind
	.fnend
                                        @ -- End function
	.section	.text.BUTTON_GetState,"ax",%progbits
	.hidden	BUTTON_GetState         @ -- Begin function BUTTON_GetState
	.globl	BUTTON_GetState
	.p2align	2
	.type	BUTTON_GetState,%function
	.code	16                      @ @BUTTON_GetState
	.thumb_func
BUTTON_GetState:
.Lfunc_begin6:
	.loc	3 705 0 is_stmt 1       @ ../Src/display.c:705:0
	.fnstart
	.cfi_startproc
@ %bb.0:
	@DEBUG_VALUE: BUTTON_GetState:button_id <- $r0
	@DEBUG_VALUE: BUTTON_GetState:button_id <- $r0
	.loc	3 706 2 prologue_end    @ ../Src/display.c:706:2
	movw	r1, #2053
	cmp	r0, r1
	beq	.LBB6_2
.Ltmp140:
@ %bb.1:
	@DEBUG_VALUE: BUTTON_GetState:button_id <- $r0
	.loc	3 0 2 is_stmt 0         @ ../Src/display.c:0:2
	movw	r1, #2052
	.loc	3 706 2                 @ ../Src/display.c:706:2
	cmp	r0, r1
.Ltmp141:
	.loc	3 712 12 is_stmt 1      @ ../Src/display.c:712:12
	ittt	eq
	ldreq	r0, __arm_cp.6_0
.Ltmp142:
	ldrbeq	r0, [r0, #4]
.Ltmp143:
	.loc	3 718 1                 @ ../Src/display.c:718:1
	bxeq	lr
	movw	r1, #2051
	.loc	3 706 2                 @ ../Src/display.c:706:2
	cmp	r0, r1
	itee	ne
	movne	r0, #2
.Ltmp144:
	.loc	3 709 12                @ ../Src/display.c:709:12
	ldreq	r0, __arm_cp.6_0
	ldrbeq	r0, [r0, #2]
.Ltmp145:
	.loc	3 718 1                 @ ../Src/display.c:718:1
	bx	lr
.LBB6_2:
.Ltmp146:
	@DEBUG_VALUE: BUTTON_GetState:button_id <- $r0
	.loc	3 715 12                @ ../Src/display.c:715:12
	ldr	r0, __arm_cp.6_0
.Ltmp147:
	ldrb	r0, [r0, #6]
.Ltmp148:
	.loc	3 718 1                 @ ../Src/display.c:718:1
	bx	lr
.Ltmp149:
	.p2align	2
@ %bb.3:
	.loc	3 0 1 is_stmt 0         @ ../Src/display.c:0:1
__arm_cp.6_0:
	.long	.L_MergedGlobals
.Lcpi_end58:
	.size	__arm_cp.6_0, .Lcpi_end58-__arm_cp.6_0
.Lfunc_end6:
	.size	BUTTON_GetState, .Lfunc_end6-BUTTON_GetState
	.cfi_endproc
	.cantunwind
	.fnend
                                        @ -- End function
	.hidden	ForecastFrame           @ @ForecastFrame
	.type	ForecastFrame,%object
	.section	.data.ForecastFrame,"aw",%progbits
	.globl	ForecastFrame
	.p2align	1
ForecastFrame:
	.short	70                      @ 0x46
	.short	28                      @ 0x1c
	.short	455                     @ 0x1c7
	.short	58                      @ 0x3a
	.short	5                       @ 0x5
	.short	70                      @ 0x46
	.short	65                      @ 0x41
	.short	265                     @ 0x109
	.short	70                      @ 0x46
	.short	70                      @ 0x46
	.short	130                     @ 0x82
	.short	265                     @ 0x109
	.short	135                     @ 0x87
	.short	70                      @ 0x46
	.short	195                     @ 0xc3
	.short	265                     @ 0x109
	.short	200                     @ 0xc8
	.short	70                      @ 0x46
	.short	260                     @ 0x104
	.short	265                     @ 0x109
	.short	265                     @ 0x109
	.short	70                      @ 0x46
	.short	325                     @ 0x145
	.short	265                     @ 0x109
	.short	330                     @ 0x14a
	.short	70                      @ 0x46
	.short	390                     @ 0x186
	.short	265                     @ 0x109
	.short	395                     @ 0x18b
	.short	70                      @ 0x46
	.short	455                     @ 0x1c7
	.short	265                     @ 0x109
	.size	ForecastFrame, 64

	.hidden	Rad2Deg                 @ @Rad2Deg
	.type	Rad2Deg,%object
	.section	.rodata.Rad2Deg,"a",%progbits
	.globl	Rad2Deg
	.p2align	3
Rad2Deg:
	.long	218353446               @ double 57.295777918682049
	.long	1078765020
	.size	Rad2Deg, 8

	.hidden	Deg2Rad                 @ @Deg2Rad
	.type	Deg2Rad,%object
	.section	.rodata.Deg2Rad,"a",%progbits
	.globl	Deg2Rad
	.p2align	3
Deg2Rad:
	.long	2863311531              @ double 0.017453293005625408
	.long	1066524486
	.size	Deg2Rad, 8

	.type	.L.str,%object          @ @.str
	.section	.rodata.str1.1,"aMS",%progbits,1
.L.str:
	.asciz	"Do Not Disturb"
	.size	.L.str, 15

	.type	.L.str.1,%object        @ @.str.1
.L.str.1:
	.asciz	"SOS Reset"
	.size	.L.str.1, 10

	.type	.L.str.2,%object        @ @.str.2
.L.str.2:
	.asciz	"Call Maid"
	.size	.L.str.2, 10

	.hidden	hKNOB_Temperature       @ @hKNOB_Temperature
	.type	hKNOB_Temperature,%object
	.section	.bss.hKNOB_Temperature,"aw",%nobits
	.globl	hKNOB_Temperature
	.p2align	2
hKNOB_Temperature:
	.long	0                       @ 0x0
	.size	hKNOB_Temperature, 4

	.hidden	display_knob_timer      @ @display_knob_timer
	.type	display_knob_timer,%object
	.section	.bss.display_knob_timer,"aw",%nobits
	.globl	display_knob_timer
	.p2align	2
display_knob_timer:
	.long	0                       @ 0x0
	.size	display_knob_timer, 4

	.hidden	current_outdoor_temperature @ @current_outdoor_temperature
	.type	current_outdoor_temperature,%object
	.section	.bss.current_outdoor_temperature,"aw",%nobits
	.globl	current_outdoor_temperature
current_outdoor_temperature:
	.byte	0                       @ 0x0
	.size	current_outdoor_temperature, 1

	.hidden	btn_alarm_clock_state   @ @btn_alarm_clock_state
	.type	btn_alarm_clock_state,%object
	.section	.bss.btn_alarm_clock_state,"aw",%nobits
	.globl	btn_alarm_clock_state
btn_alarm_clock_state:
	.byte	0                       @ 0x0
	.size	btn_alarm_clock_state, 1

	.hidden	btn_alarm_clock_old_state @ @btn_alarm_clock_old_state
	.type	btn_alarm_clock_old_state,%object
	.section	.bss.btn_alarm_clock_old_state,"aw",%nobits
	.globl	btn_alarm_clock_old_state
btn_alarm_clock_old_state:
	.byte	0                       @ 0x0
	.size	btn_alarm_clock_old_state, 1

	.hidden	btn_alarm_on_off_state  @ @btn_alarm_on_off_state
	.type	btn_alarm_on_off_state,%object
	.section	.bss.btn_alarm_on_off_state,"aw",%nobits
	.globl	btn_alarm_on_off_state
btn_alarm_on_off_state:
	.byte	0                       @ 0x0
	.size	btn_alarm_on_off_state, 1

	.hidden	btn_alarm_on_off_old_state @ @btn_alarm_on_off_old_state
	.type	btn_alarm_on_off_old_state,%object
	.section	.bss.btn_alarm_on_off_old_state,"aw",%nobits
	.globl	btn_alarm_on_off_old_state
btn_alarm_on_off_old_state:
	.byte	0                       @ 0x0
	.size	btn_alarm_on_off_old_state, 1

	.hidden	btn_alarm_set_time_state @ @btn_alarm_set_time_state
	.type	btn_alarm_set_time_state,%object
	.section	.bss.btn_alarm_set_time_state,"aw",%nobits
	.globl	btn_alarm_set_time_state
btn_alarm_set_time_state:
	.byte	0                       @ 0x0
	.size	btn_alarm_set_time_state, 1

	.hidden	btn_alarm_set_time_old_state @ @btn_alarm_set_time_old_state
	.type	btn_alarm_set_time_old_state,%object
	.section	.bss.btn_alarm_set_time_old_state,"aw",%nobits
	.globl	btn_alarm_set_time_old_state
btn_alarm_set_time_old_state:
	.byte	0                       @ 0x0
	.size	btn_alarm_set_time_old_state, 1

	.hidden	btn_home_state          @ @btn_home_state
	.type	btn_home_state,%object
	.section	.bss.btn_home_state,"aw",%nobits
	.globl	btn_home_state
btn_home_state:
	.byte	0                       @ 0x0
	.size	btn_home_state, 1

	.hidden	btn_home_old_state      @ @btn_home_old_state
	.type	btn_home_old_state,%object
	.section	.bss.btn_home_old_state,"aw",%nobits
	.globl	btn_home_old_state
btn_home_old_state:
	.byte	0                       @ 0x0
	.size	btn_home_old_state, 1

	.hidden	btn_weather_state       @ @btn_weather_state
	.type	btn_weather_state,%object
	.section	.bss.btn_weather_state,"aw",%nobits
	.globl	btn_weather_state
btn_weather_state:
	.byte	0                       @ 0x0
	.size	btn_weather_state, 1

	.hidden	btn_weather_old_state   @ @btn_weather_old_state
	.type	btn_weather_old_state,%object
	.section	.bss.btn_weather_old_state,"aw",%nobits
	.globl	btn_weather_old_state
btn_weather_old_state:
	.byte	0                       @ 0x0
	.size	btn_weather_old_state, 1

	.hidden	btn_fan_mode_state      @ @btn_fan_mode_state
	.type	btn_fan_mode_state,%object
	.section	.bss.btn_fan_mode_state,"aw",%nobits
	.globl	btn_fan_mode_state
btn_fan_mode_state:
	.byte	0                       @ 0x0
	.size	btn_fan_mode_state, 1

	.hidden	btn_fan_mode_old_state  @ @btn_fan_mode_old_state
	.type	btn_fan_mode_old_state,%object
	.section	.bss.btn_fan_mode_old_state,"aw",%nobits
	.globl	btn_fan_mode_old_state
btn_fan_mode_old_state:
	.byte	0                       @ 0x0
	.size	btn_fan_mode_old_state, 1

	.hidden	btn_ctrl_mode_state     @ @btn_ctrl_mode_state
	.type	btn_ctrl_mode_state,%object
	.section	.bss.btn_ctrl_mode_state,"aw",%nobits
	.globl	btn_ctrl_mode_state
btn_ctrl_mode_state:
	.byte	0                       @ 0x0
	.size	btn_ctrl_mode_state, 1

	.hidden	btn_ctrl_mode_old_state @ @btn_ctrl_mode_old_state
	.type	btn_ctrl_mode_old_state,%object
	.section	.bss.btn_ctrl_mode_old_state,"aw",%nobits
	.globl	btn_ctrl_mode_old_state
btn_ctrl_mode_old_state:
	.byte	0                       @ 0x0
	.size	btn_ctrl_mode_old_state, 1

	.hidden	alarm_hour              @ @alarm_hour
	.type	alarm_hour,%object
	.section	.bss.alarm_hour,"aw",%nobits
	.globl	alarm_hour
alarm_hour:
	.byte	0                       @ 0x0
	.size	alarm_hour, 1

	.hidden	alarm_minute            @ @alarm_minute
	.type	alarm_minute,%object
	.section	.bss.alarm_minute,"aw",%nobits
	.globl	alarm_minute
alarm_minute:
	.byte	0                       @ 0x0
	.size	alarm_minute, 1

	.type	_aGradient,%object      @ @_aGradient
	.section	.rodata._aGradient,"a",%progbits
	.p2align	2
_aGradient:
	.long	12358732                @ 0xbc944c
	.long	12358732                @ 0xbc944c
	.long	12293196                @ 0xbb944c
	.long	12227660                @ 0xba944c
	.long	12227660                @ 0xba944c
	.long	12162124                @ 0xb9944c
	.long	12162124                @ 0xb9944c
	.long	12096588                @ 0xb8944c
	.long	12031052                @ 0xb7944c
	.long	12031052                @ 0xb7944c
	.long	11965516                @ 0xb6944c
	.long	11899980                @ 0xb5944c
	.long	11899980                @ 0xb5944c
	.long	11834444                @ 0xb4944c
	.long	11768908                @ 0xb3944c
	.long	11768908                @ 0xb3944c
	.long	11703372                @ 0xb2944c
	.long	11637836                @ 0xb1944c
	.long	11572300                @ 0xb0944c
	.long	11506764                @ 0xaf944c
	.long	11441228                @ 0xae944c
	.long	11441228                @ 0xae944c
	.long	11375692                @ 0xad944c
	.long	11310156                @ 0xac944c
	.long	11244620                @ 0xab944c
	.long	11179084                @ 0xaa944c
	.long	11113548                @ 0xa9944c
	.long	11048012                @ 0xa8944c
	.long	10982476                @ 0xa7944c
	.long	10916940                @ 0xa6944c
	.long	10851404                @ 0xa5944c
	.long	10785868                @ 0xa4944c
	.long	10720332                @ 0xa3944c
	.long	10654796                @ 0xa2944c
	.long	10589260                @ 0xa1944c
	.long	10523724                @ 0xa0944c
	.long	10458188                @ 0x9f944c
	.long	10392652                @ 0x9e944c
	.long	10327116                @ 0x9d944c
	.long	10261580                @ 0x9c944c
	.long	10196044                @ 0x9b944c
	.long	10130508                @ 0x9a944c
	.long	10064972                @ 0x99944c
	.long	9999436                 @ 0x98944c
	.long	9933900                 @ 0x97944c
	.long	9868364                 @ 0x96944c
	.long	9737292                 @ 0x94944c
	.long	9671756                 @ 0x93944c
	.long	9606220                 @ 0x92944c
	.long	9540684                 @ 0x91944c
	.long	9475148                 @ 0x90944c
	.long	9409612                 @ 0x8f944c
	.long	9344076                 @ 0x8e944c
	.long	9213004                 @ 0x8c944c
	.long	9147468                 @ 0x8b944c
	.long	9081932                 @ 0x8a944c
	.long	9016396                 @ 0x89944c
	.long	8950860                 @ 0x88944c
	.long	8885324                 @ 0x87944c
	.long	8754252                 @ 0x85944c
	.long	8688716                 @ 0x84944c
	.long	8623180                 @ 0x83944c
	.long	8557644                 @ 0x82944c
	.long	8492108                 @ 0x81944c
	.long	8361036                 @ 0x7f944c
	.long	8295500                 @ 0x7e944c
	.long	8229964                 @ 0x7d944c
	.long	8164428                 @ 0x7c944c
	.long	8098892                 @ 0x7b944c
	.long	7967820                 @ 0x79944c
	.long	7902284                 @ 0x78944c
	.long	7836748                 @ 0x77944c
	.long	7771212                 @ 0x76944c
	.long	7705676                 @ 0x75944c
	.long	7640140                 @ 0x74944c
	.long	7509068                 @ 0x72944c
	.long	7443532                 @ 0x71944c
	.long	7377996                 @ 0x70944c
	.long	7312460                 @ 0x6f944c
	.long	7246924                 @ 0x6e944c
	.long	7181388                 @ 0x6d944c
	.long	7050316                 @ 0x6b944c
	.long	6984780                 @ 0x6a944c
	.long	6919244                 @ 0x69944c
	.long	6853708                 @ 0x68944c
	.long	6788172                 @ 0x67944c
	.long	6722636                 @ 0x66944c
	.long	6657100                 @ 0x65944c
	.long	6526028                 @ 0x63944c
	.long	6460492                 @ 0x62944c
	.long	6394956                 @ 0x61944c
	.long	6329420                 @ 0x60944c
	.long	6263884                 @ 0x5f944c
	.long	6198348                 @ 0x5e944c
	.long	6132812                 @ 0x5d944c
	.long	6067276                 @ 0x5c944c
	.long	6001740                 @ 0x5b944c
	.long	5936204                 @ 0x5a944c
	.long	5870668                 @ 0x59944c
	.long	5805132                 @ 0x58944c
	.long	5739596                 @ 0x57944c
	.long	5674060                 @ 0x56944c
	.long	5608524                 @ 0x55944c
	.long	5542988                 @ 0x54944c
	.long	5477452                 @ 0x53944c
	.long	5411916                 @ 0x52944c
	.long	5346380                 @ 0x51944c
	.long	5280844                 @ 0x50944c
	.long	5215308                 @ 0x4f944c
	.long	5149772                 @ 0x4e944c
	.long	5084236                 @ 0x4d944c
	.long	5018700                 @ 0x4c944c
	.long	5018700                 @ 0x4c944c
	.long	4953164                 @ 0x4b944c
	.long	4887628                 @ 0x4a944c
	.long	4822092                 @ 0x49944c
	.long	4756556                 @ 0x48944c
	.long	4691020                 @ 0x47944c
	.long	4691020                 @ 0x47944c
	.long	4625484                 @ 0x46944c
	.long	4559948                 @ 0x45944c
	.long	4494412                 @ 0x44944c
	.long	4494412                 @ 0x44944c
	.long	4428876                 @ 0x43944c
	.long	4363340                 @ 0x42944c
	.long	4363340                 @ 0x42944c
	.long	4297804                 @ 0x41944c
	.long	4297804                 @ 0x41944c
	.long	4232268                 @ 0x40944c
	.long	4166733                 @ 0x3f944d
	.long	4166733                 @ 0x3f944d
	.long	4101198                 @ 0x3e944e
	.long	4101199                 @ 0x3e944f
	.long	4035407                 @ 0x3d934f
	.long	4035408                 @ 0x3d9350
	.long	3969873                 @ 0x3c9351
	.long	3969874                 @ 0x3c9352
	.long	3904338                 @ 0x3b9352
	.long	3904339                 @ 0x3b9353
	.long	3838804                 @ 0x3a9354
	.long	3838805                 @ 0x3a9355
	.long	3773014                 @ 0x399256
	.long	3773014                 @ 0x399256
	.long	3773015                 @ 0x399257
	.long	3707480                 @ 0x389258
	.long	3707481                 @ 0x389259
	.long	3641946                 @ 0x37925a
	.long	3641691                 @ 0x37915b
	.long	3641692                 @ 0x37915c
	.long	3576157                 @ 0x36915d
	.long	3576158                 @ 0x36915e
	.long	3510623                 @ 0x35915f
	.long	3510624                 @ 0x359160
	.long	3510369                 @ 0x359061
	.long	3444834                 @ 0x349062
	.long	3444835                 @ 0x349063
	.long	3444836                 @ 0x349064
	.long	3379302                 @ 0x339066
	.long	3379047                 @ 0x338f67
	.long	3379048                 @ 0x338f68
	.long	3379049                 @ 0x338f69
	.long	3313514                 @ 0x328f6a
	.long	3313515                 @ 0x328f6b
	.long	3313261                 @ 0x328e6d
	.long	3313262                 @ 0x328e6e
	.long	3247727                 @ 0x318e6f
	.long	3247728                 @ 0x318e70
	.long	3247473                 @ 0x318d71
	.long	3247475                 @ 0x318d73
	.long	3181940                 @ 0x308d74
	.long	3181941                 @ 0x308d75
	.long	3181943                 @ 0x308d77
	.long	3181688                 @ 0x308c78
	.long	3181689                 @ 0x308c79
	.long	3116154                 @ 0x2f8c7a
	.long	3116156                 @ 0x2f8c7c
	.long	3115901                 @ 0x2f8b7d
	.long	3115902                 @ 0x2f8b7e
	.long	3115904                 @ 0x2f8b80
	.long	3050369                 @ 0x2e8b81
	.long	3050114                 @ 0x2e8a82
	.long	3050116                 @ 0x2e8a84
	.long	3050117                 @ 0x2e8a85
	.long	3050118                 @ 0x2e8a86
	.long	3049864                 @ 0x2e8988
	.long	3049865                 @ 0x2e8989
	.long	2984330                 @ 0x2d898a
	.long	2984332                 @ 0x2d898c
	.long	2984077                 @ 0x2d888d
	.long	2984079                 @ 0x2d888f
	.long	2984080                 @ 0x2d8890
	.long	2984081                 @ 0x2d8891
	.long	2984083                 @ 0x2d8893
	.long	2983828                 @ 0x2d8794
	.long	2983829                 @ 0x2d8795
	.long	2918295                 @ 0x2c8797
	.long	2918296                 @ 0x2c8798
	.long	2918042                 @ 0x2c869a
	.long	2918043                 @ 0x2c869b
	.long	2918044                 @ 0x2c869c
	.long	2918046                 @ 0x2c869e
	.long	2917791                 @ 0x2c859f
	.long	2917792                 @ 0x2c85a0
	.long	2917794                 @ 0x2c85a2
	.long	2917795                 @ 0x2c85a3
	.long	2917540                 @ 0x2c84a4
	.long	2917542                 @ 0x2c84a6
	.long	2917543                 @ 0x2c84a7
	.long	2917544                 @ 0x2c84a8
	.long	2851754                 @ 0x2b83aa
	.long	2851755                 @ 0x2b83ab
	.long	2851756                 @ 0x2b83ac
	.long	2851757                 @ 0x2b83ad
	.long	2851503                 @ 0x2b82af
	.long	2851504                 @ 0x2b82b0
	.long	2851505                 @ 0x2b82b1
	.long	2851507                 @ 0x2b82b3
	.long	2851508                 @ 0x2b82b4
	.long	2851253                 @ 0x2b81b5
	.long	2851254                 @ 0x2b81b6
	.long	2851255                 @ 0x2b81b7
	.long	2851257                 @ 0x2b81b9
	.long	2851002                 @ 0x2b80ba
	.long	2851003                 @ 0x2b80bb
	.long	2851004                 @ 0x2b80bc
	.long	2851005                 @ 0x2b80bd
	.long	2851006                 @ 0x2b80be
	.long	2850752                 @ 0x2b7fc0
	.long	2850753                 @ 0x2b7fc1
	.long	2850754                 @ 0x2b7fc2
	.long	2850755                 @ 0x2b7fc3
	.long	2785220                 @ 0x2a7fc4
	.long	2784965                 @ 0x2a7ec5
	.long	2784966                 @ 0x2a7ec6
	.long	2784967                 @ 0x2a7ec7
	.long	2784968                 @ 0x2a7ec8
	.long	2784969                 @ 0x2a7ec9
	.long	2784970                 @ 0x2a7eca
	.long	2784715                 @ 0x2a7dcb
	.long	2784716                 @ 0x2a7dcc
	.long	2784717                 @ 0x2a7dcd
	.long	2784718                 @ 0x2a7dce
	.long	2784718                 @ 0x2a7dce
	.long	2784719                 @ 0x2a7dcf
	.long	2784464                 @ 0x2a7cd0
	.long	2784465                 @ 0x2a7cd1
	.long	2784466                 @ 0x2a7cd2
	.long	2784466                 @ 0x2a7cd2
	.long	2784467                 @ 0x2a7cd3
	.long	2784468                 @ 0x2a7cd4
	.long	2718933                 @ 0x297cd5
	.long	2718933                 @ 0x297cd5
	.long	2718678                 @ 0x297bd6
	.long	2718679                 @ 0x297bd7
	.long	2718679                 @ 0x297bd7
	.long	2718680                 @ 0x297bd8
	.size	_aGradient, 1024

	.type	.L.str.3,%object        @ @.str.3
	.section	.rodata.str1.1,"aMS",%progbits,1
.L.str.3:
	.asciz	"\302\260C"
	.size	.L.str.3, 4

	.type	.L.str.13,%object       @ @.str.13
.L.str.13:
	.asciz	"SUN"
	.size	.L.str.13, 4

	.type	.L_MergedGlobals,%object @ @_MergedGlobals
	.section	.data..L_MergedGlobals,"aw",%progbits
	.p2align	4
.L_MergedGlobals:
	.byte	0                       @ 0x0
	.byte	0                       @ 0x0
	.byte	0                       @ 0x0
	.byte	0                       @ 0x0
	.byte	0                       @ 0x0
	.byte	0                       @ 0x0
	.byte	0                       @ 0x0
	.zero	1
	.long	0                       @ 0x0
	.long	0                       @ 0x0
	.long	0                       @ 0x0
	.long	0                       @ 0x0
	.long	0                       @ 0x0
	.long	0                       @ 0x0
	.long	0                       @ 0x0
	.long	0                       @ 0x0
	.short	5                       @ 0x5
	.short	65                      @ 0x41
	.short	215                     @ 0xd7
	.short	115                     @ 0x73
	.short	5                       @ 0x5
	.short	110                     @ 0x6e
	.short	215                     @ 0xd7
	.short	160                     @ 0xa0
	.short	5                       @ 0x5
	.short	155                     @ 0x9b
	.short	215                     @ 0xd7
	.short	205                     @ 0xcd
	.zero	32
	.size	.L_MergedGlobals, 96

	.section	".note.GNU-stack","",%progbits
	.eabi_attribute	30, 4	@ Tag_ABI_optimization_goals
	.ARM_attribute	16, 1	@ Tag_AV_eba