	.text
	.syntax unified
	.eabi_attribute	67, "2.09"	@ Tag_conformance
	.cpu	cortex-m7
	.eabi_attribute	6, 13	@ Tag_CPU_arch
	.eabi_attribute	7, 77	@ Tag_CPU_arch_profile
	.eabi_attribute	8, 0	@ Tag_ARM_ISA_use
	.eabi_attribute	9, 2	@ Tag_THUMB_ISA_use
	.fpu	fpv5-sp-d16
	.eabi_attribute	27, 1	@ Tag_ABI_HardFP_use
	.eabi_attribute	36, 1	@ Tag_FP_HP_extension
	.eabi_attribute	34, 1	@ Tag_CPU_unaligned_access
	.eabi_attribute	17, 1	@ Tag_ABI_PCS_GOT_use
	.eabi_attribute	20, 2	@ Tag_ABI_FP_denormal
	.eabi_attribute	21, 0	@ Tag_ABI_FP_exceptions
	.eabi_attribute	23, 1	@ Tag_ABI_FP_number_model
	.eabi_attribute	24, 1	@ Tag_ABI_align_needed
	.eabi_attribute	25, 1	@ Tag_ABI_align_preserved
	.eabi_attribute	28, 1	@ Tag_ABI_VFP_args
	.eabi_attribute	38, 1	@ Tag_ABI_FP_16bit_format
	.eabi_attribute	18, 2	@ Tag_ABI_PCS_wchar_t
	.eabi_attribute	26, 1	@ Tag_ABI_enum_size
	.eabi_attribute	14, 0	@ Tag_ABI_PCS_R9_use
	.file	"ft5336.c"
	.file	1 "C:\\Keil\\ARM\\ARMCLANG\\Bin\\..\\include" "stdint.h"
	.file	2 "../Drivers/BSP/Components/ft5336/../Common" "ts.h"
	.file	3 "../Drivers/BSP/Components/ft5336" "ft5336.c"
	.file	4 "../Drivers/BSP/Components/ft5336" "ft5336.h"
	.section	.text.ft5336_Init,"ax",%progbits
	.hidden	ft5336_Init             @ -- Begin function ft5336_Init
	.globl	ft5336_Init
	.p2align	1
	.type	ft5336_Init,%function
	.code	16                      @ @ft5336_Init
	.thumb_func
ft5336_Init:
.Lfunc_begin0:
	.loc	3 146 0                 @ ../Drivers/BSP/Components/ft5336/ft5336.c:146:0
	.fnstart
	.cfi_sections .debug_frame
	.cfi_startproc
@ %bb.0:
	.save	{r7, lr}
	push	{r7, lr}
	.cfi_def_cfa_offset 8
	.cfi_offset lr, -4
	.cfi_offset r7, -8
	@DEBUG_VALUE: ft5336_Init:DeviceAddr <- $r0
.Ltmp0:
	.loc	3 149 3 prologue_end    @ ../Drivers/BSP/Components/ft5336/ft5336.c:149:3
	movs	r0, #200
.Ltmp1:
	bl	TS_IO_Delay
	.loc	3 152 3                 @ ../Drivers/BSP/Components/ft5336/ft5336.c:152:3
	pop.w	{r7, lr}
	b	ft5336_I2C_InitializeIfRequired
.Ltmp2:
.Lfunc_end0:
	.size	ft5336_Init, .Lfunc_end0-ft5336_Init
	.cfi_endproc
	.cantunwind
	.fnend
                                        @ -- End function
	.section	.text.ft5336_ReadID,"ax",%progbits
	.hidden	ft5336_ReadID           @ -- Begin function ft5336_ReadID
	.globl	ft5336_ReadID
	.p2align	1
	.type	ft5336_ReadID,%function
	.code	16                      @ @ft5336_ReadID
	.thumb_func
ft5336_ReadID:
.Lfunc_begin1:
	.loc	3 174 0                 @ ../Drivers/BSP/Components/ft5336/ft5336.c:174:0
	.fnstart
	.cfi_startproc
@ %bb.0:
	.save	{r4, r5, r7, lr}
	.pad	#8
	push	{r2, r3, r4, r5, r7, lr}
	.cfi_def_cfa_offset 24
	.cfi_offset lr, -4
	.cfi_offset r7, -8
	.cfi_offset r5, -12
	.cfi_offset r4, -16
	@DEBUG_VALUE: ft5336_ReadID:DeviceAddr <- $r0
	movs	r5, #0
.Ltmp3:
	@DEBUG_VALUE: ft5336_ReadID:ucReadId <- 0
	@DEBUG_VALUE: ft5336_ReadID:DeviceAddr <- $r4
	mov	r4, r0
.Ltmp4:
	.loc	3 175 20 prologue_end   @ ../Drivers/BSP/Components/ft5336/ft5336.c:175:20
	strb.w	r5, [sp, #7]
.Ltmp5:
	@DEBUG_VALUE: ft5336_ReadID:bFoundDevice <- 0
	@DEBUG_VALUE: ft5336_ReadID:nbReadAttempts <- 0
	.loc	3 180 3                 @ ../Drivers/BSP/Components/ft5336/ft5336.c:180:3
	bl	ft5336_I2C_InitializeIfRequired
.Ltmp6:
	@DEBUG_VALUE: ft5336_ReadID:DeviceAddr <- undef
	.loc	3 0 3 is_stmt 0         @ ../Drivers/BSP/Components/ft5336/ft5336.c:0:3
	uxtb	r4, r4
	movs	r0, #0
	b	.LBB1_3
.LBB1_1:                                @   in Loop: Header=BB1_3 Depth=1
.Ltmp7:
	.loc	3 183 49 is_stmt 1      @ ../Drivers/BSP/Components/ft5336/ft5336.c:183:49
	lsls	r0, r0, #24
	bne	.LBB1_4
@ %bb.2:                                @   in Loop: Header=BB1_3 Depth=1
.Ltmp8:
	.loc	3 186 16                @ ../Drivers/BSP/Components/ft5336/ft5336.c:186:16
	mov	r0, r4
	movs	r1, #168
	bl	TS_IO_Read
	.loc	3 186 14 is_stmt 0      @ ../Drivers/BSP/Components/ft5336/ft5336.c:186:14
	strb.w	r0, [sp, #7]
.Ltmp9:
	.loc	3 183 84 is_stmt 1      @ ../Drivers/BSP/Components/ft5336/ft5336.c:183:84
	adds	r5, #1
.Ltmp10:
	.loc	3 189 8                 @ ../Drivers/BSP/Components/ft5336/ft5336.c:189:8
	ldrb.w	r0, [sp, #7]
	.loc	3 189 17 is_stmt 0      @ ../Drivers/BSP/Components/ft5336/ft5336.c:189:17
	subs	r0, #121
	clz	r0, r0
	lsrs	r0, r0, #5
.Ltmp11:
.LBB1_3:                                @ =>This Inner Loop Header: Depth=1
	.loc	3 183 44 is_stmt 1      @ ../Drivers/BSP/Components/ft5336/ft5336.c:183:44
	uxtb	r1, r5
	.loc	3 183 49 is_stmt 0      @ ../Drivers/BSP/Components/ft5336/ft5336.c:183:49
	cmp	r1, #2
	bls	.LBB1_1
.Ltmp12:
.LBB1_4:
	.loc	3 197 11 is_stmt 1      @ ../Drivers/BSP/Components/ft5336/ft5336.c:197:11
	ldrb.w	r0, [sp, #7]
	.loc	3 197 3 is_stmt 0       @ ../Drivers/BSP/Components/ft5336/ft5336.c:197:3
	add	sp, #8
	pop	{r4, r5, r7, pc}
.Ltmp13:
.Lfunc_end1:
	.size	ft5336_ReadID, .Lfunc_end1-ft5336_ReadID
	.cfi_endproc
	.cantunwind
	.fnend
                                        @ -- End function
	.section	.text.ft5336_Reset,"ax",%progbits
	.hidden	ft5336_Reset            @ -- Begin function ft5336_Reset
	.globl	ft5336_Reset
	.p2align	1
	.type	ft5336_Reset,%function
	.code	16                      @ @ft5336_Reset
	.thumb_func
ft5336_Reset:
.Lfunc_begin2:
	.loc	3 162 0 is_stmt 1       @ ../Drivers/BSP/Components/ft5336/ft5336.c:162:0
	.fnstart
	.cfi_startproc
@ %bb.0:
	@DEBUG_VALUE: ft5336_Reset:DeviceAddr <- $r0
	.loc	3 165 1 prologue_end    @ ../Drivers/BSP/Components/ft5336/ft5336.c:165:1
	bx	lr
.Ltmp14:
.Lfunc_end2:
	.size	ft5336_Reset, .Lfunc_end2-ft5336_Reset
	.cfi_endproc
	.cantunwind
	.fnend
                                        @ -- End function
	.section	.text.ft5336_TS_Start,"ax",%progbits
	.hidden	ft5336_TS_Start         @ -- Begin function ft5336_TS_Start
	.globl	ft5336_TS_Start
	.p2align	1
	.type	ft5336_TS_Start,%function
	.code	16                      @ @ft5336_TS_Start
	.thumb_func
ft5336_TS_Start:
.Lfunc_begin3:
	.loc	3 206 0                 @ ../Drivers/BSP/Components/ft5336/ft5336.c:206:0
	.fnstart
	.cfi_startproc
@ %bb.0:
	@DEBUG_VALUE: ft5336_TS_Start:DeviceAddr <- $r0
	@DEBUG_VALUE: ft5336_TS_Start:DeviceAddr <- $r0
	@DEBUG_VALUE: ft5336_TS_Start:DeviceAddr <- $r0
	.loc	3 212 3 prologue_end    @ ../Drivers/BSP/Components/ft5336/ft5336.c:212:3
	b	ft5336_TS_EnableIT
.Ltmp15:
.Lfunc_end3:
	.size	ft5336_TS_Start, .Lfunc_end3-ft5336_TS_Start
	.cfi_endproc
	.cantunwind
	.fnend
                                        @ -- End function
	.section	.text.ft5336_TS_DetectTouch,"ax",%progbits
	.hidden	ft5336_TS_DetectTouch   @ -- Begin function ft5336_TS_DetectTouch
	.globl	ft5336_TS_DetectTouch
	.p2align	2
	.type	ft5336_TS_DetectTouch,%function
	.code	16                      @ @ft5336_TS_DetectTouch
	.thumb_func
ft5336_TS_DetectTouch:
.Lfunc_begin4:
	.loc	3 223 0                 @ ../Drivers/BSP/Components/ft5336/ft5336.c:223:0
	.fnstart
	.cfi_startproc
@ %bb.0:
	.save	{r4, lr}
	.pad	#8
	push	{r2, r3, r4, lr}
	.cfi_def_cfa_offset 16
	.cfi_offset lr, -4
	.cfi_offset r4, -8
	@DEBUG_VALUE: ft5336_TS_DetectTouch:DeviceAddr <- $r0
	@DEBUG_VALUE: ft5336_TS_DetectTouch:DeviceAddr <- $r0
.Ltmp16:
	.loc	3 224 20 prologue_end   @ ../Drivers/BSP/Components/ft5336/ft5336.c:224:20
	movs	r4, #0
.Ltmp17:
	@DEBUG_VALUE: ft5336_TS_DetectTouch:nbTouch <- 0
	.loc	3 227 13                @ ../Drivers/BSP/Components/ft5336/ft5336.c:227:13
	uxtb	r0, r0
.Ltmp18:
	movs	r1, #2
	.loc	3 224 20                @ ../Drivers/BSP/Components/ft5336/ft5336.c:224:20
	strb.w	r4, [sp, #7]
	.loc	3 227 13                @ ../Drivers/BSP/Components/ft5336/ft5336.c:227:13
	bl	TS_IO_Read
	.loc	3 227 11 is_stmt 0      @ ../Drivers/BSP/Components/ft5336/ft5336.c:227:11
	strb.w	r0, [sp, #7]
	.loc	3 228 11 is_stmt 1      @ ../Drivers/BSP/Components/ft5336/ft5336.c:228:11
	ldrb.w	r0, [sp, #7]
	and	r0, r0, #15
	strb.w	r0, [sp, #7]
.Ltmp19:
	.loc	3 230 6                 @ ../Drivers/BSP/Components/ft5336/ft5336.c:230:6
	ldrb.w	r0, [sp, #7]
.Ltmp20:
	.loc	3 230 6 is_stmt 0       @ ../Drivers/BSP/Components/ft5336/ft5336.c:230:6
	cmp	r0, #6
	@DEBUG_VALUE: ft5336_TS_DetectTouch:nbTouch <- 0
	.loc	3 237 35 is_stmt 1      @ ../Drivers/BSP/Components/ft5336/ft5336.c:237:35
	ldr	r0, __arm_cp.4_0
.Ltmp21:
	.loc	3 233 13                @ ../Drivers/BSP/Components/ft5336/ft5336.c:233:13
	it	hs
	strbhs.w	r4, [sp, #7]
.Ltmp22:
	.loc	3 237 37                @ ../Drivers/BSP/Components/ft5336/ft5336.c:237:37
	ldrb.w	r1, [sp, #7]
	.loc	3 237 35 is_stmt 0      @ ../Drivers/BSP/Components/ft5336/ft5336.c:237:35
	strb	r1, [r0]
	.loc	3 240 36 is_stmt 1      @ ../Drivers/BSP/Components/ft5336/ft5336.c:240:36
	strb	r4, [r0, #1]
	.loc	3 242 3                 @ ../Drivers/BSP/Components/ft5336/ft5336.c:242:3
	ldrb.w	r0, [sp, #7]
	add	sp, #8
	pop	{r4, pc}
.Ltmp23:
	.p2align	2
@ %bb.1:
	.loc	3 0 3 is_stmt 0         @ ../Drivers/BSP/Components/ft5336/ft5336.c:0:3
__arm_cp.4_0:
	.long	.L_MergedGlobals
.Lcpi_end0:
	.size	__arm_cp.4_0, .Lcpi_end0-__arm_cp.4_0
.Lfunc_end4:
	.size	ft5336_TS_DetectTouch, .Lfunc_end4-ft5336_TS_DetectTouch
	.cfi_endproc
	.cantunwind
	.fnend
                                        @ -- End function
	.section	.text.ft5336_TS_GetXY,"ax",%progbits
	.hidden	ft5336_TS_GetXY         @ -- Begin function ft5336_TS_GetXY
	.globl	ft5336_TS_GetXY
	.p2align	2
	.type	ft5336_TS_GetXY,%function
	.code	16                      @ @ft5336_TS_GetXY
	.thumb_func
ft5336_TS_GetXY:
.Lfunc_begin5:
	.loc	3 255 0 is_stmt 1       @ ../Drivers/BSP/Components/ft5336/ft5336.c:255:0
	.fnstart
	.cfi_startproc
@ %bb.0:
	.save	{r4, r5, r6, r7, r8, r9, r10, r11, lr}
	.pad	#4
	push.w	{r3, r4, r5, r6, r7, r8, r9, r10, r11, lr}
	.cfi_def_cfa_offset 40
	.cfi_offset lr, -4
	.cfi_offset r11, -8
	.cfi_offset r10, -12
	.cfi_offset r9, -16
	.cfi_offset r8, -20
	.cfi_offset r7, -24
	.cfi_offset r6, -28
	.cfi_offset r5, -32
	.cfi_offset r4, -36
	@DEBUG_VALUE: ft5336_TS_GetXY:DeviceAddr <- $r0
	@DEBUG_VALUE: ft5336_TS_GetXY:X <- $r1
	@DEBUG_VALUE: ft5336_TS_GetXY:Y <- $r2
.Ltmp24:
	.loc	3 263 20 prologue_end   @ ../Drivers/BSP/Components/ft5336/ft5336.c:263:20
	ldr	r7, __arm_cp.5_0
	mov	r11, r1
.Ltmp25:
	@DEBUG_VALUE: ft5336_TS_GetXY:Y <- $r10
	@DEBUG_VALUE: ft5336_TS_GetXY:X <- $r11
	@DEBUG_VALUE: ft5336_TS_GetXY:DeviceAddr <- $r0
	.loc	3 256 20                @ ../Drivers/BSP/Components/ft5336/ft5336.c:256:20
	movs	r1, #0
.Ltmp26:
	@DEBUG_VALUE: ft5336_TS_GetXY:ucReadData <- 0
	.loc	3 0 20 is_stmt 0        @ ../Drivers/BSP/Components/ft5336/ft5336.c:0:20
	mov	r10, r2
.Ltmp27:
	.loc	3 256 20                @ ../Drivers/BSP/Components/ft5336/ft5336.c:256:20
	strb.w	r1, [sp, #3]
.Ltmp28:
	@DEBUG_VALUE: ft5336_TS_GetXY:regAddressYHigh <- 0
	@DEBUG_VALUE: ft5336_TS_GetXY:regAddressYLow <- 0
	@DEBUG_VALUE: ft5336_TS_GetXY:regAddressXHigh <- 0
	@DEBUG_VALUE: ft5336_TS_GetXY:regAddressXLow <- 0
	.loc	3 263 55 is_stmt 1      @ ../Drivers/BSP/Components/ft5336/ft5336.c:263:55
	ldrb	r2, [r7]
	.loc	3 263 20 is_stmt 0      @ ../Drivers/BSP/Components/ft5336/ft5336.c:263:20
	ldrb	r1, [r7, #1]
.Ltmp29:
	@DEBUG_VALUE: ft5336_TS_GetXY:DeviceAddr <- undef
	.loc	3 263 6                 @ ../Drivers/BSP/Components/ft5336/ft5336.c:263:6
	cmp	r1, r2
	.loc	3 367 1 is_stmt 1       @ ../Drivers/BSP/Components/ft5336/ft5336.c:367:1
	it	hs
	pophs.w	{r3, r4, r5, r6, r7, r8, r9, r10, r11, pc}
.Ltmp30:
	.loc	3 265 5                 @ ../Drivers/BSP/Components/ft5336/ft5336.c:265:5
	cmp	r1, #9
	bhi	.LBB5_4
@ %bb.1:
	.loc	3 0 5 is_stmt 0         @ ../Drivers/BSP/Components/ft5336/ft5336.c:0:5
.LCPI5_2:
	tbb	[pc, r1]
@ %bb.2:
.LJTI5_0:
	.byte	(.LBB5_3-(.LCPI5_2+4))/2
	.byte	(.LBB5_5-(.LCPI5_2+4))/2
	.byte	(.LBB5_6-(.LCPI5_2+4))/2
	.byte	(.LBB5_7-(.LCPI5_2+4))/2
	.byte	(.LBB5_8-(.LCPI5_2+4))/2
	.byte	(.LBB5_9-(.LCPI5_2+4))/2
	.byte	(.LBB5_10-(.LCPI5_2+4))/2
	.byte	(.LBB5_11-(.LCPI5_2+4))/2
	.byte	(.LBB5_13-(.LCPI5_2+4))/2
	.byte	(.LBB5_12-(.LCPI5_2+4))/2
	.p2align	1
.LBB5_3:
	mov.w	r8, #5
	mov.w	r9, #6
	movs	r4, #3
	movs	r1, #4
.Ltmp31:
	@DEBUG_VALUE: ft5336_TS_GetXY:regAddressYHigh <- 5
	@DEBUG_VALUE: ft5336_TS_GetXY:regAddressYLow <- 6
	@DEBUG_VALUE: ft5336_TS_GetXY:regAddressXHigh <- 3
	@DEBUG_VALUE: ft5336_TS_GetXY:regAddressXLow <- 4
	b	.LBB5_14
.LBB5_4:
	movs	r1, #0
	movs	r4, #0
	mov.w	r9, #0
	mov.w	r8, #0
	b	.LBB5_14
.LBB5_5:
	mov.w	r8, #11
	mov.w	r9, #12
	movs	r4, #9
	movs	r1, #10
.Ltmp32:
	@DEBUG_VALUE: ft5336_TS_GetXY:regAddressYHigh <- 11
	@DEBUG_VALUE: ft5336_TS_GetXY:regAddressYLow <- 12
	@DEBUG_VALUE: ft5336_TS_GetXY:regAddressXHigh <- 9
	@DEBUG_VALUE: ft5336_TS_GetXY:regAddressXLow <- 10
	b	.LBB5_14
.LBB5_6:
	mov.w	r8, #17
	mov.w	r9, #18
	movs	r4, #15
	movs	r1, #16
.Ltmp33:
	@DEBUG_VALUE: ft5336_TS_GetXY:regAddressYHigh <- 17
	@DEBUG_VALUE: ft5336_TS_GetXY:regAddressYLow <- 18
	@DEBUG_VALUE: ft5336_TS_GetXY:regAddressXHigh <- 15
	@DEBUG_VALUE: ft5336_TS_GetXY:regAddressXLow <- 16
	b	.LBB5_14
.LBB5_7:
	mov.w	r8, #23
	mov.w	r9, #24
	movs	r4, #21
	movs	r1, #22
.Ltmp34:
	@DEBUG_VALUE: ft5336_TS_GetXY:regAddressYHigh <- 23
	@DEBUG_VALUE: ft5336_TS_GetXY:regAddressYLow <- 24
	@DEBUG_VALUE: ft5336_TS_GetXY:regAddressXHigh <- 21
	@DEBUG_VALUE: ft5336_TS_GetXY:regAddressXLow <- 22
	b	.LBB5_14
.LBB5_8:
	mov.w	r8, #29
	mov.w	r9, #30
	movs	r4, #27
	movs	r1, #28
.Ltmp35:
	@DEBUG_VALUE: ft5336_TS_GetXY:regAddressYHigh <- 29
	@DEBUG_VALUE: ft5336_TS_GetXY:regAddressYLow <- 30
	@DEBUG_VALUE: ft5336_TS_GetXY:regAddressXHigh <- 27
	@DEBUG_VALUE: ft5336_TS_GetXY:regAddressXLow <- 28
	b	.LBB5_14
.LBB5_9:
	mov.w	r8, #35
	mov.w	r9, #36
	movs	r4, #33
	movs	r1, #34
.Ltmp36:
	@DEBUG_VALUE: ft5336_TS_GetXY:regAddressYHigh <- 35
	@DEBUG_VALUE: ft5336_TS_GetXY:regAddressYLow <- 36
	@DEBUG_VALUE: ft5336_TS_GetXY:regAddressXHigh <- 33
	@DEBUG_VALUE: ft5336_TS_GetXY:regAddressXLow <- 34
	b	.LBB5_14
.LBB5_10:
	mov.w	r8, #41
	mov.w	r9, #42
	movs	r4, #39
	movs	r1, #40
.Ltmp37:
	@DEBUG_VALUE: ft5336_TS_GetXY:regAddressYHigh <- 41
	@DEBUG_VALUE: ft5336_TS_GetXY:regAddressYLow <- 42
	@DEBUG_VALUE: ft5336_TS_GetXY:regAddressXHigh <- 39
	@DEBUG_VALUE: ft5336_TS_GetXY:regAddressXLow <- 40
	b	.LBB5_14
.LBB5_11:
	mov.w	r8, #47
	mov.w	r9, #48
	movs	r4, #45
	movs	r1, #46
.Ltmp38:
	@DEBUG_VALUE: ft5336_TS_GetXY:regAddressYHigh <- 47
	@DEBUG_VALUE: ft5336_TS_GetXY:regAddressYLow <- 48
	@DEBUG_VALUE: ft5336_TS_GetXY:regAddressXHigh <- 45
	@DEBUG_VALUE: ft5336_TS_GetXY:regAddressXLow <- 46
	b	.LBB5_14
.LBB5_12:
	mov.w	r8, #59
	mov.w	r9, #60
	movs	r4, #57
	movs	r1, #58
.Ltmp39:
	@DEBUG_VALUE: ft5336_TS_GetXY:regAddressYHigh <- 59
	@DEBUG_VALUE: ft5336_TS_GetXY:regAddressYLow <- 60
	@DEBUG_VALUE: ft5336_TS_GetXY:regAddressXHigh <- 57
	@DEBUG_VALUE: ft5336_TS_GetXY:regAddressXLow <- 58
	b	.LBB5_14
.LBB5_13:
	mov.w	r8, #53
	mov.w	r9, #54
	movs	r4, #51
	movs	r1, #52
.Ltmp40:
	@DEBUG_VALUE: ft5336_TS_GetXY:regAddressYHigh <- 53
	@DEBUG_VALUE: ft5336_TS_GetXY:regAddressYLow <- 54
	@DEBUG_VALUE: ft5336_TS_GetXY:regAddressXHigh <- 51
	@DEBUG_VALUE: ft5336_TS_GetXY:regAddressXLow <- 52
.LBB5_14:
	.loc	3 343 18 is_stmt 1      @ ../Drivers/BSP/Components/ft5336/ft5336.c:343:18
	ldr	r5, __arm_cp.5_1
	uxtb	r6, r0
	uxtb	r1, r1
.Ltmp41:
	@DEBUG_VALUE: ft5336_TS_GetXY:regAddressXLow <- $r1
	mov	r0, r6
	blx	r5
.Ltmp42:
	.loc	3 343 16 is_stmt 0      @ ../Drivers/BSP/Components/ft5336/ft5336.c:343:16
	strb.w	r0, [sp, #3]
	.loc	3 347 18 is_stmt 1      @ ../Drivers/BSP/Components/ft5336/ft5336.c:347:18
	uxtb	r1, r4
.Ltmp43:
	@DEBUG_VALUE: ft5336_TS_GetXY:regAddressXHigh <- $r1
	.loc	3 344 13                @ ../Drivers/BSP/Components/ft5336/ft5336.c:344:13
	ldrb.w	r0, [sp, #3]
	.loc	3 344 11 is_stmt 0      @ ../Drivers/BSP/Components/ft5336/ft5336.c:344:11
	strh	r0, [r7, #2]
	.loc	3 347 18 is_stmt 1      @ ../Drivers/BSP/Components/ft5336/ft5336.c:347:18
	mov	r0, r6
	blx	r5
.Ltmp44:
	.loc	3 347 16 is_stmt 0      @ ../Drivers/BSP/Components/ft5336/ft5336.c:347:16
	strb.w	r0, [sp, #3]
	.loc	3 348 11 is_stmt 1      @ ../Drivers/BSP/Components/ft5336/ft5336.c:348:11
	ldrh	r0, [r7, #2]
	.loc	3 348 16 is_stmt 0      @ ../Drivers/BSP/Components/ft5336/ft5336.c:348:16
	ldrb.w	r1, [sp, #3]
	.loc	3 348 27                @ ../Drivers/BSP/Components/ft5336/ft5336.c:348:27
	and	r1, r1, #15
	.loc	3 348 11                @ ../Drivers/BSP/Components/ft5336/ft5336.c:348:11
	orr.w	r0, r0, r1, lsl #8
	.loc	3 354 18 is_stmt 1      @ ../Drivers/BSP/Components/ft5336/ft5336.c:354:18
	uxtb.w	r1, r9
.Ltmp45:
	@DEBUG_VALUE: ft5336_TS_GetXY:regAddressYLow <- $r1
	.loc	3 348 11                @ ../Drivers/BSP/Components/ft5336/ft5336.c:348:11
	strh	r0, [r7, #2]
	.loc	3 351 8                 @ ../Drivers/BSP/Components/ft5336/ft5336.c:351:8
	strh.w	r0, [r11]
	.loc	3 354 18                @ ../Drivers/BSP/Components/ft5336/ft5336.c:354:18
	mov	r0, r6
	blx	r5
.Ltmp46:
	.loc	3 354 16 is_stmt 0      @ ../Drivers/BSP/Components/ft5336/ft5336.c:354:16
	strb.w	r0, [sp, #3]
	.loc	3 358 18 is_stmt 1      @ ../Drivers/BSP/Components/ft5336/ft5336.c:358:18
	uxtb.w	r1, r8
.Ltmp47:
	@DEBUG_VALUE: ft5336_TS_GetXY:regAddressYHigh <- $r1
	.loc	3 355 13                @ ../Drivers/BSP/Components/ft5336/ft5336.c:355:13
	ldrb.w	r0, [sp, #3]
	.loc	3 355 11 is_stmt 0      @ ../Drivers/BSP/Components/ft5336/ft5336.c:355:11
	strh	r0, [r7, #2]
	.loc	3 358 18 is_stmt 1      @ ../Drivers/BSP/Components/ft5336/ft5336.c:358:18
	mov	r0, r6
	blx	r5
.Ltmp48:
	.loc	3 358 16 is_stmt 0      @ ../Drivers/BSP/Components/ft5336/ft5336.c:358:16
	strb.w	r0, [sp, #3]
	.loc	3 359 11 is_stmt 1      @ ../Drivers/BSP/Components/ft5336/ft5336.c:359:11
	ldrh	r0, [r7, #2]
	.loc	3 359 16 is_stmt 0      @ ../Drivers/BSP/Components/ft5336/ft5336.c:359:16
	ldrb.w	r1, [sp, #3]
	.loc	3 359 27                @ ../Drivers/BSP/Components/ft5336/ft5336.c:359:27
	and	r1, r1, #15
	.loc	3 359 11                @ ../Drivers/BSP/Components/ft5336/ft5336.c:359:11
	orr.w	r0, r0, r1, lsl #8
	strh	r0, [r7, #2]
	.loc	3 362 8 is_stmt 1       @ ../Drivers/BSP/Components/ft5336/ft5336.c:362:8
	strh.w	r0, [r10]
	.loc	3 364 37                @ ../Drivers/BSP/Components/ft5336/ft5336.c:364:37
	ldrb	r0, [r7, #1]
	adds	r0, #1
	strb	r0, [r7, #1]
.Ltmp49:
	.loc	3 367 1                 @ ../Drivers/BSP/Components/ft5336/ft5336.c:367:1
	pop.w	{r3, r4, r5, r6, r7, r8, r9, r10, r11, pc}
.Ltmp50:
	.p2align	2
@ %bb.15:
	.loc	3 0 1 is_stmt 0         @ ../Drivers/BSP/Components/ft5336/ft5336.c:0:1
__arm_cp.5_0:
	.long	.L_MergedGlobals
.Lcpi_end1:
	.size	__arm_cp.5_0, .Lcpi_end1-__arm_cp.5_0
__arm_cp.5_1:
	.long	TS_IO_Read
.Lcpi_end2:
	.size	__arm_cp.5_1, .Lcpi_end2-__arm_cp.5_1
.Lfunc_end5:
	.size	ft5336_TS_GetXY, .Lfunc_end5-ft5336_TS_GetXY
	.cfi_endproc
	.cantunwind
	.fnend
                                        @ -- End function
	.section	.text.ft5336_TS_EnableIT,"ax",%progbits
	.hidden	ft5336_TS_EnableIT      @ -- Begin function ft5336_TS_EnableIT
	.globl	ft5336_TS_EnableIT
	.p2align	1
	.type	ft5336_TS_EnableIT,%function
	.code	16                      @ @ft5336_TS_EnableIT
	.thumb_func
ft5336_TS_EnableIT:
.Lfunc_begin6:
	.loc	3 376 0 is_stmt 1       @ ../Drivers/BSP/Components/ft5336/ft5336.c:376:0
	.fnstart
	.cfi_startproc
@ %bb.0:
	@DEBUG_VALUE: ft5336_TS_EnableIT:DeviceAddr <- $r0
	@DEBUG_VALUE: ft5336_TS_EnableIT:DeviceAddr <- $r0
	@DEBUG_VALUE: ft5336_TS_EnableIT:regValue <- 1
	.loc	3 381 4 prologue_end    @ ../Drivers/BSP/Components/ft5336/ft5336.c:381:4
	uxtb	r0, r0
	movs	r1, #164
	movs	r2, #1
	b	TS_IO_Write
.Ltmp51:
.Lfunc_end6:
	.size	ft5336_TS_EnableIT, .Lfunc_end6-ft5336_TS_EnableIT
	.cfi_endproc
	.cantunwind
	.fnend
                                        @ -- End function
	.section	.text.ft5336_TS_ClearIT,"ax",%progbits
	.hidden	ft5336_TS_ClearIT       @ -- Begin function ft5336_TS_ClearIT
	.globl	ft5336_TS_ClearIT
	.p2align	1
	.type	ft5336_TS_ClearIT,%function
	.code	16                      @ @ft5336_TS_ClearIT
	.thumb_func
ft5336_TS_ClearIT:
.Lfunc_begin7:
	.loc	3 421 0                 @ ../Drivers/BSP/Components/ft5336/ft5336.c:421:0
	.fnstart
	.cfi_startproc
@ %bb.0:
	@DEBUG_VALUE: ft5336_TS_ClearIT:DeviceAddr <- $r0
	.loc	3 423 1 prologue_end    @ ../Drivers/BSP/Components/ft5336/ft5336.c:423:1
	bx	lr
.Ltmp52:
.Lfunc_end7:
	.size	ft5336_TS_ClearIT, .Lfunc_end7-ft5336_TS_ClearIT
	.cfi_endproc
	.cantunwind
	.fnend
                                        @ -- End function
	.section	.text.ft5336_TS_ITStatus,"ax",%progbits
	.hidden	ft5336_TS_ITStatus      @ -- Begin function ft5336_TS_ITStatus
	.globl	ft5336_TS_ITStatus
	.p2align	1
	.type	ft5336_TS_ITStatus,%function
	.code	16                      @ @ft5336_TS_ITStatus
	.thumb_func
ft5336_TS_ITStatus:
.Lfunc_begin8:
	.loc	3 408 0                 @ ../Drivers/BSP/Components/ft5336/ft5336.c:408:0
	.fnstart
	.cfi_startproc
@ %bb.0:
	@DEBUG_VALUE: ft5336_TS_ITStatus:DeviceAddr <- $r0
	.loc	3 410 3 prologue_end    @ ../Drivers/BSP/Components/ft5336/ft5336.c:410:3
	movs	r0, #0
	bx	lr
.Ltmp53:
.Lfunc_end8:
	.size	ft5336_TS_ITStatus, .Lfunc_end8-ft5336_TS_ITStatus
	.cfi_endproc
	.cantunwind
	.fnend
                                        @ -- End function
	.section	.text.ft5336_TS_DisableIT,"ax",%progbits
	.hidden	ft5336_TS_DisableIT     @ -- Begin function ft5336_TS_DisableIT
	.globl	ft5336_TS_DisableIT
	.p2align	1
	.type	ft5336_TS_DisableIT,%function
	.code	16                      @ @ft5336_TS_DisableIT
	.thumb_func
ft5336_TS_DisableIT:
.Lfunc_begin9:
	.loc	3 391 0                 @ ../Drivers/BSP/Components/ft5336/ft5336.c:391:0
	.fnstart
	.cfi_startproc
@ %bb.0:
	@DEBUG_VALUE: ft5336_TS_DisableIT:DeviceAddr <- $r0
	@DEBUG_VALUE: ft5336_TS_DisableIT:DeviceAddr <- $r0
	@DEBUG_VALUE: ft5336_TS_DisableIT:regValue <- 0
	.loc	3 396 3 prologue_end    @ ../Drivers/BSP/Components/ft5336/ft5336.c:396:3
	uxtb	r0, r0
	movs	r1, #164
	movs	r2, #0
	b	TS_IO_Write
.Ltmp54:
.Lfunc_end9:
	.size	ft5336_TS_DisableIT, .Lfunc_end9-ft5336_TS_DisableIT
	.cfi_endproc
	.cantunwind
	.fnend
                                        @ -- End function
	.section	.text.ft5336_I2C_InitializeIfRequired,"ax",%progbits
	.p2align	2               @ -- Begin function ft5336_I2C_InitializeIfRequired
	.type	ft5336_I2C_InitializeIfRequired,%function
	.code	16                      @ @ft5336_I2C_InitializeIfRequired
	.thumb_func
ft5336_I2C_InitializeIfRequired:
.Lfunc_begin10:
	.loc	3 579 0                 @ ../Drivers/BSP/Components/ft5336/ft5336.c:579:0
	.fnstart
	.cfi_startproc
@ %bb.0:
	.save	{r4, lr}
	push	{r4, lr}
	.cfi_def_cfa_offset 8
	.cfi_offset lr, -4
	.cfi_offset r4, -8
	ldr	r4, __arm_cp.10_0
	ldrb	r0, [r4]
.Ltmp55:
	.loc	3 580 6 prologue_end    @ ../Drivers/BSP/Components/ft5336/ft5336.c:580:6
	cbnz	r0, .LBB10_2
@ %bb.1:
.Ltmp56:
	.loc	3 583 5                 @ ../Drivers/BSP/Components/ft5336/ft5336.c:583:5
	bl	TS_IO_Init
	movs	r0, #1
	strb	r0, [r4]
.Ltmp57:
.LBB10_2:
	.loc	3 588 1                 @ ../Drivers/BSP/Components/ft5336/ft5336.c:588:1
	pop	{r4, pc}
.Ltmp58:
	.p2align	2
@ %bb.3:
	.loc	3 0 1 is_stmt 0         @ ../Drivers/BSP/Components/ft5336/ft5336.c:0:1
__arm_cp.10_0:
	.long	ft5336_handle.0
.Lcpi_end3:
	.size	__arm_cp.10_0, .Lcpi_end3-__arm_cp.10_0
.Lfunc_end10:
	.size	ft5336_I2C_InitializeIfRequired, .Lfunc_end10-ft5336_I2C_InitializeIfRequired
	.cfi_endproc
	.cantunwind
	.fnend
                                        @ -- End function
	.section	.text.ft5336_TS_GetGestureID,"ax",%progbits
	.hidden	ft5336_TS_GetGestureID  @ -- Begin function ft5336_TS_GetGestureID
	.globl	ft5336_TS_GetGestureID
	.p2align	1
	.type	ft5336_TS_GetGestureID,%function
	.code	16                      @ @ft5336_TS_GetGestureID
	.thumb_func
ft5336_TS_GetGestureID:
.Lfunc_begin11:
	.loc	3 436 0 is_stmt 1       @ ../Drivers/BSP/Components/ft5336/ft5336.c:436:0
	.fnstart
	.cfi_startproc
@ %bb.0:
	.save	{r4, lr}
	.pad	#8
	push	{r2, r3, r4, lr}
	.cfi_def_cfa_offset 16
	.cfi_offset lr, -4
	.cfi_offset r4, -8
	@DEBUG_VALUE: ft5336_TS_GetGestureID:DeviceAddr <- $r0
	@DEBUG_VALUE: ft5336_TS_GetGestureID:pGestureId <- $r1
	mov	r4, r1
.Ltmp59:
	@DEBUG_VALUE: ft5336_TS_GetGestureID:pGestureId <- $r4
	@DEBUG_VALUE: ft5336_TS_GetGestureID:DeviceAddr <- $r0
	.loc	3 437 20 prologue_end   @ ../Drivers/BSP/Components/ft5336/ft5336.c:437:20
	movs	r1, #0
.Ltmp60:
	@DEBUG_VALUE: ft5336_TS_GetGestureID:ucReadData <- 0
	.loc	3 439 16                @ ../Drivers/BSP/Components/ft5336/ft5336.c:439:16
	uxtb	r0, r0
.Ltmp61:
	.loc	3 437 20                @ ../Drivers/BSP/Components/ft5336/ft5336.c:437:20
	strb.w	r1, [sp, #7]
	.loc	3 439 16                @ ../Drivers/BSP/Components/ft5336/ft5336.c:439:16
	movs	r1, #1
	bl	TS_IO_Read
	.loc	3 439 14 is_stmt 0      @ ../Drivers/BSP/Components/ft5336/ft5336.c:439:14
	strb.w	r0, [sp, #7]
	.loc	3 441 18 is_stmt 1      @ ../Drivers/BSP/Components/ft5336/ft5336.c:441:18
	ldrb.w	r0, [sp, #7]
	.loc	3 441 16 is_stmt 0      @ ../Drivers/BSP/Components/ft5336/ft5336.c:441:16
	strb	r0, [r4]
	.loc	3 442 1 is_stmt 1       @ ../Drivers/BSP/Components/ft5336/ft5336.c:442:1
	pop	{r2, r3, r4, pc}
.Ltmp62:
.Lfunc_end11:
	.size	ft5336_TS_GetGestureID, .Lfunc_end11-ft5336_TS_GetGestureID
	.cfi_endproc
	.cantunwind
	.fnend
                                        @ -- End function
	.section	.text.ft5336_TS_GetTouchInfo,"ax",%progbits
	.hidden	ft5336_TS_GetTouchInfo  @ -- Begin function ft5336_TS_GetTouchInfo
	.globl	ft5336_TS_GetTouchInfo
	.p2align	2
	.type	ft5336_TS_GetTouchInfo,%function
	.code	16                      @ @ft5336_TS_GetTouchInfo
	.thumb_func
ft5336_TS_GetTouchInfo:
.Lfunc_begin12:
	.loc	3 464 0                 @ ../Drivers/BSP/Components/ft5336/ft5336.c:464:0
	.fnstart
	.cfi_startproc
@ %bb.0:
	.save	{r4, r5, r6, r7, r8, r9, r10, lr}
	.pad	#8
	push.w	{r2, r3, r4, r5, r6, r7, r8, r9, r10, lr}
	.cfi_def_cfa_offset 40
	.cfi_offset lr, -4
	.cfi_offset r10, -8
	.cfi_offset r9, -12
	.cfi_offset r8, -16
	.cfi_offset r7, -20
	.cfi_offset r6, -24
	.cfi_offset r5, -28
	.cfi_offset r4, -32
	@DEBUG_VALUE: ft5336_TS_GetTouchInfo:DeviceAddr <- $r0
	@DEBUG_VALUE: ft5336_TS_GetTouchInfo:touchIdx <- $r1
	@DEBUG_VALUE: ft5336_TS_GetTouchInfo:pWeight <- $r2
	@DEBUG_VALUE: ft5336_TS_GetTouchInfo:pArea <- $r3
	mov	r5, r2
	@DEBUG_VALUE: ft5336_TS_GetTouchInfo:pEvent <- [DW_OP_plus_uconst 40] [$sp+0]
.Ltmp63:
	@DEBUG_VALUE: ft5336_TS_GetTouchInfo:pArea <- $r10
	@DEBUG_VALUE: ft5336_TS_GetTouchInfo:pWeight <- $r5
	@DEBUG_VALUE: ft5336_TS_GetTouchInfo:touchIdx <- $r1
	@DEBUG_VALUE: ft5336_TS_GetTouchInfo:DeviceAddr <- $r0
	.loc	3 465 20 prologue_end   @ ../Drivers/BSP/Components/ft5336/ft5336.c:465:20
	movs	r2, #0
.Ltmp64:
	@DEBUG_VALUE: ft5336_TS_GetTouchInfo:ucReadData <- 0
	.loc	3 0 20 is_stmt 0        @ ../Drivers/BSP/Components/ft5336/ft5336.c:0:20
	mov	r10, r3
.Ltmp65:
	.loc	3 465 20                @ ../Drivers/BSP/Components/ft5336/ft5336.c:465:20
	strb.w	r2, [sp, #7]
.Ltmp66:
	@DEBUG_VALUE: ft5336_TS_GetTouchInfo:regAddressPMisc <- 0
	@DEBUG_VALUE: ft5336_TS_GetTouchInfo:regAddressPWeight <- 0
	@DEBUG_VALUE: ft5336_TS_GetTouchInfo:regAddressXHigh <- 0
	.loc	3 470 31 is_stmt 1      @ ../Drivers/BSP/Components/ft5336/ft5336.c:470:31
	ldr	r2, __arm_cp.12_0
	.loc	3 470 17 is_stmt 0      @ ../Drivers/BSP/Components/ft5336/ft5336.c:470:17
	ldrb	r2, [r2]
.Ltmp67:
	@DEBUG_VALUE: ft5336_TS_GetTouchInfo:DeviceAddr <- undef
	.loc	3 470 6                 @ ../Drivers/BSP/Components/ft5336/ft5336.c:470:6
	cmp	r2, r1
	.loc	3 552 1 is_stmt 1       @ ../Drivers/BSP/Components/ft5336/ft5336.c:552:1
	it	ls
	popls.w	{r2, r3, r4, r5, r6, r7, r8, r9, r10, pc}
.Ltmp68:
	.loc	3 0 1 is_stmt 0         @ ../Drivers/BSP/Components/ft5336/ft5336.c:0:1
	ldr.w	r8, [sp, #40]
.Ltmp69:
	.loc	3 472 5 is_stmt 1       @ ../Drivers/BSP/Components/ft5336/ft5336.c:472:5
	cmp	r1, #9
	bhi	.LBB12_4
.Ltmp70:
@ %bb.1:
	@DEBUG_VALUE: ft5336_TS_GetTouchInfo:touchIdx <- $r1
	.loc	3 0 5 is_stmt 0         @ ../Drivers/BSP/Components/ft5336/ft5336.c:0:5
.LCPI12_2:
	tbb	[pc, r1]
.Ltmp71:
@ %bb.2:
.LJTI12_0:
	.byte	(.LBB12_3-(.LCPI12_2+4))/2
	.byte	(.LBB12_5-(.LCPI12_2+4))/2
	.byte	(.LBB12_6-(.LCPI12_2+4))/2
	.byte	(.LBB12_7-(.LCPI12_2+4))/2
	.byte	(.LBB12_8-(.LCPI12_2+4))/2
	.byte	(.LBB12_9-(.LCPI12_2+4))/2
	.byte	(.LBB12_10-(.LCPI12_2+4))/2
	.byte	(.LBB12_11-(.LCPI12_2+4))/2
	.byte	(.LBB12_13-(.LCPI12_2+4))/2
	.byte	(.LBB12_12-(.LCPI12_2+4))/2
	.p2align	1
.LBB12_3:
.Ltmp72:
	@DEBUG_VALUE: ft5336_TS_GetTouchInfo:touchIdx <- $r1
	mov.w	r9, #8
	movs	r7, #7
	movs	r1, #3
.Ltmp73:
	@DEBUG_VALUE: ft5336_TS_GetTouchInfo:regAddressPMisc <- 8
	@DEBUG_VALUE: ft5336_TS_GetTouchInfo:regAddressPWeight <- 7
	@DEBUG_VALUE: ft5336_TS_GetTouchInfo:regAddressXHigh <- 3
	b	.LBB12_14
.LBB12_4:
.Ltmp74:
	@DEBUG_VALUE: ft5336_TS_GetTouchInfo:touchIdx <- $r1
	movs	r1, #0
.Ltmp75:
	movs	r7, #0
	mov.w	r9, #0
	b	.LBB12_14
.LBB12_5:
.Ltmp76:
	@DEBUG_VALUE: ft5336_TS_GetTouchInfo:touchIdx <- $r1
	mov.w	r9, #14
	movs	r7, #13
	movs	r1, #9
.Ltmp77:
	@DEBUG_VALUE: ft5336_TS_GetTouchInfo:regAddressPMisc <- 14
	@DEBUG_VALUE: ft5336_TS_GetTouchInfo:regAddressPWeight <- 13
	@DEBUG_VALUE: ft5336_TS_GetTouchInfo:regAddressXHigh <- 9
	b	.LBB12_14
.LBB12_6:
.Ltmp78:
	@DEBUG_VALUE: ft5336_TS_GetTouchInfo:touchIdx <- $r1
	mov.w	r9, #20
	movs	r7, #19
	movs	r1, #15
.Ltmp79:
	@DEBUG_VALUE: ft5336_TS_GetTouchInfo:regAddressPMisc <- 20
	@DEBUG_VALUE: ft5336_TS_GetTouchInfo:regAddressPWeight <- 19
	@DEBUG_VALUE: ft5336_TS_GetTouchInfo:regAddressXHigh <- 15
	b	.LBB12_14
.LBB12_7:
.Ltmp80:
	@DEBUG_VALUE: ft5336_TS_GetTouchInfo:touchIdx <- $r1
	mov.w	r9, #26
	movs	r7, #25
	movs	r1, #21
.Ltmp81:
	@DEBUG_VALUE: ft5336_TS_GetTouchInfo:regAddressPMisc <- 26
	@DEBUG_VALUE: ft5336_TS_GetTouchInfo:regAddressPWeight <- 25
	@DEBUG_VALUE: ft5336_TS_GetTouchInfo:regAddressXHigh <- 21
	b	.LBB12_14
.LBB12_8:
.Ltmp82:
	@DEBUG_VALUE: ft5336_TS_GetTouchInfo:touchIdx <- $r1
	mov.w	r9, #32
	movs	r7, #31
	movs	r1, #27
.Ltmp83:
	@DEBUG_VALUE: ft5336_TS_GetTouchInfo:regAddressPMisc <- 32
	@DEBUG_VALUE: ft5336_TS_GetTouchInfo:regAddressPWeight <- 31
	@DEBUG_VALUE: ft5336_TS_GetTouchInfo:regAddressXHigh <- 27
	b	.LBB12_14
.LBB12_9:
.Ltmp84:
	@DEBUG_VALUE: ft5336_TS_GetTouchInfo:touchIdx <- $r1
	mov.w	r9, #38
	movs	r7, #37
	movs	r1, #33
.Ltmp85:
	@DEBUG_VALUE: ft5336_TS_GetTouchInfo:regAddressPMisc <- 38
	@DEBUG_VALUE: ft5336_TS_GetTouchInfo:regAddressPWeight <- 37
	@DEBUG_VALUE: ft5336_TS_GetTouchInfo:regAddressXHigh <- 33
	b	.LBB12_14
.LBB12_10:
.Ltmp86:
	@DEBUG_VALUE: ft5336_TS_GetTouchInfo:touchIdx <- $r1
	mov.w	r9, #44
	movs	r7, #43
	movs	r1, #39
.Ltmp87:
	@DEBUG_VALUE: ft5336_TS_GetTouchInfo:regAddressPMisc <- 44
	@DEBUG_VALUE: ft5336_TS_GetTouchInfo:regAddressPWeight <- 43
	@DEBUG_VALUE: ft5336_TS_GetTouchInfo:regAddressXHigh <- 39
	b	.LBB12_14
.LBB12_11:
.Ltmp88:
	@DEBUG_VALUE: ft5336_TS_GetTouchInfo:touchIdx <- $r1
	mov.w	r9, #50
	movs	r7, #49
	movs	r1, #45
.Ltmp89:
	@DEBUG_VALUE: ft5336_TS_GetTouchInfo:regAddressPMisc <- 50
	@DEBUG_VALUE: ft5336_TS_GetTouchInfo:regAddressPWeight <- 49
	@DEBUG_VALUE: ft5336_TS_GetTouchInfo:regAddressXHigh <- 45
	b	.LBB12_14
.LBB12_12:
.Ltmp90:
	@DEBUG_VALUE: ft5336_TS_GetTouchInfo:touchIdx <- $r1
	mov.w	r9, #62
	movs	r7, #61
	movs	r1, #57
.Ltmp91:
	@DEBUG_VALUE: ft5336_TS_GetTouchInfo:regAddressPMisc <- 62
	@DEBUG_VALUE: ft5336_TS_GetTouchInfo:regAddressPWeight <- 61
	@DEBUG_VALUE: ft5336_TS_GetTouchInfo:regAddressXHigh <- 57
	b	.LBB12_14
.LBB12_13:
.Ltmp92:
	@DEBUG_VALUE: ft5336_TS_GetTouchInfo:touchIdx <- $r1
	mov.w	r9, #56
	movs	r7, #55
	movs	r1, #51
.Ltmp93:
	@DEBUG_VALUE: ft5336_TS_GetTouchInfo:regAddressPMisc <- 56
	@DEBUG_VALUE: ft5336_TS_GetTouchInfo:regAddressPWeight <- 55
	@DEBUG_VALUE: ft5336_TS_GetTouchInfo:regAddressXHigh <- 51
.LBB12_14:
	.loc	3 540 18 is_stmt 1      @ ../Drivers/BSP/Components/ft5336/ft5336.c:540:18
	ldr	r4, __arm_cp.12_1
	uxtb	r6, r0
	uxtb	r1, r1
.Ltmp94:
	@DEBUG_VALUE: ft5336_TS_GetTouchInfo:regAddressXHigh <- $r1
	mov	r0, r6
	blx	r4
.Ltmp95:
	.loc	3 540 16 is_stmt 0      @ ../Drivers/BSP/Components/ft5336/ft5336.c:540:16
	strb.w	r0, [sp, #7]
	.loc	3 544 18 is_stmt 1      @ ../Drivers/BSP/Components/ft5336/ft5336.c:544:18
	uxtb	r1, r7
.Ltmp96:
	@DEBUG_VALUE: ft5336_TS_GetTouchInfo:regAddressPWeight <- $r1
	.loc	3 541 17                @ ../Drivers/BSP/Components/ft5336/ft5336.c:541:17
	ldrb.w	r0, [sp, #7]
	.loc	3 541 58 is_stmt 0      @ ../Drivers/BSP/Components/ft5336/ft5336.c:541:58
	lsrs	r0, r0, #6
	.loc	3 541 14                @ ../Drivers/BSP/Components/ft5336/ft5336.c:541:14
	str.w	r0, [r8]
	.loc	3 544 18 is_stmt 1      @ ../Drivers/BSP/Components/ft5336/ft5336.c:544:18
	mov	r0, r6
	blx	r4
.Ltmp97:
	.loc	3 544 16 is_stmt 0      @ ../Drivers/BSP/Components/ft5336/ft5336.c:544:16
	strb.w	r0, [sp, #7]
	.loc	3 548 18 is_stmt 1      @ ../Drivers/BSP/Components/ft5336/ft5336.c:548:18
	uxtb.w	r1, r9
.Ltmp98:
	@DEBUG_VALUE: ft5336_TS_GetTouchInfo:regAddressPMisc <- $r1
	.loc	3 545 18                @ ../Drivers/BSP/Components/ft5336/ft5336.c:545:18
	ldrb.w	r0, [sp, #7]
	.loc	3 545 15 is_stmt 0      @ ../Drivers/BSP/Components/ft5336/ft5336.c:545:15
	str	r0, [r5]
	.loc	3 548 18 is_stmt 1      @ ../Drivers/BSP/Components/ft5336/ft5336.c:548:18
	mov	r0, r6
	blx	r4
.Ltmp99:
	.loc	3 548 16 is_stmt 0      @ ../Drivers/BSP/Components/ft5336/ft5336.c:548:16
	strb.w	r0, [sp, #7]
	.loc	3 549 53 is_stmt 1      @ ../Drivers/BSP/Components/ft5336/ft5336.c:549:53
	movs	r1, #4
	.loc	3 549 16 is_stmt 0      @ ../Drivers/BSP/Components/ft5336/ft5336.c:549:16
	ldrb.w	r0, [sp, #7]
	.loc	3 549 53                @ ../Drivers/BSP/Components/ft5336/ft5336.c:549:53
	and.w	r0, r1, r0, lsr #4
	.loc	3 549 13                @ ../Drivers/BSP/Components/ft5336/ft5336.c:549:13
	str.w	r0, [r10]
.Ltmp100:
	.loc	3 552 1 is_stmt 1       @ ../Drivers/BSP/Components/ft5336/ft5336.c:552:1
	pop.w	{r2, r3, r4, r5, r6, r7, r8, r9, r10, pc}
.Ltmp101:
	.p2align	2
@ %bb.15:
	.loc	3 0 1 is_stmt 0         @ ../Drivers/BSP/Components/ft5336/ft5336.c:0:1
__arm_cp.12_0:
	.long	.L_MergedGlobals
.Lcpi_end4:
	.size	__arm_cp.12_0, .Lcpi_end4-__arm_cp.12_0
__arm_cp.12_1:
	.long	TS_IO_Read
.Lcpi_end5:
	.size	__arm_cp.12_1, .Lcpi_end5-__arm_cp.12_1
.Lfunc_end12:
	.size	ft5336_TS_GetTouchInfo, .Lfunc_end12-ft5336_TS_GetTouchInfo
	.cfi_endproc
	.cantunwind
	.fnend
                                        @ -- End function
	.hidden	ft5336_ts_drv           @ @ft5336_ts_drv
	.type	ft5336_ts_drv,%object
	.section	.data.ft5336_ts_drv,"aw",%progbits
	.globl	ft5336_ts_drv
	.p2align	2
ft5336_ts_drv:
	.long	ft5336_Init
	.long	ft5336_ReadID
	.long	ft5336_Reset
	.long	ft5336_TS_Start
	.long	ft5336_TS_DetectTouch
	.long	ft5336_TS_GetXY
	.long	ft5336_TS_EnableIT
	.long	ft5336_TS_ClearIT
	.long	ft5336_TS_ITStatus
	.long	ft5336_TS_DisableIT
	.size	ft5336_ts_drv, 40

	.type	ft5336_handle.0,%object @ @ft5336_handle.0
	.section	.bss.ft5336_handle.0,"aw",%nobits
ft5336_handle.0:
	.byte	0                       @ 0x0
	.size	ft5336_handle.0, 1

	.type	.L_MergedGlobals,%object @ @_MergedGlobals
	.section	.bss..L_MergedGlobals,"aw",%nobits
	.p2align	2
.L_MergedGlobals:
	.zero	4
	.size	.L_MergedGlobals, 4

	.section	".note.GNU-stack","",%progbits
	.eabi_attribute	30, 4	@ Tag_ABI_optimization_goals
	.ARM_attribute	16, 1	@ Tag_AV_eba