	.text
	.syntax unified
	.eabi_attribute	67, "2.09"	@ Tag_conformance
	.cpu	cortex-m7
	.eabi_attribute	6, 13	@ Tag_CPU_arch
	.eabi_attribute	7, 77	@ Tag_CPU_arch_profile
	.eabi_attribute	8, 0	@ Tag_ARM_ISA_use
	.eabi_attribute	9, 2	@ Tag_THUMB_ISA_use
	.fpu	fpv5-sp-d16
	.eabi_attribute	27, 1	@ Tag_ABI_HardFP_use
	.eabi_attribute	36, 1	@ Tag_FP_HP_extension
	.eabi_attribute	34, 1	@ Tag_CPU_unaligned_access
	.eabi_attribute	17, 1	@ Tag_ABI_PCS_GOT_use
	.eabi_attribute	20, 2	@ Tag_ABI_FP_denormal
	.eabi_attribute	21, 0	@ Tag_ABI_FP_exceptions
	.eabi_attribute	23, 1	@ Tag_ABI_FP_number_model
	.eabi_attribute	24, 1	@ Tag_ABI_align_needed
	.eabi_attribute	25, 1	@ Tag_ABI_align_preserved
	.eabi_attribute	28, 1	@ Tag_ABI_VFP_args
	.eabi_attribute	38, 1	@ Tag_ABI_FP_16bit_format
	.eabi_attribute	18, 2	@ Tag_ABI_PCS_wchar_t
	.eabi_attribute	26, 1	@ Tag_ABI_enum_size
	.eabi_attribute	14, 0	@ Tag_ABI_PCS_R9_use
	.file	"LCDConf.c"
	.file	1 "../Src" "LCDConf.c"
	.file	2 "../Middlewares/ST/STemWin/inc" "LCD.h"
	.file	3 "C:\\Keil\\ARM\\ARMCLANG\\Bin\\..\\include" "stdint.h"
	.file	4 "../Drivers/STM32F7xx_HAL_Driver/Inc" "stm32f7xx_hal_def.h"
	.file	5 "../Drivers/STM32F7xx_HAL_Driver/Inc" "stm32f7xx_hal_ltdc.h"
	.file	6 "../Drivers/STM32F7xx_HAL_Driver/Inc" "stm32f7xx_hal_gpio.h"
	.file	7 "../Drivers/CMSIS/Device/ST/STM32F7xx/Include" "stm32f746xx.h"
	.section	.text.HAL_LTDC_LineEventCallback,"ax",%progbits
	.hidden	HAL_LTDC_LineEventCallback @ -- Begin function HAL_LTDC_LineEventCallback
	.globl	HAL_LTDC_LineEventCallback
	.p2align	2
	.type	HAL_LTDC_LineEventCallback,%function
	.code	16                      @ @HAL_LTDC_LineEventCallback
	.thumb_func
HAL_LTDC_LineEventCallback:
.Lfunc_begin0:
	.loc	1 1231 0                @ ../Src/LCDConf.c:1231:0
	.fnstart
	.cfi_sections .debug_frame
	.cfi_startproc
@ %bb.0:
	.save	{r4, r5, r6, r7, r8, r9, lr}
	.pad	#4
	push.w	{r3, r4, r5, r6, r7, r8, r9, lr}
	.cfi_def_cfa_offset 32
	.cfi_offset lr, -4
	.cfi_offset r9, -8
	.cfi_offset r8, -12
	.cfi_offset r7, -16
	.cfi_offset r6, -20
	.cfi_offset r5, -24
	.cfi_offset r4, -28
	@DEBUG_VALUE: HAL_LTDC_LineEventCallback:hltdc <- $r0
	mov	r4, r0
.Ltmp0:
	@DEBUG_VALUE: HAL_LTDC_LineEventCallback:hltdc <- $r4
	ldr	r0, __arm_cp.0_0
	ldr	r7, __arm_cp.0_1
	ldr.w	r8, __arm_cp.0_2
	movs	r5, #0
.Ltmp1:
	@DEBUG_VALUE: HAL_LTDC_LineEventCallback:i <- 0
	mov.w	r9, #-1
	add.w	r6, r0, #16
	b	.LBB0_4
.Ltmp2:
.LBB0_1:                                @   in Loop: Header=BB0_4 Depth=1
	@DEBUG_VALUE: HAL_LTDC_LineEventCallback:i <- $r5
	@DEBUG_VALUE: HAL_LTDC_LineEventCallback:hltdc <- $r4
	.loc	1 1237 7 prologue_end   @ ../Src/LCDConf.c:1237:7
	ldr.w	r0, [r7, r5, lsl #2]
.Ltmp3:
	.loc	1 1237 7 is_stmt 0      @ ../Src/LCDConf.c:1237:7
	cmp	r0, #0
	blt	.LBB0_3
.Ltmp4:
@ %bb.2:                                @   in Loop: Header=BB0_4 Depth=1
	@DEBUG_VALUE: HAL_LTDC_LineEventCallback:i <- $r5
	@DEBUG_VALUE: HAL_LTDC_LineEventCallback:hltdc <- $r4
	.loc	1 1239 23 is_stmt 1     @ ../Src/LCDConf.c:1239:23
	ldr	r2, [r6, #-16]
	.loc	1 1239 36 is_stmt 0     @ ../Src/LCDConf.c:1239:36
	ldr	r3, [r6, #-8]
	.loc	1 1239 11               @ ../Src/LCDConf.c:1239:11
	ldr.w	r1, [r8, r5, lsl #2]
	.loc	1 1239 34               @ ../Src/LCDConf.c:1239:34
	muls	r0, r2, r0
	.loc	1 1240 29 is_stmt 1     @ ../Src/LCDConf.c:1240:29
	ldr	r2, [r6]
	.loc	1 1239 47               @ ../Src/LCDConf.c:1239:47
	muls	r0, r3, r0
	.loc	1 1239 21 is_stmt 0     @ ../Src/LCDConf.c:1239:21
	mla	r1, r0, r2, r1
.Ltmp5:
	@DEBUG_VALUE: HAL_LTDC_LineEventCallback:Addr <- $r1
	.loc	1 1241 4 is_stmt 1      @ ../Src/LCDConf.c:1241:4
	mov	r0, r4
	mov	r2, r5
	bl	HAL_LTDC_SetAddress
.Ltmp6:
	.loc	1 1242 4                @ ../Src/LCDConf.c:1242:4
	ldr	r0, [r4]
	ldr	r1, [r0, #36]
	orr	r1, r1, #1
	str	r1, [r0, #36]
	.loc	1 1243 4                @ ../Src/LCDConf.c:1243:4
	mov	r0, r5
	.loc	1 1243 30 is_stmt 0     @ ../Src/LCDConf.c:1243:30
	ldr.w	r1, [r7, r5, lsl #2]
	.loc	1 1243 4                @ ../Src/LCDConf.c:1243:4
	bl	GUI_MULTIBUF_ConfirmEx
	.loc	1 1244 23 is_stmt 1     @ ../Src/LCDConf.c:1244:23
	str.w	r9, [r7, r5, lsl #2]
.Ltmp7:
.LBB0_3:                                @   in Loop: Header=BB0_4 Depth=1
	@DEBUG_VALUE: HAL_LTDC_LineEventCallback:i <- $r5
	@DEBUG_VALUE: HAL_LTDC_LineEventCallback:hltdc <- $r4
	.loc	1 1235 2                @ ../Src/LCDConf.c:1235:2
	adds	r6, #4
	.loc	1 1235 35 is_stmt 0     @ ../Src/LCDConf.c:1235:35
	adds	r5, #1
.Ltmp8:
	@DEBUG_VALUE: HAL_LTDC_LineEventCallback:i <- $r5
.LBB0_4:                                @ =>This Inner Loop Header: Depth=1
	@DEBUG_VALUE: HAL_LTDC_LineEventCallback:hltdc <- $r4
	@DEBUG_VALUE: HAL_LTDC_LineEventCallback:i <- $r5
	.loc	1 1235 2                @ ../Src/LCDConf.c:1235:2
	cmp	r5, #2
	bne	.LBB0_1
.Ltmp9:
@ %bb.5:
	@DEBUG_VALUE: HAL_LTDC_LineEventCallback:i <- $r5
	@DEBUG_VALUE: HAL_LTDC_LineEventCallback:hltdc <- $r4
	.loc	1 1248 2 is_stmt 1      @ ../Src/LCDConf.c:1248:2
	mov	r0, r4
	movs	r1, #0
	pop.w	{r3, r4, r5, r6, r7, r8, r9, lr}
.Ltmp10:
	b	HAL_LTDC_ProgramLineEvent
.Ltmp11:
	.p2align	2
@ %bb.6:
	.loc	1 0 2 is_stmt 0         @ ../Src/LCDConf.c:0:2
__arm_cp.0_0:
	.long	.L_MergedGlobals
.Lcpi_end0:
	.size	__arm_cp.0_0, .Lcpi_end0-__arm_cp.0_0
__arm_cp.0_1:
	.long	_aPendingBuffer
.Lcpi_end1:
	.size	__arm_cp.0_1, .Lcpi_end1-__arm_cp.0_1
__arm_cp.0_2:
	.long	_aAddr
.Lcpi_end2:
	.size	__arm_cp.0_2, .Lcpi_end2-__arm_cp.0_2
.Lfunc_end0:
	.size	HAL_LTDC_LineEventCallback, .Lfunc_end0-HAL_LTDC_LineEventCallback
	.cfi_endproc
	.cantunwind
	.fnend
                                        @ -- End function
	.section	.text.HAL_LTDC_MspInit,"ax",%progbits
	.hidden	HAL_LTDC_MspInit        @ -- Begin function HAL_LTDC_MspInit
	.globl	HAL_LTDC_MspInit
	.p2align	2
	.type	HAL_LTDC_MspInit,%function
	.code	16                      @ @HAL_LTDC_MspInit
	.thumb_func
HAL_LTDC_MspInit:
.Lfunc_begin1:
	.loc	1 1261 0 is_stmt 1      @ ../Src/LCDConf.c:1261:0
	.fnstart
	.cfi_startproc
@ %bb.0:
	.save	{r4, r5, r6, r7, r8, r9, r10, r11, lr}
	push.w	{r4, r5, r6, r7, r8, r9, r10, r11, lr}
	.cfi_def_cfa_offset 36
	.cfi_offset lr, -4
	.cfi_offset r11, -8
	.cfi_offset r10, -12
	.cfi_offset r9, -16
	.cfi_offset r8, -20
	.cfi_offset r7, -24
	.cfi_offset r6, -28
	.cfi_offset r5, -32
	.cfi_offset r4, -36
	.pad	#20
	sub	sp, #20
	.cfi_def_cfa_offset 56
	@DEBUG_VALUE: HAL_LTDC_MspInit:hltdc <- $r0
	ldr	r0, __arm_cp.1_0
.Ltmp12:
	.loc	1 1304 2 prologue_end   @ ../Src/LCDConf.c:1304:2
	ldr.w	r8, __arm_cp.1_2
.Ltmp13:
	.loc	1 1269 2                @ ../Src/LCDConf.c:1269:2
	mov.w	r9, #2
	mov	r4, sp
.Ltmp14:
	@DEBUG_VALUE: HAL_LTDC_MspInit:GPIO_InitStruct <- [$sp+0]
	.loc	1 0 2 is_stmt 0         @ ../Src/LCDConf.c:0:2
	movs	r7, #0
.Ltmp15:
	.loc	1 1302 24 is_stmt 1     @ ../Src/LCDConf.c:1302:24
	movs	r5, #3
	.loc	1 1303 28               @ ../Src/LCDConf.c:1303:28
	mov.w	r10, #14
.Ltmp16:
	.loc	1 1264 2                @ ../Src/LCDConf.c:1264:2
	ldr	r1, [r0, #20]
	orr	r1, r1, #67108864
	str	r1, [r0, #20]
	ldr	r1, [r0, #20]
	and	r1, r1, #67108864
.Ltmp17:
	@DEBUG_VALUE: tmpreg <- $r1
	str	r1, [sp]
	ldr	r1, [sp]
.Ltmp18:
	@DEBUG_VALUE: tmpreg <- $r1
	.loc	1 1265 2                @ ../Src/LCDConf.c:1265:2
	ldr	r1, [r0]
.Ltmp19:
	orr	r1, r1, #8388608
	str	r1, [r0]
	ldr	r1, [r0]
	and	r1, r1, #8388608
.Ltmp20:
	@DEBUG_VALUE: tmpreg <- $r1
	str	r1, [sp]
	ldr	r1, [sp]
.Ltmp21:
	@DEBUG_VALUE: tmpreg <- $r1
	.loc	1 1268 2                @ ../Src/LCDConf.c:1268:2
	ldr	r1, [r0]
.Ltmp22:
	orr	r1, r1, #1
	str	r1, [r0]
	ldr	r1, [r0]
	and	r1, r1, #1
.Ltmp23:
	@DEBUG_VALUE: tmpreg <- $r1
	str	r1, [sp]
	ldr	r1, [sp]
.Ltmp24:
	@DEBUG_VALUE: tmpreg <- $r1
	.loc	1 1269 2                @ ../Src/LCDConf.c:1269:2
	ldr	r1, [r0]
.Ltmp25:
	orr	r1, r1, #2
	str	r1, [r0]
	ldr	r1, [r0]
	and	r1, r1, #2
.Ltmp26:
	@DEBUG_VALUE: tmpreg <- $r1
	str	r1, [sp]
	ldr	r1, [sp]
.Ltmp27:
	@DEBUG_VALUE: tmpreg <- $r1
	.loc	1 1270 2                @ ../Src/LCDConf.c:1270:2
	ldr	r1, [r0]
.Ltmp28:
	orr	r1, r1, #4
	str	r1, [r0]
	ldr	r1, [r0]
	and	r1, r1, #4
.Ltmp29:
	@DEBUG_VALUE: tmpreg <- $r1
	str	r1, [sp]
	ldr	r1, [sp]
.Ltmp30:
	@DEBUG_VALUE: tmpreg <- $r1
	.loc	1 1271 2                @ ../Src/LCDConf.c:1271:2
	ldr	r1, [r0]
.Ltmp31:
	orr	r1, r1, #8
	str	r1, [r0]
	ldr	r1, [r0]
	and	r1, r1, #8
.Ltmp32:
	@DEBUG_VALUE: tmpreg <- $r1
	str	r1, [sp]
	ldr	r1, [sp]
.Ltmp33:
	@DEBUG_VALUE: tmpreg <- $r1
	.loc	1 1272 2                @ ../Src/LCDConf.c:1272:2
	ldr	r1, [r0]
.Ltmp34:
	orr	r1, r1, #16
	str	r1, [r0]
	ldr	r1, [r0]
	and	r1, r1, #16
.Ltmp35:
	@DEBUG_VALUE: tmpreg <- $r1
	str	r1, [sp]
	ldr	r1, [sp]
.Ltmp36:
	@DEBUG_VALUE: tmpreg <- $r1
	.loc	1 1273 2                @ ../Src/LCDConf.c:1273:2
	ldr	r1, [r0]
.Ltmp37:
	orr	r1, r1, #32
	str	r1, [r0]
	ldr	r1, [r0]
	and	r1, r1, #32
.Ltmp38:
	@DEBUG_VALUE: tmpreg <- $r1
	str	r1, [sp]
	ldr	r1, [sp]
.Ltmp39:
	@DEBUG_VALUE: tmpreg <- $r1
	.loc	1 1274 2                @ ../Src/LCDConf.c:1274:2
	ldr	r1, [r0]
.Ltmp40:
	orr	r1, r1, #64
	str	r1, [r0]
	ldr	r1, __arm_cp.1_1
	ldr	r0, [r0]
	mov	r11, r1
	and	r0, r0, #64
.Ltmp41:
	@DEBUG_VALUE: tmpreg <- $r0
	str	r0, [sp]
	ldr	r0, [sp]
.Ltmp42:
	@DEBUG_VALUE: tmpreg <- $r0
	.loc	1 1300 23               @ ../Src/LCDConf.c:1300:23
	str.w	r9, [sp, #4]
	.loc	1 1299 22               @ ../Src/LCDConf.c:1299:22
	mov.w	r0, #1024
.Ltmp43:
	str	r0, [sp]
	.loc	1 1304 2                @ ../Src/LCDConf.c:1304:2
	add.w	r0, r1, #5120
	mov	r1, r4
	.loc	1 1301 23               @ ../Src/LCDConf.c:1301:23
	str	r7, [sp, #8]
	.loc	1 1302 24               @ ../Src/LCDConf.c:1302:24
	str	r5, [sp, #12]
	.loc	1 1303 28               @ ../Src/LCDConf.c:1303:28
	str.w	r10, [sp, #16]
	.loc	1 1304 2                @ ../Src/LCDConf.c:1304:2
	blx	r8
	.loc	1 1306 22               @ ../Src/LCDConf.c:1306:22
	movs	r0, #193
	.loc	1 1307 23               @ ../Src/LCDConf.c:1307:23
	str.w	r9, [sp, #4]
	.loc	1 1311 2                @ ../Src/LCDConf.c:1311:2
	mov	r1, r4
	.loc	1 1306 22               @ ../Src/LCDConf.c:1306:22
	str	r0, [sp]
	.loc	1 1311 2                @ ../Src/LCDConf.c:1311:2
	add.w	r0, r11, #2048
	.loc	1 1308 23               @ ../Src/LCDConf.c:1308:23
	strd	r7, r5, [sp, #8]
	.loc	1 1310 28               @ ../Src/LCDConf.c:1310:28
	str.w	r10, [sp, #16]
	.loc	1 1311 2                @ ../Src/LCDConf.c:1311:2
	blx	r8
	.loc	1 1313 22               @ ../Src/LCDConf.c:1313:22
	movs	r0, #120
	.loc	1 1314 23               @ ../Src/LCDConf.c:1314:23
	str.w	r9, [sp, #4]
	.loc	1 1318 2                @ ../Src/LCDConf.c:1318:2
	mov	r1, r4
	.loc	1 1313 22               @ ../Src/LCDConf.c:1313:22
	str	r0, [sp]
	.loc	1 1318 2                @ ../Src/LCDConf.c:1318:2
	mov	r0, r11
	.loc	1 1315 23               @ ../Src/LCDConf.c:1315:23
	strd	r7, r5, [sp, #8]
	.loc	1 1317 28               @ ../Src/LCDConf.c:1317:28
	str.w	r10, [sp, #16]
	.loc	1 1318 2                @ ../Src/LCDConf.c:1318:2
	blx	r8
	.loc	1 1324 28               @ ../Src/LCDConf.c:1324:28
	movs	r0, #9
	.loc	1 1325 2                @ ../Src/LCDConf.c:1325:2
	add.w	r6, r11, #1024
	.loc	1 1320 22               @ ../Src/LCDConf.c:1320:22
	strd	r5, r9, [sp]
	.loc	1 1322 23               @ ../Src/LCDConf.c:1322:23
	strd	r7, r5, [sp, #8]
	.loc	1 1325 2                @ ../Src/LCDConf.c:1325:2
	mov	r1, r4
	.loc	1 1324 28               @ ../Src/LCDConf.c:1324:28
	str	r0, [sp, #16]
	.loc	1 1325 2                @ ../Src/LCDConf.c:1325:2
	mov	r0, r6
	blx	r8
	.loc	1 1327 22               @ ../Src/LCDConf.c:1327:22
	mov.w	r0, #3840
	.loc	1 1332 2                @ ../Src/LCDConf.c:1332:2
	mov	r1, r4
	.loc	1 1327 22               @ ../Src/LCDConf.c:1327:22
	strd	r0, r9, [sp]
	.loc	1 1332 2                @ ../Src/LCDConf.c:1332:2
	mov	r0, r6
	.loc	1 1329 23               @ ../Src/LCDConf.c:1329:23
	strd	r7, r5, [sp, #8]
	.loc	1 1331 28               @ ../Src/LCDConf.c:1331:28
	str.w	r10, [sp, #16]
	.loc	1 1332 2                @ ../Src/LCDConf.c:1332:2
	blx	r8
	.loc	1 1334 22               @ ../Src/LCDConf.c:1334:22
	mov.w	r0, #2240
	.loc	1 1339 2                @ ../Src/LCDConf.c:1339:2
	add.w	r6, r11, #6144
	mov	r1, r4
	.loc	1 1334 22               @ ../Src/LCDConf.c:1334:22
	strd	r0, r9, [sp]
	.loc	1 1339 2                @ ../Src/LCDConf.c:1339:2
	mov	r0, r6
	.loc	1 1336 23               @ ../Src/LCDConf.c:1336:23
	strd	r7, r5, [sp, #8]
	.loc	1 1338 28               @ ../Src/LCDConf.c:1338:28
	str.w	r10, [sp, #16]
	.loc	1 1339 2                @ ../Src/LCDConf.c:1339:2
	blx	r8
	movs	r0, #8
	.loc	1 1345 28               @ ../Src/LCDConf.c:1345:28
	str.w	r10, [sp, #16]
	.loc	1 1346 2                @ ../Src/LCDConf.c:1346:2
	mov	r1, r4
	.loc	1 1341 22               @ ../Src/LCDConf.c:1341:22
	strd	r0, r9, [sp]
	.loc	1 1346 2                @ ../Src/LCDConf.c:1346:2
	add.w	r0, r11, #3072
	.loc	1 1343 23               @ ../Src/LCDConf.c:1343:23
	strd	r7, r5, [sp, #8]
	.loc	1 1346 2                @ ../Src/LCDConf.c:1346:2
	blx	r8
	.loc	1 1304 2                @ ../Src/LCDConf.c:1304:2
	mov.w	r0, #5120
	.loc	1 1349 23               @ ../Src/LCDConf.c:1349:23
	str.w	r9, [sp, #4]
	.loc	1 1353 2                @ ../Src/LCDConf.c:1353:2
	mov	r1, r4
	.loc	1 1348 22               @ ../Src/LCDConf.c:1348:22
	str	r0, [sp]
	.loc	1 1352 28               @ ../Src/LCDConf.c:1352:28
	movs	r0, #9
	.loc	1 1350 23               @ ../Src/LCDConf.c:1350:23
	strd	r7, r5, [sp, #8]
	.loc	1 1352 28               @ ../Src/LCDConf.c:1352:28
	str	r0, [sp, #16]
	.loc	1 1353 2                @ ../Src/LCDConf.c:1353:2
	mov	r0, r6
	blx	r8
	.loc	1 1355 2                @ ../Src/LCDConf.c:1355:2
	add.w	r5, r11, #4096
	movs	r1, #4
	movs	r2, #0
	movs	r6, #4
	mov	r0, r5
	bl	HAL_GPIO_WritePin
.Ltmp44:
	.loc	1 1268 2                @ ../Src/LCDConf.c:1268:2
	movs	r0, #1
.Ltmp45:
	.loc	1 1361 2                @ ../Src/LCDConf.c:1361:2
	mov	r1, r4
	.loc	1 1357 22               @ ../Src/LCDConf.c:1357:22
	strd	r6, r0, [sp]
	.loc	1 1361 2                @ ../Src/LCDConf.c:1361:2
	mov	r0, r5
	.loc	1 1359 23               @ ../Src/LCDConf.c:1359:23
	strd	r7, r7, [sp, #8]
	.loc	1 1361 2                @ ../Src/LCDConf.c:1361:2
	blx	r8
	.loc	1 1440 1                @ ../Src/LCDConf.c:1440:1
	add	sp, #20
.Ltmp46:
	pop.w	{r4, r5, r6, r7, r8, r9, r10, r11, pc}
.Ltmp47:
	.p2align	2
@ %bb.1:
	.loc	1 0 1 is_stmt 0         @ ../Src/LCDConf.c:0:1
__arm_cp.1_0:
	.long	1073887280              @ 0x40023830
.Lcpi_end3:
	.size	__arm_cp.1_0, .Lcpi_end3-__arm_cp.1_0
__arm_cp.1_1:
	.long	1073872896              @ 0x40020000
.Lcpi_end4:
	.size	__arm_cp.1_1, .Lcpi_end4-__arm_cp.1_1
__arm_cp.1_2:
	.long	HAL_GPIO_Init
.Lcpi_end5:
	.size	__arm_cp.1_2, .Lcpi_end5-__arm_cp.1_2
.Lfunc_end1:
	.size	HAL_LTDC_MspInit, .Lfunc_end1-HAL_LTDC_MspInit
	.cfi_endproc
	.cantunwind
	.fnend
                                        @ -- End function
	.section	.text.LCD_X_DisplayDriver,"ax",%progbits
	.hidden	LCD_X_DisplayDriver     @ -- Begin function LCD_X_DisplayDriver
	.globl	LCD_X_DisplayDriver
	.p2align	2
	.type	LCD_X_DisplayDriver,%function
	.code	16                      @ @LCD_X_DisplayDriver
	.thumb_func
LCD_X_DisplayDriver:
.Lfunc_begin2:
	.loc	1 1464 0 is_stmt 1      @ ../Src/LCDConf.c:1464:0
	.fnstart
	.cfi_startproc
@ %bb.0:
	.save	{r4, r5, r6, lr}
	push	{r4, r5, r6, lr}
	.cfi_def_cfa_offset 16
	.cfi_offset lr, -4
	.cfi_offset r6, -8
	.cfi_offset r5, -12
	.cfi_offset r4, -16
	.pad	#56
	sub	sp, #56
	.cfi_def_cfa_offset 72
	@DEBUG_VALUE: LCD_X_DisplayDriver:LayerIndex <- $r0
	@DEBUG_VALUE: LCD_X_DisplayDriver:Cmd <- $r1
	@DEBUG_VALUE: LCD_X_DisplayDriver:p <- $r2
.Ltmp48:
	@DEBUG_VALUE: pSetChromaInfo <- $r2
	@DEBUG_VALUE: _LCD_SetChroma:LayerIndex <- $r0
	@DEBUG_VALUE: pSetChromaModeInfo <- $r2
	@DEBUG_VALUE: _LCD_SetChromaMode:LayerIndex <- $r0
	@DEBUG_VALUE: pSetAlphaInfo <- $r2
	@DEBUG_VALUE: _LCD_SetLayerAlpha:LayerIndex <- $r0
	@DEBUG_VALUE: pSetSizeInfo <- $r2
	@DEBUG_VALUE: _LCD_SetLayerSize:LayerIndex <- $r0
	@DEBUG_VALUE: pSetposInfo <- $r2
	@DEBUG_VALUE: _LCD_SetLayerPos:LayerIndex <- $r0
	@DEBUG_VALUE: pSetvisInfo <- $r2
	@DEBUG_VALUE: _LCD_SetVis:LayerIndex <- $r0
	@DEBUG_VALUE: pSetLutEntryInfo <- $r2
	@DEBUG_VALUE: _LCD_SetLUTEntry:LayerIndex <- $r0
	@DEBUG_VALUE: pShowBuffInfo <- $r2
	@DEBUG_VALUE: pSetOrgInfo <- $r2
	@DEBUG_VALUE: _LCD_SetOrg:LayerIndex <- $r0
	@DEBUG_VALUE: _LCD_InitLayer:LayerIndex <- $r0
	@DEBUG_VALUE: _GetPixelformat:LayerIndex <- $r0
	mov	r4, r0
.Ltmp49:
	@DEBUG_VALUE: LCD_X_DisplayDriver:r <- 0
	@DEBUG_VALUE: _GetPixelformat:LayerIndex <- $r4
	@DEBUG_VALUE: _LCD_InitLayer:LayerIndex <- $r4
	@DEBUG_VALUE: _LCD_SetOrg:LayerIndex <- $r4
	@DEBUG_VALUE: _LCD_SetLUTEntry:LayerIndex <- $r4
	@DEBUG_VALUE: _LCD_SetVis:LayerIndex <- $r4
	@DEBUG_VALUE: _LCD_SetLayerPos:LayerIndex <- $r4
	@DEBUG_VALUE: _LCD_SetLayerSize:LayerIndex <- $r4
	@DEBUG_VALUE: _LCD_SetLayerAlpha:LayerIndex <- $r4
	@DEBUG_VALUE: _LCD_SetChromaMode:LayerIndex <- $r4
	@DEBUG_VALUE: _LCD_SetChroma:LayerIndex <- $r4
	@DEBUG_VALUE: LCD_X_DisplayDriver:p <- $r6
	@DEBUG_VALUE: LCD_X_DisplayDriver:Cmd <- $r1
	@DEBUG_VALUE: LCD_X_DisplayDriver:LayerIndex <- $r4
	.loc	1 1467 2 prologue_end   @ ../Src/LCDConf.c:1467:2
	subs	r0, r1, #1
	mov	r6, r2
.Ltmp50:
	@DEBUG_VALUE: pSetOrgInfo <- $r6
	@DEBUG_VALUE: pShowBuffInfo <- $r6
	@DEBUG_VALUE: pSetLutEntryInfo <- $r6
	@DEBUG_VALUE: pSetvisInfo <- $r6
	@DEBUG_VALUE: pSetposInfo <- $r6
	@DEBUG_VALUE: pSetSizeInfo <- $r6
	@DEBUG_VALUE: pSetAlphaInfo <- $r6
	@DEBUG_VALUE: pSetChromaModeInfo <- $r6
	@DEBUG_VALUE: pSetChromaInfo <- $r6
	.loc	1 0 2 is_stmt 0         @ ../Src/LCDConf.c:0:2
	mov.w	r5, #-1
	.loc	1 1467 2                @ ../Src/LCDConf.c:1467:2
	cmp	r0, #13
	bhi.w	.LBB2_20
.Ltmp51:
@ %bb.1:
	@DEBUG_VALUE: LCD_X_DisplayDriver:LayerIndex <- $r4
	@DEBUG_VALUE: LCD_X_DisplayDriver:Cmd <- $r1
	.loc	1 0 2                   @ ../Src/LCDConf.c:0:2
.LCPI2_6:
	tbb	[pc, r0]
.Ltmp52:
@ %bb.2:
.LJTI2_0:
	.byte	(.LBB2_3-(.LCPI2_6+4))/2
	.byte	(.LBB2_20-(.LCPI2_6+4))/2
	.byte	(.LBB2_10-(.LCPI2_6+4))/2
	.byte	(.LBB2_6-(.LCPI2_6+4))/2
	.byte	(.LBB2_11-(.LCPI2_6+4))/2
	.byte	(.LBB2_12-(.LCPI2_6+4))/2
	.byte	(.LBB2_7-(.LCPI2_6+4))/2
	.byte	(.LBB2_13-(.LCPI2_6+4))/2
	.byte	(.LBB2_14-(.LCPI2_6+4))/2
	.byte	(.LBB2_15-(.LCPI2_6+4))/2
	.byte	(.LBB2_20-(.LCPI2_6+4))/2
	.byte	(.LBB2_16-(.LCPI2_6+4))/2
	.byte	(.LBB2_8-(.LCPI2_6+4))/2
	.byte	(.LBB2_9-(.LCPI2_6+4))/2
	.p2align	1
.LBB2_3:
.Ltmp53:
	@DEBUG_VALUE: LCD_X_DisplayDriver:LayerIndex <- $r4
	@DEBUG_VALUE: LCD_X_DisplayDriver:Cmd <- $r1
	.loc	1 1148 6 is_stmt 1      @ ../Src/LCDConf.c:1148:6
	cmp	r4, #1
	bgt.w	.LBB2_19
.Ltmp54:
@ %bb.4:
	@DEBUG_VALUE: LCD_X_DisplayDriver:LayerIndex <- $r4
	@DEBUG_VALUE: LCD_X_DisplayDriver:Cmd <- $r1
	.loc	1 0 6 is_stmt 0         @ ../Src/LCDConf.c:0:6
	movs	r5, #0
.Ltmp55:
	.loc	1 1151 28 is_stmt 1     @ ../Src/LCDConf.c:1151:28
	mov	r0, r4
	.loc	1 1150 26               @ ../Src/LCDConf.c:1150:26
	str	r5, [sp, #4]
	.loc	1 1151 28               @ ../Src/LCDConf.c:1151:28
	bl	LCD_GetXSizeEx
.Ltmp56:
	.loc	1 1151 26 is_stmt 0     @ ../Src/LCDConf.c:1151:26
	strd	r0, r5, [sp, #8]
	.loc	1 1153 25 is_stmt 1     @ ../Src/LCDConf.c:1153:25
	mov	r0, r4
	bl	LCD_GetYSizeEx
	.loc	1 1153 23 is_stmt 0     @ ../Src/LCDConf.c:1153:23
	str	r0, [sp, #16]
	.loc	1 1154 27 is_stmt 1     @ ../Src/LCDConf.c:1154:27
	mov	r0, r4
	bl	LCD_GetXSizeEx
	.loc	1 1154 25 is_stmt 0     @ ../Src/LCDConf.c:1154:25
	str	r0, [sp, #44]
	.loc	1 1155 28 is_stmt 1     @ ../Src/LCDConf.c:1155:28
	mov	r0, r4
	bl	LCD_GetYSizeEx
	.loc	1 1155 26 is_stmt 0     @ ../Src/LCDConf.c:1155:26
	str	r0, [sp, #48]
	.loc	1 1151 28 is_stmt 1     @ ../Src/LCDConf.c:1151:28
	clz	r0, r4
	add	r1, sp, #4
.Ltmp57:
	@DEBUG_VALUE: _LCD_InitLayer:LayerCfg <- [DW_OP_plus_uconst 4] [$sp+0]
	.loc	1 1165 3                @ ../Src/LCDConf.c:1165:3
	mov	r2, r4
	.loc	1 1151 28               @ ../Src/LCDConf.c:1151:28
	lsrs	r0, r0, #5
.Ltmp58:
	.loc	1 490 6                 @ ../Src/LCDConf.c:490:6
	lsls	r0, r0, #1
.Ltmp59:
	.loc	1 1156 26               @ ../Src/LCDConf.c:1156:26
	str	r0, [sp, #20]
	.loc	1 1157 22               @ ../Src/LCDConf.c:1157:22
	movs	r0, #255
	strd	r0, r5, [sp, #24]
	.loc	1 1162 28               @ ../Src/LCDConf.c:1162:28
	mov.w	r0, #1536
	.loc	1 1159 28               @ ../Src/LCDConf.c:1159:28
	strh.w	r5, [sp, #52]
	.loc	1 1161 28               @ ../Src/LCDConf.c:1161:28
	strb.w	r5, [sp, #54]
	.loc	1 1162 28               @ ../Src/LCDConf.c:1162:28
	str	r0, [sp, #32]
	.loc	1 1163 28               @ ../Src/LCDConf.c:1163:28
	movs	r0, #7
	str	r0, [sp, #36]
	.loc	1 1164 29               @ ../Src/LCDConf.c:1164:29
	ldr	r0, __arm_cp.2_5
	ldr.w	r0, [r0, r4, lsl #2]
	.loc	1 1164 27 is_stmt 0     @ ../Src/LCDConf.c:1164:27
	str	r0, [sp, #40]
	.loc	1 1165 3 is_stmt 1      @ ../Src/LCDConf.c:1165:3
	ldr	r0, __arm_cp.2_0
	bl	HAL_LTDC_ConfigLayer
.Ltmp60:
	.loc	1 1167 7                @ ../Src/LCDConf.c:1167:7
	mov	r0, r4
	bl	LCD_GetBitsPerPixelEx
.Ltmp61:
	.loc	1 1167 7 is_stmt 0      @ ../Src/LCDConf.c:1167:7
	cmp	r0, #8
	bgt.w	.LBB2_19
.Ltmp62:
@ %bb.5:
	@DEBUG_VALUE: _LCD_InitLayer:LayerCfg <- [DW_OP_plus_uconst 4] [$sp+0]
	@DEBUG_VALUE: LCD_X_DisplayDriver:LayerIndex <- $r4
	.loc	1 1169 4 is_stmt 1      @ ../Src/LCDConf.c:1169:4
	ldr	r0, __arm_cp.2_0
	mov	r1, r4
	bl	HAL_LTDC_EnableCLUT
	b	.LBB2_19
.Ltmp63:
.LBB2_6:
	@DEBUG_VALUE: LCD_X_DisplayDriver:LayerIndex <- $r4
	@DEBUG_VALUE: LCD_X_DisplayDriver:Cmd <- $r1
	.loc	1 1495 51               @ ../Src/LCDConf.c:1495:51
	ldr	r0, [r6]
.Ltmp64:
	@DEBUG_VALUE: _LCD_SetLUTEntry:Color <- $r0
	.loc	1 1125 2                @ ../Src/LCDConf.c:1125:2
	mov	r3, r4
	.loc	1 1123 14               @ ../Src/LCDConf.c:1123:14
	and	r1, r0, #65280
.Ltmp65:
	.loc	1 1122 35               @ ../Src/LCDConf.c:1122:35
	ubfx	r2, r0, #16, #8
	.loc	1 1124 26               @ ../Src/LCDConf.c:1124:26
	uxtb	r0, r0
.Ltmp66:
	.loc	1 1122 42               @ ../Src/LCDConf.c:1122:42
	orrs	r1, r2
	.loc	1 1122 2 is_stmt 0      @ ../Src/LCDConf.c:1122:2
	ldrb	r2, [r6, #4]
	.loc	1 1123 33 is_stmt 1     @ ../Src/LCDConf.c:1123:33
	orr.w	r0, r1, r0, lsl #16
	.loc	1 1122 2                @ ../Src/LCDConf.c:1122:2
	ldr	r1, __arm_cp.2_3
	.loc	1 1122 13 is_stmt 0     @ ../Src/LCDConf.c:1122:13
	str.w	r0, [r1, r2, lsl #2]
	.loc	1 1125 2 is_stmt 1      @ ../Src/LCDConf.c:1125:2
	ldr	r0, __arm_cp.2_0
	mov.w	r2, #256
	bl	HAL_LTDC_ConfigCLUT
	b	.LBB2_19
.Ltmp67:
.LBB2_7:
	@DEBUG_VALUE: LCD_X_DisplayDriver:LayerIndex <- $r4
	@DEBUG_VALUE: LCD_X_DisplayDriver:Cmd <- $r1
	.loc	1 0 2 is_stmt 0         @ ../Src/LCDConf.c:0:2
	add	r1, sp, #4
.Ltmp68:
	@DEBUG_VALUE: xPos <- [DW_OP_plus_uconst 4] [$sp+0]
	mov	r2, sp
.Ltmp69:
	@DEBUG_VALUE: yPos <- [$sp+0]
	.loc	1 1531 4 is_stmt 1      @ ../Src/LCDConf.c:1531:4
	mov	r0, r4
	bl	GUI_GetLayerPosEx
.Ltmp70:
	.loc	1 1534 8                @ ../Src/LCDConf.c:1534:8
	mov	r0, r4
	bl	LCD_GetSwapXYEx
	cmp	r0, #0
	add.w	r1, r6, #4
	mov	r0, r6
.Ltmp71:
	.loc	1 1541 5                @ ../Src/LCDConf.c:1541:5
	ldr	r2, __arm_cp.2_1
.Ltmp72:
	.loc	1 1188 2                @ ../Src/LCDConf.c:1188:2
	mov	r3, r4
	it	eq
	moveq	r0, r1
	ldr	r0, [r0]
	it	eq
	moveq	r1, r6
	ldr	r1, [r1]
.Ltmp73:
	.loc	1 1541 25               @ ../Src/LCDConf.c:1541:25
	str.w	r1, [r2, r4, lsl #2]
	.loc	1 1541 5 is_stmt 0      @ ../Src/LCDConf.c:1541:5
	add.w	r1, r2, r4, lsl #2
	.loc	1 1542 25 is_stmt 1     @ ../Src/LCDConf.c:1542:25
	str	r0, [r1, #8]
.Ltmp74:
	@DEBUG_VALUE: xPos <- $r1
	.loc	1 1188 2                @ ../Src/LCDConf.c:1188:2
	ldr	r0, __arm_cp.2_0
.Ltmp75:
	.loc	1 1545 40               @ ../Src/LCDConf.c:1545:40
	ldrd	r2, r1, [sp]
.Ltmp76:
	@DEBUG_VALUE: _LCD_SetLayerSize:ySize <- $r2
	@DEBUG_VALUE: _LCD_SetLayerSize:xSize <- $r1
	@DEBUG_VALUE: yPos <- $r2
	.loc	1 1188 2                @ ../Src/LCDConf.c:1188:2
	bl	HAL_LTDC_SetWindowSize
.Ltmp77:
	.loc	1 0 2 is_stmt 0         @ ../Src/LCDConf.c:0:2
	b	.LBB2_19
.Ltmp78:
.LBB2_8:
	@DEBUG_VALUE: LCD_X_DisplayDriver:LayerIndex <- $r4
	@DEBUG_VALUE: LCD_X_DisplayDriver:Cmd <- $r1
	.loc	1 1569 47 is_stmt 1     @ ../Src/LCDConf.c:1569:47
	ldr	r0, [r6]
.Ltmp79:
	@DEBUG_VALUE: _LCD_SetChroma:ChromaMin <- $r0
	.loc	1 1219 20               @ ../Src/LCDConf.c:1219:20
	and	r1, r0, #65280
.Ltmp80:
	@DEBUG_VALUE: _LCD_SetChroma:ChromaMax <- 0
	.loc	1 1218 38               @ ../Src/LCDConf.c:1218:38
	ubfx	r2, r0, #16, #8
	.loc	1 1220 32               @ ../Src/LCDConf.c:1220:32
	uxtb	r0, r0
.Ltmp81:
	.loc	1 1218 45               @ ../Src/LCDConf.c:1218:45
	orrs	r1, r2
	.loc	1 1221 2                @ ../Src/LCDConf.c:1221:2
	mov	r2, r4
	.loc	1 1219 39               @ ../Src/LCDConf.c:1219:39
	orr.w	r1, r1, r0, lsl #16
.Ltmp82:
	@DEBUG_VALUE: _LCD_SetChroma:RGB_Value <- $r1
	.loc	1 1221 2                @ ../Src/LCDConf.c:1221:2
	ldr	r0, __arm_cp.2_0
	bl	HAL_LTDC_ConfigColorKeying
.Ltmp83:
	.loc	1 0 2 is_stmt 0         @ ../Src/LCDConf.c:0:2
	b	.LBB2_19
.Ltmp84:
.LBB2_9:
	@DEBUG_VALUE: LCD_X_DisplayDriver:LayerIndex <- $r4
	@DEBUG_VALUE: LCD_X_DisplayDriver:Cmd <- $r1
	.loc	1 1487 49 is_stmt 1     @ ../Src/LCDConf.c:1487:49
	ldr	r0, [r6]
	.loc	1 1487 4 is_stmt 0      @ ../Src/LCDConf.c:1487:4
	ldr	r1, __arm_cp.2_4
.Ltmp85:
	.loc	1 1487 32               @ ../Src/LCDConf.c:1487:32
	str.w	r0, [r1, r4, lsl #2]
	b	.LBB2_19
.Ltmp86:
.LBB2_10:
	@DEBUG_VALUE: LCD_X_DisplayDriver:LayerIndex <- $r4
	@DEBUG_VALUE: LCD_X_DisplayDriver:Cmd <- $r1
	.loc	1 1112 48 is_stmt 1     @ ../Src/LCDConf.c:1112:48
	ldr	r1, __arm_cp.2_1
.Ltmp87:
	.loc	1 1112 12 is_stmt 0     @ ../Src/LCDConf.c:1112:12
	ldr	r0, __arm_cp.2_5
	.loc	1 1112 48               @ ../Src/LCDConf.c:1112:48
	ldr.w	r2, [r1, r4, lsl #2]
.Ltmp88:
	@DEBUG_VALUE: _LCD_SetOrg:yPos <- $r6
	@DEBUG_VALUE: _LCD_SetOrg:xPos <- $r3
	.loc	1 1479 41 is_stmt 1     @ ../Src/LCDConf.c:1479:41
	ldrd	r3, r6, [r6]
.Ltmp89:
	.loc	1 1112 48               @ ../Src/LCDConf.c:1112:48
	add.w	r1, r1, r4, lsl #2
	.loc	1 1112 12 is_stmt 0     @ ../Src/LCDConf.c:1112:12
	ldr.w	r0, [r0, r4, lsl #2]
	.loc	1 1112 71               @ ../Src/LCDConf.c:1112:71
	ldr	r1, [r1, #16]
	.loc	1 1112 39               @ ../Src/LCDConf.c:1112:39
	mla	r2, r2, r6, r3
.Ltmp90:
	@DEBUG_VALUE: _LCD_SetOrg:yPos <- $r6
	@DEBUG_VALUE: _LCD_SetOrg:xPos <- $r3
	.loc	1 1112 31               @ ../Src/LCDConf.c:1112:31
	mla	r1, r2, r1, r0
.Ltmp91:
	@DEBUG_VALUE: _LCD_SetOrg:Address <- $r1
	.loc	1 1113 2 is_stmt 1      @ ../Src/LCDConf.c:1113:2
	ldr	r0, __arm_cp.2_0
	mov	r2, r4
	bl	HAL_LTDC_SetAddress
.Ltmp92:
	.loc	1 0 2 is_stmt 0         @ ../Src/LCDConf.c:0:2
	b	.LBB2_19
.Ltmp93:
.LBB2_11:
	@DEBUG_VALUE: LCD_X_DisplayDriver:LayerIndex <- $r4
	@DEBUG_VALUE: LCD_X_DisplayDriver:Cmd <- $r1
	.loc	1 919 2 is_stmt 1       @ ../Src/LCDConf.c:919:2
	ldr	r0, __arm_cp.2_0
	.loc	1 922 2                 @ ../Src/LCDConf.c:922:2
	movs	r2, #1
	.loc	1 919 2                 @ ../Src/LCDConf.c:919:2
	ldr	r0, [r0]
	ldr	r1, [r0, #24]
.Ltmp94:
	orr	r1, r1, #1
	str	r1, [r0, #24]
	ldr	r0, __arm_cp.2_2
	.loc	1 922 2                 @ ../Src/LCDConf.c:922:2
	movs	r1, #4
	bl	HAL_GPIO_WritePin
	b	.LBB2_19
.Ltmp95:
.LBB2_12:
	@DEBUG_VALUE: LCD_X_DisplayDriver:LayerIndex <- $r4
	@DEBUG_VALUE: LCD_X_DisplayDriver:Cmd <- $r1
	.loc	1 931 2                 @ ../Src/LCDConf.c:931:2
	ldr	r0, __arm_cp.2_0
	.loc	1 934 2                 @ ../Src/LCDConf.c:934:2
	movs	r2, #0
	movs	r5, #0
	.loc	1 931 2                 @ ../Src/LCDConf.c:931:2
	ldr	r0, [r0]
	ldr	r1, [r0, #24]
.Ltmp96:
	bic	r1, r1, #1
	str	r1, [r0, #24]
	ldr	r0, __arm_cp.2_2
	.loc	1 934 2                 @ ../Src/LCDConf.c:934:2
	movs	r1, #4
	bl	HAL_GPIO_WritePin
	b	.LBB2_20
.Ltmp97:
.LBB2_13:
	@DEBUG_VALUE: LCD_X_DisplayDriver:LayerIndex <- $r4
	@DEBUG_VALUE: LCD_X_DisplayDriver:Cmd <- $r1
	.loc	1 1523 46               @ ../Src/LCDConf.c:1523:46
	ldrd	r1, r2, [r6]
.Ltmp98:
	@DEBUG_VALUE: _LCD_SetLayerPos:yPos <- $r2
	@DEBUG_VALUE: _LCD_SetLayerPos:xPos <- $r1
	.loc	1 1179 2                @ ../Src/LCDConf.c:1179:2
	ldr	r0, __arm_cp.2_0
	mov	r3, r4
	bl	HAL_LTDC_SetWindowPosition
.Ltmp99:
	.loc	1 0 2 is_stmt 0         @ ../Src/LCDConf.c:0:2
	b	.LBB2_19
.Ltmp100:
.LBB2_14:
	@DEBUG_VALUE: LCD_X_DisplayDriver:LayerIndex <- $r4
	@DEBUG_VALUE: LCD_X_DisplayDriver:Cmd <- $r1
	ldr	r0, __arm_cp.2_0
.Ltmp101:
	.loc	1 1515 41 is_stmt 1     @ ../Src/LCDConf.c:1515:41
	ldr	r2, [r6]
	ldr	r0, [r0]
.Ltmp102:
	.loc	1 1134 6                @ ../Src/LCDConf.c:1134:6
	cmp	r2, #0
	add.w	r1, r0, r4, lsl #7
.Ltmp103:
	.loc	1 0 6 is_stmt 0         @ ../Src/LCDConf.c:0:6
	ldr.w	r3, [r1, #132]
.Ltmp104:
	@DEBUG_VALUE: _LCD_SetVis:OnOff <- $r2
	.loc	1 1134 14               @ ../Src/LCDConf.c:1134:14
	orr	r6, r3, #1
.Ltmp105:
	.loc	1 1134 6                @ ../Src/LCDConf.c:1134:6
	it	eq
	biceq	r6, r3, #1
	str.w	r6, [r1, #132]
	.loc	1 1137 2 is_stmt 1      @ ../Src/LCDConf.c:1137:2
	ldr	r1, [r0, #36]
	orr	r1, r1, #1
	str	r1, [r0, #36]
	b	.LBB2_19
.Ltmp106:
.LBB2_15:
	@DEBUG_VALUE: LCD_X_DisplayDriver:LayerIndex <- $r4
	@DEBUG_VALUE: LCD_X_DisplayDriver:Cmd <- $r1
	.loc	1 1553 50               @ ../Src/LCDConf.c:1553:50
	ldr	r0, [r6]
.Ltmp107:
	@DEBUG_VALUE: _LCD_SetLayerAlpha:Alpha <- $r0
	.loc	1 1197 2                @ ../Src/LCDConf.c:1197:2
	mov	r2, r4
	.loc	1 1197 32 is_stmt 0     @ ../Src/LCDConf.c:1197:32
	rsb.w	r1, r0, #255
.Ltmp108:
	.loc	1 1197 2                @ ../Src/LCDConf.c:1197:2
	ldr	r0, __arm_cp.2_0
.Ltmp109:
	bl	HAL_LTDC_SetAlpha
	b	.LBB2_19
.Ltmp110:
.LBB2_16:
	@DEBUG_VALUE: LCD_X_DisplayDriver:LayerIndex <- $r4
	@DEBUG_VALUE: LCD_X_DisplayDriver:Cmd <- $r1
	.loc	1 1561 55 is_stmt 1     @ ../Src/LCDConf.c:1561:55
	ldr	r0, [r6]
.Ltmp111:
	@DEBUG_VALUE: _LCD_SetChromaMode:ChromaMode <- $r0
	.loc	1 1206 6                @ ../Src/LCDConf.c:1206:6
	cbz	r0, .LBB2_18
.Ltmp112:
@ %bb.17:
	@DEBUG_VALUE: _LCD_SetChromaMode:ChromaMode <- $r0
	@DEBUG_VALUE: LCD_X_DisplayDriver:LayerIndex <- $r4
	@DEBUG_VALUE: LCD_X_DisplayDriver:Cmd <- $r1
	.loc	1 1206 18 is_stmt 0     @ ../Src/LCDConf.c:1206:18
	ldr	r0, __arm_cp.2_0
.Ltmp113:
	mov	r1, r4
.Ltmp114:
	bl	HAL_LTDC_EnableColorKeying
	b	.LBB2_19
.Ltmp115:
.LBB2_18:
	@DEBUG_VALUE: _LCD_SetChromaMode:ChromaMode <- $r0
	@DEBUG_VALUE: LCD_X_DisplayDriver:LayerIndex <- $r4
	@DEBUG_VALUE: LCD_X_DisplayDriver:Cmd <- $r1
	.loc	1 1207 12 is_stmt 1     @ ../Src/LCDConf.c:1207:12
	ldr	r0, __arm_cp.2_0
.Ltmp116:
	mov	r1, r4
.Ltmp117:
	bl	HAL_LTDC_DisableColorKeying
.Ltmp118:
.LBB2_19:
	@DEBUG_VALUE: LCD_X_DisplayDriver:LayerIndex <- $r4
	.loc	1 0 12 is_stmt 0        @ ../Src/LCDConf.c:0:12
	movs	r5, #0
.Ltmp119:
.LBB2_20:
	@DEBUG_VALUE: LCD_X_DisplayDriver:LayerIndex <- $r4
	.loc	1 1580 2 is_stmt 1      @ ../Src/LCDConf.c:1580:2
	mov	r0, r5
.Ltmp120:
	@DEBUG_VALUE: LCD_X_DisplayDriver:r <- $r5
	add	sp, #56
	pop	{r4, r5, r6, pc}
.Ltmp121:
	.p2align	2
@ %bb.21:
	.loc	1 0 2 is_stmt 0         @ ../Src/LCDConf.c:0:2
__arm_cp.2_0:
	.long	hltdc
.Lcpi_end6:
	.size	__arm_cp.2_0, .Lcpi_end6-__arm_cp.2_0
__arm_cp.2_1:
	.long	.L_MergedGlobals
.Lcpi_end7:
	.size	__arm_cp.2_1, .Lcpi_end7-__arm_cp.2_1
__arm_cp.2_2:
	.long	1073876992              @ 0x40021000
.Lcpi_end8:
	.size	__arm_cp.2_2, .Lcpi_end8-__arm_cp.2_2
__arm_cp.2_3:
	.long	_CLUT
.Lcpi_end9:
	.size	__arm_cp.2_3, .Lcpi_end9-__arm_cp.2_3
__arm_cp.2_4:
	.long	_aPendingBuffer
.Lcpi_end10:
	.size	__arm_cp.2_4, .Lcpi_end10-__arm_cp.2_4
__arm_cp.2_5:
	.long	_aAddr
.Lcpi_end11:
	.size	__arm_cp.2_5, .Lcpi_end11-__arm_cp.2_5
.Lfunc_end2:
	.size	LCD_X_DisplayDriver, .Lfunc_end2-LCD_X_DisplayDriver
	.cfi_endproc
	.cantunwind
	.fnend
                                        @ -- End function
	.section	.text.LCD_X_Config,"ax",%progbits
	.hidden	LCD_X_Config            @ -- Begin function LCD_X_Config
	.globl	LCD_X_Config
	.p2align	2
	.type	LCD_X_Config,%function
	.code	16                      @ @LCD_X_Config
	.thumb_func
LCD_X_Config:
.Lfunc_begin3:
	.loc	1 1593 0 is_stmt 1      @ ../Src/LCDConf.c:1593:0
	.fnstart
	.cfi_startproc
@ %bb.0:
	.save	{r4, r5, r6, r7, lr}
	.pad	#4
	push	{r3, r4, r5, r6, r7, lr}
	.cfi_def_cfa_offset 24
	.cfi_offset lr, -4
	.cfi_offset r7, -8
	.cfi_offset r6, -12
	.cfi_offset r5, -16
	.cfi_offset r4, -20
.Ltmp122:
	.loc	1 1597 2 prologue_end   @ ../Src/LCDConf.c:1597:2
	ldr	r4, __arm_cp.3_0
	mov	r0, r4
	bl	HAL_LTDC_DeInit
	ldr	r5, __arm_cp.3_1
	movs	r0, #0
	.loc	1 1606 31               @ ../Src/LCDConf.c:1606:31
	movs	r1, #128
	.loc	1 1608 33               @ ../Src/LCDConf.c:1608:33
	movs	r2, #9
	.loc	1 1609 33               @ ../Src/LCDConf.c:1609:33
	movs	r3, #43
	.loc	1 1601 27               @ ../Src/LCDConf.c:1601:27
	add.w	r12, r4, #16
	.loc	1 1614 33               @ ../Src/LCDConf.c:1614:33
	movw	r6, #297
	.loc	1 1604 31               @ ../Src/LCDConf.c:1604:31
	strb.w	r0, [r4, #54]
	.loc	1 1606 31               @ ../Src/LCDConf.c:1606:31
	strh	r1, [r4, #52]
	movs	r1, #1
	.loc	1 1599 22               @ ../Src/LCDConf.c:1599:22
	strd	r5, r0, [r4]
	.loc	1 1601 27               @ ../Src/LCDConf.c:1601:27
	strd	r0, r0, [r4, #8]
	stm.w	r12!, {r0, r1, r2, r3}
	.loc	1 1610 33               @ ../Src/LCDConf.c:1610:33
	movs	r0, #21
	.loc	1 1611 33               @ ../Src/LCDConf.c:1611:33
	movw	r1, #523
	.loc	1 1612 33               @ ../Src/LCDConf.c:1612:33
	movw	r2, #293
	.loc	1 1613 33               @ ../Src/LCDConf.c:1613:33
	movw	r3, #531
	.loc	1 1610 33               @ ../Src/LCDConf.c:1610:33
	add.w	r12, r4, #32
	stm.w	r12!, {r0, r1, r2, r3, r6}
	.loc	1 1616 2                @ ../Src/LCDConf.c:1616:2
	mov	r0, r4
	bl	HAL_LTDC_Init
	.loc	1 1617 2                @ ../Src/LCDConf.c:1617:2
	mov	r0, r4
	movs	r1, #0
	bl	HAL_LTDC_ProgramLineEvent
	.loc	1 1618 2                @ ../Src/LCDConf.c:1618:2
	mov	r0, r4
	bl	HAL_LTDC_EnableDither
	.loc	1 1620 2                @ ../Src/LCDConf.c:1620:2
	movs	r0, #88
	movs	r1, #14
	movs	r2, #0
	bl	HAL_NVIC_SetPriority
	.loc	1 1621 2                @ ../Src/LCDConf.c:1621:2
	movs	r0, #88
	bl	HAL_NVIC_EnableIRQ
	.loc	1 1623 2                @ ../Src/LCDConf.c:1623:2
	movs	r0, #90
	movs	r1, #14
	movs	r2, #0
	bl	HAL_NVIC_SetPriority
	.loc	1 1624 2                @ ../Src/LCDConf.c:1624:2
	movs	r0, #90
	bl	HAL_NVIC_EnableIRQ
	.loc	1 1625 2                @ ../Src/LCDConf.c:1625:2
	add.w	r0, r5, #43008
	movs	r1, #4
	movs	r2, #1
	bl	HAL_GPIO_WritePin
	.loc	1 1636 2                @ ../Src/LCDConf.c:1636:2
	ldr	r0, __arm_cp.3_2
	ldr	r1, __arm_cp.3_3
	movs	r2, #0
	movs	r3, #0
	bl	GUI_DEVICE_CreateAndLink
.Ltmp123:
	.loc	1 1638 6                @ ../Src/LCDConf.c:1638:6
	movs	r0, #0
	bl	LCD_GetSwapXYEx
.Ltmp124:
	.loc	1 1638 6 is_stmt 0      @ ../Src/LCDConf.c:1638:6
	cbz	r0, .LBB3_2
@ %bb.1:
.Ltmp125:
	.loc	1 1640 3 is_stmt 1      @ ../Src/LCDConf.c:1640:3
	movs	r0, #0
	mov.w	r1, #272
	mov.w	r2, #480
	bl	LCD_SetSizeEx
	.loc	1 1641 3                @ ../Src/LCDConf.c:1641:3
	movs	r0, #0
	mov.w	r1, #272
	mov.w	r2, #480
	b	.LBB3_3
.Ltmp126:
.LBB3_2:
	.loc	1 1645 3                @ ../Src/LCDConf.c:1645:3
	movs	r0, #0
	mov.w	r1, #480
	mov.w	r2, #272
	bl	LCD_SetSizeEx
	.loc	1 1646 3                @ ../Src/LCDConf.c:1646:3
	movs	r0, #0
	mov.w	r1, #480
	mov.w	r2, #272
.Ltmp127:
.LBB3_3:
	.loc	1 0 3 is_stmt 0         @ ../Src/LCDConf.c:0:3
	bl	LCD_SetVSizeEx
	.loc	1 1651 2 is_stmt 1      @ ../Src/LCDConf.c:1651:2
	ldr	r0, __arm_cp.3_4
	ldr	r1, __arm_cp.3_5
	movs	r2, #0
	movs	r3, #1
	bl	GUI_DEVICE_CreateAndLink
.Ltmp128:
	.loc	1 1653 6                @ ../Src/LCDConf.c:1653:6
	movs	r0, #1
	bl	LCD_GetSwapXYEx
.Ltmp129:
	.loc	1 1653 6 is_stmt 0      @ ../Src/LCDConf.c:1653:6
	cbz	r0, .LBB3_5
@ %bb.4:
.Ltmp130:
	.loc	1 1655 3 is_stmt 1      @ ../Src/LCDConf.c:1655:3
	movs	r0, #1
	mov.w	r1, #272
	mov.w	r2, #480
	bl	LCD_SetSizeEx
	.loc	1 1656 3                @ ../Src/LCDConf.c:1656:3
	movs	r0, #1
	mov.w	r1, #272
	mov.w	r2, #480
	b	.LBB3_6
.Ltmp131:
.LBB3_5:
	.loc	1 1660 3                @ ../Src/LCDConf.c:1660:3
	movs	r0, #1
	mov.w	r1, #480
	mov.w	r2, #272
	bl	LCD_SetSizeEx
	.loc	1 1661 3                @ ../Src/LCDConf.c:1661:3
	movs	r0, #1
	mov.w	r1, #480
	mov.w	r2, #272
.Ltmp132:
.LBB3_6:
	.loc	1 0 3 is_stmt 0         @ ../Src/LCDConf.c:0:3
	bl	LCD_SetVSizeEx
	ldr	r5, __arm_cp.3_6
	ldr	r6, __arm_cp.3_7
	movs	r4, #0
	b	.LBB3_8
.LBB3_7:                                @   in Loop: Header=BB3_8 Depth=1
.Ltmp133:
	@DEBUG_VALUE: LCD_X_Config:i <- $r4
	.loc	1 1667 33 is_stmt 1     @ ../Src/LCDConf.c:1667:33
	ldr.w	r1, [r5, r4, lsl #2]
	.loc	1 1667 3 is_stmt 0      @ ../Src/LCDConf.c:1667:3
	mov	r0, r4
	bl	LCD_SetVRAMAddrEx
	.loc	1 1668 25 is_stmt 1     @ ../Src/LCDConf.c:1668:25
	mov	r0, r4
	.loc	1 1668 23 is_stmt 0     @ ../Src/LCDConf.c:1668:23
	add.w	r7, r6, r4, lsl #2
	.loc	1 1668 25               @ ../Src/LCDConf.c:1668:25
	bl	LCD_GetBitsPerPixelEx
	.loc	1 1668 50               @ ../Src/LCDConf.c:1668:50
	asrs	r0, r0, #3
.Ltmp134:
	.loc	1 1665 35 is_stmt 1     @ ../Src/LCDConf.c:1665:35
	adds	r4, #1
.Ltmp135:
	@DEBUG_VALUE: LCD_X_Config:i <- $r4
	.loc	1 1668 23               @ ../Src/LCDConf.c:1668:23
	str	r0, [r7, #16]
.Ltmp136:
.LBB3_8:                                @ =>This Inner Loop Header: Depth=1
	@DEBUG_VALUE: LCD_X_Config:i <- $r4
	.loc	1 1665 2                @ ../Src/LCDConf.c:1665:2
	cmp	r4, #2
	bne	.LBB3_7
.Ltmp137:
@ %bb.9:
	@DEBUG_VALUE: LCD_X_Config:i <- $r4
	.loc	1 1671 2                @ ../Src/LCDConf.c:1671:2
	ldr	r2, __arm_cp.3_8
	ldr	r4, __arm_cp.3_9
.Ltmp138:
	movs	r0, #2
	movs	r1, #33
	blx	r4
	.loc	1 1672 2                @ ../Src/LCDConf.c:1672:2
	ldr	r2, __arm_cp.3_10
	movs	r0, #2
	movs	r1, #35
	blx	r4
	.loc	1 1673 2                @ ../Src/LCDConf.c:1673:2
	ldr	r2, __arm_cp.3_11
	movs	r0, #2
	movs	r1, #25
	blx	r4
	.loc	1 1674 2                @ ../Src/LCDConf.c:1674:2
	ldr	r2, __arm_cp.3_12
	movs	r0, #2
	movs	r1, #40
	blx	r4
	.loc	1 1675 2                @ ../Src/LCDConf.c:1675:2
	ldr	r2, __arm_cp.3_13
	movs	r0, #2
	movs	r1, #36
	blx	r4
	.loc	1 1676 2                @ ../Src/LCDConf.c:1676:2
	ldr	r2, __arm_cp.3_14
	movs	r0, #2
	movs	r1, #37
	blx	r4
	.loc	1 1682 2                @ ../Src/LCDConf.c:1682:2
	ldr	r0, __arm_cp.3_15
	ldr	r1, __arm_cp.3_16
	bl	GUICC_M1555I_SetCustColorConv
	.loc	1 1683 2                @ ../Src/LCDConf.c:1683:2
	ldr	r0, __arm_cp.3_17
	ldr	r1, __arm_cp.3_18
	bl	GUICC_M565_SetCustColorConv
	.loc	1 1684 2                @ ../Src/LCDConf.c:1684:2
	ldr	r0, __arm_cp.3_19
	ldr	r1, __arm_cp.3_20
	bl	GUICC_M4444I_SetCustColorConv
	.loc	1 1685 2                @ ../Src/LCDConf.c:1685:2
	ldr	r0, __arm_cp.3_21
	ldr	r1, __arm_cp.3_22
	bl	GUICC_M888_SetCustColorConv
	.loc	1 1686 2                @ ../Src/LCDConf.c:1686:2
	ldr	r0, __arm_cp.3_23
	ldr	r1, __arm_cp.3_24
	bl	GUICC_M8888I_SetCustColorConv
	.loc	1 1687 2                @ ../Src/LCDConf.c:1687:2
	ldr	r0, __arm_cp.3_25
	bl	GUI_SetFuncAlphaBlending
	.loc	1 1688 2                @ ../Src/LCDConf.c:1688:2
	ldr	r0, __arm_cp.3_26
	bl	GUI_SetFuncGetpPalConvTable
	.loc	1 1689 2                @ ../Src/LCDConf.c:1689:2
	ldr	r0, __arm_cp.3_27
	bl	GUI_SetFuncMixColors
	.loc	1 1690 2                @ ../Src/LCDConf.c:1690:2
	ldr	r0, __arm_cp.3_28
	pop.w	{r3, r4, r5, r6, r7, lr}
	b	GUI_SetFuncMixColorsBulk
.Ltmp139:
	.p2align	2
@ %bb.10:
	.loc	1 0 2 is_stmt 0         @ ../Src/LCDConf.c:0:2
__arm_cp.3_0:
	.long	hltdc
.Lcpi_end12:
	.size	__arm_cp.3_0, .Lcpi_end12-__arm_cp.3_0
__arm_cp.3_1:
	.long	1073833984              @ 0x40016800
.Lcpi_end13:
	.size	__arm_cp.3_1, .Lcpi_end13-__arm_cp.3_1
__arm_cp.3_2:
	.long	GUIDRV_Lin_16_API
.Lcpi_end14:
	.size	__arm_cp.3_2, .Lcpi_end14-__arm_cp.3_2
__arm_cp.3_3:
	.long	LCD_API_ColorConv_M565
.Lcpi_end15:
	.size	__arm_cp.3_3, .Lcpi_end15-__arm_cp.3_3
__arm_cp.3_4:
	.long	GUIDRV_Lin_32_API
.Lcpi_end16:
	.size	__arm_cp.3_4, .Lcpi_end16-__arm_cp.3_4
__arm_cp.3_5:
	.long	LCD_API_ColorConv_M8888I
.Lcpi_end17:
	.size	__arm_cp.3_5, .Lcpi_end17-__arm_cp.3_5
__arm_cp.3_6:
	.long	_aAddr
.Lcpi_end18:
	.size	__arm_cp.3_6, .Lcpi_end18-__arm_cp.3_6
__arm_cp.3_7:
	.long	.L_MergedGlobals
.Lcpi_end19:
	.size	__arm_cp.3_7, .Lcpi_end19-__arm_cp.3_7
__arm_cp.3_8:
	.long	_LCD_CopyBuffer
.Lcpi_end20:
	.size	__arm_cp.3_8, .Lcpi_end20-__arm_cp.3_8
__arm_cp.3_9:
	.long	LCD_SetDevFunc
.Lcpi_end21:
	.size	__arm_cp.3_9, .Lcpi_end21-__arm_cp.3_9
__arm_cp.3_10:
	.long	_LCD_CopyRect
.Lcpi_end22:
	.size	__arm_cp.3_10, .Lcpi_end22-__arm_cp.3_10
__arm_cp.3_11:
	.long	_LCD_FillRect
.Lcpi_end23:
	.size	__arm_cp.3_11, .Lcpi_end23-__arm_cp.3_11
__arm_cp.3_12:
	.long	_LCD_DrawBitmap32bpp
.Lcpi_end24:
	.size	__arm_cp.3_12, .Lcpi_end24-__arm_cp.3_12
__arm_cp.3_13:
	.long	_LCD_DrawBitmap16bpp
.Lcpi_end25:
	.size	__arm_cp.3_13, .Lcpi_end25-__arm_cp.3_13
__arm_cp.3_14:
	.long	_LCD_DrawBitmap8bpp
.Lcpi_end26:
	.size	__arm_cp.3_14, .Lcpi_end26-__arm_cp.3_14
__arm_cp.3_15:
	.long	_Color2IndexBulk_M1555I_DMA2D
.Lcpi_end27:
	.size	__arm_cp.3_15, .Lcpi_end27-__arm_cp.3_15
__arm_cp.3_16:
	.long	_Index2ColorBulk_M1555I_DMA2D
.Lcpi_end28:
	.size	__arm_cp.3_16, .Lcpi_end28-__arm_cp.3_16
__arm_cp.3_17:
	.long	_Color2IndexBulk_M565_DMA2D
.Lcpi_end29:
	.size	__arm_cp.3_17, .Lcpi_end29-__arm_cp.3_17
__arm_cp.3_18:
	.long	_Index2ColorBulk_M565_DMA2D
.Lcpi_end30:
	.size	__arm_cp.3_18, .Lcpi_end30-__arm_cp.3_18
__arm_cp.3_19:
	.long	_Color2IndexBulk_M4444I_DMA2D
.Lcpi_end31:
	.size	__arm_cp.3_19, .Lcpi_end31-__arm_cp.3_19
__arm_cp.3_20:
	.long	_Index2ColorBulk_M4444I_DMA2D
.Lcpi_end32:
	.size	__arm_cp.3_20, .Lcpi_end32-__arm_cp.3_20
__arm_cp.3_21:
	.long	_Color2IndexBulk_M888_DMA2D
.Lcpi_end33:
	.size	__arm_cp.3_21, .Lcpi_end33-__arm_cp.3_21
__arm_cp.3_22:
	.long	_Index2ColorBulk_M888_DMA2D
.Lcpi_end34:
	.size	__arm_cp.3_22, .Lcpi_end34-__arm_cp.3_22
__arm_cp.3_23:
	.long	_Color2IndexBulk_M8888I_DMA2D
.Lcpi_end35:
	.size	__arm_cp.3_23, .Lcpi_end35-__arm_cp.3_23
__arm_cp.3_24:
	.long	_Index2ColorBulk_M8888I_DMA2D
.Lcpi_end36:
	.size	__arm_cp.3_24, .Lcpi_end36-__arm_cp.3_24
__arm_cp.3_25:
	.long	_DMA_AlphaBlending
.Lcpi_end37:
	.size	__arm_cp.3_25, .Lcpi_end37-__arm_cp.3_25
__arm_cp.3_26:
	.long	_LCD_GetpPalConvTable
.Lcpi_end38:
	.size	__arm_cp.3_26, .Lcpi_end38-__arm_cp.3_26
__arm_cp.3_27:
	.long	_DMA_MixColors
.Lcpi_end39:
	.size	__arm_cp.3_27, .Lcpi_end39-__arm_cp.3_27
__arm_cp.3_28:
	.long	_LCD_MixColorsBulk
.Lcpi_end40:
	.size	__arm_cp.3_28, .Lcpi_end40-__arm_cp.3_28
.Lfunc_end3:
	.size	LCD_X_Config, .Lfunc_end3-LCD_X_Config
	.cfi_endproc
	.cantunwind
	.fnend
                                        @ -- End function
	.section	.text._LCD_CopyBuffer,"ax",%progbits
	.p2align	2               @ -- Begin function _LCD_CopyBuffer
	.type	_LCD_CopyBuffer,%function
	.code	16                      @ @_LCD_CopyBuffer
	.thumb_func
_LCD_CopyBuffer:
.Lfunc_begin4:
	.loc	1 954 0 is_stmt 1       @ ../Src/LCDConf.c:954:0
	.fnstart
	.cfi_startproc
@ %bb.0:
	.save	{r4, r5, r6, r7, lr}
	.pad	#12
	push	{r1, r2, r3, r4, r5, r6, r7, lr}
	.cfi_def_cfa_offset 32
	.cfi_offset lr, -4
	.cfi_offset r7, -8
	.cfi_offset r6, -12
	.cfi_offset r5, -16
	.cfi_offset r4, -20
	@DEBUG_VALUE: _LCD_CopyBuffer:LayerIndex <- $r0
	@DEBUG_VALUE: _LCD_CopyBuffer:IndexSrc <- $r1
	@DEBUG_VALUE: _LCD_CopyBuffer:IndexDst <- $r2
	mov	r4, r2
	mov	r5, r1
	mov	r6, r0
.Ltmp140:
	@DEBUG_VALUE: _LCD_CopyBuffer:IndexDst <- $r4
	@DEBUG_VALUE: _LCD_CopyBuffer:IndexSrc <- $r5
	@DEBUG_VALUE: _LCD_CopyBuffer:LayerIndex <- $r6
	.loc	1 957 15 prologue_end   @ ../Src/LCDConf.c:957:15
	bl	_GetBufferSize
.Ltmp141:
	@DEBUG_VALUE: _LCD_CopyBuffer:BufferSize <- $r0
	.loc	1 960 58                @ ../Src/LCDConf.c:960:58
	ldr	r1, __arm_cp.4_0
	movs	r2, #0
	add.w	r7, r1, r6, lsl #2
	ldr.w	r3, [r1, r6, lsl #2]
	.loc	1 960 79 is_stmt 0      @ ../Src/LCDConf.c:960:79
	ldr	r1, [r7, #8]
	.loc	1 960 2                 @ ../Src/LCDConf.c:960:2
	strd	r1, r2, [sp]
	.loc	1 958 15 is_stmt 1      @ ../Src/LCDConf.c:958:15
	ldr	r1, __arm_cp.4_1
	.loc	1 960 2                 @ ../Src/LCDConf.c:960:2
	str	r2, [sp, #8]
	.loc	1 958 15                @ ../Src/LCDConf.c:958:15
	ldr.w	r2, [r1, r6, lsl #2]
	.loc	1 958 34 is_stmt 0      @ ../Src/LCDConf.c:958:34
	mla	r1, r0, r5, r2
.Ltmp142:
	@DEBUG_VALUE: _LCD_CopyBuffer:AddrSrc <- $r1
	.loc	1 959 34 is_stmt 1      @ ../Src/LCDConf.c:959:34
	mla	r2, r0, r4, r2
.Ltmp143:
	@DEBUG_VALUE: _LCD_CopyBuffer:AddrDst <- $r2
	.loc	1 960 2                 @ ../Src/LCDConf.c:960:2
	mov	r0, r6
.Ltmp144:
	bl	_DMA_Copy
.Ltmp145:
	.loc	1 961 28                @ ../Src/LCDConf.c:961:28
	str	r4, [r7, #24]
	.loc	1 962 1                 @ ../Src/LCDConf.c:962:1
	pop	{r1, r2, r3, r4, r5, r6, r7, pc}
.Ltmp146:
	.p2align	2
@ %bb.1:
	.loc	1 0 1 is_stmt 0         @ ../Src/LCDConf.c:0:1
__arm_cp.4_0:
	.long	.L_MergedGlobals
.Lcpi_end41:
	.size	__arm_cp.4_0, .Lcpi_end41-__arm_cp.4_0
__arm_cp.4_1:
	.long	_aAddr
.Lcpi_end42:
	.size	__arm_cp.4_1, .Lcpi_end42-__arm_cp.4_1
.Lfunc_end4:
	.size	_LCD_CopyBuffer, .Lfunc_end4-_LCD_CopyBuffer
	.cfi_endproc
	.cantunwind
	.fnend
                                        @ -- End function
	.section	.text._LCD_CopyRect,"ax",%progbits
	.p2align	2               @ -- Begin function _LCD_CopyRect
	.type	_LCD_CopyRect,%function
	.code	16                      @ @_LCD_CopyRect
	.thumb_func
_LCD_CopyRect:
.Lfunc_begin5:
	.loc	1 969 0 is_stmt 1       @ ../Src/LCDConf.c:969:0
	.fnstart
	.cfi_startproc
@ %bb.0:
	.save	{r4, r5, r6, r7, r8, r9, lr}
	.pad	#12
	push.w	{r1, r2, r3, r4, r5, r6, r7, r8, r9, lr}
	.cfi_def_cfa_offset 40
	.cfi_offset lr, -4
	.cfi_offset r9, -8
	.cfi_offset r8, -12
	.cfi_offset r7, -16
	.cfi_offset r6, -20
	.cfi_offset r5, -24
	.cfi_offset r4, -28
	@DEBUG_VALUE: _LCD_CopyRect:LayerIndex <- $r0
	@DEBUG_VALUE: _LCD_CopyRect:x0 <- $r1
	@DEBUG_VALUE: _LCD_CopyRect:y0 <- $r2
	@DEBUG_VALUE: _LCD_CopyRect:x1 <- $r3
.Ltmp147:
	.loc	1 974 46 prologue_end   @ ../Src/LCDConf.c:974:46
	ldr	r4, __arm_cp.5_0
	mov	r8, r3
	mov	r9, r2
	mov	r6, r1
	mov	r7, r0
	@DEBUG_VALUE: _LCD_CopyRect:ySize <- [DW_OP_plus_uconst 48] [$sp+0]
	@DEBUG_VALUE: _LCD_CopyRect:xSize <- [DW_OP_plus_uconst 44] [$sp+0]
	@DEBUG_VALUE: _LCD_CopyRect:y1 <- [DW_OP_plus_uconst 40] [$sp+0]
.Ltmp148:
	@DEBUG_VALUE: _LCD_CopyRect:x1 <- $r8
	@DEBUG_VALUE: _LCD_CopyRect:y0 <- $r9
	@DEBUG_VALUE: _LCD_CopyRect:x0 <- $r6
	@DEBUG_VALUE: _LCD_CopyRect:LayerIndex <- $r7
	add.w	r5, r4, r0, lsl #2
	.loc	1 973 15                @ ../Src/LCDConf.c:973:15
	bl	_GetBufferSize
.Ltmp149:
	@DEBUG_VALUE: _LCD_CopyRect:BufferSize <- $r0
	.loc	1 974 108               @ ../Src/LCDConf.c:974:108
	ldr	r2, [r5, #16]
	.loc	1 974 46 is_stmt 0      @ ../Src/LCDConf.c:974:46
	ldr	r1, [r5, #24]
	.loc	1 974 80                @ ../Src/LCDConf.c:974:80
	ldr.w	r5, [r4, r7, lsl #2]
	ldr	r3, [sp, #44]
	.loc	1 976 32 is_stmt 1      @ ../Src/LCDConf.c:976:32
	subs	r4, r5, r3
.Ltmp150:
	@DEBUG_VALUE: _LCD_CopyRect:OffLine <- $r4
	.loc	1 977 2                 @ ../Src/LCDConf.c:977:2
	strd	r4, r4, [sp, #4]
	ldr	r4, [sp, #48]
.Ltmp151:
	str	r4, [sp]
	.loc	1 974 12                @ ../Src/LCDConf.c:974:12
	ldr	r4, __arm_cp.5_1
	ldr.w	r4, [r4, r7, lsl #2]
	.loc	1 974 31 is_stmt 0      @ ../Src/LCDConf.c:974:31
	mla	r0, r1, r0, r4
.Ltmp152:
	.loc	1 974 100               @ ../Src/LCDConf.c:974:100
	mla	r1, r5, r9, r6
	ldr	r6, [sp, #40]
.Ltmp153:
	.loc	1 974 72                @ ../Src/LCDConf.c:974:72
	mla	r1, r1, r2, r0
.Ltmp154:
	@DEBUG_VALUE: _LCD_CopyRect:AddrSrc <- $r1
	.loc	1 975 100 is_stmt 1     @ ../Src/LCDConf.c:975:100
	mla	r6, r5, r6, r8
	.loc	1 975 72 is_stmt 0      @ ../Src/LCDConf.c:975:72
	mla	r2, r6, r2, r0
.Ltmp155:
	@DEBUG_VALUE: _LCD_CopyRect:AddrDst <- $r2
	.loc	1 977 2 is_stmt 1       @ ../Src/LCDConf.c:977:2
	mov	r0, r7
	bl	_DMA_Copy
.Ltmp156:
	.loc	1 978 1                 @ ../Src/LCDConf.c:978:1
	pop.w	{r1, r2, r3, r4, r5, r6, r7, r8, r9, pc}
.Ltmp157:
	.p2align	2
@ %bb.1:
	.loc	1 0 1 is_stmt 0         @ ../Src/LCDConf.c:0:1
__arm_cp.5_0:
	.long	.L_MergedGlobals
.Lcpi_end43:
	.size	__arm_cp.5_0, .Lcpi_end43-__arm_cp.5_0
__arm_cp.5_1:
	.long	_aAddr
.Lcpi_end44:
	.size	__arm_cp.5_1, .Lcpi_end44-__arm_cp.5_1
.Lfunc_end5:
	.size	_LCD_CopyRect, .Lfunc_end5-_LCD_CopyRect
	.cfi_endproc
	.cantunwind
	.fnend
                                        @ -- End function
	.section	.text._LCD_FillRect,"ax",%progbits
	.p2align	2               @ -- Begin function _LCD_FillRect
	.type	_LCD_FillRect,%function
	.code	16                      @ @_LCD_FillRect
	.thumb_func
_LCD_FillRect:
.Lfunc_begin6:
	.loc	1 985 0 is_stmt 1       @ ../Src/LCDConf.c:985:0
	.fnstart
	.cfi_startproc
@ %bb.0:
	.save	{r4, r5, r6, r7, r8, r9, lr}
	.pad	#4
	push.w	{r3, r4, r5, r6, r7, r8, r9, lr}
	.cfi_def_cfa_offset 32
	.cfi_offset lr, -4
	.cfi_offset r9, -8
	.cfi_offset r8, -12
	.cfi_offset r7, -16
	.cfi_offset r6, -20
	.cfi_offset r5, -24
	.cfi_offset r4, -28
	@DEBUG_VALUE: _LCD_FillRect:LayerIndex <- $r0
	@DEBUG_VALUE: _LCD_FillRect:x0 <- $r1
	@DEBUG_VALUE: _LCD_FillRect:y0 <- $r2
	@DEBUG_VALUE: _LCD_FillRect:x1 <- $r3
.Ltmp158:
	@DEBUG_VALUE: _GetPixelformat:LayerIndex <- $r0
	ldrd	r8, r7, [sp, #32]
	mov	r9, r3
	mov	r5, r2
	mov	r6, r1
	mov	r4, r0
.Ltmp159:
	@DEBUG_VALUE: _GetPixelformat:LayerIndex <- $r4
	@DEBUG_VALUE: _LCD_FillRect:PixelIndex <- [DW_OP_plus_uconst 36] [$sp+0]
	@DEBUG_VALUE: _LCD_FillRect:y1 <- [DW_OP_plus_uconst 32] [$sp+0]
	@DEBUG_VALUE: _LCD_FillRect:x1 <- $r9
	@DEBUG_VALUE: _LCD_FillRect:y0 <- $r5
	@DEBUG_VALUE: _LCD_FillRect:x0 <- $r6
	@DEBUG_VALUE: _LCD_FillRect:LayerIndex <- $r4
	@DEBUG_VALUE: _DMA_Fill:ColorIndex <- $r7
	.loc	1 989 6 prologue_end    @ ../Src/LCDConf.c:989:6
	bl	GUI_GetDrawMode
.Ltmp160:
	.loc	1 989 6 is_stmt 0       @ ../Src/LCDConf.c:989:6
	cmp	r0, #1
	bne	.LBB6_2
.Ltmp161:
@ %bb.1:
	@DEBUG_VALUE: _LCD_FillRect:LayerIndex <- $r4
	@DEBUG_VALUE: _LCD_FillRect:x0 <- $r6
	@DEBUG_VALUE: _LCD_FillRect:y0 <- $r5
	@DEBUG_VALUE: _LCD_FillRect:x1 <- $r9
	@DEBUG_VALUE: _LCD_FillRect:y1 <- [DW_OP_plus_uconst 32] [$sp+0]
	@DEBUG_VALUE: _LCD_FillRect:PixelIndex <- [DW_OP_plus_uconst 36] [$sp+0]
	.loc	1 991 3 is_stmt 1       @ ../Src/LCDConf.c:991:3
	mov	r0, r4
	movs	r1, #25
	movs	r2, #0
	bl	LCD_SetDevFunc
	.loc	1 992 3                 @ ../Src/LCDConf.c:992:3
	mov	r0, r6
	mov	r1, r5
	mov	r2, r9
	mov	r3, r8
	bl	LCD_FillRect
	.loc	1 993 3                 @ ../Src/LCDConf.c:993:3
	ldr	r2, __arm_cp.6_4
	mov	r0, r4
	movs	r1, #25
	pop.w	{r3, r4, r5, r6, r7, r8, r9, lr}
.Ltmp162:
	b	LCD_SetDevFunc
.Ltmp163:
.LBB6_2:
	@DEBUG_VALUE: _DMA_Fill:ColorIndex <- $r7
	@DEBUG_VALUE: _LCD_FillRect:LayerIndex <- $r4
	@DEBUG_VALUE: _LCD_FillRect:x0 <- $r6
	@DEBUG_VALUE: _LCD_FillRect:y0 <- $r5
	@DEBUG_VALUE: _LCD_FillRect:x1 <- $r9
	@DEBUG_VALUE: _LCD_FillRect:y1 <- [DW_OP_plus_uconst 32] [$sp+0]
	@DEBUG_VALUE: _LCD_FillRect:PixelIndex <- [DW_OP_plus_uconst 36] [$sp+0]
	@DEBUG_VALUE: _GetPixelformat:LayerIndex <- $r4
	.loc	1 999 16                @ ../Src/LCDConf.c:999:16
	mov	r0, r4
	bl	_GetBufferSize
.Ltmp164:
	@DEBUG_VALUE: _LCD_FillRect:BufferSize <- $r0
	.loc	1 1000 47               @ ../Src/LCDConf.c:1000:47
	ldr	r1, __arm_cp.6_0
.Ltmp165:
	.loc	1 552 17                @ ../Src/LCDConf.c:552:17
	ldr	r3, __arm_cp.6_2
.Ltmp166:
	.loc	1 1000 81               @ ../Src/LCDConf.c:1000:81
	ldr.w	r2, [r1, r4, lsl #2]
	.loc	1 1000 47 is_stmt 0     @ ../Src/LCDConf.c:1000:47
	add.w	r1, r1, r4, lsl #2
	.loc	1 1000 109              @ ../Src/LCDConf.c:1000:109
	ldr.w	r12, [r1, #16]
	.loc	1 1000 47               @ ../Src/LCDConf.c:1000:47
	ldr.w	lr, [r1, #24]
	ldr	r1, __arm_cp.6_1
.Ltmp167:
	.loc	1 552 17 is_stmt 1      @ ../Src/LCDConf.c:552:17
	str	r3, [r1]
.Ltmp168:
	.loc	1 1000 13               @ ../Src/LCDConf.c:1000:13
	ldr	r3, __arm_cp.6_3
.Ltmp169:
	.loc	1 553 17                @ ../Src/LCDConf.c:553:17
	str	r7, [r1, #56]
.Ltmp170:
	.loc	1 1000 13               @ ../Src/LCDConf.c:1000:13
	ldr.w	r3, [r3, r4, lsl #2]
	.loc	1 1000 32 is_stmt 0     @ ../Src/LCDConf.c:1000:32
	mla	r0, lr, r0, r3
.Ltmp171:
	.loc	1 1000 101              @ ../Src/LCDConf.c:1000:101
	mla	r3, r2, r5, r6
	.loc	1 1000 73               @ ../Src/LCDConf.c:1000:73
	mla	r0, r3, r12, r0
.Ltmp172:
	@DEBUG_VALUE: _LCD_FillRect:AddrDst <- $r0
	@DEBUG_VALUE: _DMA_Fill:pDst <- $r0
	.loc	1 557 17 is_stmt 1      @ ../Src/LCDConf.c:557:17
	str	r0, [r1, #60]
.Ltmp173:
	.loc	1 997 14                @ ../Src/LCDConf.c:997:14
	sub.w	r0, r9, r6
.Ltmp174:
	.loc	1 997 19 is_stmt 0      @ ../Src/LCDConf.c:997:19
	adds	r0, #1
.Ltmp175:
	@DEBUG_VALUE: _LCD_FillRect:xSize <- $r0
	.loc	1 1001 76 is_stmt 1     @ ../Src/LCDConf.c:1001:76
	subs	r2, r2, r0
.Ltmp176:
	@DEBUG_VALUE: _DMA_Fill:OffLine <- $r2
	@DEBUG_VALUE: _DMA_Fill:xSize <- $r0
	.loc	1 561 17                @ ../Src/LCDConf.c:561:17
	str	r2, [r1, #64]
.Ltmp177:
	.loc	1 999 16                @ ../Src/LCDConf.c:999:16
	clz	r2, r4
.Ltmp178:
	lsrs	r2, r2, #5
.Ltmp179:
	.loc	1 490 6                 @ ../Src/LCDConf.c:490:6
	lsls	r2, r2, #1
.Ltmp180:
	@DEBUG_VALUE: _DMA_Fill:PixelFormat <- $r2
	@DEBUG_VALUE: _DMA_Fill:xSize <- $r0
	.loc	1 565 17                @ ../Src/LCDConf.c:565:17
	str	r2, [r1, #52]
.Ltmp181:
	.loc	1 998 14                @ ../Src/LCDConf.c:998:14
	rsb.w	r2, r5, #1
.Ltmp182:
	.loc	1 998 19 is_stmt 0      @ ../Src/LCDConf.c:998:19
	add	r2, r8
.Ltmp183:
	@DEBUG_VALUE: _LCD_FillRect:ySize <- $r2
	@DEBUG_VALUE: _DMA_Fill:ySize <- $r2
	.loc	1 569 38 is_stmt 1      @ ../Src/LCDConf.c:569:38
	pkhbt	r0, r2, r0, lsl #16
.Ltmp184:
	@DEBUG_VALUE: _DMA_Fill:xSize <- $r0
	.loc	1 569 17 is_stmt 0      @ ../Src/LCDConf.c:569:17
	str	r0, [r1, #68]
	.loc	1 573 2 is_stmt 1       @ ../Src/LCDConf.c:573:2
	pop.w	{r2, r4, r5, r6, r7, r8, r9, lr}
.Ltmp185:
	b	_DMA_ExecOperation
.Ltmp186:
	.p2align	2
@ %bb.3:
	.loc	1 0 2 is_stmt 0         @ ../Src/LCDConf.c:0:2
__arm_cp.6_0:
	.long	.L_MergedGlobals
.Lcpi_end45:
	.size	__arm_cp.6_0, .Lcpi_end45-__arm_cp.6_0
__arm_cp.6_1:
	.long	1073917952              @ 0x4002b000
.Lcpi_end46:
	.size	__arm_cp.6_1, .Lcpi_end46-__arm_cp.6_1
__arm_cp.6_2:
	.long	197120                  @ 0x30200
.Lcpi_end47:
	.size	__arm_cp.6_2, .Lcpi_end47-__arm_cp.6_2
__arm_cp.6_3:
	.long	_aAddr
.Lcpi_end48:
	.size	__arm_cp.6_3, .Lcpi_end48-__arm_cp.6_3
__arm_cp.6_4:
	.long	_LCD_FillRect
.Lcpi_end49:
	.size	__arm_cp.6_4, .Lcpi_end49-__arm_cp.6_4
.Lfunc_end6:
	.size	_LCD_FillRect, .Lfunc_end6-_LCD_FillRect
	.cfi_endproc
	.cantunwind
	.fnend
                                        @ -- End function
	.section	.text._LCD_DrawBitmap32bpp,"ax",%progbits
	.p2align	2               @ -- Begin function _LCD_DrawBitmap32bpp
	.type	_LCD_DrawBitmap32bpp,%function
	.code	16                      @ @_LCD_DrawBitmap32bpp
	.thumb_func
_LCD_DrawBitmap32bpp:
.Lfunc_begin7:
	.loc	1 1017 0 is_stmt 1      @ ../Src/LCDConf.c:1017:0
	.fnstart
	.cfi_startproc
@ %bb.0:
	.save	{r4, r5, r6, r7, r8, r9, r10, lr}
	.pad	#16
	push.w	{r0, r1, r2, r3, r4, r5, r6, r7, r8, r9, r10, lr}
	.cfi_def_cfa_offset 48
	.cfi_offset lr, -4
	.cfi_offset r10, -8
	.cfi_offset r9, -12
	.cfi_offset r8, -16
	.cfi_offset r7, -20
	.cfi_offset r6, -24
	.cfi_offset r5, -28
	.cfi_offset r4, -32
	@DEBUG_VALUE: _LCD_DrawBitmap32bpp:LayerIndex <- $r0
	@DEBUG_VALUE: _LCD_DrawBitmap32bpp:x <- $r1
	@DEBUG_VALUE: _LCD_DrawBitmap32bpp:y <- $r2
	@DEBUG_VALUE: _LCD_DrawBitmap32bpp:p <- $r3
.Ltmp187:
	.loc	1 1022 46 prologue_end  @ ../Src/LCDConf.c:1022:46
	ldr	r4, __arm_cp.7_0
	mov	r8, r3
	mov	r9, r2
	mov	r10, r1
	mov	r7, r0
	@DEBUG_VALUE: _LCD_DrawBitmap32bpp:BytesPerLine <- [DW_OP_plus_uconst 56] [$sp+0]
	@DEBUG_VALUE: _LCD_DrawBitmap32bpp:ySize <- [DW_OP_plus_uconst 52] [$sp+0]
	@DEBUG_VALUE: _LCD_DrawBitmap32bpp:xSize <- [DW_OP_plus_uconst 48] [$sp+0]
.Ltmp188:
	@DEBUG_VALUE: _LCD_DrawBitmap32bpp:p <- $r8
	@DEBUG_VALUE: _LCD_DrawBitmap32bpp:y <- $r9
	@DEBUG_VALUE: _LCD_DrawBitmap32bpp:x <- $r10
	@DEBUG_VALUE: _LCD_DrawBitmap32bpp:LayerIndex <- $r7
	add.w	r5, r4, r0, lsl #2
	.loc	1 1021 15               @ ../Src/LCDConf.c:1021:15
	bl	_GetBufferSize
.Ltmp189:
	@DEBUG_VALUE: _LCD_DrawBitmap32bpp:BufferSize <- $r0
	.loc	1 1022 106              @ ../Src/LCDConf.c:1022:106
	ldr	r1, [r5, #16]
	.loc	1 1022 46 is_stmt 0     @ ../Src/LCDConf.c:1022:46
	ldr	r2, [r5, #24]
	.loc	1 1022 79               @ ../Src/LCDConf.c:1022:79
	ldr.w	r5, [r4, r7, lsl #2]
	ldr	r3, [sp, #48]
	.loc	1 1024 35 is_stmt 1     @ ../Src/LCDConf.c:1024:35
	subs	r4, r5, r3
.Ltmp190:
	@DEBUG_VALUE: _LCD_DrawBitmap32bpp:OffLineDst <- $r4
	.loc	1 1025 2                @ ../Src/LCDConf.c:1025:2
	str	r4, [sp, #8]
	ldr	r4, [sp, #56]
.Ltmp191:
	.loc	1 1023 29               @ ../Src/LCDConf.c:1023:29
	asrs	r6, r4, #31
	add.w	r6, r4, r6, lsr #30
	.loc	1 1023 34 is_stmt 0     @ ../Src/LCDConf.c:1023:34
	rsb	r6, r3, r6, asr #2
.Ltmp192:
	@DEBUG_VALUE: _LCD_DrawBitmap32bpp:OffLineSrc <- $r6
	.loc	1 1025 2 is_stmt 1      @ ../Src/LCDConf.c:1025:2
	str	r6, [sp, #4]
	ldr	r6, [sp, #52]
.Ltmp193:
	str	r6, [sp]
	.loc	1 1022 12               @ ../Src/LCDConf.c:1022:12
	ldr	r6, __arm_cp.7_1
	ldr.w	r6, [r6, r7, lsl #2]
	.loc	1 1022 31 is_stmt 0     @ ../Src/LCDConf.c:1022:31
	mla	r0, r2, r0, r6
.Ltmp194:
	.loc	1 1022 99               @ ../Src/LCDConf.c:1022:99
	mla	r2, r5, r9, r10
	.loc	1 1022 72               @ ../Src/LCDConf.c:1022:72
	mla	r2, r2, r1, r0
.Ltmp195:
	@DEBUG_VALUE: _LCD_DrawBitmap32bpp:AddrDst <- $r2
	.loc	1 1025 2 is_stmt 1      @ ../Src/LCDConf.c:1025:2
	mov	r0, r7
	mov	r1, r8
.Ltmp196:
	@DEBUG_VALUE: _LCD_DrawBitmap32bpp:p <- $r1
	bl	_DMA_Copy
.Ltmp197:
	.loc	1 1026 1                @ ../Src/LCDConf.c:1026:1
	pop.w	{r0, r1, r2, r3, r4, r5, r6, r7, r8, r9, r10, pc}
.Ltmp198:
	.p2align	2
@ %bb.1:
	.loc	1 0 1 is_stmt 0         @ ../Src/LCDConf.c:0:1
__arm_cp.7_0:
	.long	.L_MergedGlobals
.Lcpi_end50:
	.size	__arm_cp.7_0, .Lcpi_end50-__arm_cp.7_0
__arm_cp.7_1:
	.long	_aAddr
.Lcpi_end51:
	.size	__arm_cp.7_1, .Lcpi_end51-__arm_cp.7_1
.Lfunc_end7:
	.size	_LCD_DrawBitmap32bpp, .Lfunc_end7-_LCD_DrawBitmap32bpp
	.cfi_endproc
	.cantunwind
	.fnend
                                        @ -- End function
	.section	.text._LCD_DrawBitmap16bpp,"ax",%progbits
	.p2align	2               @ -- Begin function _LCD_DrawBitmap16bpp
	.type	_LCD_DrawBitmap16bpp,%function
	.code	16                      @ @_LCD_DrawBitmap16bpp
	.thumb_func
_LCD_DrawBitmap16bpp:
.Lfunc_begin8:
	.loc	1 1032 0 is_stmt 1      @ ../Src/LCDConf.c:1032:0
	.fnstart
	.cfi_startproc
@ %bb.0:
	.save	{r4, r5, r6, r7, r8, r9, lr}
	.pad	#12
	push.w	{r1, r2, r3, r4, r5, r6, r7, r8, r9, lr}
	.cfi_def_cfa_offset 40
	.cfi_offset lr, -4
	.cfi_offset r9, -8
	.cfi_offset r8, -12
	.cfi_offset r7, -16
	.cfi_offset r6, -20
	.cfi_offset r5, -24
	.cfi_offset r4, -28
	@DEBUG_VALUE: _LCD_DrawBitmap16bpp:LayerIndex <- $r0
	@DEBUG_VALUE: _LCD_DrawBitmap16bpp:x <- $r1
	@DEBUG_VALUE: _LCD_DrawBitmap16bpp:y <- $r2
	@DEBUG_VALUE: _LCD_DrawBitmap16bpp:p <- $r3
.Ltmp199:
	.loc	1 1037 46 prologue_end  @ ../Src/LCDConf.c:1037:46
	ldr	r4, __arm_cp.8_0
	mov	r8, r3
	mov	r9, r2
	mov	r6, r1
	mov	r7, r0
	@DEBUG_VALUE: _LCD_DrawBitmap16bpp:BytesPerLine <- [DW_OP_plus_uconst 48] [$sp+0]
	@DEBUG_VALUE: _LCD_DrawBitmap16bpp:ySize <- [DW_OP_plus_uconst 44] [$sp+0]
	@DEBUG_VALUE: _LCD_DrawBitmap16bpp:xSize <- [DW_OP_plus_uconst 40] [$sp+0]
.Ltmp200:
	@DEBUG_VALUE: _LCD_DrawBitmap16bpp:p <- $r8
	@DEBUG_VALUE: _LCD_DrawBitmap16bpp:y <- $r9
	@DEBUG_VALUE: _LCD_DrawBitmap16bpp:x <- $r6
	@DEBUG_VALUE: _LCD_DrawBitmap16bpp:LayerIndex <- $r7
	add.w	r5, r4, r0, lsl #2
	.loc	1 1036 15               @ ../Src/LCDConf.c:1036:15
	bl	_GetBufferSize
.Ltmp201:
	@DEBUG_VALUE: _LCD_DrawBitmap16bpp:BufferSize <- $r0
	.loc	1 1037 106              @ ../Src/LCDConf.c:1037:106
	ldr	r1, [r5, #16]
	.loc	1 1037 46 is_stmt 0     @ ../Src/LCDConf.c:1037:46
	ldr	r2, [r5, #24]
	.loc	1 1037 79               @ ../Src/LCDConf.c:1037:79
	ldr.w	r5, [r4, r7, lsl #2]
	ldr	r3, [sp, #40]
	.loc	1 1039 35 is_stmt 1     @ ../Src/LCDConf.c:1039:35
	subs	r4, r5, r3
.Ltmp202:
	@DEBUG_VALUE: _LCD_DrawBitmap16bpp:OffLineDst <- $r4
	.loc	1 1040 2                @ ../Src/LCDConf.c:1040:2
	str	r4, [sp, #8]
	ldr	r4, [sp, #48]
.Ltmp203:
	.loc	1 1038 29               @ ../Src/LCDConf.c:1038:29
	add.w	r4, r4, r4, lsr #31
	.loc	1 1038 34 is_stmt 0     @ ../Src/LCDConf.c:1038:34
	rsb	r4, r3, r4, asr #1
.Ltmp204:
	@DEBUG_VALUE: _LCD_DrawBitmap16bpp:OffLineSrc <- $r4
	.loc	1 1040 2 is_stmt 1      @ ../Src/LCDConf.c:1040:2
	str	r4, [sp, #4]
	ldr	r4, [sp, #44]
.Ltmp205:
	str	r4, [sp]
	.loc	1 1037 12               @ ../Src/LCDConf.c:1037:12
	ldr	r4, __arm_cp.8_1
	ldr.w	r4, [r4, r7, lsl #2]
	.loc	1 1037 31 is_stmt 0     @ ../Src/LCDConf.c:1037:31
	mla	r0, r2, r0, r4
.Ltmp206:
	.loc	1 1037 99               @ ../Src/LCDConf.c:1037:99
	mla	r2, r5, r9, r6
	.loc	1 1037 72               @ ../Src/LCDConf.c:1037:72
	mla	r2, r2, r1, r0
.Ltmp207:
	@DEBUG_VALUE: _LCD_DrawBitmap16bpp:AddrDst <- $r2
	.loc	1 1040 2 is_stmt 1      @ ../Src/LCDConf.c:1040:2
	mov	r0, r7
	mov	r1, r8
.Ltmp208:
	@DEBUG_VALUE: _LCD_DrawBitmap16bpp:p <- $r1
	bl	_DMA_Copy
.Ltmp209:
	.loc	1 1041 1                @ ../Src/LCDConf.c:1041:1
	pop.w	{r1, r2, r3, r4, r5, r6, r7, r8, r9, pc}
.Ltmp210:
	.p2align	2
@ %bb.1:
	.loc	1 0 1 is_stmt 0         @ ../Src/LCDConf.c:0:1
__arm_cp.8_0:
	.long	.L_MergedGlobals
.Lcpi_end52:
	.size	__arm_cp.8_0, .Lcpi_end52-__arm_cp.8_0
__arm_cp.8_1:
	.long	_aAddr
.Lcpi_end53:
	.size	__arm_cp.8_1, .Lcpi_end53-__arm_cp.8_1
.Lfunc_end8:
	.size	_LCD_DrawBitmap16bpp, .Lfunc_end8-_LCD_DrawBitmap16bpp
	.cfi_endproc
	.cantunwind
	.fnend
                                        @ -- End function
	.section	.text._LCD_DrawBitmap8bpp,"ax",%progbits
	.p2align	2               @ -- Begin function _LCD_DrawBitmap8bpp
	.type	_LCD_DrawBitmap8bpp,%function
	.code	16                      @ @_LCD_DrawBitmap8bpp
	.thumb_func
_LCD_DrawBitmap8bpp:
.Lfunc_begin9:
	.loc	1 1047 0 is_stmt 1      @ ../Src/LCDConf.c:1047:0
	.fnstart
	.cfi_startproc
@ %bb.0:
	.save	{r4, r5, r6, r7, r8, r9, lr}
	.pad	#4
	push.w	{r3, r4, r5, r6, r7, r8, r9, lr}
	.cfi_def_cfa_offset 32
	.cfi_offset lr, -4
	.cfi_offset r9, -8
	.cfi_offset r8, -12
	.cfi_offset r7, -16
	.cfi_offset r6, -20
	.cfi_offset r5, -24
	.cfi_offset r4, -28
	@DEBUG_VALUE: _LCD_DrawBitmap8bpp:LayerIndex <- $r0
	@DEBUG_VALUE: _LCD_DrawBitmap8bpp:x <- $r1
	@DEBUG_VALUE: _LCD_DrawBitmap8bpp:y <- $r2
	@DEBUG_VALUE: _LCD_DrawBitmap8bpp:p <- $r3
.Ltmp211:
	@DEBUG_VALUE: _GetPixelformat:LayerIndex <- $r0
	@DEBUG_VALUE: _DMA_DrawBitmapL8:pSrc <- $r3
	mov	r5, r3
	mov	r8, r2
	mov	r9, r1
	mov	r4, r0
.Ltmp212:
	@DEBUG_VALUE: _GetPixelformat:LayerIndex <- $r4
	@DEBUG_VALUE: _LCD_DrawBitmap8bpp:BytesPerLine <- [DW_OP_plus_uconst 40] [$sp+0]
	@DEBUG_VALUE: _LCD_DrawBitmap8bpp:ySize <- [DW_OP_plus_uconst 36] [$sp+0]
	@DEBUG_VALUE: _LCD_DrawBitmap8bpp:xSize <- [DW_OP_plus_uconst 32] [$sp+0]
	@DEBUG_VALUE: _LCD_DrawBitmap8bpp:p <- $r5
	@DEBUG_VALUE: _LCD_DrawBitmap8bpp:y <- $r8
	@DEBUG_VALUE: _LCD_DrawBitmap8bpp:x <- $r9
	@DEBUG_VALUE: _LCD_DrawBitmap8bpp:LayerIndex <- $r4
	.loc	1 1052 15 prologue_end  @ ../Src/LCDConf.c:1052:15
	bl	_GetBufferSize
.Ltmp213:
	@DEBUG_VALUE: _LCD_DrawBitmap8bpp:BufferSize <- $r0
	.loc	1 1053 46               @ ../Src/LCDConf.c:1053:46
	ldr	r1, __arm_cp.9_0
.Ltmp214:
	.loc	1 751 17                @ ../Src/LCDConf.c:751:17
	mov.w	r7, #66048
.Ltmp215:
	.loc	1 1053 79               @ ../Src/LCDConf.c:1053:79
	ldr.w	r2, [r1, r4, lsl #2]
	.loc	1 1053 46 is_stmt 0     @ ../Src/LCDConf.c:1053:46
	add.w	r1, r1, r4, lsl #2
	.loc	1 1053 106              @ ../Src/LCDConf.c:1053:106
	ldr	r3, [r1, #16]
	.loc	1 1053 46               @ ../Src/LCDConf.c:1053:46
	ldr	r6, [r1, #24]
	ldr	r1, __arm_cp.9_1
.Ltmp216:
	@DEBUG_VALUE: _DMA_DrawBitmapL8:ySize <- [DW_OP_plus_uconst 36] [$sp+0]
	@DEBUG_VALUE: _DMA_DrawBitmapL8:xSize <- [DW_OP_plus_uconst 32] [$sp+0]
	@DEBUG_VALUE: _DMA_DrawBitmapL8:pSrc <- $r5
	.loc	1 751 17 is_stmt 1      @ ../Src/LCDConf.c:751:17
	str	r7, [r1]
.Ltmp217:
	.loc	1 1053 12               @ ../Src/LCDConf.c:1053:12
	ldr	r7, __arm_cp.9_2
.Ltmp218:
	.loc	1 755 17                @ ../Src/LCDConf.c:755:17
	str	r5, [r1, #12]
.Ltmp219:
	.loc	1 1053 12               @ ../Src/LCDConf.c:1053:12
	ldr.w	r7, [r7, r4, lsl #2]
	.loc	1 1053 31 is_stmt 0     @ ../Src/LCDConf.c:1053:31
	mla	r0, r6, r0, r7
.Ltmp220:
	.loc	1 1053 99               @ ../Src/LCDConf.c:1053:99
	mla	r7, r2, r8, r9
	.loc	1 1053 72               @ ../Src/LCDConf.c:1053:72
	mla	r0, r7, r3, r0
.Ltmp221:
	@DEBUG_VALUE: _LCD_DrawBitmap8bpp:AddrDst <- $r0
	@DEBUG_VALUE: _DMA_DrawBitmapL8:pDst <- $r0
	.loc	1 756 17 is_stmt 1      @ ../Src/LCDConf.c:756:17
	str	r0, [r1, #60]
	@DEBUG_VALUE: _DMA_DrawBitmapL8:ySize <- [DW_OP_plus_uconst 36] [$sp+0]
	@DEBUG_VALUE: _DMA_DrawBitmapL8:xSize <- [DW_OP_plus_uconst 32] [$sp+0]
	ldr	r0, [sp, #32]
.Ltmp222:
	.loc	1 0 17 is_stmt 0        @ ../Src/LCDConf.c:0:17
	ldr	r3, [sp, #40]
.Ltmp223:
	.loc	1 1054 28 is_stmt 1     @ ../Src/LCDConf.c:1054:28
	subs	r3, r3, r0
.Ltmp224:
	@DEBUG_VALUE: _LCD_DrawBitmap8bpp:OffLineSrc <- $r3
	@DEBUG_VALUE: _DMA_DrawBitmapL8:OffSrc <- $r3
	.loc	1 1055 35               @ ../Src/LCDConf.c:1055:35
	subs	r2, r2, r0
.Ltmp225:
	@DEBUG_VALUE: _LCD_DrawBitmap8bpp:OffLineDst <- $r2
	@DEBUG_VALUE: _DMA_DrawBitmapL8:OffDst <- $r2
	.loc	1 760 17                @ ../Src/LCDConf.c:760:17
	str	r3, [r1, #16]
	@DEBUG_VALUE: _DMA_DrawBitmapL8:ySize <- [DW_OP_plus_uconst 36] [$sp+0]
	@DEBUG_VALUE: _DMA_DrawBitmapL8:xSize <- [DW_OP_plus_uconst 32] [$sp+0]
	.loc	1 761 17                @ ../Src/LCDConf.c:761:17
	str	r2, [r1, #64]
	@DEBUG_VALUE: _DMA_DrawBitmapL8:ySize <- [DW_OP_plus_uconst 36] [$sp+0]
	@DEBUG_VALUE: _DMA_DrawBitmapL8:xSize <- [DW_OP_plus_uconst 32] [$sp+0]
	movs	r2, #5
.Ltmp226:
	.loc	1 765 17                @ ../Src/LCDConf.c:765:17
	str	r2, [r1, #28]
	clz	r2, r4
	lsrs	r2, r2, #5
.Ltmp227:
	.loc	1 490 6                 @ ../Src/LCDConf.c:490:6
	lsls	r2, r2, #1
.Ltmp228:
	@DEBUG_VALUE: _DMA_DrawBitmapL8:PixelFormatDst <- $r2
	@DEBUG_VALUE: _LCD_DrawBitmap8bpp:PixelFormat <- $r2
	.loc	1 766 17                @ ../Src/LCDConf.c:766:17
	str	r2, [r1, #52]
	@DEBUG_VALUE: _DMA_DrawBitmapL8:ySize <- [DW_OP_plus_uconst 36] [$sp+0]
	@DEBUG_VALUE: _DMA_DrawBitmapL8:xSize <- [DW_OP_plus_uconst 32] [$sp+0]
	ldr	r2, [sp, #36]
.Ltmp229:
	.loc	1 770 38                @ ../Src/LCDConf.c:770:38
	orr.w	r0, r2, r0, lsl #16
	.loc	1 770 17 is_stmt 0      @ ../Src/LCDConf.c:770:17
	str	r0, [r1, #68]
	.loc	1 774 2 is_stmt 1       @ ../Src/LCDConf.c:774:2
	pop.w	{r2, r4, r5, r6, r7, r8, r9, lr}
.Ltmp230:
	b	_DMA_ExecOperation
.Ltmp231:
	.p2align	2
@ %bb.1:
	.loc	1 0 2 is_stmt 0         @ ../Src/LCDConf.c:0:2
__arm_cp.9_0:
	.long	.L_MergedGlobals
.Lcpi_end54:
	.size	__arm_cp.9_0, .Lcpi_end54-__arm_cp.9_0
__arm_cp.9_1:
	.long	1073917952              @ 0x4002b000
.Lcpi_end55:
	.size	__arm_cp.9_1, .Lcpi_end55-__arm_cp.9_1
__arm_cp.9_2:
	.long	_aAddr
.Lcpi_end56:
	.size	__arm_cp.9_2, .Lcpi_end56-__arm_cp.9_2
.Lfunc_end9:
	.size	_LCD_DrawBitmap8bpp, .Lfunc_end9-_LCD_DrawBitmap8bpp
	.cfi_endproc
	.cantunwind
	.fnend
                                        @ -- End function
	.section	.text._Color2IndexBulk_M1555I_DMA2D,"ax",%progbits
	.p2align	1               @ -- Begin function _Color2IndexBulk_M1555I_DMA2D
	.type	_Color2IndexBulk_M1555I_DMA2D,%function
	.code	16                      @ @_Color2IndexBulk_M1555I_DMA2D
	.thumb_func
_Color2IndexBulk_M1555I_DMA2D:
.Lfunc_begin10:
	.loc	1 444 0 is_stmt 1       @ ../Src/LCDConf.c:444:0
	.fnstart
	.cfi_startproc
@ %bb.0:
	@DEBUG_VALUE: _Color2IndexBulk_M1555I_DMA2D:pColor <- $r0
	@DEBUG_VALUE: _Color2IndexBulk_M1555I_DMA2D:pColor <- $r0
	@DEBUG_VALUE: _Color2IndexBulk_M1555I_DMA2D:pColor <- $r0
	@DEBUG_VALUE: _Color2IndexBulk_M1555I_DMA2D:pIndex <- $r1
	@DEBUG_VALUE: _Color2IndexBulk_M1555I_DMA2D:pIndex <- $r1
	@DEBUG_VALUE: _Color2IndexBulk_M1555I_DMA2D:pIndex <- $r1
	@DEBUG_VALUE: _Color2IndexBulk_M1555I_DMA2D:NumItems <- $r2
	@DEBUG_VALUE: _Color2IndexBulk_M1555I_DMA2D:NumItems <- $r2
	@DEBUG_VALUE: _Color2IndexBulk_M1555I_DMA2D:NumItems <- $r2
	@DEBUG_VALUE: _Color2IndexBulk_M1555I_DMA2D:SizeOfIndex <- $r3
	.loc	1 444 1 prologue_end    @ ../Src/LCDConf.c:444:1
	movs	r3, #3
	b	_DMA_Color2IndexBulk
.Ltmp232:
.Lfunc_end10:
	.size	_Color2IndexBulk_M1555I_DMA2D, .Lfunc_end10-_Color2IndexBulk_M1555I_DMA2D
	.cfi_endproc
	.cantunwind
	.fnend
                                        @ -- End function
	.section	.text._Index2ColorBulk_M1555I_DMA2D,"ax",%progbits
	.p2align	1               @ -- Begin function _Index2ColorBulk_M1555I_DMA2D
	.type	_Index2ColorBulk_M1555I_DMA2D,%function
	.code	16                      @ @_Index2ColorBulk_M1555I_DMA2D
	.thumb_func
_Index2ColorBulk_M1555I_DMA2D:
.Lfunc_begin11:
	.loc	1 444 0                 @ ../Src/LCDConf.c:444:0
	.fnstart
	.cfi_startproc
@ %bb.0:
	@DEBUG_VALUE: _Index2ColorBulk_M1555I_DMA2D:pIndex <- $r0
	@DEBUG_VALUE: _Index2ColorBulk_M1555I_DMA2D:pIndex <- $r0
	@DEBUG_VALUE: _Index2ColorBulk_M1555I_DMA2D:pIndex <- $r0
	@DEBUG_VALUE: _Index2ColorBulk_M1555I_DMA2D:pColor <- $r1
	@DEBUG_VALUE: _Index2ColorBulk_M1555I_DMA2D:pColor <- $r1
	@DEBUG_VALUE: _Index2ColorBulk_M1555I_DMA2D:pColor <- $r1
	@DEBUG_VALUE: _Index2ColorBulk_M1555I_DMA2D:NumItems <- $r2
	@DEBUG_VALUE: _Index2ColorBulk_M1555I_DMA2D:NumItems <- $r2
	@DEBUG_VALUE: _Index2ColorBulk_M1555I_DMA2D:NumItems <- $r2
	@DEBUG_VALUE: _Index2ColorBulk_M1555I_DMA2D:SizeOfIndex <- $r3
	.loc	1 444 1 prologue_end    @ ../Src/LCDConf.c:444:1
	movs	r3, #3
	b	_DMA_Index2ColorBulk
.Ltmp233:
.Lfunc_end11:
	.size	_Index2ColorBulk_M1555I_DMA2D, .Lfunc_end11-_Index2ColorBulk_M1555I_DMA2D
	.cfi_endproc
	.cantunwind
	.fnend
                                        @ -- End function
	.section	.text._Color2IndexBulk_M565_DMA2D,"ax",%progbits
	.p2align	1               @ -- Begin function _Color2IndexBulk_M565_DMA2D
	.type	_Color2IndexBulk_M565_DMA2D,%function
	.code	16                      @ @_Color2IndexBulk_M565_DMA2D
	.thumb_func
_Color2IndexBulk_M565_DMA2D:
.Lfunc_begin12:
	.loc	1 443 0                 @ ../Src/LCDConf.c:443:0
	.fnstart
	.cfi_startproc
@ %bb.0:
	@DEBUG_VALUE: _Color2IndexBulk_M565_DMA2D:pColor <- $r0
	@DEBUG_VALUE: _Color2IndexBulk_M565_DMA2D:pColor <- $r0
	@DEBUG_VALUE: _Color2IndexBulk_M565_DMA2D:pColor <- $r0
	@DEBUG_VALUE: _Color2IndexBulk_M565_DMA2D:pIndex <- $r1
	@DEBUG_VALUE: _Color2IndexBulk_M565_DMA2D:pIndex <- $r1
	@DEBUG_VALUE: _Color2IndexBulk_M565_DMA2D:pIndex <- $r1
	@DEBUG_VALUE: _Color2IndexBulk_M565_DMA2D:NumItems <- $r2
	@DEBUG_VALUE: _Color2IndexBulk_M565_DMA2D:NumItems <- $r2
	@DEBUG_VALUE: _Color2IndexBulk_M565_DMA2D:NumItems <- $r2
	@DEBUG_VALUE: _Color2IndexBulk_M565_DMA2D:SizeOfIndex <- $r3
	.loc	1 443 1 prologue_end    @ ../Src/LCDConf.c:443:1
	movs	r3, #2
	b	_DMA_Color2IndexBulk
.Ltmp234:
.Lfunc_end12:
	.size	_Color2IndexBulk_M565_DMA2D, .Lfunc_end12-_Color2IndexBulk_M565_DMA2D
	.cfi_endproc
	.cantunwind
	.fnend
                                        @ -- End function
	.section	.text._Index2ColorBulk_M565_DMA2D,"ax",%progbits
	.p2align	1               @ -- Begin function _Index2ColorBulk_M565_DMA2D
	.type	_Index2ColorBulk_M565_DMA2D,%function
	.code	16                      @ @_Index2ColorBulk_M565_DMA2D
	.thumb_func
_Index2ColorBulk_M565_DMA2D:
.Lfunc_begin13:
	.loc	1 443 0                 @ ../Src/LCDConf.c:443:0
	.fnstart
	.cfi_startproc
@ %bb.0:
	@DEBUG_VALUE: _Index2ColorBulk_M565_DMA2D:pIndex <- $r0
	@DEBUG_VALUE: _Index2ColorBulk_M565_DMA2D:pIndex <- $r0
	@DEBUG_VALUE: _Index2ColorBulk_M565_DMA2D:pIndex <- $r0
	@DEBUG_VALUE: _Index2ColorBulk_M565_DMA2D:pColor <- $r1
	@DEBUG_VALUE: _Index2ColorBulk_M565_DMA2D:pColor <- $r1
	@DEBUG_VALUE: _Index2ColorBulk_M565_DMA2D:pColor <- $r1
	@DEBUG_VALUE: _Index2ColorBulk_M565_DMA2D:NumItems <- $r2
	@DEBUG_VALUE: _Index2ColorBulk_M565_DMA2D:NumItems <- $r2
	@DEBUG_VALUE: _Index2ColorBulk_M565_DMA2D:NumItems <- $r2
	@DEBUG_VALUE: _Index2ColorBulk_M565_DMA2D:SizeOfIndex <- $r3
	.loc	1 443 1 prologue_end    @ ../Src/LCDConf.c:443:1
	movs	r3, #2
	b	_DMA_Index2ColorBulk
.Ltmp235:
.Lfunc_end13:
	.size	_Index2ColorBulk_M565_DMA2D, .Lfunc_end13-_Index2ColorBulk_M565_DMA2D
	.cfi_endproc
	.cantunwind
	.fnend
                                        @ -- End function
	.section	.text._Color2IndexBulk_M4444I_DMA2D,"ax",%progbits
	.p2align	1               @ -- Begin function _Color2IndexBulk_M4444I_DMA2D
	.type	_Color2IndexBulk_M4444I_DMA2D,%function
	.code	16                      @ @_Color2IndexBulk_M4444I_DMA2D
	.thumb_func
_Color2IndexBulk_M4444I_DMA2D:
.Lfunc_begin14:
	.loc	1 445 0                 @ ../Src/LCDConf.c:445:0
	.fnstart
	.cfi_startproc
@ %bb.0:
	@DEBUG_VALUE: _Color2IndexBulk_M4444I_DMA2D:pColor <- $r0
	@DEBUG_VALUE: _Color2IndexBulk_M4444I_DMA2D:pColor <- $r0
	@DEBUG_VALUE: _Color2IndexBulk_M4444I_DMA2D:pColor <- $r0
	@DEBUG_VALUE: _Color2IndexBulk_M4444I_DMA2D:pIndex <- $r1
	@DEBUG_VALUE: _Color2IndexBulk_M4444I_DMA2D:pIndex <- $r1
	@DEBUG_VALUE: _Color2IndexBulk_M4444I_DMA2D:pIndex <- $r1
	@DEBUG_VALUE: _Color2IndexBulk_M4444I_DMA2D:NumItems <- $r2
	@DEBUG_VALUE: _Color2IndexBulk_M4444I_DMA2D:NumItems <- $r2
	@DEBUG_VALUE: _Color2IndexBulk_M4444I_DMA2D:NumItems <- $r2
	@DEBUG_VALUE: _Color2IndexBulk_M4444I_DMA2D:SizeOfIndex <- $r3
	.loc	1 445 1 prologue_end    @ ../Src/LCDConf.c:445:1
	movs	r3, #4
	b	_DMA_Color2IndexBulk
.Ltmp236:
.Lfunc_end14:
	.size	_Color2IndexBulk_M4444I_DMA2D, .Lfunc_end14-_Color2IndexBulk_M4444I_DMA2D
	.cfi_endproc
	.cantunwind
	.fnend
                                        @ -- End function
	.section	.text._Index2ColorBulk_M4444I_DMA2D,"ax",%progbits
	.p2align	1               @ -- Begin function _Index2ColorBulk_M4444I_DMA2D
	.type	_Index2ColorBulk_M4444I_DMA2D,%function
	.code	16                      @ @_Index2ColorBulk_M4444I_DMA2D
	.thumb_func
_Index2ColorBulk_M4444I_DMA2D:
.Lfunc_begin15:
	.loc	1 445 0                 @ ../Src/LCDConf.c:445:0
	.fnstart
	.cfi_startproc
@ %bb.0:
	@DEBUG_VALUE: _Index2ColorBulk_M4444I_DMA2D:pIndex <- $r0
	@DEBUG_VALUE: _Index2ColorBulk_M4444I_DMA2D:pIndex <- $r0
	@DEBUG_VALUE: _Index2ColorBulk_M4444I_DMA2D:pIndex <- $r0
	@DEBUG_VALUE: _Index2ColorBulk_M4444I_DMA2D:pColor <- $r1
	@DEBUG_VALUE: _Index2ColorBulk_M4444I_DMA2D:pColor <- $r1
	@DEBUG_VALUE: _Index2ColorBulk_M4444I_DMA2D:pColor <- $r1
	@DEBUG_VALUE: _Index2ColorBulk_M4444I_DMA2D:NumItems <- $r2
	@DEBUG_VALUE: _Index2ColorBulk_M4444I_DMA2D:NumItems <- $r2
	@DEBUG_VALUE: _Index2ColorBulk_M4444I_DMA2D:NumItems <- $r2
	@DEBUG_VALUE: _Index2ColorBulk_M4444I_DMA2D:SizeOfIndex <- $r3
	.loc	1 445 1 prologue_end    @ ../Src/LCDConf.c:445:1
	movs	r3, #4
	b	_DMA_Index2ColorBulk
.Ltmp237:
.Lfunc_end15:
	.size	_Index2ColorBulk_M4444I_DMA2D, .Lfunc_end15-_Index2ColorBulk_M4444I_DMA2D
	.cfi_endproc
	.cantunwind
	.fnend
                                        @ -- End function
	.section	.text._Color2IndexBulk_M888_DMA2D,"ax",%progbits
	.p2align	1               @ -- Begin function _Color2IndexBulk_M888_DMA2D
	.type	_Color2IndexBulk_M888_DMA2D,%function
	.code	16                      @ @_Color2IndexBulk_M888_DMA2D
	.thumb_func
_Color2IndexBulk_M888_DMA2D:
.Lfunc_begin16:
	.loc	1 442 0                 @ ../Src/LCDConf.c:442:0
	.fnstart
	.cfi_startproc
@ %bb.0:
	@DEBUG_VALUE: _Color2IndexBulk_M888_DMA2D:pColor <- $r0
	@DEBUG_VALUE: _Color2IndexBulk_M888_DMA2D:pColor <- $r0
	@DEBUG_VALUE: _Color2IndexBulk_M888_DMA2D:pColor <- $r0
	@DEBUG_VALUE: _Color2IndexBulk_M888_DMA2D:pIndex <- $r1
	@DEBUG_VALUE: _Color2IndexBulk_M888_DMA2D:pIndex <- $r1
	@DEBUG_VALUE: _Color2IndexBulk_M888_DMA2D:pIndex <- $r1
	@DEBUG_VALUE: _Color2IndexBulk_M888_DMA2D:NumItems <- $r2
	@DEBUG_VALUE: _Color2IndexBulk_M888_DMA2D:NumItems <- $r2
	@DEBUG_VALUE: _Color2IndexBulk_M888_DMA2D:NumItems <- $r2
	@DEBUG_VALUE: _Color2IndexBulk_M888_DMA2D:SizeOfIndex <- $r3
	.loc	1 442 1 prologue_end    @ ../Src/LCDConf.c:442:1
	movs	r3, #0
	b	_DMA_Color2IndexBulk
.Ltmp238:
.Lfunc_end16:
	.size	_Color2IndexBulk_M888_DMA2D, .Lfunc_end16-_Color2IndexBulk_M888_DMA2D
	.cfi_endproc
	.cantunwind
	.fnend
                                        @ -- End function
	.section	.text._Index2ColorBulk_M888_DMA2D,"ax",%progbits
	.p2align	1               @ -- Begin function _Index2ColorBulk_M888_DMA2D
	.type	_Index2ColorBulk_M888_DMA2D,%function
	.code	16                      @ @_Index2ColorBulk_M888_DMA2D
	.thumb_func
_Index2ColorBulk_M888_DMA2D:
.Lfunc_begin17:
	.loc	1 442 0                 @ ../Src/LCDConf.c:442:0
	.fnstart
	.cfi_startproc
@ %bb.0:
	@DEBUG_VALUE: _Index2ColorBulk_M888_DMA2D:pIndex <- $r0
	@DEBUG_VALUE: _Index2ColorBulk_M888_DMA2D:pIndex <- $r0
	@DEBUG_VALUE: _Index2ColorBulk_M888_DMA2D:pIndex <- $r0
	@DEBUG_VALUE: _Index2ColorBulk_M888_DMA2D:pColor <- $r1
	@DEBUG_VALUE: _Index2ColorBulk_M888_DMA2D:pColor <- $r1
	@DEBUG_VALUE: _Index2ColorBulk_M888_DMA2D:pColor <- $r1
	@DEBUG_VALUE: _Index2ColorBulk_M888_DMA2D:NumItems <- $r2
	@DEBUG_VALUE: _Index2ColorBulk_M888_DMA2D:NumItems <- $r2
	@DEBUG_VALUE: _Index2ColorBulk_M888_DMA2D:NumItems <- $r2
	@DEBUG_VALUE: _Index2ColorBulk_M888_DMA2D:SizeOfIndex <- $r3
	.loc	1 442 1 prologue_end    @ ../Src/LCDConf.c:442:1
	movs	r3, #0
	b	_DMA_Index2ColorBulk
.Ltmp239:
.Lfunc_end17:
	.size	_Index2ColorBulk_M888_DMA2D, .Lfunc_end17-_Index2ColorBulk_M888_DMA2D
	.cfi_endproc
	.cantunwind
	.fnend
                                        @ -- End function
	.section	.text._Color2IndexBulk_M8888I_DMA2D,"ax",%progbits
	.p2align	1               @ -- Begin function _Color2IndexBulk_M8888I_DMA2D
	.type	_Color2IndexBulk_M8888I_DMA2D,%function
	.code	16                      @ @_Color2IndexBulk_M8888I_DMA2D
	.thumb_func
_Color2IndexBulk_M8888I_DMA2D:
.Lfunc_begin18:
	.loc	1 441 0                 @ ../Src/LCDConf.c:441:0
	.fnstart
	.cfi_startproc
@ %bb.0:
	@DEBUG_VALUE: _Color2IndexBulk_M8888I_DMA2D:pColor <- $r0
	@DEBUG_VALUE: _Color2IndexBulk_M8888I_DMA2D:pColor <- $r0
	@DEBUG_VALUE: _Color2IndexBulk_M8888I_DMA2D:pColor <- $r0
	@DEBUG_VALUE: _Color2IndexBulk_M8888I_DMA2D:pIndex <- $r1
	@DEBUG_VALUE: _Color2IndexBulk_M8888I_DMA2D:pIndex <- $r1
	@DEBUG_VALUE: _Color2IndexBulk_M8888I_DMA2D:pIndex <- $r1
	@DEBUG_VALUE: _Color2IndexBulk_M8888I_DMA2D:NumItems <- $r2
	@DEBUG_VALUE: _Color2IndexBulk_M8888I_DMA2D:NumItems <- $r2
	@DEBUG_VALUE: _Color2IndexBulk_M8888I_DMA2D:NumItems <- $r2
	@DEBUG_VALUE: _Color2IndexBulk_M8888I_DMA2D:SizeOfIndex <- $r3
	.loc	1 441 1 prologue_end    @ ../Src/LCDConf.c:441:1
	movs	r3, #0
	b	_DMA_Color2IndexBulk
.Ltmp240:
.Lfunc_end18:
	.size	_Color2IndexBulk_M8888I_DMA2D, .Lfunc_end18-_Color2IndexBulk_M8888I_DMA2D
	.cfi_endproc
	.cantunwind
	.fnend
                                        @ -- End function
	.section	.text._Index2ColorBulk_M8888I_DMA2D,"ax",%progbits
	.p2align	1               @ -- Begin function _Index2ColorBulk_M8888I_DMA2D
	.type	_Index2ColorBulk_M8888I_DMA2D,%function
	.code	16                      @ @_Index2ColorBulk_M8888I_DMA2D
	.thumb_func
_Index2ColorBulk_M8888I_DMA2D:
.Lfunc_begin19:
	.loc	1 441 0                 @ ../Src/LCDConf.c:441:0
	.fnstart
	.cfi_startproc
@ %bb.0:
	@DEBUG_VALUE: _Index2ColorBulk_M8888I_DMA2D:pIndex <- $r0
	@DEBUG_VALUE: _Index2ColorBulk_M8888I_DMA2D:pIndex <- $r0
	@DEBUG_VALUE: _Index2ColorBulk_M8888I_DMA2D:pIndex <- $r0
	@DEBUG_VALUE: _Index2ColorBulk_M8888I_DMA2D:pColor <- $r1
	@DEBUG_VALUE: _Index2ColorBulk_M8888I_DMA2D:pColor <- $r1
	@DEBUG_VALUE: _Index2ColorBulk_M8888I_DMA2D:pColor <- $r1
	@DEBUG_VALUE: _Index2ColorBulk_M8888I_DMA2D:NumItems <- $r2
	@DEBUG_VALUE: _Index2ColorBulk_M8888I_DMA2D:NumItems <- $r2
	@DEBUG_VALUE: _Index2ColorBulk_M8888I_DMA2D:NumItems <- $r2
	@DEBUG_VALUE: _Index2ColorBulk_M8888I_DMA2D:SizeOfIndex <- $r3
	.loc	1 441 1 prologue_end    @ ../Src/LCDConf.c:441:1
	movs	r3, #0
	b	_DMA_Index2ColorBulk
.Ltmp241:
.Lfunc_end19:
	.size	_Index2ColorBulk_M8888I_DMA2D, .Lfunc_end19-_Index2ColorBulk_M8888I_DMA2D
	.cfi_endproc
	.cantunwind
	.fnend
                                        @ -- End function
	.section	.text._DMA_AlphaBlending,"ax",%progbits
	.p2align	2               @ -- Begin function _DMA_AlphaBlending
	.type	_DMA_AlphaBlending,%function
	.code	16                      @ @_DMA_AlphaBlending
	.thumb_func
_DMA_AlphaBlending:
.Lfunc_begin20:
	.loc	1 842 0                 @ ../Src/LCDConf.c:842:0
	.fnstart
	.cfi_startproc
@ %bb.0:
	.save	{r4, r5, r6, r7, r8, lr}
	push.w	{r4, r5, r6, r7, r8, lr}
	.cfi_def_cfa_offset 24
	.cfi_offset lr, -4
	.cfi_offset r8, -8
	.cfi_offset r7, -12
	.cfi_offset r6, -16
	.cfi_offset r5, -20
	.cfi_offset r4, -24
	@DEBUG_VALUE: _DMA_AlphaBlending:pColorFG <- $r0
	@DEBUG_VALUE: _DMA_AlphaBlending:pColorBG <- $r1
	@DEBUG_VALUE: _DMA_AlphaBlending:pColorDst <- $r2
	@DEBUG_VALUE: _DMA_AlphaBlending:NumItems <- $r3
.Ltmp242:
	@DEBUG_VALUE: _InvertAlpha:pColorSrc <- $r0
	@DEBUG_VALUE: _InvertAlpha:NumItems <- $r3
	@DEBUG_VALUE: _DMA_AlphaBlendingBulk:NumItems <- $r3
	ldr	r6, __arm_cp.20_0
	mov	r5, r3
.Ltmp243:
	@DEBUG_VALUE: _DMA_AlphaBlendingBulk:NumItems <- $r5
	@DEBUG_VALUE: _InvertAlpha:NumItems <- $r5
	@DEBUG_VALUE: _DMA_AlphaBlending:NumItems <- $r5
	mov	r8, r2
.Ltmp244:
	@DEBUG_VALUE: _DMA_AlphaBlending:pColorDst <- $r8
	@DEBUG_VALUE: _DMA_AlphaBlending:pColorBG <- $r1
	@DEBUG_VALUE: _DMA_AlphaBlending:pColorFG <- $r0
	mov	r4, r5
	add.w	r2, r6, #7680
.Ltmp245:
	@DEBUG_VALUE: _InvertAlpha:pColorDst <- $r2
	mov	r3, r2
.Ltmp246:
.LBB20_1:                               @ =>This Inner Loop Header: Depth=1
	@DEBUG_VALUE: _InvertAlpha:pColorDst <- $r2
	@DEBUG_VALUE: _DMA_AlphaBlending:pColorDst <- $r8
	@DEBUG_VALUE: _DMA_AlphaBlending:NumItems <- $r5
	@DEBUG_VALUE: _InvertAlpha:NumItems <- $r5
	@DEBUG_VALUE: _InvertAlpha:pColorSrc <- $r0
	@DEBUG_VALUE: _DMA_AlphaBlending:pColorBG <- $r1
	@DEBUG_VALUE: _DMA_AlphaBlending:pColorFG <- $r0
	@DEBUG_VALUE: _InvertAlpha:pColorSrc <- $r0
	@DEBUG_VALUE: _InvertAlpha:NumItems <- $r4
	@DEBUG_VALUE: _InvertAlpha:pColorDst <- $r3
	.loc	1 832 11 prologue_end   @ ../Src/LCDConf.c:832:11
	ldm	r0!, {r7}
.Ltmp247:
	@DEBUG_VALUE: _InvertAlpha:Color <- $r7
	.loc	1 834 11                @ ../Src/LCDConf.c:834:11
	subs	r4, #1
.Ltmp248:
	@DEBUG_VALUE: _InvertAlpha:NumItems <- $r4
	.loc	1 833 24                @ ../Src/LCDConf.c:833:24
	eor	r7, r7, #-16777216
.Ltmp249:
	.loc	1 833 16 is_stmt 0      @ ../Src/LCDConf.c:833:16
	stm	r3!, {r7}
.Ltmp250:
	.loc	1 834 2 is_stmt 1       @ ../Src/LCDConf.c:834:2
	bne	.LBB20_1
.Ltmp251:
@ %bb.2:
	@DEBUG_VALUE: _DMA_AlphaBlending:pColorDst <- $r8
	@DEBUG_VALUE: _DMA_AlphaBlending:NumItems <- $r5
	@DEBUG_VALUE: _DMA_AlphaBlending:pColorBG <- $r1
	.loc	1 0 2 is_stmt 0         @ ../Src/LCDConf.c:0:2
	add.w	r0, r6, #15360
	mov	r7, r5
	mov	r3, r0
.Ltmp252:
.LBB20_3:                               @ =>This Inner Loop Header: Depth=1
	@DEBUG_VALUE: _DMA_AlphaBlending:pColorDst <- $r8
	@DEBUG_VALUE: _DMA_AlphaBlending:NumItems <- $r5
	@DEBUG_VALUE: _DMA_AlphaBlending:pColorBG <- $r1
	@DEBUG_VALUE: _InvertAlpha:pColorSrc <- $r1
	@DEBUG_VALUE: _InvertAlpha:pColorDst <- $r3
	@DEBUG_VALUE: _InvertAlpha:NumItems <- $r7
	.loc	1 832 11 is_stmt 1      @ ../Src/LCDConf.c:832:11
	ldm	r1!, {r4}
.Ltmp253:
	@DEBUG_VALUE: _InvertAlpha:Color <- $r4
	.loc	1 834 11                @ ../Src/LCDConf.c:834:11
	subs	r7, #1
.Ltmp254:
	@DEBUG_VALUE: _InvertAlpha:NumItems <- $r7
	.loc	1 833 24                @ ../Src/LCDConf.c:833:24
	eor	r4, r4, #-16777216
.Ltmp255:
	.loc	1 833 16 is_stmt 0      @ ../Src/LCDConf.c:833:16
	stm	r3!, {r4}
.Ltmp256:
	.loc	1 834 2 is_stmt 1       @ ../Src/LCDConf.c:834:2
	bne	.LBB20_3
.Ltmp257:
@ %bb.4:
	@DEBUG_VALUE: _DMA_AlphaBlending:pColorDst <- $r8
	@DEBUG_VALUE: _DMA_AlphaBlending:NumItems <- $r5
	.loc	1 0 2 is_stmt 0         @ ../Src/LCDConf.c:0:2
	ldr	r1, __arm_cp.20_1
.Ltmp258:
	.loc	1 585 17 is_stmt 1      @ ../Src/LCDConf.c:585:17
	ldr	r3, __arm_cp.20_2
	str	r3, [r1]
	.loc	1 589 17                @ ../Src/LCDConf.c:589:17
	str	r2, [r1, #12]
	.loc	1 590 17                @ ../Src/LCDConf.c:590:17
	str	r0, [r1, #20]
	movs	r0, #0
	.loc	1 591 17                @ ../Src/LCDConf.c:591:17
	str	r6, [r1, #60]
	.loc	1 595 17                @ ../Src/LCDConf.c:595:17
	str	r0, [r1, #16]
	.loc	1 596 17                @ ../Src/LCDConf.c:596:17
	str	r0, [r1, #24]
	.loc	1 597 17                @ ../Src/LCDConf.c:597:17
	str	r0, [r1, #64]
	.loc	1 601 17                @ ../Src/LCDConf.c:601:17
	str	r0, [r1, #28]
	.loc	1 602 17                @ ../Src/LCDConf.c:602:17
	str	r0, [r1, #36]
	.loc	1 603 17                @ ../Src/LCDConf.c:603:17
	str	r0, [r1, #52]
	.loc	1 607 41                @ ../Src/LCDConf.c:607:41
	movs	r0, #1
	orr.w	r0, r0, r5, lsl #16
	.loc	1 607 17 is_stmt 0      @ ../Src/LCDConf.c:607:17
	str	r0, [r1, #68]
	.loc	1 611 3 is_stmt 1       @ ../Src/LCDConf.c:611:3
	bl	_DMA_ExecOperation
.Ltmp259:
.LBB20_5:                               @ =>This Inner Loop Header: Depth=1
	@DEBUG_VALUE: _DMA_AlphaBlending:pColorDst <- $r8
	@DEBUG_VALUE: _DMA_AlphaBlending:NumItems <- $r5
	@DEBUG_VALUE: _InvertAlpha:pColorSrc <- $r6
	@DEBUG_VALUE: _InvertAlpha:pColorDst <- $r8
	@DEBUG_VALUE: _InvertAlpha:NumItems <- $r5
	.loc	1 832 11                @ ../Src/LCDConf.c:832:11
	ldm	r6!, {r0}
.Ltmp260:
	@DEBUG_VALUE: _InvertAlpha:Color <- $r0
	.loc	1 834 11                @ ../Src/LCDConf.c:834:11
	subs	r5, #1
.Ltmp261:
	@DEBUG_VALUE: _InvertAlpha:NumItems <- $r5
	.loc	1 833 24                @ ../Src/LCDConf.c:833:24
	eor	r0, r0, #-16777216
.Ltmp262:
	.loc	1 833 16 is_stmt 0      @ ../Src/LCDConf.c:833:16
	str	r0, [r8], #4
.Ltmp263:
	.loc	1 834 2 is_stmt 1       @ ../Src/LCDConf.c:834:2
	bne	.LBB20_5
.Ltmp264:
@ %bb.6:
	.loc	1 856 1                 @ ../Src/LCDConf.c:856:1
	pop.w	{r4, r5, r6, r7, r8, pc}
.Ltmp265:
	.p2align	2
@ %bb.7:
	.loc	1 0 1 is_stmt 0         @ ../Src/LCDConf.c:0:1
__arm_cp.20_0:
	.long	_aBuffer
.Lcpi_end57:
	.size	__arm_cp.20_0, .Lcpi_end57-__arm_cp.20_0
__arm_cp.20_1:
	.long	1073917952              @ 0x4002b000
.Lcpi_end58:
	.size	__arm_cp.20_1, .Lcpi_end58-__arm_cp.20_1
__arm_cp.20_2:
	.long	131584                  @ 0x20200
.Lcpi_end59:
	.size	__arm_cp.20_2, .Lcpi_end59-__arm_cp.20_2
.Lfunc_end20:
	.size	_DMA_AlphaBlending, .Lfunc_end20-_DMA_AlphaBlending
	.cfi_endproc
	.cantunwind
	.fnend
                                        @ -- End function
	.section	.text._LCD_GetpPalConvTable,"ax",%progbits
	.p2align	2               @ -- Begin function _LCD_GetpPalConvTable
	.type	_LCD_GetpPalConvTable,%function
	.code	16                      @ @_LCD_GetpPalConvTable
	.thumb_func
_LCD_GetpPalConvTable:
.Lfunc_begin21:
	.loc	1 1071 0 is_stmt 1      @ ../Src/LCDConf.c:1071:0
	.fnstart
	.cfi_startproc
@ %bb.0:
	.save	{r4, r5, r7, lr}
	push	{r4, r5, r7, lr}
	.cfi_def_cfa_offset 16
	.cfi_offset lr, -4
	.cfi_offset r7, -8
	.cfi_offset r5, -12
	.cfi_offset r4, -16
	@DEBUG_VALUE: _LCD_GetpPalConvTable:pLogPal <- $r0
	@DEBUG_VALUE: _LCD_GetpPalConvTable:pBitmap <- $r1
	@DEBUG_VALUE: _LCD_GetpPalConvTable:LayerIndex <- $r2
	mov	r4, r0
.Ltmp266:
	@DEBUG_VALUE: _LCD_GetpPalConvTable:DoDefault <- 0
	@DEBUG_VALUE: _LCD_GetpPalConvTable:LayerIndex <- $r2
	@DEBUG_VALUE: _LCD_GetpPalConvTable:pBitmap <- $r5
	@DEBUG_VALUE: _LCD_GetpPalConvTable:pLogPal <- $r4
	.loc	1 1077 15 prologue_end  @ ../Src/LCDConf.c:1077:15
	ldrh	r0, [r1, #6]
	mov	r5, r1
.Ltmp267:
	.loc	1 1077 6 is_stmt 0      @ ../Src/LCDConf.c:1077:6
	cmp	r0, #8
	bne	.LBB21_4
.Ltmp268:
@ %bb.1:
	@DEBUG_VALUE: _LCD_GetpPalConvTable:pLogPal <- $r4
	@DEBUG_VALUE: _LCD_GetpPalConvTable:LayerIndex <- $r2
	.loc	1 1079 11 is_stmt 1     @ ../Src/LCDConf.c:1079:11
	mov	r0, r2
	movs	r1, #37
	bl	LCD_GetDevFunc
.Ltmp269:
	@DEBUG_VALUE: _LCD_GetpPalConvTable:pFunc <- $r0
	.loc	1 1081 7                @ ../Src/LCDConf.c:1081:7
	cbz	r0, .LBB21_4
.Ltmp270:
@ %bb.2:
	@DEBUG_VALUE: _LCD_GetpPalConvTable:pFunc <- $r0
	@DEBUG_VALUE: _LCD_GetpPalConvTable:pLogPal <- $r4
	.loc	1 1083 17               @ ../Src/LCDConf.c:1083:17
	ldr	r0, [r5, #12]
.Ltmp271:
	.loc	1 1083 8 is_stmt 0      @ ../Src/LCDConf.c:1083:8
	cbz	r0, .LBB21_4
.Ltmp272:
@ %bb.3:
	@DEBUG_VALUE: _LCD_GetpPalConvTable:pLogPal <- $r4
	.loc	1 1085 24 is_stmt 1     @ ../Src/LCDConf.c:1085:24
	ldrb	r0, [r0, #4]
.Ltmp273:
	.loc	1 1085 9 is_stmt 0      @ ../Src/LCDConf.c:1085:9
	cbz	r0, .LBB21_5
.Ltmp274:
.LBB21_4:
	@DEBUG_VALUE: _LCD_GetpPalConvTable:pLogPal <- $r4
	.loc	1 1095 10 is_stmt 1     @ ../Src/LCDConf.c:1095:10
	mov	r0, r4
	pop.w	{r4, r5, r7, lr}
.Ltmp275:
	b	LCD_GetpPalConvTable
.Ltmp276:
.LBB21_5:
	@DEBUG_VALUE: _LCD_GetpPalConvTable:pLogPal <- $r4
	.loc	1 1097 2                @ ../Src/LCDConf.c:1097:2
	ldr	r5, __arm_cp.21_0
	.loc	1 1099 20               @ ../Src/LCDConf.c:1099:20
	ldr	r2, [r4]
	.loc	1 1097 38               @ ../Src/LCDConf.c:1097:38
	ldr	r0, [r4, #8]
	.loc	1 1097 2 is_stmt 0      @ ../Src/LCDConf.c:1097:2
	mov	r1, r5
	bl	_InvertAlpha_SwapRB
	.loc	1 1100 40 is_stmt 1     @ ../Src/LCDConf.c:1100:40
	ldr	r0, [r4]
	ldr	r1, __arm_cp.21_1
.Ltmp277:
	@DEBUG_VALUE: _DMA_LoadLUT:NumItems <- $r0
	@DEBUG_VALUE: _DMA_LoadLUT:pColor <- $r5
	.loc	1 789 32                @ ../Src/LCDConf.c:789:32
	adds	r0, #255
.Ltmp278:
	.loc	1 783 17                @ ../Src/LCDConf.c:783:17
	str	r5, [r1, #16]
	.loc	1 789 32                @ ../Src/LCDConf.c:789:32
	lsls	r0, r0, #8
	uxth	r0, r0
	.loc	1 789 6 is_stmt 0       @ ../Src/LCDConf.c:789:6
	orr	r0, r0, #1
	.loc	1 787 18 is_stmt 1      @ ../Src/LCDConf.c:787:18
	str	r0, [r1]
	.loc	1 790 17                @ ../Src/LCDConf.c:790:17
	ldr	r0, [r1]
	orr	r0, r0, #32
	str	r0, [r1]
.Ltmp279:
	.loc	1 1102 1                @ ../Src/LCDConf.c:1102:1
	mov	r0, r5
	pop	{r4, r5, r7, pc}
.Ltmp280:
	.p2align	2
@ %bb.6:
	.loc	1 0 1 is_stmt 0         @ ../Src/LCDConf.c:0:1
__arm_cp.21_0:
	.long	_aBuffer
.Lcpi_end60:
	.size	__arm_cp.21_0, .Lcpi_end60-__arm_cp.21_0
__arm_cp.21_1:
	.long	1073917980              @ 0x4002b01c
.Lcpi_end61:
	.size	__arm_cp.21_1, .Lcpi_end61-__arm_cp.21_1
.Lfunc_end21:
	.size	_LCD_GetpPalConvTable, .Lfunc_end21-_LCD_GetpPalConvTable
	.cfi_endproc
	.cantunwind
	.fnend
                                        @ -- End function
	.section	.text._DMA_MixColors,"ax",%progbits
	.p2align	2               @ -- Begin function _DMA_MixColors
	.type	_DMA_MixColors,%function
	.code	16                      @ @_DMA_MixColors
	.thumb_func
_DMA_MixColors:
.Lfunc_begin22:
	.loc	1 624 0 is_stmt 1       @ ../Src/LCDConf.c:624:0
	.fnstart
	.cfi_startproc
@ %bb.0:
	@DEBUG_VALUE: _DMA_MixColors:Color <- $r0
	@DEBUG_VALUE: _DMA_MixColors:Color <- $r0
	@DEBUG_VALUE: _DMA_MixColors:BkColor <- $r1
	@DEBUG_VALUE: _DMA_MixColors:BkColor <- $r1
	@DEBUG_VALUE: _DMA_MixColors:Intens <- $r2
	@DEBUG_VALUE: _DMA_MixColors:Intens <- $r2
	.loc	1 626 6 prologue_end    @ ../Src/LCDConf.c:626:6
	lsrs	r3, r1, #24
.Ltmp281:
	@DEBUG_VALUE: _DMA_MixColors:Intens <- undef
	cmp	r3, #254
	.loc	1 669 1                 @ ../Src/LCDConf.c:669:1
	it	hi
	bxhi	lr
	.loc	1 629 15                @ ../Src/LCDConf.c:629:15
	ldr.w	r12, __arm_cp.22_0
	.loc	1 630 25                @ ../Src/LCDConf.c:630:25
	eor	r3, r1, #-16777216
	.loc	1 630 15 is_stmt 0      @ ../Src/LCDConf.c:630:15
	mov.w	r1, #15360
.Ltmp282:
	.loc	1 629 25 is_stmt 1      @ ../Src/LCDConf.c:629:25
	eor	r0, r0, #-16777216
.Ltmp283:
	.loc	1 630 15                @ ../Src/LCDConf.c:630:15
	str.w	r3, [r12, r1]
	.loc	1 629 15                @ ../Src/LCDConf.c:629:15
	mov.w	r1, #7680
	str.w	r0, [r12, r1]
	ldr	r0, __arm_cp.22_1
	.loc	1 634 17                @ ../Src/LCDConf.c:634:17
	ldr	r1, __arm_cp.22_2
	str	r1, [r0]
	.loc	1 629 15                @ ../Src/LCDConf.c:629:15
	add.w	r1, r12, #7680
	.loc	1 638 17                @ ../Src/LCDConf.c:638:17
	str	r1, [r0, #12]
	.loc	1 630 15                @ ../Src/LCDConf.c:630:15
	add.w	r1, r12, #15360
	.loc	1 639 17                @ ../Src/LCDConf.c:639:17
	str	r1, [r0, #20]
	.loc	1 646 6                 @ ../Src/LCDConf.c:646:6
	mov.w	r1, #65536
	.loc	1 640 17                @ ../Src/LCDConf.c:640:17
	str.w	r12, [r0, #60]
	.loc	1 646 6                 @ ../Src/LCDConf.c:646:6
	orr.w	r1, r1, r2, lsl #24
	.loc	1 644 17                @ ../Src/LCDConf.c:644:17
	str	r1, [r0, #28]
	.loc	1 629 25                @ ../Src/LCDConf.c:629:25
	mov.w	r1, #-16777216
	.loc	1 649 29                @ ../Src/LCDConf.c:649:29
	eor.w	r1, r1, r2, lsl #24
	.loc	1 647 17                @ ../Src/LCDConf.c:647:17
	str	r1, [r0, #36]
	movs	r1, #0
	.loc	1 650 17                @ ../Src/LCDConf.c:650:17
	str	r1, [r0, #52]
	.loc	1 654 17                @ ../Src/LCDConf.c:654:17
	mov.w	r1, #65537
	str	r1, [r0, #68]
	.loc	1 660 16                @ ../Src/LCDConf.c:660:16
	ldr	r1, [r0]
	orr	r1, r1, #1
	str	r1, [r0]
	b	.LBB22_2
.LBB22_1:                               @   in Loop: Header=BB22_2 Depth=1
.Ltmp284:
	@DEBUG_VALUE: _DMA_MixColors:Color <- $r0
	.loc	1 665 2                 @ ../Src/LCDConf.c:665:2
	wfi
.Ltmp285:
.LBB22_2:                               @ =>This Inner Loop Header: Depth=1
	@DEBUG_VALUE: _DMA_MixColors:BkColor <- $r1
	@DEBUG_VALUE: _DMA_MixColors:Color <- $r0
	.loc	1 664 16                @ ../Src/LCDConf.c:664:16
	ldr	r1, [r0]
.Ltmp286:
	.loc	1 664 2 is_stmt 0       @ ../Src/LCDConf.c:664:2
	tst.w	r1, #1
	bne	.LBB22_1
.Ltmp287:
@ %bb.3:
	@DEBUG_VALUE: _DMA_MixColors:Color <- $r0
	.loc	1 668 9 is_stmt 1       @ ../Src/LCDConf.c:668:9
	ldr.w	r0, [r12]
.Ltmp288:
	.loc	1 668 27 is_stmt 0      @ ../Src/LCDConf.c:668:27
	eor	r0, r0, #-16777216
	.loc	1 669 1 is_stmt 1       @ ../Src/LCDConf.c:669:1
	bx	lr
.Ltmp289:
	.p2align	2
@ %bb.4:
	.loc	1 0 1 is_stmt 0         @ ../Src/LCDConf.c:0:1
__arm_cp.22_0:
	.long	_aBuffer
.Lcpi_end62:
	.size	__arm_cp.22_0, .Lcpi_end62-__arm_cp.22_0
__arm_cp.22_1:
	.long	1073917952              @ 0x4002b000
.Lcpi_end63:
	.size	__arm_cp.22_1, .Lcpi_end63-__arm_cp.22_1
__arm_cp.22_2:
	.long	131584                  @ 0x20200
.Lcpi_end64:
	.size	__arm_cp.22_2, .Lcpi_end64-__arm_cp.22_2
.Lfunc_end22:
	.size	_DMA_MixColors, .Lfunc_end22-_DMA_MixColors
	.cfi_endproc
	.cantunwind
	.fnend
                                        @ -- End function
	.section	.text._LCD_MixColorsBulk,"ax",%progbits
	.p2align	2               @ -- Begin function _LCD_MixColorsBulk
	.type	_LCD_MixColorsBulk,%function
	.code	16                      @ @_LCD_MixColorsBulk
	.thumb_func
_LCD_MixColorsBulk:
.Lfunc_begin23:
	.loc	1 895 0 is_stmt 1       @ ../Src/LCDConf.c:895:0
	.fnstart
	.cfi_startproc
@ %bb.0:
	.save	{r4, r5, r6, r7, r8, r9, r10, r11, lr}
	push.w	{r4, r5, r6, r7, r8, r9, r10, r11, lr}
	.cfi_def_cfa_offset 36
	.cfi_offset lr, -4
	.cfi_offset r11, -8
	.cfi_offset r10, -12
	.cfi_offset r9, -16
	.cfi_offset r8, -20
	.cfi_offset r7, -24
	.cfi_offset r6, -28
	.cfi_offset r5, -32
	.cfi_offset r4, -36
	.pad	#28
	sub	sp, #28
	.cfi_def_cfa_offset 64
	@DEBUG_VALUE: _LCD_MixColorsBulk:pFG <- $r0
	@DEBUG_VALUE: _LCD_MixColorsBulk:pBG <- $r1
	@DEBUG_VALUE: _LCD_MixColorsBulk:pDst <- $r2
	@DEBUG_VALUE: _LCD_MixColorsBulk:OffFG <- $r3
	ldr	r7, [sp, #72]
.Ltmp290:
	@DEBUG_VALUE: _InvertAlpha:NumItems <- $r7
	mov	r6, r0
	movs	r0, #1
.Ltmp291:
	mov	r5, r1
	mov.w	r1, #-16777216
.Ltmp292:
	ldr.w	r11, __arm_cp.23_1
	mov	r4, r2
	mov.w	r8, #7680
	mov.w	r9, #15360
	orr.w	r0, r0, r7, lsl #16
	str	r0, [sp, #20]           @ 4-byte Spill
	ldr	r0, [sp, #80]
	eor.w	r1, r1, r0, lsl #24
	str	r1, [sp, #16]           @ 4-byte Spill
	mov.w	r1, #65536
	orr.w	r0, r1, r0, lsl #24
	str	r0, [sp, #12]           @ 4-byte Spill
	ldr	r0, [sp, #68]
	add	r0, r7
.Ltmp293:
	@DEBUG_VALUE: _LCD_MixColorsBulk:y <- 0
	@DEBUG_VALUE: _LCD_MixColorsBulk:ySize <- [DW_OP_plus_uconst 76] [$sp+0]
	@DEBUG_VALUE: _LCD_MixColorsBulk:xSize <- [DW_OP_plus_uconst 72] [$sp+0]
	@DEBUG_VALUE: _LCD_MixColorsBulk:OffDest <- [DW_OP_plus_uconst 68] [$sp+0]
	@DEBUG_VALUE: _LCD_MixColorsBulk:OffBG <- [DW_OP_plus_uconst 64] [$sp+0]
	@DEBUG_VALUE: _LCD_MixColorsBulk:OffFG <- $r3
	@DEBUG_VALUE: _LCD_MixColorsBulk:pDst <- $r4
	@DEBUG_VALUE: _LCD_MixColorsBulk:pBG <- $r5
	@DEBUG_VALUE: _LCD_MixColorsBulk:pFG <- $r6
	.loc	1 901 7 prologue_end    @ ../Src/LCDConf.c:901:7
	lsls	r0, r0, #2
	str	r0, [sp, #8]            @ 4-byte Spill
	ldr	r0, [sp, #64]
	add	r0, r7
	lsls	r0, r0, #2
	str	r0, [sp, #4]            @ 4-byte Spill
	adds	r0, r7, r3
	lsls	r0, r0, #2
	str	r0, [sp]                @ 4-byte Spill
	movs	r0, #0
.Ltmp294:
.LBB23_1:                               @ =>This Loop Header: Depth=1
                                        @     Child Loop BB23_2 Depth 2
                                        @     Child Loop BB23_4 Depth 2
                                        @     Child Loop BB23_6 Depth 2
	@DEBUG_VALUE: _LCD_MixColorsBulk:pFG <- $r6
	@DEBUG_VALUE: _LCD_MixColorsBulk:pBG <- $r5
	@DEBUG_VALUE: _LCD_MixColorsBulk:pDst <- $r4
	@DEBUG_VALUE: _LCD_MixColorsBulk:OffBG <- [DW_OP_plus_uconst 64] [$sp+0]
	@DEBUG_VALUE: _LCD_MixColorsBulk:OffDest <- [DW_OP_plus_uconst 68] [$sp+0]
	@DEBUG_VALUE: _LCD_MixColorsBulk:xSize <- [DW_OP_plus_uconst 72] [$sp+0]
	@DEBUG_VALUE: _LCD_MixColorsBulk:ySize <- [DW_OP_plus_uconst 76] [$sp+0]
	@DEBUG_VALUE: _LCD_MixColorsBulk:OffFG <- $r3
	@DEBUG_VALUE: _LCD_MixColorsBulk:y <- $r0
	.loc	1 901 2 is_stmt 0       @ ../Src/LCDConf.c:901:2
	ldr	r1, [sp, #76]
	cmp	r0, r1
.Ltmp295:
	.loc	1 911 1 is_stmt 1       @ ../Src/LCDConf.c:911:1
	itt	eq
	addeq	sp, #28
.Ltmp296:
	popeq.w	{r4, r5, r6, r7, r8, r9, r10, r11, pc}
.Ltmp297:
	.loc	1 0 1 is_stmt 0         @ ../Src/LCDConf.c:0:1
	str	r0, [sp, #24]           @ 4-byte Spill
	movs	r0, #0
.Ltmp298:
.LBB23_2:                               @   Parent Loop BB23_1 Depth=1
                                        @ =>  This Inner Loop Header: Depth=2
	@DEBUG_VALUE: _LCD_MixColorsBulk:y <- $r0
	@DEBUG_VALUE: _LCD_MixColorsBulk:OffFG <- $r3
	.loc	1 832 11 is_stmt 1      @ ../Src/LCDConf.c:832:11
	ldr.w	r2, [r6, r0, lsl #2]
.Ltmp299:
	@DEBUG_VALUE: _InvertAlpha:Color <- $r2
	.loc	1 832 21 is_stmt 0      @ ../Src/LCDConf.c:832:21
	add.w	r1, r11, r0, lsl #2
	.loc	1 834 2 is_stmt 1       @ ../Src/LCDConf.c:834:2
	adds	r0, #1
.Ltmp300:
	cmp	r7, r0
	.loc	1 833 24                @ ../Src/LCDConf.c:833:24
	eor	r2, r2, #-16777216
.Ltmp301:
	.loc	1 833 16 is_stmt 0      @ ../Src/LCDConf.c:833:16
	str.w	r2, [r1, r8]
	.loc	1 834 2 is_stmt 1       @ ../Src/LCDConf.c:834:2
	bne	.LBB23_2
.Ltmp302:
@ %bb.3:                                @   in Loop: Header=BB23_1 Depth=1
	@DEBUG_VALUE: _LCD_MixColorsBulk:OffFG <- $r3
	.loc	1 0 2 is_stmt 0         @ ../Src/LCDConf.c:0:2
	movs	r0, #0
.Ltmp303:
.LBB23_4:                               @   Parent Loop BB23_1 Depth=1
                                        @ =>  This Inner Loop Header: Depth=2
	@DEBUG_VALUE: _LCD_MixColorsBulk:OffFG <- $r3
	.loc	1 832 11 is_stmt 1      @ ../Src/LCDConf.c:832:11
	ldr.w	r2, [r5, r0, lsl #2]
.Ltmp304:
	@DEBUG_VALUE: _InvertAlpha:Color <- $r2
	.loc	1 832 21 is_stmt 0      @ ../Src/LCDConf.c:832:21
	add.w	r1, r11, r0, lsl #2
	.loc	1 834 2 is_stmt 1       @ ../Src/LCDConf.c:834:2
	adds	r0, #1
	cmp	r7, r0
	.loc	1 833 24                @ ../Src/LCDConf.c:833:24
	eor	r2, r2, #-16777216
.Ltmp305:
	.loc	1 833 16 is_stmt 0      @ ../Src/LCDConf.c:833:16
	str.w	r2, [r1, r9]
	.loc	1 834 2 is_stmt 1       @ ../Src/LCDConf.c:834:2
	bne	.LBB23_4
.Ltmp306:
@ %bb.5:                                @   in Loop: Header=BB23_1 Depth=1
	@DEBUG_VALUE: _LCD_MixColorsBulk:OffFG <- $r3
	.loc	1 0 2 is_stmt 0         @ ../Src/LCDConf.c:0:2
	ldr	r0, __arm_cp.23_0
	mov.w	r10, #0
	mov	r1, r0
.Ltmp307:
	.loc	1 680 17 is_stmt 1      @ ../Src/LCDConf.c:680:17
	ldr	r0, __arm_cp.23_2
	str	r0, [r1]
	.loc	1 684 17                @ ../Src/LCDConf.c:684:17
	add.w	r0, r11, #7680
	str	r0, [r1, #12]
	.loc	1 685 17                @ ../Src/LCDConf.c:685:17
	add.w	r0, r11, #15360
	str	r0, [r1, #20]
	.loc	1 686 17                @ ../Src/LCDConf.c:686:17
	str.w	r11, [r1, #60]
	.loc	1 690 17                @ ../Src/LCDConf.c:690:17
	ldr	r0, [sp, #12]           @ 4-byte Reload
	str	r0, [r1, #28]
	.loc	1 693 17                @ ../Src/LCDConf.c:693:17
	ldr	r0, [sp, #16]           @ 4-byte Reload
	str	r0, [r1, #36]
	.loc	1 696 17                @ ../Src/LCDConf.c:696:17
	str.w	r10, [r1, #52]
	.loc	1 700 17                @ ../Src/LCDConf.c:700:17
	ldr	r0, [sp, #20]           @ 4-byte Reload
	str	r0, [r1, #68]
	.loc	1 704 2                 @ ../Src/LCDConf.c:704:2
	bl	_DMA_ExecOperation
.Ltmp308:
.LBB23_6:                               @   Parent Loop BB23_1 Depth=1
                                        @ =>  This Inner Loop Header: Depth=2
	.loc	1 832 11                @ ../Src/LCDConf.c:832:11
	ldr.w	r0, [r11, r10, lsl #2]
.Ltmp309:
	@DEBUG_VALUE: _InvertAlpha:Color <- $r0
	.loc	1 833 24                @ ../Src/LCDConf.c:833:24
	eor	r0, r0, #-16777216
.Ltmp310:
	.loc	1 833 16 is_stmt 0      @ ../Src/LCDConf.c:833:16
	str.w	r0, [r4, r10, lsl #2]
	.loc	1 834 2 is_stmt 1       @ ../Src/LCDConf.c:834:2
	add.w	r10, r10, #1
	cmp	r7, r10
	bne	.LBB23_6
.Ltmp311:
@ %bb.7:                                @   in Loop: Header=BB23_1 Depth=1
	.loc	1 901 2                 @ ../Src/LCDConf.c:901:2
	ldr	r0, [sp, #8]            @ 4-byte Reload
	add	r4, r0
	ldr	r0, [sp, #4]            @ 4-byte Reload
	add	r5, r0
	ldr	r0, [sp]                @ 4-byte Reload
	add	r6, r0
	ldr	r0, [sp, #24]           @ 4-byte Reload
	.loc	1 901 26 is_stmt 0      @ ../Src/LCDConf.c:901:26
	adds	r0, #1
.Ltmp312:
	@DEBUG_VALUE: _LCD_MixColorsBulk:y <- $r0
	.loc	1 0 26                  @ ../Src/LCDConf.c:0:26
	b	.LBB23_1
.Ltmp313:
	.p2align	2
@ %bb.8:
__arm_cp.23_0:
	.long	1073917952              @ 0x4002b000
.Lcpi_end65:
	.size	__arm_cp.23_0, .Lcpi_end65-__arm_cp.23_0
__arm_cp.23_1:
	.long	_aBuffer
.Lcpi_end66:
	.size	__arm_cp.23_1, .Lcpi_end66-__arm_cp.23_1
__arm_cp.23_2:
	.long	131584                  @ 0x20200
.Lcpi_end67:
	.size	__arm_cp.23_2, .Lcpi_end67-__arm_cp.23_2
.Lfunc_end23:
	.size	_LCD_MixColorsBulk, .Lfunc_end23-_LCD_MixColorsBulk
	.cfi_endproc
	.cantunwind
	.fnend
                                        @ -- End function
	.section	.text._GetBufferSize,"ax",%progbits
	.p2align	2               @ -- Begin function _GetBufferSize
	.type	_GetBufferSize,%function
	.code	16                      @ @_GetBufferSize
	.thumb_func
_GetBufferSize:
.Lfunc_begin24:
	.loc	1 942 0 is_stmt 1       @ ../Src/LCDConf.c:942:0
	.fnstart
	.cfi_startproc
@ %bb.0:
	@DEBUG_VALUE: _GetBufferSize:LayerIndex <- $r0
	@DEBUG_VALUE: _GetBufferSize:LayerIndex <- $r0
	.loc	1 945 15 prologue_end   @ ../Src/LCDConf.c:945:15
	ldr	r1, __arm_cp.24_0
	ldr.w	r2, [r1, r0, lsl #2]
	add.w	r0, r1, r0, lsl #2
.Ltmp314:
	.loc	1 945 37 is_stmt 0      @ ../Src/LCDConf.c:945:37
	ldr	r1, [r0, #8]
	.loc	1 945 59                @ ../Src/LCDConf.c:945:59
	ldr	r0, [r0, #16]
	.loc	1 945 35                @ ../Src/LCDConf.c:945:35
	muls	r1, r2, r1
	.loc	1 945 57                @ ../Src/LCDConf.c:945:57
	muls	r0, r1, r0
.Ltmp315:
	@DEBUG_VALUE: _GetBufferSize:BufferSize <- $r0
	.loc	1 946 2 is_stmt 1       @ ../Src/LCDConf.c:946:2
	bx	lr
.Ltmp316:
	.p2align	2
@ %bb.1:
	.loc	1 0 2 is_stmt 0         @ ../Src/LCDConf.c:0:2
__arm_cp.24_0:
	.long	.L_MergedGlobals
.Lcpi_end68:
	.size	__arm_cp.24_0, .Lcpi_end68-__arm_cp.24_0
.Lfunc_end24:
	.size	_GetBufferSize, .Lfunc_end24-_GetBufferSize
	.cfi_endproc
	.cantunwind
	.fnend
                                        @ -- End function
	.section	.text._DMA_Copy,"ax",%progbits
	.p2align	2               @ -- Begin function _DMA_Copy
	.type	_DMA_Copy,%function
	.code	16                      @ @_DMA_Copy
	.thumb_func
_DMA_Copy:
.Lfunc_begin25:
	.loc	1 526 0 is_stmt 1       @ ../Src/LCDConf.c:526:0
	.fnstart
	.cfi_startproc
@ %bb.0:
	.save	{r4, r5, r7, lr}
	push	{r4, r5, r7, lr}
	.cfi_def_cfa_offset 16
	.cfi_offset lr, -4
	.cfi_offset r7, -8
	.cfi_offset r5, -12
	.cfi_offset r4, -16
	@DEBUG_VALUE: _DMA_Copy:LayerIndex <- $r0
	@DEBUG_VALUE: _DMA_Copy:pSrc <- $r1
	@DEBUG_VALUE: _DMA_Copy:pDst <- $r2
	@DEBUG_VALUE: _DMA_Copy:xSize <- $r3
.Ltmp317:
	@DEBUG_VALUE: _GetPixelformat:LayerIndex <- $r0
	@DEBUG_VALUE: _GetPixelformat:LayerIndex <- $r0
	ldr	r5, __arm_cp.25_0
	@DEBUG_VALUE: _DMA_Copy:OffLineDst <- [DW_OP_plus_uconst 24] [$sp+0]
	@DEBUG_VALUE: _DMA_Copy:OffLineSrc <- [DW_OP_plus_uconst 20] [$sp+0]
	@DEBUG_VALUE: _DMA_Copy:ySize <- [DW_OP_plus_uconst 16] [$sp+0]
	@DEBUG_VALUE: _DMA_Copy:xSize <- $r3
	@DEBUG_VALUE: _DMA_Copy:pDst <- $r2
	@DEBUG_VALUE: _DMA_Copy:pSrc <- $r1
	@DEBUG_VALUE: _DMA_Copy:LayerIndex <- $r0
.Ltmp318:
	.loc	1 530 17 prologue_end   @ ../Src/LCDConf.c:530:17
	mov.w	r4, #512
	clz	r0, r0
.Ltmp319:
	.loc	1 0 17 is_stmt 0        @ ../Src/LCDConf.c:0:17
	lsrs	r0, r0, #5
.Ltmp320:
	.loc	1 490 6 is_stmt 1       @ ../Src/LCDConf.c:490:6
	lsls	r0, r0, #1
.Ltmp321:
	@DEBUG_VALUE: _DMA_Copy:PixelFormat <- $r0
	.loc	1 530 17                @ ../Src/LCDConf.c:530:17
	str	r4, [r5]
	.loc	1 531 17                @ ../Src/LCDConf.c:531:17
	str	r1, [r5, #12]
	.loc	1 532 17                @ ../Src/LCDConf.c:532:17
	str	r2, [r5, #60]
	ldr	r1, [sp, #20]
.Ltmp322:
	.loc	1 533 17                @ ../Src/LCDConf.c:533:17
	str	r1, [r5, #16]
	ldr	r1, [sp, #24]
	.loc	1 534 17                @ ../Src/LCDConf.c:534:17
	str	r1, [r5, #64]
	.loc	1 535 17                @ ../Src/LCDConf.c:535:17
	str	r0, [r5, #28]
	ldrh.w	r0, [sp, #16]
.Ltmp323:
	.loc	1 536 38                @ ../Src/LCDConf.c:536:38
	orr.w	r0, r0, r3, lsl #16
	.loc	1 536 17 is_stmt 0      @ ../Src/LCDConf.c:536:17
	str	r0, [r5, #68]
	.loc	1 537 2 is_stmt 1       @ ../Src/LCDConf.c:537:2
	pop.w	{r4, r5, r7, lr}
	b	_DMA_ExecOperation
.Ltmp324:
	.p2align	2
@ %bb.1:
	.loc	1 0 2 is_stmt 0         @ ../Src/LCDConf.c:0:2
__arm_cp.25_0:
	.long	1073917952              @ 0x4002b000
.Lcpi_end69:
	.size	__arm_cp.25_0, .Lcpi_end69-__arm_cp.25_0
.Lfunc_end25:
	.size	_DMA_Copy, .Lfunc_end25-_DMA_Copy
	.cfi_endproc
	.cantunwind
	.fnend
                                        @ -- End function
	.section	.text._DMA_ExecOperation,"ax",%progbits
	.p2align	2               @ -- Begin function _DMA_ExecOperation
	.type	_DMA_ExecOperation,%function
	.code	16                      @ @_DMA_ExecOperation
	.thumb_func
_DMA_ExecOperation:
.Lfunc_begin26:
	.loc	1 514 0 is_stmt 1       @ ../Src/LCDConf.c:514:0
	.fnstart
	.cfi_startproc
@ %bb.0:
	ldr	r0, __arm_cp.26_0
.Ltmp325:
	.loc	1 515 12 prologue_end   @ ../Src/LCDConf.c:515:12
	ldr	r1, [r0]
	orr	r1, r1, #1
	str	r1, [r0]
.LBB26_1:                               @ =>This Inner Loop Header: Depth=1
	.loc	1 516 16                @ ../Src/LCDConf.c:516:16
	ldr	r1, [r0]
	.loc	1 516 2 is_stmt 0       @ ../Src/LCDConf.c:516:2
	tst.w	r1, #1
	.loc	1 520 1 is_stmt 1       @ ../Src/LCDConf.c:520:1
	it	eq
	bxeq	lr
.Ltmp326:
	.loc	1 518 3                 @ ../Src/LCDConf.c:518:3
	wfi
	b	.LBB26_1
.Ltmp327:
	.p2align	2
@ %bb.2:
	.loc	1 0 3 is_stmt 0         @ ../Src/LCDConf.c:0:3
__arm_cp.26_0:
	.long	1073917952              @ 0x4002b000
.Lcpi_end70:
	.size	__arm_cp.26_0, .Lcpi_end70-__arm_cp.26_0
.Lfunc_end26:
	.size	_DMA_ExecOperation, .Lfunc_end26-_DMA_ExecOperation
	.cfi_endproc
	.cantunwind
	.fnend
                                        @ -- End function
	.section	.text._DMA_Color2IndexBulk,"ax",%progbits
	.p2align	2               @ -- Begin function _DMA_Color2IndexBulk
	.type	_DMA_Color2IndexBulk,%function
	.code	16                      @ @_DMA_Color2IndexBulk
	.thumb_func
_DMA_Color2IndexBulk:
.Lfunc_begin27:
	.loc	1 885 0 is_stmt 1       @ ../Src/LCDConf.c:885:0
	.fnstart
	.cfi_startproc
@ %bb.0:
	.save	{r4, r5, r6, r7, lr}
	.pad	#4
	push	{r3, r4, r5, r6, r7, lr}
	.cfi_def_cfa_offset 24
	.cfi_offset lr, -4
	.cfi_offset r7, -8
	.cfi_offset r6, -12
	.cfi_offset r5, -16
	.cfi_offset r4, -20
	@DEBUG_VALUE: _DMA_Color2IndexBulk:pColor <- $r0
	@DEBUG_VALUE: _DMA_Color2IndexBulk:pIndex <- $r1
	@DEBUG_VALUE: _DMA_Color2IndexBulk:NumItems <- $r2
	@DEBUG_VALUE: _DMA_Color2IndexBulk:PixelFormat <- $r3
.Ltmp328:
	.loc	1 886 2 prologue_end    @ ../Src/LCDConf.c:886:2
	ldr	r7, __arm_cp.27_0
	@DEBUG_VALUE: _DMA_Color2IndexBulk:pColor <- $r0
	mov	r6, r1
	@DEBUG_VALUE: _DMA_Color2IndexBulk:SizeOfIndex <- 0
.Ltmp329:
	@DEBUG_VALUE: _DMA_Color2IndexBulk:PixelFormat <- $r4
	@DEBUG_VALUE: _DMA_Color2IndexBulk:NumItems <- $r5
	@DEBUG_VALUE: _DMA_Color2IndexBulk:pIndex <- $r6
	@DEBUG_VALUE: _DMA_Color2IndexBulk:pColor <- $r0
	.loc	1 0 2 is_stmt 0         @ ../Src/LCDConf.c:0:2
	mov	r4, r3
.Ltmp330:
	mov	r5, r2
.Ltmp331:
	.loc	1 886 2                 @ ../Src/LCDConf.c:886:2
	mov	r1, r7
	bl	_InvertAlpha_SwapRB
.Ltmp332:
	.loc	1 887 2 is_stmt 1       @ ../Src/LCDConf.c:887:2
	mov	r0, r7
	mov	r1, r6
.Ltmp333:
	@DEBUG_VALUE: _DMA_Color2IndexBulk:pIndex <- $r1
	movs	r2, #0
	mov	r3, r4
.Ltmp334:
	@DEBUG_VALUE: _DMA_Color2IndexBulk:PixelFormat <- $r3
	str	r5, [sp]
	bl	_DMA_ConvertColor
.Ltmp335:
	.loc	1 888 1                 @ ../Src/LCDConf.c:888:1
	pop	{r3, r4, r5, r6, r7, pc}
.Ltmp336:
	.p2align	2
@ %bb.1:
	.loc	1 0 1 is_stmt 0         @ ../Src/LCDConf.c:0:1
__arm_cp.27_0:
	.long	_aBuffer
.Lcpi_end71:
	.size	__arm_cp.27_0, .Lcpi_end71-__arm_cp.27_0
.Lfunc_end27:
	.size	_DMA_Color2IndexBulk, .Lfunc_end27-_DMA_Color2IndexBulk
	.cfi_endproc
	.cantunwind
	.fnend
                                        @ -- End function
	.section	.text._InvertAlpha_SwapRB,"ax",%progbits
	.p2align	1               @ -- Begin function _InvertAlpha_SwapRB
	.type	_InvertAlpha_SwapRB,%function
	.code	16                      @ @_InvertAlpha_SwapRB
	.thumb_func
_InvertAlpha_SwapRB:
.Lfunc_begin28:
	.loc	1 806 0 is_stmt 1       @ ../Src/LCDConf.c:806:0
	.fnstart
	.cfi_startproc
@ %bb.0:
	.save	{r7, lr}
	push	{r7, lr}
	.cfi_def_cfa_offset 8
	.cfi_offset lr, -4
	.cfi_offset r7, -8
	@DEBUG_VALUE: _InvertAlpha_SwapRB:pColorSrc <- $r0
	@DEBUG_VALUE: _InvertAlpha_SwapRB:pColorDst <- $r1
	@DEBUG_VALUE: _InvertAlpha_SwapRB:NumItems <- $r2
.Ltmp337:
.LBB28_1:                               @ =>This Inner Loop Header: Depth=1
	@DEBUG_VALUE: _InvertAlpha_SwapRB:NumItems <- $r2
	@DEBUG_VALUE: _InvertAlpha_SwapRB:pColorDst <- $r1
	@DEBUG_VALUE: _InvertAlpha_SwapRB:pColorSrc <- $r0
	@DEBUG_VALUE: _InvertAlpha_SwapRB:pColorSrc <- $r0
	@DEBUG_VALUE: _InvertAlpha_SwapRB:pColorDst <- $r1
	@DEBUG_VALUE: _InvertAlpha_SwapRB:NumItems <- $r2
	.loc	1 810 11 prologue_end   @ ../Src/LCDConf.c:810:11
	ldr	lr, [r0], #4
.Ltmp338:
	@DEBUG_VALUE: _InvertAlpha_SwapRB:Color <- $lr
	.loc	1 815 11                @ ../Src/LCDConf.c:815:11
	subs	r2, #1
.Ltmp339:
	@DEBUG_VALUE: _InvertAlpha_SwapRB:NumItems <- $r2
	.loc	1 811 40                @ ../Src/LCDConf.c:811:40
	uxtb.w	r12, lr
	.loc	1 812 7                 @ ../Src/LCDConf.c:812:7
	bic	r3, lr, #16711935
	.loc	1 813 7                 @ ../Src/LCDConf.c:813:7
	orr.w	r12, r3, r12, lsl #16
	.loc	1 813 31 is_stmt 0      @ ../Src/LCDConf.c:813:31
	ubfx	r3, lr, #16, #8
	.loc	1 814 7 is_stmt 1       @ ../Src/LCDConf.c:814:7
	orr.w	r3, r3, r12
	eor	r3, r3, #-16777216
	.loc	1 811 16                @ ../Src/LCDConf.c:811:16
	stm	r1!, {r3}
.Ltmp340:
	.loc	1 815 2                 @ ../Src/LCDConf.c:815:2
	bne	.LBB28_1
.Ltmp341:
@ %bb.2:
	@DEBUG_VALUE: _InvertAlpha_SwapRB:Color <- $lr
	@DEBUG_VALUE: _InvertAlpha_SwapRB:NumItems <- $r2
	.loc	1 816 1                 @ ../Src/LCDConf.c:816:1
	pop	{r7, pc}
.Ltmp342:
.Lfunc_end28:
	.size	_InvertAlpha_SwapRB, .Lfunc_end28-_InvertAlpha_SwapRB
	.cfi_endproc
	.cantunwind
	.fnend
                                        @ -- End function
	.section	.text._DMA_ConvertColor,"ax",%progbits
	.p2align	2               @ -- Begin function _DMA_ConvertColor
	.type	_DMA_ConvertColor,%function
	.code	16                      @ @_DMA_ConvertColor
	.thumb_func
_DMA_ConvertColor:
.Lfunc_begin29:
	.loc	1 712 0                 @ ../Src/LCDConf.c:712:0
	.fnstart
	.cfi_startproc
@ %bb.0:
	.save	{r4, r5, r7, lr}
	push	{r4, r5, r7, lr}
	.cfi_def_cfa_offset 16
	.cfi_offset lr, -4
	.cfi_offset r7, -8
	.cfi_offset r5, -12
	.cfi_offset r4, -16
	@DEBUG_VALUE: _DMA_ConvertColor:pSrc <- $r0
	@DEBUG_VALUE: _DMA_ConvertColor:pDst <- $r1
	@DEBUG_VALUE: _DMA_ConvertColor:PixelFormatSrc <- $r2
	@DEBUG_VALUE: _DMA_ConvertColor:PixelFormatDst <- $r3
	ldr	r5, __arm_cp.29_0
	@DEBUG_VALUE: _DMA_ConvertColor:NumItems <- [DW_OP_plus_uconst 16] [$sp+0]
	@DEBUG_VALUE: _DMA_ConvertColor:PixelFormatDst <- $r3
	@DEBUG_VALUE: _DMA_ConvertColor:PixelFormatSrc <- $r2
	@DEBUG_VALUE: _DMA_ConvertColor:pDst <- $r1
	@DEBUG_VALUE: _DMA_ConvertColor:pSrc <- $r0
.Ltmp343:
	.loc	1 716 17 prologue_end   @ ../Src/LCDConf.c:716:17
	mov.w	r4, #66048
	str	r4, [r5]
	.loc	1 720 17                @ ../Src/LCDConf.c:720:17
	str	r0, [r5, #12]
	movs	r0, #0
.Ltmp344:
	.loc	1 721 17                @ ../Src/LCDConf.c:721:17
	str	r1, [r5, #60]
	.loc	1 735 41                @ ../Src/LCDConf.c:735:41
	movs	r1, #1
.Ltmp345:
	.loc	1 725 17                @ ../Src/LCDConf.c:725:17
	str	r0, [r5, #16]
	.loc	1 726 17                @ ../Src/LCDConf.c:726:17
	str	r0, [r5, #64]
	.loc	1 730 17                @ ../Src/LCDConf.c:730:17
	str	r2, [r5, #28]
	.loc	1 731 17                @ ../Src/LCDConf.c:731:17
	str	r3, [r5, #52]
	ldr	r0, [sp, #16]
	.loc	1 735 41                @ ../Src/LCDConf.c:735:41
	orr.w	r0, r1, r0, lsl #16
	.loc	1 735 17 is_stmt 0      @ ../Src/LCDConf.c:735:17
	str	r0, [r5, #68]
	.loc	1 739 2 is_stmt 1       @ ../Src/LCDConf.c:739:2
	pop.w	{r4, r5, r7, lr}
	b	_DMA_ExecOperation
.Ltmp346:
	.p2align	2
@ %bb.1:
	.loc	1 0 2 is_stmt 0         @ ../Src/LCDConf.c:0:2
__arm_cp.29_0:
	.long	1073917952              @ 0x4002b000
.Lcpi_end72:
	.size	__arm_cp.29_0, .Lcpi_end72-__arm_cp.29_0
.Lfunc_end29:
	.size	_DMA_ConvertColor, .Lfunc_end29-_DMA_ConvertColor
	.cfi_endproc
	.cantunwind
	.fnend
                                        @ -- End function
	.section	.text._DMA_Index2ColorBulk,"ax",%progbits
	.p2align	2               @ -- Begin function _DMA_Index2ColorBulk
	.type	_DMA_Index2ColorBulk,%function
	.code	16                      @ @_DMA_Index2ColorBulk
	.thumb_func
_DMA_Index2ColorBulk:
.Lfunc_begin30:
	.loc	1 869 0 is_stmt 1       @ ../Src/LCDConf.c:869:0
	.fnstart
	.cfi_startproc
@ %bb.0:
	.save	{r4, r5, r6, lr}
	.pad	#8
	push	{r2, r3, r4, r5, r6, lr}
	.cfi_def_cfa_offset 24
	.cfi_offset lr, -4
	.cfi_offset r6, -8
	.cfi_offset r5, -12
	.cfi_offset r4, -16
	@DEBUG_VALUE: _DMA_Index2ColorBulk:pIndex <- $r0
	@DEBUG_VALUE: _DMA_Index2ColorBulk:pColor <- $r1
	@DEBUG_VALUE: _DMA_Index2ColorBulk:NumItems <- $r2
	@DEBUG_VALUE: _DMA_Index2ColorBulk:PixelFormat <- $r3
.Ltmp347:
	.loc	1 870 2 prologue_end    @ ../Src/LCDConf.c:870:2
	ldr	r6, __arm_cp.30_0
	@DEBUG_VALUE: _DMA_Index2ColorBulk:pIndex <- $r0
	mov	r5, r1
	@DEBUG_VALUE: _DMA_Index2ColorBulk:SizeOfIndex <- 0
	@DEBUG_VALUE: _DMA_Index2ColorBulk:PixelFormat <- $r3
.Ltmp348:
	@DEBUG_VALUE: _DMA_Index2ColorBulk:NumItems <- $r4
	@DEBUG_VALUE: _DMA_Index2ColorBulk:pColor <- $r5
	@DEBUG_VALUE: _DMA_Index2ColorBulk:pIndex <- $r0
	.loc	1 0 2 is_stmt 0         @ ../Src/LCDConf.c:0:2
	mov	r4, r2
.Ltmp349:
	.loc	1 870 2                 @ ../Src/LCDConf.c:870:2
	str	r2, [sp]
	mov	r2, r3
.Ltmp350:
	@DEBUG_VALUE: _DMA_Index2ColorBulk:PixelFormat <- $r2
	movs	r3, #0
	mov	r1, r6
	bl	_DMA_ConvertColor
.Ltmp351:
	.loc	1 871 2 is_stmt 1       @ ../Src/LCDConf.c:871:2
	mov	r0, r6
	mov	r1, r5
.Ltmp352:
	@DEBUG_VALUE: _DMA_Index2ColorBulk:pColor <- $r1
	mov	r2, r4
	add	sp, #8
	pop.w	{r4, r5, r6, lr}
	b	_InvertAlpha_SwapRB
.Ltmp353:
	.p2align	2
@ %bb.1:
	.loc	1 0 2 is_stmt 0         @ ../Src/LCDConf.c:0:2
__arm_cp.30_0:
	.long	_aBuffer
.Lcpi_end73:
	.size	__arm_cp.30_0, .Lcpi_end73-__arm_cp.30_0
.Lfunc_end30:
	.size	_DMA_Index2ColorBulk, .Lfunc_end30-_DMA_Index2ColorBulk
	.cfi_endproc
	.cantunwind
	.fnend
                                        @ -- End function
	.type	_aPendingBuffer,%object @ @_aPendingBuffer
	.section	.data._aPendingBuffer,"aw",%progbits
	.p2align	2
_aPendingBuffer:
	.zero	8,255
	.size	_aPendingBuffer, 8

	.type	_aAddr,%object          @ @_aAddr
	.section	.rodata.cst8,"aM",%progbits,8
	.p2align	2
_aAddr:
	.long	3221225472              @ 0xc0000000
	.long	3221486592              @ 0xc003fc00
	.size	_aAddr, 8

	.type	_CLUT,%object           @ @_CLUT
	.section	.bss._CLUT,"aw",%nobits
	.p2align	2
_CLUT:
	.zero	1024
	.size	_CLUT, 1024

	.type	_aBuffer,%object        @ @_aBuffer
	.section	.bss._aBuffer,"aw",%nobits
	.p2align	2
_aBuffer:
	.zero	23040
	.size	_aBuffer, 23040

	.type	.L_MergedGlobals,%object @ @_MergedGlobals
	.section	.bss..L_MergedGlobals,"aw",%nobits
	.p2align	4
.L_MergedGlobals:
	.zero	32
	.size	.L_MergedGlobals, 32

	.file	8 "../Middlewares/ST/STemWin/inc" "GUI_Type.h"
	.section	".note.GNU-stack","",%progbits
	.eabi_attribute	30, 4	@ Tag_ABI_optimization_goals
	.ARM_attribute	16, 1	@ Tag_AV_eba