	.text
	.syntax unified
	.eabi_attribute	67, "2.09"	@ Tag_conformance
	.cpu	cortex-m7
	.eabi_attribute	6, 13	@ Tag_CPU_arch
	.eabi_attribute	7, 77	@ Tag_CPU_arch_profile
	.eabi_attribute	8, 0	@ Tag_ARM_ISA_use
	.eabi_attribute	9, 2	@ Tag_THUMB_ISA_use
	.fpu	fpv5-sp-d16
	.eabi_attribute	27, 1	@ Tag_ABI_HardFP_use
	.eabi_attribute	36, 1	@ Tag_FP_HP_extension
	.eabi_attribute	34, 1	@ Tag_CPU_unaligned_access
	.eabi_attribute	17, 1	@ Tag_ABI_PCS_GOT_use
	.eabi_attribute	20, 2	@ Tag_ABI_FP_denormal
	.eabi_attribute	21, 0	@ Tag_ABI_FP_exceptions
	.eabi_attribute	23, 1	@ Tag_ABI_FP_number_model
	.eabi_attribute	24, 1	@ Tag_ABI_align_needed
	.eabi_attribute	25, 1	@ Tag_ABI_align_preserved
	.eabi_attribute	28, 1	@ Tag_ABI_VFP_args
	.eabi_attribute	38, 1	@ Tag_ABI_FP_16bit_format
	.eabi_attribute	18, 2	@ Tag_ABI_PCS_wchar_t
	.eabi_attribute	26, 1	@ Tag_ABI_enum_size
	.eabi_attribute	14, 0	@ Tag_ABI_PCS_R9_use
	.file	"main.c"
	.file	1 "C:\\Keil\\ARM\\ARMCLANG\\Bin\\..\\include" "stdint.h"
	.file	2 "../Src" "main.c"
	.file	3 "../Middlewares/ST/STemWin/inc" "GUI_Type.h"
	.file	4 "../Drivers/CMSIS/Device/ST/STM32F7xx/Include" "stm32f746xx.h"
	.file	5 "../Drivers/STM32F7xx_HAL_Driver/Inc" "stm32f7xx_hal_adc.h"
	.file	6 "../Drivers/STM32F7xx_HAL_Driver/Inc" "stm32f7xx_hal_dma.h"
	.file	7 "../Drivers/STM32F7xx_HAL_Driver/Inc" "stm32f7xx_hal_def.h"
	.file	8 "../Drivers/STM32F7xx_HAL_Driver/Inc" "stm32f7xx_hal_uart.h"
	.file	9 "../Drivers/STM32F7xx_HAL_Driver/Inc" "stm32f7xx_hal_tim.h"
	.file	10 "../Drivers/STM32F7xx_HAL_Driver/Inc" "stm32f7xx_hal_ltdc.h"
	.file	11 "../Drivers/STM32F7xx_HAL_Driver/Inc" "stm32f7xx_hal_dma2d.h"
	.file	12 "../Drivers/STM32F7xx_HAL_Driver/Inc" "stm32f7xx_hal_crc.h"
	.file	13 "../Drivers/STM32F7xx_HAL_Driver/Inc" "stm32f7xx_hal_rtc.h"
	.file	14 "../Drivers/STM32F7xx_HAL_Driver/Inc" "stm32f7xx_hal_gpio.h"
	.file	15 "../Inc" "one_wire.h"
	.file	16 "../Drivers/CMSIS/Device/ST/STM32F7xx/Include" "stm32f7xx.h"
	.file	17 "../Drivers/BSP/STM32F746" "stm32746g_ts.h"
	.file	18 "C:/Keil/ARM/PACK/ARM/CMSIS/5.3.0/CMSIS/Include" "core_cm7.h"
	.section	.text.main,"ax",%progbits
	.hidden	main                    @ -- Begin function main
	.globl	main
	.p2align	2
	.type	main,%function
	.code	16                      @ @main
	.thumb_func
main:
.Lfunc_begin0:
	.loc	2 125 0                 @ ../Src/main.c:125:0
	.fnstart
	.cfi_sections .debug_frame
	.cfi_startproc
@ %bb.0:
	.save	{r4, r5, r6, r7, r8, r9, r10, r11, lr}
	push.w	{r4, r5, r6, r7, r8, r9, r10, r11, lr}
	.cfi_def_cfa_offset 36
	.cfi_offset lr, -4
	.cfi_offset r11, -8
	.cfi_offset r10, -12
	.cfi_offset r9, -16
	.cfi_offset r8, -20
	.cfi_offset r7, -24
	.cfi_offset r6, -28
	.cfi_offset r5, -32
	.cfi_offset r4, -36
	.pad	#204
	sub	sp, #204
	.cfi_def_cfa_offset 240
.Ltmp0:
	.loc	2 158 2 prologue_end    @ ../Src/main.c:158:2
	bl	HAL_MPU_Disable
	movs	r0, #1
	.loc	2 172 2                 @ ../Src/main.c:172:2
	ldr.w	r6, __arm_cp.0_3
	add	r4, sp, #4
.Ltmp1:
	@DEBUG_VALUE: MPU_Config:MPU_InitStruct <- [DW_OP_plus_uconst 4] [$sp+0]
	.loc	2 161 34                @ ../Src/main.c:161:34
	strh.w	r0, [sp, #4]
	.loc	2 163 34                @ ../Src/main.c:163:34
	ldr	r0, __arm_cp.0_20
	str	r0, [sp, #12]
	ldr	r0, __arm_cp.0_21
	.loc	2 171 34                @ ../Src/main.c:171:34
	str	r0, [sp, #16]
	mov	r8, r0
	ldr	r0, .LCPI0_22
	.loc	2 162 34                @ ../Src/main.c:162:34
	add.w	r0, r0, #267386880
	str	r0, [sp, #8]
	.loc	2 172 2                 @ ../Src/main.c:172:2
	mov	r0, r4
	blx	r6
	.loc	2 179 34                @ ../Src/main.c:179:34
	mov.w	r7, #-1879048192
	.loc	2 177 34                @ ../Src/main.c:177:34
	movw	r0, #513
	movw	r5, #257
	.loc	2 179 34                @ ../Src/main.c:179:34
	str	r7, [sp, #8]
	.loc	2 177 34                @ ../Src/main.c:177:34
	strh.w	r0, [sp, #4]
	.loc	2 180 34                @ ../Src/main.c:180:34
	movs	r0, #27
	str	r0, [sp, #12]
	.loc	2 188 2                 @ ../Src/main.c:188:2
	mov	r0, r4
	.loc	2 184 34                @ ../Src/main.c:184:34
	str	r5, [sp, #16]
	.loc	2 188 2                 @ ../Src/main.c:188:2
	blx	r6
	.loc	2 191 34                @ ../Src/main.c:191:34
	movw	r0, #769
	.loc	2 193 34                @ ../Src/main.c:193:34
	str	r7, [sp, #8]
	.loc	2 191 34                @ ../Src/main.c:191:34
	strh.w	r0, [sp, #4]
	.loc	2 194 34                @ ../Src/main.c:194:34
	ldr	r0, __arm_cp.0_23
	str	r0, [sp, #12]
	.loc	2 198 34                @ ../Src/main.c:198:34
	ldr	r0, __arm_cp.0_24
	str	r0, [sp, #16]
	.loc	2 202 2                 @ ../Src/main.c:202:2
	mov	r0, r4
	blx	r6
	.loc	2 209 34                @ ../Src/main.c:209:34
	mov.w	r7, #-1073741824
	.loc	2 207 34                @ ../Src/main.c:207:34
	movw	r0, #1025
	.loc	2 209 34                @ ../Src/main.c:209:34
	str	r7, [sp, #8]
	.loc	2 207 34                @ ../Src/main.c:207:34
	strh.w	r0, [sp, #4]
	.loc	2 210 34                @ ../Src/main.c:210:34
	movs	r0, #28
	strd	r0, r5, [sp, #12]
	.loc	2 218 2                 @ ../Src/main.c:218:2
	mov	r0, r4
	blx	r6
	.loc	2 221 34                @ ../Src/main.c:221:34
	movw	r0, #1281
	.loc	2 223 34                @ ../Src/main.c:223:34
	str	r7, [sp, #8]
	.loc	2 221 34                @ ../Src/main.c:221:34
	strh.w	r0, [sp, #4]
	.loc	2 224 34                @ ../Src/main.c:224:34
	ldr	r0, __arm_cp.0_25
	strd	r0, r8, [sp, #12]
	.loc	2 232 2                 @ ../Src/main.c:232:2
	mov	r0, r4
	blx	r6
	.loc	2 235 2                 @ ../Src/main.c:235:2
	movs	r0, #4
	bl	HAL_MPU_Enable
	.loc	2 240 21                @ ../Src/main.c:240:21
	mov.w	r0, #-1610612736
	movw	r1, #12498
	movw	r12, #16352
	str	r1, [r0]
	ldr	r0, __arm_cp.0_26
	movs	r1, #0
.Ltmp2:
	.loc	18 2221 5               @ C:/Keil/ARM/PACK/ARM/CMSIS/5.3.0/CMSIS/Include\core_cm7.h:2221:5
	dsb	sy
	.loc	18 2222 5               @ C:/Keil/ARM/PACK/ARM/CMSIS/5.3.0/CMSIS/Include\core_cm7.h:2222:5
	isb	sy
	.loc	18 2223 18              @ C:/Keil/ARM/PACK/ARM/CMSIS/5.3.0/CMSIS/Include\core_cm7.h:2223:18
	str.w	r1, [r0, #572]
	.loc	18 2224 5               @ C:/Keil/ARM/PACK/ARM/CMSIS/5.3.0/CMSIS/Include\core_cm7.h:2224:5
	dsb	sy
	.loc	18 2225 5               @ C:/Keil/ARM/PACK/ARM/CMSIS/5.3.0/CMSIS/Include\core_cm7.h:2225:5
	isb	sy
	.loc	18 2226 14              @ C:/Keil/ARM/PACK/ARM/CMSIS/5.3.0/CMSIS/Include\core_cm7.h:2226:14
	ldr	r2, [r0]
	orr	r2, r2, #131072
	str	r2, [r0]
	ldr	r2, __arm_cp.0_27
.Ltmp3:
	@DEBUG_VALUE: SCB_EnableDCache:ways <- $r1
	.loc	18 2227 5               @ C:/Keil/ARM/PACK/ARM/CMSIS/5.3.0/CMSIS/Include\core_cm7.h:2227:5
	dsb	sy
	.loc	18 2228 5               @ C:/Keil/ARM/PACK/ARM/CMSIS/5.3.0/CMSIS/Include\core_cm7.h:2228:5
	isb	sy
.Ltmp4:
	.loc	18 2277 17              @ C:/Keil/ARM/PACK/ARM/CMSIS/5.3.0/CMSIS/Include\core_cm7.h:2277:17
	str	r1, [r0, #112]
	.loc	18 2278 5               @ C:/Keil/ARM/PACK/ARM/CMSIS/5.3.0/CMSIS/Include\core_cm7.h:2278:5
	dsb	sy
	.loc	18 2280 19              @ C:/Keil/ARM/PACK/ARM/CMSIS/5.3.0/CMSIS/Include\core_cm7.h:2280:19
	ldr	r1, [r0, #108]
.Ltmp5:
	@DEBUG_VALUE: SCB_EnableDCache:ccsidr <- $r1
	.loc	18 2284 5               @ C:/Keil/ARM/PACK/ARM/CMSIS/5.3.0/CMSIS/Include\core_cm7.h:2284:5
	orn	r4, r2, r1, lsr #3
	.loc	18 2283 23              @ C:/Keil/ARM/PACK/ARM/CMSIS/5.3.0/CMSIS/Include\core_cm7.h:2283:23
	ubfx	r2, r1, #13, #15
.Ltmp6:
	@DEBUG_VALUE: SCB_EnableDCache:sets <- $r2
	.loc	18 0 23 is_stmt 0       @ C:/Keil/ARM/PACK/ARM/CMSIS/5.3.0/CMSIS/Include\core_cm7.h:0:23
	lsrs	r1, r1, #3
.Ltmp7:
	@DEBUG_VALUE: SCB_EnableDCache:ways <- $r1
	.loc	18 2284 5 is_stmt 1     @ C:/Keil/ARM/PACK/ARM/CMSIS/5.3.0/CMSIS/Include\core_cm7.h:2284:5
	lsls	r5, r1, #30
.Ltmp8:
.LBB0_1:                                @ =>This Loop Header: Depth=1
                                        @     Child Loop BB0_2 Depth 2
	@DEBUG_VALUE: SCB_EnableDCache:sets <- $r2
	@DEBUG_VALUE: SCB_EnableDCache:ways <- $r1
	@DEBUG_VALUE: SCB_EnableDCache:sets <- $r2
	.loc	18 0 5 is_stmt 0        @ C:/Keil/ARM/PACK/ARM/CMSIS/5.3.0/CMSIS/Include\core_cm7.h:0:5
	and.w	r6, r12, r2, lsl #5
	mov	r3, r5
	mov	r1, r4
.Ltmp9:
.LBB0_2:                                @   Parent Loop BB0_1 Depth=1
                                        @ =>  This Inner Loop Header: Depth=2
	@DEBUG_VALUE: SCB_EnableDCache:sets <- $r2
	.loc	18 2287 73 is_stmt 1    @ C:/Keil/ARM/PACK/ARM/CMSIS/5.3.0/CMSIS/Include\core_cm7.h:2287:73
	orr.w	r7, r3, r6
.Ltmp10:
	.loc	18 2292 23              @ C:/Keil/ARM/PACK/ARM/CMSIS/5.3.0/CMSIS/Include\core_cm7.h:2292:23
	add.w	r3, r3, #-1073741824
	adds	r1, #1
.Ltmp11:
	.loc	18 2287 20              @ C:/Keil/ARM/PACK/ARM/CMSIS/5.3.0/CMSIS/Include\core_cm7.h:2287:20
	str.w	r7, [r0, #588]
	.loc	18 2292 7               @ C:/Keil/ARM/PACK/ARM/CMSIS/5.3.0/CMSIS/Include\core_cm7.h:2292:7
	bne	.LBB0_2
.Ltmp12:
@ %bb.3:                                @   in Loop: Header=BB0_1 Depth=1
	@DEBUG_VALUE: SCB_EnableDCache:sets <- $r2
	.loc	18 2293 17              @ C:/Keil/ARM/PACK/ARM/CMSIS/5.3.0/CMSIS/Include\core_cm7.h:2293:17
	subs	r1, r2, #1
.Ltmp13:
	@DEBUG_VALUE: SCB_EnableDCache:sets <- $r1
	.loc	18 2293 5 is_stmt 0     @ C:/Keil/ARM/PACK/ARM/CMSIS/5.3.0/CMSIS/Include\core_cm7.h:2293:5
	cmp	r2, #0
	mov	r2, r1
.Ltmp14:
	@DEBUG_VALUE: SCB_EnableDCache:sets <- $r2
	bne	.LBB0_1
.Ltmp15:
@ %bb.4:
	@DEBUG_VALUE: SCB_EnableDCache:sets <- $r2
	.loc	18 2294 5 is_stmt 1     @ C:/Keil/ARM/PACK/ARM/CMSIS/5.3.0/CMSIS/Include\core_cm7.h:2294:5
	dsb	sy
	.loc	18 2296 14              @ C:/Keil/ARM/PACK/ARM/CMSIS/5.3.0/CMSIS/Include\core_cm7.h:2296:14
	ldr	r1, [r0]
	orr	r1, r1, #65536
	str	r1, [r0]
	.loc	18 2298 5               @ C:/Keil/ARM/PACK/ARM/CMSIS/5.3.0/CMSIS/Include\core_cm7.h:2298:5
	dsb	sy
	.loc	18 2299 5               @ C:/Keil/ARM/PACK/ARM/CMSIS/5.3.0/CMSIS/Include\core_cm7.h:2299:5
	isb	sy
.Ltmp16:
	.loc	2 128 2                 @ ../Src/main.c:128:2
	bl	HAL_Init
.Ltmp17:
	.loc	2 0 2 is_stmt 0         @ ../Src/main.c:0:2
	ldr	r6, __arm_cp.0_28
	ldr	r5, __arm_cp.0_29
.Ltmp18:
	.loc	18 2296 14 is_stmt 1    @ C:/Keil/ARM/PACK/ARM/CMSIS/5.3.0/CMSIS/Include\core_cm7.h:2296:14
	mov.w	r8, #65536
.Ltmp19:
	.loc	2 339 29                @ ../Src/main.c:339:29
	mov.w	r9, #1
	.loc	2 340 33                @ ../Src/main.c:340:33
	movs	r4, #2
.Ltmp20:
	.loc	2 331 2                 @ ../Src/main.c:331:2
	ldr	r0, [r6, #16]
	orr	r0, r0, #268435456
	str	r0, [r6, #16]
	ldr	r0, [r6, #16]
	and	r0, r0, #268435456
.Ltmp21:
	@DEBUG_VALUE: tmpreg <- $r0
	str	r0, [sp, #4]
	ldr	r0, [sp, #4]
.Ltmp22:
	@DEBUG_VALUE: tmpreg <- $r0
	.loc	2 333 2                 @ ../Src/main.c:333:2
	mov.w	r0, #27648
.Ltmp23:
	ldr	r1, [r5, r0]
	orr	r1, r1, #49152
	str	r1, [r5, r0]
	ldr	r0, [r5, r0]
	and	r0, r0, #49152
.Ltmp24:
	@DEBUG_VALUE: tmpreg <- $r0
	str	r0, [sp, #4]
	ldr	r0, [sp, #4]
.Ltmp25:
	@DEBUG_VALUE: tmpreg <- $r0
	.loc	2 338 29                @ ../Src/main.c:338:29
	str.w	r8, [sp, #160]
	.loc	2 337 35                @ ../Src/main.c:337:35
	movs	r0, #5
.Ltmp26:
	str	r0, [sp, #156]
	.loc	2 341 34                @ ../Src/main.c:341:34
	mov.w	r0, #4194304
	.loc	2 339 29                @ ../Src/main.c:339:29
	str.w	r9, [sp, #164]
	.loc	2 340 33                @ ../Src/main.c:340:33
	str	r4, [sp, #180]
	.loc	2 341 34                @ ../Src/main.c:341:34
	str	r0, [sp, #184]
	movs	r0, #4
	.loc	2 342 29                @ ../Src/main.c:342:29
	str	r0, [sp, #188]
	.loc	2 343 29                @ ../Src/main.c:343:29
	movs	r0, #200
	strd	r0, r4, [sp, #192]
	add	r0, sp, #156
.Ltmp27:
	@DEBUG_VALUE: SystemClock_Config:RCC_OscInitStruct <- [DW_OP_plus_uconst 156] [$sp+0]
	.loc	2 345 29                @ ../Src/main.c:345:29
	str	r4, [sp, #200]
.Ltmp28:
	.loc	2 347 6                 @ ../Src/main.c:347:6
	bl	HAL_RCC_OscConfig
.Ltmp29:
	.loc	2 354 6                 @ ../Src/main.c:354:6
	bl	HAL_PWREx_EnableOverDrive
.Ltmp30:
	.loc	18 2294 5               @ C:/Keil/ARM/PACK/ARM/CMSIS/5.3.0/CMSIS/Include\core_cm7.h:2294:5
	movs	r0, #15
	@DEBUG_VALUE: SystemClock_Config:RCC_OscInitStruct <- [DW_OP_plus_uconst 156] [$sp+0]
	movs	r7, #0
.Ltmp31:
	.loc	2 368 6                 @ ../Src/main.c:368:6
	movs	r1, #6
.Ltmp32:
	.loc	2 361 30                @ ../Src/main.c:361:30
	strd	r0, r4, [sp, #136]
	.loc	2 365 35                @ ../Src/main.c:365:35
	mov.w	r0, #5120
	.loc	2 364 34                @ ../Src/main.c:364:34
	str	r7, [sp, #144]
	.loc	2 365 35                @ ../Src/main.c:365:35
	str	r0, [sp, #148]
	.loc	2 366 35                @ ../Src/main.c:366:35
	mov.w	r0, #4096
	str	r0, [sp, #152]
	add	r0, sp, #136
.Ltmp33:
	@DEBUG_VALUE: SystemClock_Config:RCC_ClkInitStruct <- [DW_OP_plus_uconst 136] [$sp+0]
	.loc	2 368 6                 @ ../Src/main.c:368:6
	bl	HAL_RCC_ClockConfig
.Ltmp34:
	.loc	2 373 43                @ ../Src/main.c:373:43
	ldr	r0, __arm_cp.0_11
	str	r0, [sp, #4]
	.loc	2 377 37                @ ../Src/main.c:377:37
	movs	r0, #57
	str	r0, [sp, #24]
	.loc	2 378 37                @ ../Src/main.c:378:37
	movs	r0, #3
	.loc	2 379 37                @ ../Src/main.c:379:37
	strd	r4, r0, [sp, #28]
	.loc	2 383 40                @ ../Src/main.c:383:40
	mov.w	r0, #256
	.loc	2 380 37                @ ../Src/main.c:380:37
	str	r7, [sp, #36]
	.loc	2 381 33                @ ../Src/main.c:381:33
	strd	r9, r8, [sp, #44]
	.loc	2 383 40                @ ../Src/main.c:383:40
	str	r0, [sp, #52]
	add	r0, sp, #4
.Ltmp35:
	@DEBUG_VALUE: SystemClock_Config:PeriphClkInitStruct <- [DW_OP_plus_uconst 4] [$sp+0]
	.loc	2 384 41                @ ../Src/main.c:384:41
	strd	r7, r7, [sp, #68]
	.loc	2 386 43                @ ../Src/main.c:386:43
	str	r7, [sp, #76]
	.loc	2 387 41                @ ../Src/main.c:387:41
	strd	r7, r7, [sp, #112]
.Ltmp36:
	.loc	2 390 6                 @ ../Src/main.c:390:6
	bl	HAL_RCCEx_PeriphCLKConfig
.Ltmp37:
	.loc	2 397 21                @ ../Src/main.c:397:21
	bl	HAL_RCC_GetHCLKFreq
	.loc	2 397 42 is_stmt 0      @ ../Src/main.c:397:42
	mov.w	r1, #1000
	udiv	r0, r0, r1
	.loc	2 397 2                 @ ../Src/main.c:397:2
	bl	HAL_SYSTICK_Config
	.loc	2 401 2 is_stmt 1       @ ../Src/main.c:401:2
	movs	r0, #4
	bl	HAL_SYSTICK_CLKSourceConfig
	.loc	2 404 2                 @ ../Src/main.c:404:2
	mov.w	r0, #-1
	movs	r1, #0
	movs	r2, #0
	bl	HAL_NVIC_SetPriority
.Ltmp38:
	.loc	2 609 16                @ ../Src/main.c:609:16
	ldr	r4, __arm_cp.0_12
	mov	r8, r5
	add.w	r0, r5, #9216
	.loc	2 612 24                @ ../Src/main.c:612:24
	movs	r1, #255
	.loc	2 609 16                @ ../Src/main.c:609:16
	mov	r5, r4
	str	r0, [r5, #76]!
	.loc	2 611 25                @ ../Src/main.c:611:25
	movs	r0, #127
	.loc	2 610 23                @ ../Src/main.c:610:23
	strd	r7, r0, [r5, #4]
.Ltmp39:
	.loc	2 617 6                 @ ../Src/main.c:617:6
	mov	r0, r5
.Ltmp40:
	.loc	2 612 24                @ ../Src/main.c:612:24
	strd	r1, r7, [r5, #12]
	.loc	2 614 27                @ ../Src/main.c:614:27
	strd	r7, r7, [r5, #20]
.Ltmp41:
	.loc	2 617 6                 @ ../Src/main.c:617:6
	bl	HAL_RTC_Init
.Ltmp42:
	.loc	2 622 6                 @ ../Src/main.c:622:6
	mov	r0, r5
	movs	r1, #1
	bl	HAL_RTCEx_BKUPRead
	.loc	2 622 45 is_stmt 0      @ ../Src/main.c:622:45
	movw	r1, #41893
.Ltmp43:
	.loc	2 622 6                 @ ../Src/main.c:622:6
	cmp	r0, r1
	bne	.LBB0_16
.Ltmp44:
@ %bb.5:
	.loc	2 638 15 is_stmt 1      @ ../Src/main.c:638:15
	ldr	r7, __arm_cp.0_14
	add.w	r5, r4, #76
	movs	r1, #2
	mov	r0, r5
	blx	r7
	.loc	2 638 13 is_stmt 0      @ ../Src/main.c:638:13
	strb	r0, [r4, #12]
	.loc	2 639 16 is_stmt 1      @ ../Src/main.c:639:16
	mov	r0, r5
	movs	r1, #3
	blx	r7
	.loc	2 639 14 is_stmt 0      @ ../Src/main.c:639:14
	strb	r0, [r4, #11]
	.loc	2 640 18 is_stmt 1      @ ../Src/main.c:640:18
	mov	r0, r5
	movs	r1, #4
	blx	r7
	.loc	2 640 16 is_stmt 0      @ ../Src/main.c:640:16
	strb	r0, [r4, #10]
	.loc	2 641 15 is_stmt 1      @ ../Src/main.c:641:15
	mov	r0, r5
	movs	r1, #5
	blx	r7
	.loc	2 641 13 is_stmt 0      @ ../Src/main.c:641:13
	strb	r0, [r4, #13]
	.loc	2 638 13 is_stmt 1      @ ../Src/main.c:638:13
	add.w	r1, r4, #10
	.loc	2 642 3                 @ ../Src/main.c:642:3
	mov	r0, r5
	movs	r2, #1
	bl	HAL_RTC_SetDate
	.loc	2 643 3                 @ ../Src/main.c:643:3
	mov	r0, r5
	bl	HAL_RTC_WaitForSynchro
	b	.LBB0_17
.Ltmp45:
	.p2align	2
@ %bb.6:
	.loc	2 0 3 is_stmt 0         @ ../Src/main.c:0:3
__arm_cp.0_20:
	.long	50331665                @ 0x3000011
.Lcpi_end0:
	.size	__arm_cp.0_20, .Lcpi_end0-__arm_cp.0_20
	.p2align	2
@ %bb.7:
__arm_cp.0_21:
	.long	65792                   @ 0x10100
.Lcpi_end1:
	.size	__arm_cp.0_21, .Lcpi_end1-__arm_cp.0_21
	.p2align	2
@ %bb.8:
.LCPI0_22:
	.long	269549568               @ 0x10110000
	.p2align	2
@ %bb.9:
__arm_cp.0_23:
	.long	50331671                @ 0x3000017
.Lcpi_end2:
	.size	__arm_cp.0_23, .Lcpi_end2-__arm_cp.0_23
	.p2align	2
@ %bb.10:
__arm_cp.0_24:
	.long	65793                   @ 0x10101
.Lcpi_end3:
	.size	__arm_cp.0_24, .Lcpi_end3-__arm_cp.0_24
	.p2align	2
@ %bb.11:
__arm_cp.0_25:
	.long	50331670                @ 0x3000016
.Lcpi_end4:
	.size	__arm_cp.0_25, .Lcpi_end4-__arm_cp.0_25
	.p2align	2
@ %bb.12:
__arm_cp.0_26:
	.long	3758157076              @ 0xe000ed14
.Lcpi_end5:
	.size	__arm_cp.0_26, .Lcpi_end5-__arm_cp.0_26
	.p2align	2
@ %bb.13:
__arm_cp.0_27:
	.long	4294966272              @ 0xfffffc00
.Lcpi_end6:
	.size	__arm_cp.0_27, .Lcpi_end6-__arm_cp.0_27
	.p2align	2
@ %bb.14:
__arm_cp.0_28:
	.long	1073887280              @ 0x40023830
.Lcpi_end7:
	.size	__arm_cp.0_28, .Lcpi_end7-__arm_cp.0_28
	.p2align	2
@ %bb.15:
__arm_cp.0_29:
	.long	1073742848              @ 0x40000400
.Lcpi_end8:
	.size	__arm_cp.0_29, .Lcpi_end8-__arm_cp.0_29
	.p2align	1
.LBB0_16:
.Ltmp46:
	.loc	2 629 16 is_stmt 1      @ ../Src/main.c:629:16
	ldr	r0, __arm_cp.0_13
	.loc	2 631 3                 @ ../Src/main.c:631:3
	movs	r2, #1
	.loc	2 629 16                @ ../Src/main.c:629:16
	str	r0, [r4, #10]!
	.loc	2 624 14                @ ../Src/main.c:624:14
	movw	r0, #16392
	mov	r1, r4
	.loc	2 631 3                 @ ../Src/main.c:631:3
	add.w	r5, r4, #66
	.loc	2 626 16                @ ../Src/main.c:626:16
	strb.w	r7, [r4, #44]
	.loc	2 624 14                @ ../Src/main.c:624:14
	strh	r0, [r1, #42]!
	.loc	2 631 3                 @ ../Src/main.c:631:3
	mov	r0, r5
	bl	HAL_RTC_SetTime
	.loc	2 632 3                 @ ../Src/main.c:632:3
	mov	r0, r5
	mov	r1, r4
	movs	r2, #1
	bl	HAL_RTC_SetDate
	.loc	2 633 3                 @ ../Src/main.c:633:3
	mov	r0, r5
	bl	HAL_RTC_WaitForSynchro
	.loc	2 634 3                 @ ../Src/main.c:634:3
	mov	r0, r5
	movs	r1, #1
	movw	r2, #41893
	bl	HAL_RTCEx_BKUPWrite
.Ltmp47:
.LBB0_17:
	.loc	2 881 2                 @ ../Src/main.c:881:2
	ldr	r0, [r6, #20]
.Ltmp48:
	.loc	2 887 2                 @ ../Src/main.c:887:2
	ldr	r5, __arm_cp.0_15
	movs	r4, #0
	add	r1, sp, #4
.Ltmp49:
	@DEBUG_VALUE: MX_ADC3_Init:GPIO_InitStruct <- [DW_OP_plus_uconst 4] [$sp+0]
	.loc	2 885 23                @ ../Src/main.c:885:23
	mov.w	r9, #3
	mov	r7, r8
.Ltmp50:
	.loc	2 881 2                 @ ../Src/main.c:881:2
	orr	r0, r0, #1024
	str	r0, [r6, #20]
	ldr	r0, [r6, #20]
	and	r0, r0, #1024
.Ltmp51:
	@DEBUG_VALUE: tmpreg <- $r0
	str	r0, [sp, #4]
	ldr	r0, [sp, #4]
.Ltmp52:
	@DEBUG_VALUE: tmpreg <- $r0
	.loc	2 882 2                 @ ../Src/main.c:882:2
	ldr	r0, [r6]
.Ltmp53:
	orr	r0, r0, #4
	str	r0, [r6]
	ldr	r0, [r6]
	and	r0, r0, #4
.Ltmp54:
	@DEBUG_VALUE: tmpreg <- $r0
	str	r0, [sp, #4]
	ldr	r0, [sp, #4]
.Ltmp55:
	@DEBUG_VALUE: tmpreg <- $r0
	.loc	2 885 23                @ ../Src/main.c:885:23
	movs	r0, #3
.Ltmp56:
	str	r0, [sp, #8]
	.loc	2 884 22                @ ../Src/main.c:884:22
	movs	r0, #14
	str	r0, [sp, #4]
	.loc	2 887 2                 @ ../Src/main.c:887:2
	add.w	r0, r8, #132096
	.loc	2 886 23                @ ../Src/main.c:886:23
	str	r4, [sp, #12]
	.loc	2 887 2                 @ ../Src/main.c:887:2
	str	r0, [sp]                @ 4-byte Spill
	blx	r5
	mov	r11, r5
	.loc	2 890 17                @ ../Src/main.c:890:17
	ldr	r5, __arm_cp.0_16
	.loc	2 891 28                @ ../Src/main.c:891:28
	mov.w	r0, #65536
	.loc	2 890 17                @ ../Src/main.c:890:17
	add.w	r1, r8, #73216
	.loc	2 899 29                @ ../Src/main.c:899:29
	movs	r2, #1
	.loc	2 895 35                @ ../Src/main.c:895:35
	strd	r4, r4, [r5, #32]
	.loc	2 897 34                @ ../Src/main.c:897:34
	strd	r4, r4, [r5, #44]
	.loc	2 890 17                @ ../Src/main.c:890:17
	strd	r1, r0, [r5]
.Ltmp57:
	.loc	2 903 5                 @ ../Src/main.c:903:5
	mov	r0, r5
.Ltmp58:
	.loc	2 892 24                @ ../Src/main.c:892:24
	strd	r4, r4, [r5, #8]
	.loc	2 893 26                @ ../Src/main.c:893:26
	strd	r4, r2, [r5, #16]
	.loc	2 894 32                @ ../Src/main.c:894:32
	strd	r4, r2, [r5, #24]
.Ltmp59:
	.loc	2 903 5                 @ ../Src/main.c:903:5
	bl	HAL_ADC_Init
.Ltmp60:
	.loc	2 908 18                @ ../Src/main.c:908:18
	movs	r0, #11
	add	r1, sp, #156
.Ltmp61:
	@DEBUG_VALUE: MX_ADC3_Init:sConfig <- [DW_OP_plus_uconst 156] [$sp+0]
	str	r0, [sp, #156]
	.loc	2 899 29                @ ../Src/main.c:899:29
	movs	r0, #1
	.loc	2 909 15                @ ../Src/main.c:909:15
	strd	r0, r0, [sp, #160]
	.loc	2 912 2                 @ ../Src/main.c:912:2
	mov	r0, r5
	.loc	2 911 17                @ ../Src/main.c:911:17
	str	r4, [sp, #168]
	.loc	2 912 2                 @ ../Src/main.c:912:2
	bl	HAL_ADC_ConfigChannel
.Ltmp62:
	.loc	2 812 2                 @ ../Src/main.c:812:2
	ldr	r0, [r6]
.Ltmp63:
	.loc	2 820 22                @ ../Src/main.c:820:22
	mov.w	r8, #96
	add	r1, sp, #4
.Ltmp64:
	@DEBUG_VALUE: MX_UART2_Init:GPIO_InitStruct <- [DW_OP_plus_uconst 4] [$sp+0]
	.loc	2 812 2                 @ ../Src/main.c:812:2
	orr	r0, r0, #8
	str	r0, [r6]
	ldr	r0, [r6]
	and	r0, r0, #8
.Ltmp65:
	@DEBUG_VALUE: tmpreg <- $r0
	str	r0, [sp, #4]
	ldr	r0, [sp, #4]
.Ltmp66:
	@DEBUG_VALUE: tmpreg <- $r0
	.loc	2 813 2                 @ ../Src/main.c:813:2
	ldr	r0, [r6, #16]
.Ltmp67:
	orr	r0, r0, #131072
	str	r0, [r6, #16]
	ldr	r0, [r6, #16]
	and	r0, r0, #131072
.Ltmp68:
	@DEBUG_VALUE: tmpreg <- $r0
	str	r0, [sp, #4]
	ldr	r0, [sp, #4]
.Ltmp69:
	@DEBUG_VALUE: tmpreg <- $r0
	.loc	2 824 28                @ ../Src/main.c:824:28
	movs	r0, #7
.Ltmp70:
	str	r0, [sp, #20]
	.loc	2 821 23                @ ../Src/main.c:821:23
	movs	r0, #2
	str	r0, [sp, #8]
	.loc	2 820 22                @ ../Src/main.c:820:22
	str.w	r8, [sp, #4]
	.loc	2 822 23                @ ../Src/main.c:822:23
	strd	r4, r9, [sp, #12]
	.loc	2 825 2                 @ ../Src/main.c:825:2
	add.w	r9, r7, #133120
	mov	r0, r9
	blx	r11
	.loc	2 827 2                 @ ../Src/main.c:827:2
	movs	r0, #38
	movs	r1, #3
	movs	r2, #0
	bl	HAL_NVIC_SetPriority
	.loc	2 828 2                 @ ../Src/main.c:828:2
	movs	r0, #38
	bl	HAL_NVIC_EnableIRQ
	.loc	2 830 18                @ ../Src/main.c:830:18
	ldr	r0, __arm_cp.0_17
	.loc	2 831 23                @ ../Src/main.c:831:23
	mov.w	r1, #115200
	.loc	2 830 18                @ ../Src/main.c:830:18
	add.w	r2, r7, #16384
	.loc	2 832 25                @ ../Src/main.c:832:25
	mov.w	r3, #268435456
	movs	r5, #12
	.loc	2 837 27                @ ../Src/main.c:837:27
	strd	r4, r4, [r0, #32]
	.loc	2 830 18                @ ../Src/main.c:830:18
	strd	r2, r1, [r0]
	.loc	2 832 25                @ ../Src/main.c:832:25
	strd	r3, r4, [r0, #8]
	.loc	2 834 21                @ ../Src/main.c:834:21
	strd	r4, r5, [r0, #16]
	.loc	2 837 27                @ ../Src/main.c:837:27
	strd	r4, r4, [r0, #24]
.Ltmp71:
	.loc	2 841 6                 @ ../Src/main.c:841:6
	bl	HAL_UART_Init
.Ltmp72:
	.loc	2 702 17                @ ../Src/main.c:702:17
	ldr.w	r10, __arm_cp.0_18
	.loc	2 703 20                @ ../Src/main.c:703:20
	movw	r0, #9999
	mov	r5, r7
	.loc	2 704 23                @ ../Src/main.c:704:23
	strd	r4, r4, [r10, #40]
	.loc	2 703 20                @ ../Src/main.c:703:20
	strd	r0, r4, [r10, #48]
	.loc	2 702 17                @ ../Src/main.c:702:17
	mov	r0, r10
	str	r7, [r0, #36]!
.Ltmp73:
	.loc	2 708 5                 @ ../Src/main.c:708:5
	bl	HAL_TIM_Base_Init
.Ltmp74:
	.loc	2 721 2                 @ ../Src/main.c:721:2
	ldr	r0, [r6, #20]
.Ltmp75:
	.loc	2 724 17                @ ../Src/main.c:724:17
	ldr	r7, __arm_cp.0_19
	add.w	r1, r5, #80896
	.loc	2 727 20                @ ../Src/main.c:727:20
	mov.w	r2, #1000
.Ltmp76:
	.loc	2 721 2                 @ ../Src/main.c:721:2
	orr	r0, r0, #65536
	str	r0, [r6, #20]
	ldr	r0, [r6, #20]
	and	r0, r0, #65536
.Ltmp77:
	@DEBUG_VALUE: tmpreg <- $r0
	str	r0, [sp, #4]
	ldr	r0, [sp, #4]
.Ltmp78:
	@DEBUG_VALUE: tmpreg <- $r0
	.loc	2 722 2                 @ ../Src/main.c:722:2
	ldr	r0, [r6]
.Ltmp79:
	orr	r0, r0, #16
	str	r0, [r6]
	ldr	r0, [r6]
	and	r0, r0, #16
.Ltmp80:
	@DEBUG_VALUE: tmpreg <- $r0
	str	r0, [sp, #4]
	ldr	r0, [sp, #4]
.Ltmp81:
	@DEBUG_VALUE: tmpreg <- $r0
	.loc	2 725 23                @ ../Src/main.c:725:23
	movs	r0, #200
.Ltmp82:
	.loc	2 724 17                @ ../Src/main.c:724:17
	strd	r1, r0, [r7]
.Ltmp83:
	.loc	2 731 6                 @ ../Src/main.c:731:6
	mov	r0, r7
.Ltmp84:
	.loc	2 726 25                @ ../Src/main.c:726:25
	strd	r4, r2, [r7, #8]
	.loc	2 728 27                @ ../Src/main.c:728:27
	str	r4, [r7, #16]
	.loc	2 729 31                @ ../Src/main.c:729:31
	str	r4, [r7, #24]
.Ltmp85:
	.loc	2 731 6                 @ ../Src/main.c:731:6
	bl	HAL_TIM_PWM_Init
.Ltmp86:
	.loc	2 737 18                @ ../Src/main.c:737:18
	mov.w	r0, #500
	.loc	2 736 19                @ ../Src/main.c:736:19
	str.w	r8, [sp, #4]
	add	r1, sp, #4
.Ltmp87:
	@DEBUG_VALUE: MX_TIM9_Init:sConfigOC <- [DW_OP_plus_uconst 4] [$sp+0]
	.loc	2 741 6                 @ ../Src/main.c:741:6
	movs	r2, #0
.Ltmp88:
	.loc	2 737 18                @ ../Src/main.c:737:18
	strd	r0, r4, [sp, #8]
.Ltmp89:
	.loc	2 741 6                 @ ../Src/main.c:741:6
	mov	r0, r7
.Ltmp90:
	.loc	2 739 23                @ ../Src/main.c:739:23
	str	r4, [sp, #20]
.Ltmp91:
	.loc	2 741 6                 @ ../Src/main.c:741:6
	bl	HAL_TIM_PWM_ConfigChannel
	movs	r0, #32
	add	r1, sp, #156
.Ltmp92:
	@DEBUG_VALUE: MX_TIM9_Init:GPIO_InitStruct <- [DW_OP_plus_uconst 156] [$sp+0]
	.loc	2 749 25                @ ../Src/main.c:749:25
	str	r0, [sp, #156]
	.loc	2 750 26                @ ../Src/main.c:750:26
	movs	r0, #2
	str	r0, [sp, #160]
	.loc	2 753 31                @ ../Src/main.c:753:31
	movs	r0, #3
	str	r0, [sp, #172]
	.loc	2 754 5                 @ ../Src/main.c:754:5
	add.w	r0, r5, #134144
	.loc	2 751 26                @ ../Src/main.c:751:26
	strd	r4, r4, [sp, #164]
	.loc	2 754 5                 @ ../Src/main.c:754:5
	blx	r11
	.loc	2 756 2                 @ ../Src/main.c:756:2
	mov	r0, r7
	movs	r1, #0
	mov	r8, r11
	bl	HAL_TIM_PWM_Start
.Ltmp93:
	.loc	2 957 2                 @ ../Src/main.c:957:2
	ldr	r0, [r6]
.Ltmp94:
	.loc	2 963 2                 @ ../Src/main.c:963:2
	mov.w	r1, #256
	movs	r2, #0
.Ltmp95:
	.loc	2 957 2                 @ ../Src/main.c:957:2
	orr	r0, r0, #4
	str	r0, [r6]
	ldr	r0, [r6]
	and	r0, r0, #4
.Ltmp96:
	@DEBUG_VALUE: tmpreg <- $r0
	str	r0, [sp, #4]
	ldr	r0, [sp, #4]
.Ltmp97:
	@DEBUG_VALUE: tmpreg <- $r0
	.loc	2 958 2                 @ ../Src/main.c:958:2
	ldr	r0, [r6]
.Ltmp98:
	orr	r0, r0, #8
	str	r0, [r6]
	ldr	r0, [r6]
	and	r0, r0, #8
.Ltmp99:
	@DEBUG_VALUE: tmpreg <- $r0
	str	r0, [sp, #4]
	ldr	r0, [sp, #4]
.Ltmp100:
	@DEBUG_VALUE: tmpreg <- $r0
	.loc	2 960 2                 @ ../Src/main.c:960:2
	ldr	r0, [r6]
.Ltmp101:
	orr	r0, r0, #64
	str	r0, [r6]
	ldr	r0, [r6]
	mov.w	r6, #256
	and	r0, r0, #64
.Ltmp102:
	@DEBUG_VALUE: tmpreg <- $r0
	str	r0, [sp, #4]
	ldr	r0, [sp, #4]
.Ltmp103:
	@DEBUG_VALUE: tmpreg <- $r0
	.loc	2 0 2 is_stmt 0         @ ../Src/main.c:0:2
	ldr.w	r11, [sp]               @ 4-byte Reload
.Ltmp104:
	.loc	2 963 2 is_stmt 1       @ ../Src/main.c:963:2
	mov	r0, r11
.Ltmp105:
	bl	HAL_GPIO_WritePin
	.loc	2 964 2                 @ ../Src/main.c:964:2
	mov	r0, r9
	movs	r1, #128
	movs	r2, #0
	bl	HAL_GPIO_WritePin
	.loc	2 969 23                @ ../Src/main.c:969:23
	ldr	r0, __arm_cp.0_2
	add	r7, sp, #4
.Ltmp106:
	@DEBUG_VALUE: MX_GPIO_Init:GPIO_InitStruct <- [DW_OP_plus_uconst 4] [$sp+0]
	.loc	2 971 2                 @ ../Src/main.c:971:2
	mov	r1, r7
	.loc	2 969 23                @ ../Src/main.c:969:23
	str	r0, [sp, #8]
	.loc	2 968 22                @ ../Src/main.c:968:22
	mov.w	r0, #24576
	str	r0, [sp, #4]
	.loc	2 971 2                 @ ../Src/main.c:971:2
	add.w	r0, r5, #136192
	.loc	2 970 23                @ ../Src/main.c:970:23
	str	r4, [sp, #12]
	.loc	2 971 2                 @ ../Src/main.c:971:2
	blx	r8
	.loc	2 973 22                @ ../Src/main.c:973:22
	str	r6, [sp, #4]
.Ltmp107:
	.loc	2 899 29                @ ../Src/main.c:899:29
	movs	r6, #1
.Ltmp108:
	.loc	2 977 2                 @ ../Src/main.c:977:2
	mov	r0, r11
	mov	r1, r7
	.loc	2 974 23                @ ../Src/main.c:974:23
	strd	r6, r4, [sp, #8]
	.loc	2 976 24                @ ../Src/main.c:976:24
	str	r4, [sp, #16]
	.loc	2 977 2                 @ ../Src/main.c:977:2
	blx	r8
	.loc	2 979 22                @ ../Src/main.c:979:22
	movs	r0, #128
	.loc	2 980 23                @ ../Src/main.c:980:23
	str	r6, [sp, #8]
	.loc	2 983 2                 @ ../Src/main.c:983:2
	mov	r1, r7
	.loc	2 979 22                @ ../Src/main.c:979:22
	str	r0, [sp, #4]
	.loc	2 983 2                 @ ../Src/main.c:983:2
	mov	r0, r9
	.loc	2 981 23                @ ../Src/main.c:981:23
	strd	r4, r4, [sp, #12]
	.loc	2 983 2                 @ ../Src/main.c:983:2
	blx	r8
	.loc	2 992 2                 @ ../Src/main.c:992:2
	movs	r0, #40
	movs	r1, #0
	movs	r2, #0
	bl	HAL_NVIC_SetPriority
	.loc	2 993 2                 @ ../Src/main.c:993:2
	movs	r0, #40
	bl	HAL_NVIC_EnableIRQ
.Ltmp109:
	.loc	2 136 2                 @ ../Src/main.c:136:2
	bl	BSP_QSPI_Init
	.loc	2 137 2                 @ ../Src/main.c:137:2
	bl	SDRAM_Init
.Ltmp110:
	.loc	2 867 16                @ ../Src/main.c:867:16
	add.w	r0, r5, #142336
	str.w	r0, [r10]
.Ltmp111:
	.loc	2 869 6                 @ ../Src/main.c:869:6
	mov	r0, r10
	bl	HAL_CRC_Init
.Ltmp112:
	.loc	2 139 2                 @ ../Src/main.c:139:2
	mov.w	r0, #480
	mov.w	r1, #272
	bl	TOUCH_SCREEN_Init
	.loc	2 140 2                 @ ../Src/main.c:140:2
	bl	ONEWIRE_Init
	.loc	2 141 2                 @ ../Src/main.c:141:2
	bl	THERMOSTAT_Init
	.loc	2 142 2                 @ ../Src/main.c:142:2
	bl	DISPLAY_Init
.Ltmp113:
.LBB0_18:                               @ =>This Inner Loop Header: Depth=1
	.loc	2 146 3                 @ ../Src/main.c:146:3
	bl	ONEWIRE_Service
	.loc	2 147 3                 @ ../Src/main.c:147:3
	bl	THERMOSTAT_Service
	.loc	2 148 3                 @ ../Src/main.c:148:3
	bl	DISPLAY_Service
.Ltmp114:
	.loc	2 144 2                 @ ../Src/main.c:144:2
	b	.LBB0_18
.Ltmp115:
	.p2align	2
@ %bb.19:
	.loc	2 0 2 is_stmt 0         @ ../Src/main.c:0:2
__arm_cp.0_2:
	.long	269549568               @ 0x10110000
.Lcpi_end9:
	.size	__arm_cp.0_2, .Lcpi_end9-__arm_cp.0_2
__arm_cp.0_3:
	.long	HAL_MPU_ConfigRegion
.Lcpi_end10:
	.size	__arm_cp.0_3, .Lcpi_end10-__arm_cp.0_3
__arm_cp.0_11:
	.long	1245416                 @ 0x1300e8
.Lcpi_end11:
	.size	__arm_cp.0_11, .Lcpi_end11-__arm_cp.0_11
__arm_cp.0_12:
	.long	.L_MergedGlobals
.Lcpi_end12:
	.size	__arm_cp.0_12, .Lcpi_end12-__arm_cp.0_12
__arm_cp.0_13:
	.long	404817153               @ 0x18210501
.Lcpi_end13:
	.size	__arm_cp.0_13, .Lcpi_end13-__arm_cp.0_13
__arm_cp.0_14:
	.long	HAL_RTCEx_BKUPRead
.Lcpi_end14:
	.size	__arm_cp.0_14, .Lcpi_end14-__arm_cp.0_14
__arm_cp.0_15:
	.long	HAL_GPIO_Init
.Lcpi_end15:
	.size	__arm_cp.0_15, .Lcpi_end15-__arm_cp.0_15
__arm_cp.0_16:
	.long	.L_MergedGlobals.3
.Lcpi_end16:
	.size	__arm_cp.0_16, .Lcpi_end16-__arm_cp.0_16
__arm_cp.0_17:
	.long	.L_MergedGlobals.4
.Lcpi_end17:
	.size	__arm_cp.0_17, .Lcpi_end17-__arm_cp.0_17
__arm_cp.0_18:
	.long	.L_MergedGlobals.1
.Lcpi_end18:
	.size	__arm_cp.0_18, .Lcpi_end18-__arm_cp.0_18
__arm_cp.0_19:
	.long	.L_MergedGlobals.2
.Lcpi_end19:
	.size	__arm_cp.0_19, .Lcpi_end19-__arm_cp.0_19
.Lfunc_end0:
	.size	main, .Lfunc_end0-main
	.cfi_endproc
	.file	19 "../Drivers/STM32F7xx_HAL_Driver/Inc" "stm32f7xx_hal_cortex.h"
	.file	20 "../Drivers/STM32F7xx_HAL_Driver/Inc" "stm32f7xx_hal_rcc.h"
	.file	21 "../Drivers/STM32F7xx_HAL_Driver/Inc" "stm32f7xx_hal_rcc_ex.h"
	.cantunwind
	.fnend
                                        @ -- End function
	.section	.text.HAL_SYSTICK_Callback,"ax",%progbits
	.hidden	HAL_SYSTICK_Callback    @ -- Begin function HAL_SYSTICK_Callback
	.globl	HAL_SYSTICK_Callback
	.p2align	2
	.type	HAL_SYSTICK_Callback,%function
	.code	16                      @ @HAL_SYSTICK_Callback
	.thumb_func
HAL_SYSTICK_Callback:
.Lfunc_begin1:
	.loc	2 258 0 is_stmt 1       @ ../Src/main.c:258:0
	.fnstart
	.cfi_startproc
@ %bb.0:
	.save	{r4, r5, r6, r7, lr}
	.pad	#4
	push	{r3, r4, r5, r6, r7, lr}
	.cfi_def_cfa_offset 24
	.cfi_offset lr, -4
	.cfi_offset r7, -8
	.cfi_offset r6, -12
	.cfi_offset r5, -16
	.cfi_offset r4, -20
.Ltmp116:
	.loc	2 262 5 prologue_end    @ ../Src/main.c:262:5
	ldr	r6, __arm_cp.1_0
	ldrh	r0, [r6, #2]
	adds	r0, #1
	strh	r0, [r6, #2]
	uxth	r0, r0
.Ltmp117:
	.loc	2 262 5 is_stmt 0       @ ../Src/main.c:262:5
	cmp.w	r0, #1000
	blo	.LBB1_2
@ %bb.1:
.Ltmp118:
	.loc	2 264 16 is_stmt 1      @ ../Src/main.c:264:16
	movs	r0, #0
	.loc	2 265 3                 @ ../Src/main.c:265:3
	add.w	r4, r6, #76
	add.w	r1, r6, #10
	movs	r2, #1
	.loc	2 264 16                @ ../Src/main.c:264:16
	strh	r0, [r6, #2]
	.loc	2 265 3                 @ ../Src/main.c:265:3
	mov	r0, r4
	bl	HAL_RTC_GetDate
	.loc	2 266 43                @ ../Src/main.c:266:43
	ldrb	r2, [r6, #12]
	.loc	2 266 3 is_stmt 0       @ ../Src/main.c:266:3
	ldr	r5, __arm_cp.1_1
	mov	r0, r4
	movs	r1, #2
	blx	r5
	.loc	2 267 43 is_stmt 1      @ ../Src/main.c:267:43
	ldrb	r2, [r6, #11]
	.loc	2 267 3 is_stmt 0       @ ../Src/main.c:267:3
	mov	r0, r4
	movs	r1, #3
	blx	r5
	.loc	2 268 43 is_stmt 1      @ ../Src/main.c:268:43
	ldrb	r2, [r6, #10]
	.loc	2 268 3 is_stmt 0       @ ../Src/main.c:268:3
	mov	r0, r4
	movs	r1, #4
	blx	r5
	.loc	2 269 43 is_stmt 1      @ ../Src/main.c:269:43
	ldrb	r2, [r6, #13]
	.loc	2 269 3 is_stmt 0       @ ../Src/main.c:269:3
	mov	r0, r4
	movs	r1, #5
	blx	r5
.Ltmp119:
.LBB1_2:
	.loc	2 272 11 is_stmt 1      @ ../Src/main.c:272:11
	ldr	r0, __arm_cp.1_2
	ldr	r5, __arm_cp.1_3
	ldr	r0, [r0]
.Ltmp120:
	.loc	2 272 5 is_stmt 0       @ ../Src/main.c:272:5
	cmp	r0, r5
	bne	.LBB1_11
@ %bb.3:
.Ltmp121:
	.loc	2 274 7 is_stmt 1       @ ../Src/main.c:274:7
	ldrh	r0, [r6, #4]
	adds	r0, #1
	strh	r0, [r6, #4]
	uxth	r0, r0
.Ltmp122:
	.loc	2 274 7 is_stmt 0       @ ../Src/main.c:274:7
	cmp	r0, #123
	blo	.LBB1_11
@ %bb.4:
.Ltmp123:
	.loc	2 277 4 is_stmt 1       @ ../Src/main.c:277:4
	ldr	r4, __arm_cp.1_2
	movs	r7, #0
	.loc	2 276 15                @ ../Src/main.c:276:15
	strh	r7, [r6, #4]
	.loc	2 277 4                 @ ../Src/main.c:277:4
	mov	r0, r4
	bl	HAL_ADC_Start
	.loc	2 278 4                 @ ../Src/main.c:278:4
	mov	r0, r4
	movs	r1, #10
	bl	HAL_ADC_PollForConversion
	.loc	2 279 39                @ ../Src/main.c:279:39
	mov	r0, r4
	bl	HAL_ADC_GetValue
	.loc	2 279 21 is_stmt 0      @ ../Src/main.c:279:21
	ldrb	r1, [r6]
	.loc	2 279 4                 @ ../Src/main.c:279:4
	add.w	r2, r6, r1, lsl #1
	.loc	2 279 37                @ ../Src/main.c:279:37
	strh	r0, [r2, #32]
.Ltmp124:
	.loc	2 280 7 is_stmt 1       @ ../Src/main.c:280:7
	adds	r0, r1, #1
.Ltmp125:
	.loc	2 281 20                @ ../Src/main.c:281:20
	strh	r7, [r6, #6]
.Ltmp126:
	.loc	2 280 7                 @ ../Src/main.c:280:7
	uxtb	r1, r0
.Ltmp127:
	.loc	2 280 7 is_stmt 0       @ ../Src/main.c:280:7
	cmp	r1, #9
	it	hi
	movhi	r0, #0
	strb	r0, [r6]
.Ltmp128:
	@DEBUG_VALUE: HAL_SYSTICK_Callback:t <- 0
	.loc	2 0 7                   @ ../Src/main.c:0:7
	movs	r0, #0
	b	.LBB1_6
.LBB1_5:                                @   in Loop: Header=BB1_6 Depth=1
.Ltmp129:
	@DEBUG_VALUE: HAL_SYSTICK_Callback:t <- $r0
	.loc	2 282 47 is_stmt 1      @ ../Src/main.c:282:47
	add.w	r1, r6, r0, lsl #1
	.loc	2 282 24 is_stmt 0      @ ../Src/main.c:282:24
	adds	r0, #1
.Ltmp130:
	.loc	2 282 47                @ ../Src/main.c:282:47
	ldrh	r1, [r1, #32]
	.loc	2 282 44                @ ../Src/main.c:282:44
	add	r7, r1
	strh	r7, [r6, #6]
.Ltmp131:
.LBB1_6:                                @ =>This Inner Loop Header: Depth=1
	@DEBUG_VALUE: HAL_SYSTICK_Callback:t <- $r0
	.loc	2 282 4                 @ ../Src/main.c:282:4
	cmp	r0, #10
	bne	.LBB1_5
.Ltmp132:
@ %bb.7:
	@DEBUG_VALUE: HAL_SYSTICK_Callback:t <- $r0
	.loc	2 283 38 is_stmt 1      @ ../Src/main.c:283:38
	uxth	r0, r7
.Ltmp133:
	.loc	2 0 38 is_stmt 0        @ ../Src/main.c:0:38
	movs	r1, #10
	.loc	2 283 38                @ ../Src/main.c:283:38
	udiv	r0, r0, r1
	.loc	2 283 20                @ ../Src/main.c:283:20
	strh	r0, [r6, #6]
	.loc	2 284 15 is_stmt 1      @ ../Src/main.c:284:15
	bl	NTC_GetResistance
	.loc	2 284 13 is_stmt 0      @ ../Src/main.c:284:13
	vstr	s0, [r6, #16]
	.loc	2 285 15 is_stmt 1      @ ../Src/main.c:285:15
	bl	NTC_GetTemperature
	.loc	2 286 7                 @ ../Src/main.c:286:7
	vcmpe.f32	s0, #0
	.loc	2 285 13                @ ../Src/main.c:285:13
	vstr	s0, [r6, #16]
	.loc	2 286 7                 @ ../Src/main.c:286:7
	vmrs	APSR_nzcv, fpscr
	bge	.LBB1_9
@ %bb.8:
.Ltmp134:
	.loc	2 288 14                @ ../Src/main.c:288:14
	vneg.f32	s0, s0
	.loc	2 290 21                @ ../Src/main.c:290:21
	mov.w	r1, #32768
	.loc	2 289 23                @ ../Src/main.c:289:23
	vcvt.s32.f32	s2, s0
	.loc	2 288 14                @ ../Src/main.c:288:14
	vstr	s0, [r6, #16]
	.loc	2 289 23                @ ../Src/main.c:289:23
	vmov	r0, s2
	.loc	2 289 43 is_stmt 0      @ ../Src/main.c:289:43
	add.w	r0, r0, r0, lsl #2
	.loc	2 290 21 is_stmt 1      @ ../Src/main.c:290:21
	orr.w	r0, r1, r0, lsl #1
	b	.LBB1_10
.Ltmp135:
.LBB1_9:
	.loc	2 292 27                @ ../Src/main.c:292:27
	vcvt.s32.f32	s0, s0
	vmov	r0, s0
	.loc	2 292 47 is_stmt 0      @ ../Src/main.c:292:47
	add.w	r0, r0, r0, lsl #2
	lsls	r0, r0, #1
.Ltmp136:
.LBB1_10:
	.loc	2 0 47                  @ ../Src/main.c:0:47
	strh	r0, [r6, #6]
.LBB1_11:
.Ltmp137:
	.loc	2 297 6 is_stmt 1       @ ../Src/main.c:297:6
	ldrh	r0, [r6, #8]
	.loc	2 297 23 is_stmt 0      @ ../Src/main.c:297:23
	cbz	r0, .LBB1_15
@ %bb.12:
	ldrb	r1, [r6, #1]
	cmp	r1, #1
	bne	.LBB1_15
@ %bb.13:
.Ltmp138:
	.loc	2 299 6 is_stmt 1       @ ../Src/main.c:299:6
	subs	r0, #1
	movw	r1, #65535
.Ltmp139:
	.loc	2 299 6 is_stmt 0       @ ../Src/main.c:299:6
	tst	r0, r1
.Ltmp140:
	.loc	2 299 6                 @ ../Src/main.c:299:6
	strh	r0, [r6, #8]
.Ltmp141:
	.loc	2 299 6                 @ ../Src/main.c:299:6
	bne	.LBB1_15
@ %bb.14:
.Ltmp142:
	.loc	2 303 4 is_stmt 1       @ ../Src/main.c:303:4
	bl	TouchUpdate
	.loc	2 304 20                @ ../Src/main.c:304:20
	movs	r0, #5
	strh	r0, [r6, #8]
.Ltmp143:
.LBB1_15:
	.loc	2 308 5                 @ ../Src/main.c:308:5
	ldr	r0, __arm_cp.1_4
	ldr	r1, [r0]
.Ltmp144:
	.loc	2 308 5 is_stmt 0       @ ../Src/main.c:308:5
	cbz	r1, .LBB1_17
@ %bb.16:
.Ltmp145:
	.loc	2 308 20                @ ../Src/main.c:308:20
	ldr	r1, [r0]
	subs	r1, #1
	str	r1, [r0]
.Ltmp146:
.LBB1_17:
	.loc	2 309 5 is_stmt 1       @ ../Src/main.c:309:5
	ldr	r0, __arm_cp.1_5
	ldr	r1, [r0]
.Ltmp147:
	.loc	2 309 5 is_stmt 0       @ ../Src/main.c:309:5
	cbz	r1, .LBB1_19
@ %bb.18:
.Ltmp148:
	.loc	2 309 23                @ ../Src/main.c:309:23
	ldr	r1, [r0]
	subs	r1, #1
	str	r1, [r0]
.Ltmp149:
.LBB1_19:
	.loc	2 310 5 is_stmt 1       @ ../Src/main.c:310:5
	ldr	r0, __arm_cp.1_6
	ldr	r1, [r0]
.Ltmp150:
	.loc	2 310 5 is_stmt 0       @ ../Src/main.c:310:5
	cbz	r1, .LBB1_21
@ %bb.20:
.Ltmp151:
	.loc	2 310 27                @ ../Src/main.c:310:27
	ldr	r1, [r0]
	subs	r1, #1
	str	r1, [r0]
.Ltmp152:
.LBB1_21:
	.loc	2 311 5 is_stmt 1       @ ../Src/main.c:311:5
	ldr	r0, __arm_cp.1_7
	ldr	r1, [r0]
.Ltmp153:
	.loc	2 311 5 is_stmt 0       @ ../Src/main.c:311:5
	cbz	r1, .LBB1_23
@ %bb.22:
.Ltmp154:
	.loc	2 311 29                @ ../Src/main.c:311:29
	ldr	r1, [r0]
	subs	r1, #1
	str	r1, [r0]
.Ltmp155:
.LBB1_23:
	.loc	2 312 5 is_stmt 1       @ ../Src/main.c:312:5
	ldr	r0, __arm_cp.1_8
	ldr	r1, [r0]
.Ltmp156:
	.loc	2 312 5 is_stmt 0       @ ../Src/main.c:312:5
	cbz	r1, .LBB1_25
@ %bb.24:
.Ltmp157:
	.loc	2 312 20                @ ../Src/main.c:312:20
	ldr	r1, [r0]
	subs	r1, #1
	str	r1, [r0]
.Ltmp158:
.LBB1_25:
	.loc	2 313 5 is_stmt 1       @ ../Src/main.c:313:5
	ldr	r0, __arm_cp.1_9
	ldr	r1, [r0]
.Ltmp159:
	.loc	2 313 5 is_stmt 0       @ ../Src/main.c:313:5
	cbz	r1, .LBB1_27
@ %bb.26:
.Ltmp160:
	.loc	2 313 30                @ ../Src/main.c:313:30
	ldr	r1, [r0]
	subs	r1, #1
	str	r1, [r0]
.Ltmp161:
.LBB1_27:
	.loc	2 314 5 is_stmt 1       @ ../Src/main.c:314:5
	ldr	r0, __arm_cp.1_10
	ldr	r1, [r0]
.Ltmp162:
	.loc	2 314 5 is_stmt 0       @ ../Src/main.c:314:5
	cbz	r1, .LBB1_29
@ %bb.28:
.Ltmp163:
	.loc	2 314 39                @ ../Src/main.c:314:39
	ldr	r1, [r0]
	subs	r1, #1
	str	r1, [r0]
.Ltmp164:
.LBB1_29:
	.loc	2 316 5 is_stmt 1       @ ../Src/main.c:316:5
	ldr	r0, __arm_cp.1_11
	ldr	r1, [r0]
	adds	r2, r1, #1
.Ltmp165:
	.loc	2 316 5 is_stmt 0       @ ../Src/main.c:316:5
	cmp.w	r1, #1000
.Ltmp166:
	.loc	2 316 5                 @ ../Src/main.c:316:5
	str	r2, [r0]
.Ltmp167:
	.loc	2 321 1 is_stmt 1       @ ../Src/main.c:321:1
	it	lt
	poplt	{r3, r4, r5, r6, r7, pc}
.Ltmp168:
	.loc	2 318 5                 @ ../Src/main.c:318:5
	movs	r1, #0
	str	r1, [r0]
	.loc	2 319 3                 @ ../Src/main.c:319:3
	add.w	r0, r5, #59904
	movs	r1, #128
	pop.w	{r3, r4, r5, r6, r7, lr}
	b	HAL_GPIO_TogglePin
.Ltmp169:
	.p2align	2
@ %bb.30:
	.loc	2 0 3 is_stmt 0         @ ../Src/main.c:0:3
__arm_cp.1_0:
	.long	.L_MergedGlobals
.Lcpi_end20:
	.size	__arm_cp.1_0, .Lcpi_end20-__arm_cp.1_0
__arm_cp.1_1:
	.long	HAL_RTCEx_BKUPWrite
.Lcpi_end21:
	.size	__arm_cp.1_1, .Lcpi_end21-__arm_cp.1_1
__arm_cp.1_2:
	.long	.L_MergedGlobals.3
.Lcpi_end22:
	.size	__arm_cp.1_2, .Lcpi_end22-__arm_cp.1_2
__arm_cp.1_3:
	.long	1073816064              @ 0x40012200
.Lcpi_end23:
	.size	__arm_cp.1_3, .Lcpi_end23-__arm_cp.1_3
__arm_cp.1_4:
	.long	onewire_timer
.Lcpi_end24:
	.size	__arm_cp.1_4, .Lcpi_end24-__arm_cp.1_4
__arm_cp.1_5:
	.long	thermostat_timer
.Lcpi_end25:
	.size	__arm_cp.1_5, .Lcpi_end25-__arm_cp.1_5
__arm_cp.1_6:
	.long	thermostat_fan_timer
.Lcpi_end26:
	.size	__arm_cp.1_6, .Lcpi_end26-__arm_cp.1_6
__arm_cp.1_7:
	.long	thermostat_valve_timer
.Lcpi_end27:
	.size	__arm_cp.1_7, .Lcpi_end27-__arm_cp.1_7
__arm_cp.1_8:
	.long	display_timer
.Lcpi_end28:
	.size	__arm_cp.1_8, .Lcpi_end28-__arm_cp.1_8
__arm_cp.1_9:
	.long	display_date_time_timer
.Lcpi_end29:
	.size	__arm_cp.1_9, .Lcpi_end29-__arm_cp.1_9
__arm_cp.1_10:
	.long	display_doorbell_animation_timer
.Lcpi_end30:
	.size	__arm_cp.1_10, .Lcpi_end30-__arm_cp.1_10
__arm_cp.1_11:
	.long	HAL_SYSTICK_Callback.i
.Lcpi_end31:
	.size	__arm_cp.1_11, .Lcpi_end31-__arm_cp.1_11
.Lfunc_end1:
	.size	HAL_SYSTICK_Callback, .Lfunc_end1-HAL_SYSTICK_Callback
	.cfi_endproc
	.cantunwind
	.fnend
                                        @ -- End function
	.section	.text.NTC_GetResistance,"ax",%progbits
	.hidden	NTC_GetResistance       @ -- Begin function NTC_GetResistance
	.globl	NTC_GetResistance
	.p2align	3
	.type	NTC_GetResistance,%function
	.code	16                      @ @NTC_GetResistance
	.thumb_func
NTC_GetResistance:
.Lfunc_begin2:
	.loc	2 1096 0 is_stmt 1      @ ../Src/main.c:1096:0
	.fnstart
	.cfi_startproc
@ %bb.0:
	.save	{r4, r5, r7, lr}
	push	{r4, r5, r7, lr}
	.cfi_def_cfa_offset 16
	.cfi_offset lr, -4
	.cfi_offset r7, -8
	.cfi_offset r5, -12
	.cfi_offset r4, -16
	.vsave	{d8}
	vpush	{d8}
	.cfi_def_cfa_offset 24
	.cfi_offset d8, -24
	@DEBUG_VALUE: NTC_GetResistance:adc_value <- $r0
	@DEBUG_VALUE: NTC_GetResistance:adc_value <- $r0
.Ltmp170:
	.loc	2 1098 23 prologue_end  @ ../Src/main.c:1098:23
	vldr	s0, .LCPI2_0
	.loc	2 1098 26 is_stmt 0     @ ../Src/main.c:1098:26
	vmov	s2, r0
.Ltmp171:
	@DEBUG_VALUE: NTC_GetResistance:adc_value <- $s2
	vcvt.f32.u32	s16, s2
	.loc	2 1098 23               @ ../Src/main.c:1098:23
	vmul.f32	s0, s16, s0
	.loc	2 1098 12               @ ../Src/main.c:1098:12
	vmov	r0, s0
	bl	__aeabi_f2d
.Ltmp172:
	mov	r4, r0
	.loc	2 1098 58               @ ../Src/main.c:1098:58
	vmov	r0, s16
	.loc	2 1098 12               @ ../Src/main.c:1098:12
	mov	r5, r1
	.loc	2 1098 58               @ ../Src/main.c:1098:58
	bl	__aeabi_f2d
	.loc	2 1098 56               @ ../Src/main.c:1098:56
	vldr	d0, .LCPI2_1
	.loc	2 1098 58               @ ../Src/main.c:1098:58
	mov	r2, r0
	mov	r3, r1
	.loc	2 1098 56               @ ../Src/main.c:1098:56
	vmov	r0, r1, d0
	bl	__aeabi_dsub
	mov	r2, r0
	mov	r3, r1
	.loc	2 1098 44               @ ../Src/main.c:1098:44
	mov	r0, r4
	mov	r1, r5
	bl	__aeabi_ddiv
	.loc	2 1098 12               @ ../Src/main.c:1098:12
	bl	__aeabi_d2f
	vmov	s0, r0
.Ltmp173:
	@DEBUG_VALUE: NTC_GetResistance:ntc_res <- $s0
	.loc	2 1099 2 is_stmt 1      @ ../Src/main.c:1099:2
	vpop	{d8}
	pop	{r4, r5, r7, pc}
.Ltmp174:
	.p2align	3
@ %bb.1:
	.loc	2 0 2 is_stmt 0         @ ../Src/main.c:0:2
.LCPI2_1:
	.long	0                       @ double 4095
	.long	1085275648
.LCPI2_0:
	.long	1176256512              @ float 1.0E+4
.Lfunc_end2:
	.size	NTC_GetResistance, .Lfunc_end2-NTC_GetResistance
	.cfi_endproc
	.cantunwind
	.fnend
                                        @ -- End function
	.section	.text.NTC_GetTemperature,"ax",%progbits
	.hidden	NTC_GetTemperature      @ -- Begin function NTC_GetTemperature
	.globl	NTC_GetTemperature
	.p2align	3
	.type	NTC_GetTemperature,%function
	.code	16                      @ @NTC_GetTemperature
	.thumb_func
NTC_GetTemperature:
.Lfunc_begin3:
	.loc	2 1104 0 is_stmt 1      @ ../Src/main.c:1104:0
	.fnstart
	.cfi_startproc
@ %bb.0:
	.save	{r7, lr}
	push	{r7, lr}
	.cfi_def_cfa_offset 8
	.cfi_offset lr, -4
	.cfi_offset r7, -8
	@DEBUG_VALUE: NTC_GetTemperature:ntc_resistance <- $s0
	@DEBUG_VALUE: NTC_GetTemperature:ntc_resistance <- $s0
.Ltmp175:
	.loc	2 1106 45 prologue_end  @ ../Src/main.c:1106:45
	vldr	s2, .LCPI3_0
	vdiv.f32	s0, s0, s2
.Ltmp176:
	.loc	2 1106 30 is_stmt 0     @ ../Src/main.c:1106:30
	vmov	r0, s0
	bl	__aeabi_f2d
	vmov	d0, r0, r1
	.loc	2 1106 25               @ ../Src/main.c:1106:25
	bl	__hardfp_log
	.loc	2 1106 58               @ ../Src/main.c:1106:58
	vldr	d1, .LCPI3_1
	vmov	r0, r1, d0
	vmov	r2, r3, d1
	bl	__aeabi_ddiv
	.loc	2 1106 73               @ ../Src/main.c:1106:73
	vldr	d0, .LCPI3_2
	vmov	r2, r3, d0
	bl	__aeabi_dadd
	.loc	2 1106 21               @ ../Src/main.c:1106:21
	vldr	d0, .LCPI3_3
	.loc	2 1106 73               @ ../Src/main.c:1106:73
	mov	r2, r0
	mov	r3, r1
	.loc	2 1106 21               @ ../Src/main.c:1106:21
	vmov	r0, r1, d0
	bl	__aeabi_ddiv
	.loc	2 1106 89               @ ../Src/main.c:1106:89
	vldr	d0, .LCPI3_4
	vmov	r2, r3, d0
	bl	__aeabi_dadd
	.loc	2 1106 16               @ ../Src/main.c:1106:16
	bl	__aeabi_d2f
	vmov	s0, r0
.Ltmp177:
	@DEBUG_VALUE: NTC_GetTemperature:temperature <- $s0
	.loc	2 1107 2 is_stmt 1      @ ../Src/main.c:1107:2
	pop	{r7, pc}
.Ltmp178:
	.p2align	3
@ %bb.1:
	.loc	2 0 2 is_stmt 0         @ ../Src/main.c:0:2
.LCPI3_1:
	.long	0                       @ double 3977
	.long	1085215232
.LCPI3_2:
	.long	1037710219              @ double 0.0033557046979865771
	.long	1064009068
.LCPI3_3:
	.long	0                       @ double 1
	.long	1072693248
.LCPI3_4:
	.long	0                       @ double -273
	.long	3228635136
.LCPI3_0:
	.long	1176256512              @ float 1.0E+4
.Lfunc_end3:
	.size	NTC_GetTemperature, .Lfunc_end3-NTC_GetTemperature
	.cfi_endproc
	.cantunwind
	.fnend
                                        @ -- End function
	.section	.text.TouchUpdate,"ax",%progbits
	.hidden	TouchUpdate             @ -- Begin function TouchUpdate
	.globl	TouchUpdate
	.p2align	2
	.type	TouchUpdate,%function
	.code	16                      @ @TouchUpdate
	.thumb_func
TouchUpdate:
.Lfunc_begin4:
	.loc	2 999 0 is_stmt 1       @ ../Src/main.c:999:0
	.fnstart
	.cfi_startproc
@ %bb.0:
	.save	{r4, r5, r6, r7, lr}
	push	{r4, r5, r6, r7, lr}
	.cfi_def_cfa_offset 20
	.cfi_offset lr, -4
	.cfi_offset r7, -8
	.cfi_offset r6, -12
	.cfi_offset r5, -16
	.cfi_offset r4, -20
	.pad	#44
	sub	sp, #44
	.cfi_def_cfa_offset 64
	mov	r0, sp
.Ltmp179:
	@DEBUG_VALUE: TouchUpdate:ts <- [$sp+0]
	.loc	2 1004 2 prologue_end   @ ../Src/main.c:1004:2
	bl	BSP_TS_GetState
.Ltmp180:
	.loc	2 1006 6                @ ../Src/main.c:1006:6
	ldrh.w	r4, [sp, #2]
	.loc	2 1006 22 is_stmt 0     @ ../Src/main.c:1006:22
	bl	LCD_GetXSize
	.loc	2 1006 38               @ ../Src/main.c:1006:38
	cmp	r0, r4
	ble	.LBB4_2
.Ltmp181:
@ %bb.1:
	@DEBUG_VALUE: TouchUpdate:ts <- [$sp+0]
	.loc	2 1006 41               @ ../Src/main.c:1006:41
	ldrh.w	r4, [sp, #12]
	.loc	2 1006 57               @ ../Src/main.c:1006:57
	bl	LCD_GetYSize
.Ltmp182:
	.loc	2 1006 5                @ ../Src/main.c:1006:5
	cmp	r0, r4
	bgt	.LBB4_3
.Ltmp183:
.LBB4_2:
	@DEBUG_VALUE: TouchUpdate:ts <- [$sp+0]
	.loc	2 0 5                   @ ../Src/main.c:0:5
	movs	r0, #0
.Ltmp184:
	.loc	2 1008 16 is_stmt 1     @ ../Src/main.c:1008:16
	strh.w	r0, [sp, #2]
	.loc	2 1009 16               @ ../Src/main.c:1009:16
	strh.w	r0, [sp, #12]
	.loc	2 1010 20               @ ../Src/main.c:1010:20
	strb.w	r0, [sp]
.Ltmp185:
.LBB4_3:
	@DEBUG_VALUE: TouchUpdate:ts <- [$sp+0]
	.loc	2 1013 20               @ ../Src/main.c:1013:20
	ldr	r7, __arm_cp.4_0
	ldrd	r1, r2, [r7]
	.loc	2 1013 24 is_stmt 0     @ ../Src/main.c:1013:24
	ldrh.w	r3, [sp, #2]
	ldrh.w	r4, [sp, #2]
	.loc	2 1014 24 is_stmt 1     @ ../Src/main.c:1014:24
	ldrh.w	r5, [sp, #12]
	ldrh.w	r6, [sp, #12]
	.loc	2 1014 84 is_stmt 0     @ ../Src/main.c:1014:84
	subs	r0, r6, r2
	.loc	2 1014 10               @ ../Src/main.c:1014:10
	cmp	r2, r5
	it	gt
	subgt	r0, r2, r6
	.loc	2 1013 84 is_stmt 1     @ ../Src/main.c:1013:84
	subs	r2, r4, r1
	.loc	2 1013 10 is_stmt 0     @ ../Src/main.c:1013:10
	cmp	r1, r3
	it	gt
	subgt	r2, r1, r4
.Ltmp186:
	.loc	2 1017 45 is_stmt 1     @ ../Src/main.c:1017:45
	ldrb	r1, [r7, #8]
	.loc	2 1017 49 is_stmt 0     @ ../Src/main.c:1017:49
	uxth	r3, r2
	.loc	2 1017 45               @ ../Src/main.c:1017:45
	ldrb.w	r2, [sp]
	cmp	r3, #30
	bhi	.LBB4_6
.Ltmp187:
@ %bb.4:
	@DEBUG_VALUE: TouchUpdate:ts <- [$sp+0]
	cmp	r1, r2
	bne	.LBB4_6
.Ltmp188:
@ %bb.5:
	@DEBUG_VALUE: TouchUpdate:ts <- [$sp+0]
	.loc	2 0 45                  @ ../Src/main.c:0:45
	uxth	r0, r0
	.loc	2 1017 45               @ ../Src/main.c:1017:45
	cmp	r0, #31
	blo	.LBB4_9
.Ltmp189:
.LBB4_6:
	@DEBUG_VALUE: TouchUpdate:ts <- [$sp+0]
	.loc	2 1019 25 is_stmt 1     @ ../Src/main.c:1019:25
	ldrb.w	r0, [sp]
	.loc	2 1019 20 is_stmt 0     @ ../Src/main.c:1019:20
	strb	r0, [r7, #8]
	.loc	2 1020 20 is_stmt 1     @ ../Src/main.c:1020:20
	ldr	r0, __arm_cp.4_1
	ldrb	r0, [r0]
	.loc	2 1020 18 is_stmt 0     @ ../Src/main.c:1020:18
	strb	r0, [r7, #9]
.Ltmp190:
	.loc	2 1022 9 is_stmt 1      @ ../Src/main.c:1022:9
	ldrb.w	r0, [sp]
.Ltmp191:
	.loc	2 1022 6 is_stmt 0      @ ../Src/main.c:1022:6
	cbz	r0, .LBB4_8
.Ltmp192:
@ %bb.7:
	@DEBUG_VALUE: TouchUpdate:ts <- [$sp+0]
	.loc	2 1024 17 is_stmt 1     @ ../Src/main.c:1024:17
	ldrh.w	r0, [sp, #2]
	.loc	2 1025 17               @ ../Src/main.c:1025:17
	ldrh.w	r1, [sp, #12]
	.loc	2 1024 15               @ ../Src/main.c:1024:15
	strd	r0, r1, [r7]
	.loc	2 1026 4                @ ../Src/main.c:1026:4
	mov	r0, r7
	bl	GUI_TOUCH_StoreStateEx
	b	.LBB4_9
.Ltmp193:
.LBB4_8:
	@DEBUG_VALUE: TouchUpdate:ts <- [$sp+0]
	.loc	2 1030 4                @ ../Src/main.c:1030:4
	mov	r0, r7
	bl	GUI_TOUCH_StoreStateEx
	movs	r0, #0
	.loc	2 1031 15               @ ../Src/main.c:1031:15
	strd	r0, r0, [r7]
.Ltmp194:
.LBB4_9:
	@DEBUG_VALUE: TouchUpdate:ts <- [$sp+0]
	.loc	2 1035 1                @ ../Src/main.c:1035:1
	add	sp, #44
.Ltmp195:
	pop	{r4, r5, r6, r7, pc}
.Ltmp196:
	.p2align	2
@ %bb.10:
	.loc	2 0 1 is_stmt 0         @ ../Src/main.c:0:1
__arm_cp.4_0:
	.long	TouchUpdate.TS_State
.Lcpi_end32:
	.size	__arm_cp.4_0, .Lcpi_end32-__arm_cp.4_0
__arm_cp.4_1:
	.long	SelLayer
.Lcpi_end33:
	.size	__arm_cp.4_1, .Lcpi_end33-__arm_cp.4_1
.Lfunc_end4:
	.size	TouchUpdate, .Lfunc_end4-TouchUpdate
	.cfi_endproc
	.cantunwind
	.fnend
                                        @ -- End function
	.section	.text.RTC_GetDateTime,"ax",%progbits
	.hidden	RTC_GetDateTime         @ -- Begin function RTC_GetDateTime
	.globl	RTC_GetDateTime
	.p2align	2
	.type	RTC_GetDateTime,%function
	.code	16                      @ @RTC_GetDateTime
	.thumb_func
RTC_GetDateTime:
.Lfunc_begin5:
	.loc	2 410 0 is_stmt 1       @ ../Src/main.c:410:0
	.fnstart
	.cfi_startproc
@ %bb.0:
	.save	{r4, r5, r6, lr}
	push	{r4, r5, r6, lr}
	.cfi_def_cfa_offset 16
	.cfi_offset lr, -4
	.cfi_offset r6, -8
	.cfi_offset r5, -12
	.cfi_offset r4, -16
	@DEBUG_VALUE: RTC_GetDateTime:data <- $r0
	@DEBUG_VALUE: RTC_GetDateTime:format <- $r1
.Ltmp197:
	.loc	2 414 6 prologue_end    @ ../Src/main.c:414:6
	cmp	r1, #0
	mov	r5, r1
.Ltmp198:
	.loc	2 420 3                 @ ../Src/main.c:420:3
	ldr	r1, __arm_cp.5_0
.Ltmp199:
	.loc	2 0 3 is_stmt 0         @ ../Src/main.c:0:3
	mov	r4, r0
.Ltmp200:
	@DEBUG_VALUE: RTC_GetDateTime:format <- $r5
	@DEBUG_VALUE: RTC_GetDateTime:data <- $r4
	.loc	2 420 3                 @ ../Src/main.c:420:3
	ite	ne
	movne	r2, #1
.Ltmp201:
	.loc	2 416 3 is_stmt 1       @ ../Src/main.c:416:3
	moveq	r2, #0
.Ltmp202:
	.loc	2 420 3                 @ ../Src/main.c:420:3
	add.w	r0, r1, #76
	adds	r1, #52
	bl	HAL_RTC_GetTime
.Ltmp203:
	.loc	2 424 21                @ ../Src/main.c:424:21
	ldr	r6, __arm_cp.5_0
	.loc	2 432 6                 @ ../Src/main.c:432:6
	cmp	r5, #0
	.loc	2 424 21                @ ../Src/main.c:424:21
	ldrb.w	r0, [r6, #52]
.Ltmp204:
	.loc	2 438 3                 @ ../Src/main.c:438:3
	add.w	r1, r6, #10
.Ltmp205:
	.loc	2 424 14                @ ../Src/main.c:424:14
	strb	r0, [r4, #5]
	.loc	2 425 23                @ ../Src/main.c:425:23
	ldrb.w	r0, [r6, #53]
	.loc	2 425 16 is_stmt 0      @ ../Src/main.c:425:16
	strb	r0, [r4, #4]
	.loc	2 426 23 is_stmt 1      @ ../Src/main.c:426:23
	ldrb.w	r0, [r6, #54]
	.loc	2 426 16 is_stmt 0      @ ../Src/main.c:426:16
	strb	r0, [r4]
	.loc	2 429 26 is_stmt 1      @ ../Src/main.c:429:26
	ldr	r0, __arm_cp.5_1
	ldr	r0, [r0]
	.loc	2 429 19 is_stmt 0      @ ../Src/main.c:429:19
	strh	r0, [r4, #2]
.Ltmp206:
	.loc	2 438 3 is_stmt 1       @ ../Src/main.c:438:3
	add.w	r0, r6, #76
	ite	ne
	movne	r2, #1
.Ltmp207:
	.loc	2 434 3                 @ ../Src/main.c:434:3
	moveq	r2, #0
	bl	HAL_RTC_GetDate
.Ltmp208:
	.loc	2 442 20                @ ../Src/main.c:442:20
	ldrb	r0, [r6, #13]
	.loc	2 442 13 is_stmt 0      @ ../Src/main.c:442:13
	strb	r0, [r4, #9]
	.loc	2 443 21 is_stmt 1      @ ../Src/main.c:443:21
	ldrb	r0, [r6, #11]
	.loc	2 443 14 is_stmt 0      @ ../Src/main.c:443:14
	strb	r0, [r4, #8]
	.loc	2 444 20 is_stmt 1      @ ../Src/main.c:444:20
	ldrb	r0, [r6, #12]
	.loc	2 444 13 is_stmt 0      @ ../Src/main.c:444:13
	strb	r0, [r4, #7]
	.loc	2 445 19 is_stmt 1      @ ../Src/main.c:445:19
	ldrb	r0, [r6, #10]
	.loc	2 445 12 is_stmt 0      @ ../Src/main.c:445:12
	strb	r0, [r4, #6]
	.loc	2 448 9 is_stmt 1       @ ../Src/main.c:448:9
	mov	r0, r4
	bl	RTC_GetUnixTimeStamp
.Ltmp209:
	@DEBUG_VALUE: RTC_GetDateTime:unix <- $r0
	.loc	2 449 13                @ ../Src/main.c:449:13
	str	r0, [r4, #12]
	.loc	2 450 1                 @ ../Src/main.c:450:1
	pop	{r4, r5, r6, pc}
.Ltmp210:
	.p2align	2
@ %bb.1:
	.loc	2 0 1 is_stmt 0         @ ../Src/main.c:0:1
__arm_cp.5_0:
	.long	.L_MergedGlobals
.Lcpi_end34:
	.size	__arm_cp.5_0, .Lcpi_end34-__arm_cp.5_0
__arm_cp.5_1:
	.long	1073752104              @ 0x40002828
.Lcpi_end35:
	.size	__arm_cp.5_1, .Lcpi_end35-__arm_cp.5_1
.Lfunc_end5:
	.size	RTC_GetDateTime, .Lfunc_end5-RTC_GetDateTime
	.cfi_endproc
	.cantunwind
	.fnend
                                        @ -- End function
	.section	.text.RTC_GetUnixTimeStamp,"ax",%progbits
	.hidden	RTC_GetUnixTimeStamp    @ -- Begin function RTC_GetUnixTimeStamp
	.globl	RTC_GetUnixTimeStamp
	.p2align	2
	.type	RTC_GetUnixTimeStamp,%function
	.code	16                      @ @RTC_GetUnixTimeStamp
	.thumb_func
RTC_GetUnixTimeStamp:
.Lfunc_begin6:
	.loc	2 454 0 is_stmt 1       @ ../Src/main.c:454:0
	.fnstart
	.cfi_startproc
@ %bb.0:
	.save	{r4, r5, r6, r7, r8, lr}
	push.w	{r4, r5, r6, r7, r8, lr}
	.cfi_def_cfa_offset 24
	.cfi_offset lr, -4
	.cfi_offset r8, -8
	.cfi_offset r7, -12
	.cfi_offset r6, -16
	.cfi_offset r5, -20
	.cfi_offset r4, -24
	@DEBUG_VALUE: RTC_GetUnixTimeStamp:data <- $r0
	@DEBUG_VALUE: RTC_GetUnixTimeStamp:data <- $r0
.Ltmp211:
	@DEBUG_VALUE: RTC_GetUnixTimeStamp:days <- 0
	@DEBUG_VALUE: RTC_GetUnixTimeStamp:seconds <- 0
	.loc	2 457 36 prologue_end   @ ../Src/main.c:457:36
	ldrb.w	r12, [r0, #9]
	movw	r3, #1970
	movs	r1, #0
.Ltmp212:
	@DEBUG_VALUE: RTC_GetUnixTimeStamp:i <- 1970
	.loc	2 0 36 is_stmt 0        @ ../Src/main.c:0:36
	movs	r2, #100
	movw	r8, #365
	mov.w	r5, #400
	.loc	2 457 41                @ ../Src/main.c:457:41
	add.w	lr, r12, #2000
	b	.LBB6_2
.Ltmp213:
.LBB6_1:                                @   in Loop: Header=BB6_2 Depth=1
	@DEBUG_VALUE: RTC_GetUnixTimeStamp:i <- $r6
	@DEBUG_VALUE: RTC_GetUnixTimeStamp:data <- $r0
	@DEBUG_VALUE: RTC_GetUnixTimeStamp:days <- $r1
	.loc	2 468 11 is_stmt 1      @ ../Src/main.c:468:11
	udiv	r7, r6, r2
	tst.w	r6, #3
	movw	r4, #365
.Ltmp214:
	.loc	2 466 39                @ ../Src/main.c:466:39
	add.w	r3, r3, #1
.Ltmp215:
	.loc	2 468 11                @ ../Src/main.c:468:11
	mls	r7, r7, r2, r6
	it	eq
	moveq.w	r4, #366
	cmp	r7, #0
	udiv	r7, r6, r5
	mls	r6, r7, r5, r6
.Ltmp216:
	it	eq
	moveq	r4, r8
	cmp	r6, #0
	it	eq
	moveq.w	r4, #366
	.loc	2 468 8 is_stmt 0       @ ../Src/main.c:468:8
	add	r1, r4
.Ltmp217:
	@DEBUG_VALUE: RTC_GetUnixTimeStamp:days <- $r1
.LBB6_2:                                @ =>This Inner Loop Header: Depth=1
	@DEBUG_VALUE: RTC_GetUnixTimeStamp:data <- $r0
	.loc	2 466 28 is_stmt 1      @ ../Src/main.c:466:28
	uxth	r6, r3
.Ltmp218:
	@DEBUG_VALUE: RTC_GetUnixTimeStamp:i <- $r6
	.loc	2 466 2 is_stmt 0       @ ../Src/main.c:466:2
	cmp	lr, r6
	bhi	.LBB6_1
.Ltmp219:
@ %bb.3:
	@DEBUG_VALUE: RTC_GetUnixTimeStamp:i <- $r6
	@DEBUG_VALUE: RTC_GetUnixTimeStamp:data <- $r0
	@DEBUG_VALUE: RTC_GetUnixTimeStamp:i <- 1
	.loc	2 0 2                   @ ../Src/main.c:0:2
	movs	r2, #100
	ldr	r6, __arm_cp.6_1
	udiv	r3, lr, r2
	mls	r2, r3, r2, lr
	and	r3, r12, #3
	cmp	r2, #0
	clz	r3, r3
	it	ne
	movne	r2, #1
	lsrs	r3, r3, #5
	ands	r2, r3
	mov.w	r3, #400
	udiv	r7, lr, r3
	mls	r3, r7, r3, lr
	clz	r3, r3
	lsrs	r3, r3, #5
	orr.w	r7, r3, r2
	ldrb	r2, [r0, #8]
	movs	r3, #1
	orr.w	r7, r7, r7, lsl #1
	add.w	r5, r6, r7, lsl #2
	b	.LBB6_5
.Ltmp220:
.LBB6_4:                                @   in Loop: Header=BB6_5 Depth=1
	@DEBUG_VALUE: RTC_GetUnixTimeStamp:i <- $r6
	@DEBUG_VALUE: RTC_GetUnixTimeStamp:data <- $r0
	.loc	2 474 11 is_stmt 1      @ ../Src/main.c:474:11
	adds	r7, r5, r6
.Ltmp221:
	.loc	2 472 32                @ ../Src/main.c:472:32
	adds	r3, #1
.Ltmp222:
	.loc	2 474 11                @ ../Src/main.c:474:11
	ldrb	r7, [r7, #-1]
	.loc	2 474 8 is_stmt 0       @ ../Src/main.c:474:8
	add	r1, r7
.Ltmp223:
	@DEBUG_VALUE: RTC_GetUnixTimeStamp:days <- $r1
.LBB6_5:                                @ =>This Inner Loop Header: Depth=1
	@DEBUG_VALUE: RTC_GetUnixTimeStamp:data <- $r0
	.loc	2 472 14 is_stmt 1      @ ../Src/main.c:472:14
	uxth	r6, r3
.Ltmp224:
	@DEBUG_VALUE: RTC_GetUnixTimeStamp:i <- $r6
	.loc	2 472 2 is_stmt 0       @ ../Src/main.c:472:2
	cmp	r6, r2
	blo	.LBB6_4
.Ltmp225:
@ %bb.6:
	@DEBUG_VALUE: RTC_GetUnixTimeStamp:i <- $r6
	@DEBUG_VALUE: RTC_GetUnixTimeStamp:data <- $r0
	@DEBUG_VALUE: RTC_GetUnixTimeStamp:days <- $r1
	.loc	2 482 13 is_stmt 1      @ ../Src/main.c:482:13
	ldrb	r2, [r0]
	.loc	2 481 13                @ ../Src/main.c:481:13
	ldrb	r3, [r0, #4]
	.loc	2 480 13                @ ../Src/main.c:480:13
	ldrb	r7, [r0, #5]
	.loc	2 478 10                @ ../Src/main.c:478:10
	ldrb	r0, [r0, #7]
.Ltmp226:
	.loc	2 480 25                @ ../Src/main.c:480:25
	mov.w	r6, #3600
.Ltmp227:
	.loc	2 478 21                @ ../Src/main.c:478:21
	add	r0, r1
	.loc	2 478 7 is_stmt 0       @ ../Src/main.c:478:7
	movw	r1, #675
.Ltmp228:
	.loc	2 480 25 is_stmt 1      @ ../Src/main.c:480:25
	smulbb	r7, r7, r6
	.loc	2 478 7                 @ ../Src/main.c:478:7
	muls	r0, r1, r0
	.loc	2 481 27                @ ../Src/main.c:481:27
	rsb	r1, r3, r3, lsl #4
	.loc	2 479 17                @ ../Src/main.c:479:17
	add.w	r0, r7, r0, lsl #7
	.loc	2 480 10                @ ../Src/main.c:480:10
	add.w	r0, r0, r1, lsl #2
	.loc	2 479 17                @ ../Src/main.c:479:17
	ldr	r1, __arm_cp.6_0
	.loc	2 481 10                @ ../Src/main.c:481:10
	add	r0, r2
	.loc	2 482 10                @ ../Src/main.c:482:10
	add	r0, r1
.Ltmp229:
	@DEBUG_VALUE: RTC_GetUnixTimeStamp:seconds <- $r0
	.loc	2 486 1                 @ ../Src/main.c:486:1
	pop.w	{r4, r5, r6, r7, r8, pc}
.Ltmp230:
	.p2align	2
@ %bb.7:
	.loc	2 0 1 is_stmt 0         @ ../Src/main.c:0:1
__arm_cp.6_0:
	.long	4294880896              @ 0xfffeae80
.Lcpi_end36:
	.size	__arm_cp.6_0, .Lcpi_end36-__arm_cp.6_0
__arm_cp.6_1:
	.long	RTC_Months
.Lcpi_end37:
	.size	__arm_cp.6_1, .Lcpi_end37-__arm_cp.6_1
.Lfunc_end6:
	.size	RTC_GetUnixTimeStamp, .Lfunc_end6-RTC_GetUnixTimeStamp
	.cfi_endproc
	.cantunwind
	.fnend
                                        @ -- End function
	.section	.text.RTC_GetDateTimeFromUnix,"ax",%progbits
	.hidden	RTC_GetDateTimeFromUnix @ -- Begin function RTC_GetDateTimeFromUnix
	.globl	RTC_GetDateTimeFromUnix
	.p2align	2
	.type	RTC_GetDateTimeFromUnix,%function
	.code	16                      @ @RTC_GetDateTimeFromUnix
	.thumb_func
RTC_GetDateTimeFromUnix:
.Lfunc_begin7:
	.loc	2 490 0 is_stmt 1       @ ../Src/main.c:490:0
	.fnstart
	.cfi_startproc
@ %bb.0:
	.save	{r4, r5, r6, r7, lr}
	push	{r4, r5, r6, r7, lr}
	.cfi_def_cfa_offset 20
	.cfi_offset lr, -4
	.cfi_offset r7, -8
	.cfi_offset r6, -12
	.cfi_offset r5, -16
	.cfi_offset r4, -20
	@DEBUG_VALUE: RTC_GetDateTimeFromUnix:data <- $r0
	@DEBUG_VALUE: RTC_GetDateTimeFromUnix:data <- $r0
	@DEBUG_VALUE: RTC_GetDateTimeFromUnix:unix <- $r1
	@DEBUG_VALUE: RTC_GetDateTimeFromUnix:unix <- $r1
.Ltmp231:
	.loc	2 498 7 prologue_end    @ ../Src/main.c:498:7
	movs	r2, #60
	.loc	2 494 13                @ ../Src/main.c:494:13
	str	r1, [r0, #12]
	ldr	r4, __arm_cp.7_2
	ldr	r5, __arm_cp.7_1
	mov.w	r12, #400
	.loc	2 498 7                 @ ../Src/main.c:498:7
	udiv	r3, r1, r2
.Ltmp232:
	@DEBUG_VALUE: RTC_GetDateTimeFromUnix:unix <- $r3
	.loc	2 500 23                @ ../Src/main.c:500:23
	udiv	r2, r3, r2
	rsb	r7, r3, r3, lsl #4
	rsb	r2, r2, r2, lsl #4
	sub.w	r7, r1, r7, lsl #2
	sub.w	r2, r3, r2, lsl #2
	.loc	2 496 16                @ ../Src/main.c:496:16
	strb	r7, [r0]
	.loc	2 504 21                @ ../Src/main.c:504:21
	movs	r3, #24
.Ltmp233:
	.loc	2 0 21 is_stmt 0        @ ../Src/main.c:0:21
	mov	lr, r4
	.loc	2 500 16 is_stmt 1      @ ../Src/main.c:500:16
	strb	r2, [r0, #4]
	.loc	2 502 7                 @ ../Src/main.c:502:7
	mov.w	r2, #3600
	udiv	r2, r1, r2
.Ltmp234:
	@DEBUG_VALUE: RTC_GetDateTimeFromUnix:unix <- $r2
	.loc	2 504 21                @ ../Src/main.c:504:21
	udiv	r3, r2, r3
	add.w	r3, r3, r3, lsl #1
	sub.w	r2, r2, r3, lsl #3
.Ltmp235:
	.loc	2 510 25                @ ../Src/main.c:510:25
	movs	r3, #7
	.loc	2 504 14                @ ../Src/main.c:504:14
	strb	r2, [r0, #5]
	.loc	2 506 7                 @ ../Src/main.c:506:7
	ldr	r2, __arm_cp.7_0
	udiv	r1, r1, r2
.Ltmp236:
	@DEBUG_VALUE: RTC_GetDateTimeFromUnix:unix <- $r1
	.loc	2 510 20                @ ../Src/main.c:510:20
	adds	r2, r1, #3
	.loc	2 510 25 is_stmt 0      @ ../Src/main.c:510:25
	udiv	r3, r2, r3
	rsb	r3, r3, r3, lsl #3
	subs	r2, r2, r3
	movs	r3, #100
	.loc	2 510 14                @ ../Src/main.c:510:14
	adds	r2, #1
	.loc	2 510 12                @ ../Src/main.c:510:12
	strb	r2, [r0, #6]
	movw	r2, #1970
.Ltmp237:
	@DEBUG_VALUE: RTC_GetDateTimeFromUnix:year <- 1970
	.loc	2 0 12                  @ ../Src/main.c:0:12
	b	.LBB7_2
.Ltmp238:
.LBB7_1:                                @   in Loop: Header=BB7_2 Depth=1
	@DEBUG_VALUE: RTC_GetDateTimeFromUnix:unix <- $r1
	@DEBUG_VALUE: RTC_GetDateTimeFromUnix:data <- $r0
	add	r1, r6
.Ltmp239:
	@DEBUG_VALUE: RTC_GetDateTimeFromUnix:unix <- $r1
	.loc	2 535 7 is_stmt 1       @ ../Src/main.c:535:7
	adds	r2, #1
.Ltmp240:
.LBB7_2:                                @ =>This Inner Loop Header: Depth=1
	@DEBUG_VALUE: RTC_GetDateTimeFromUnix:unix <- $r1
	@DEBUG_VALUE: RTC_GetDateTimeFromUnix:data <- $r0
	.loc	2 516 7                 @ ../Src/main.c:516:7
	uxth	r6, r2
.Ltmp241:
	@DEBUG_VALUE: RTC_GetDateTimeFromUnix:year <- $r6
	udiv	r4, r6, r12
	mls	r7, r4, r12, r6
	udiv	r4, r6, r3
	mls	r4, r4, r3, r6
	cmp	r4, #0
	it	ne
	movne	r4, #1
	cbz	r7, .LBB7_5
.Ltmp242:
@ %bb.3:                                @   in Loop: Header=BB7_2 Depth=1
	@DEBUG_VALUE: RTC_GetDateTimeFromUnix:year <- $r6
	@DEBUG_VALUE: RTC_GetDateTimeFromUnix:unix <- $r1
	@DEBUG_VALUE: RTC_GetDateTimeFromUnix:data <- $r0
	and	r7, r2, #3
	clz	r7, r7
	lsrs	r7, r7, #5
	ands	r7, r4
	bne	.LBB7_5
.Ltmp243:
@ %bb.4:                                @   in Loop: Header=BB7_2 Depth=1
	@DEBUG_VALUE: RTC_GetDateTimeFromUnix:year <- $r6
	@DEBUG_VALUE: RTC_GetDateTimeFromUnix:unix <- $r1
	@DEBUG_VALUE: RTC_GetDateTimeFromUnix:data <- $r0
	@DEBUG_VALUE: RTC_GetDateTimeFromUnix:unix <- $r1
	.loc	2 527 12                @ ../Src/main.c:527:12
	cmp.w	r1, #364
	mov	r6, r5
.Ltmp244:
	.loc	2 0 12 is_stmt 0        @ ../Src/main.c:0:12
	bhi	.LBB7_1
	b	.LBB7_7
.Ltmp245:
.LBB7_5:                                @   in Loop: Header=BB7_2 Depth=1
	@DEBUG_VALUE: RTC_GetDateTimeFromUnix:year <- $r6
	@DEBUG_VALUE: RTC_GetDateTimeFromUnix:unix <- $r1
	@DEBUG_VALUE: RTC_GetDateTimeFromUnix:data <- $r0
	.loc	2 518 8 is_stmt 1       @ ../Src/main.c:518:8
	lsrs	r7, r1, #1
	mov	r6, lr
.Ltmp246:
	.loc	2 0 8 is_stmt 0         @ ../Src/main.c:0:8
	mov	r4, lr
	.loc	2 518 8                 @ ../Src/main.c:518:8
	cmp	r7, #182
	bhi	.LBB7_1
.Ltmp247:
@ %bb.6:
	@DEBUG_VALUE: RTC_GetDateTimeFromUnix:unix <- $r1
	@DEBUG_VALUE: RTC_GetDateTimeFromUnix:data <- $r0
	.loc	2 0 8                   @ ../Src/main.c:0:8
	movs	r3, #1
	b	.LBB7_8
.Ltmp248:
.LBB7_7:
	@DEBUG_VALUE: RTC_GetDateTimeFromUnix:unix <- $r1
	@DEBUG_VALUE: RTC_GetDateTimeFromUnix:data <- $r0
	movs	r3, #0
.Ltmp249:
.LBB7_8:
	@DEBUG_VALUE: RTC_GetDateTimeFromUnix:unix <- $r1
	@DEBUG_VALUE: RTC_GetDateTimeFromUnix:data <- $r0
	ldr	r5, __arm_cp.7_3
	.loc	2 539 15 is_stmt 1      @ ../Src/main.c:539:15
	adds	r2, #48
	.loc	2 539 13 is_stmt 0      @ ../Src/main.c:539:13
	strb	r2, [r0, #9]
	movs	r2, #0
	b	.LBB7_11
.Ltmp250:
.LBB7_9:                                @   in Loop: Header=BB7_11 Depth=1
	@DEBUG_VALUE: RTC_GetDateTimeFromUnix:unix <- $r1
	@DEBUG_VALUE: RTC_GetDateTimeFromUnix:data <- $r0
	.loc	2 544 7 is_stmt 1       @ ../Src/main.c:544:7
	cmp	r3, #0
	@DEBUG_VALUE: RTC_GetDateTimeFromUnix:unix <- $r1
.Ltmp251:
	.loc	2 555 20                @ ../Src/main.c:555:20
	itee	eq
	ldrbeq	r4, [r5, r2]
.Ltmp252:
	.loc	2 546 26                @ ../Src/main.c:546:26
	addne	r7, r5, r2
	.loc	2 546 16 is_stmt 0      @ ../Src/main.c:546:16
	ldrbne	r4, [r7, #12]
	cmp	r1, r4
	blo	.LBB7_12
.Ltmp253:
@ %bb.10:                               @   in Loop: Header=BB7_11 Depth=1
	@DEBUG_VALUE: RTC_GetDateTimeFromUnix:unix <- $r1
	@DEBUG_VALUE: RTC_GetDateTimeFromUnix:data <- $r0
	.loc	2 0 16                  @ ../Src/main.c:0:16
	subs	r1, r1, r4
.Ltmp254:
	@DEBUG_VALUE: RTC_GetDateTimeFromUnix:unix <- $r1
	.loc	2 542 53 is_stmt 1      @ ../Src/main.c:542:53
	adds	r2, #1
.Ltmp255:
.LBB7_11:                               @ =>This Inner Loop Header: Depth=1
	@DEBUG_VALUE: RTC_GetDateTimeFromUnix:unix <- $r1
	@DEBUG_VALUE: RTC_GetDateTimeFromUnix:data <- $r0
	.loc	2 542 2 is_stmt 0       @ ../Src/main.c:542:2
	cmp	r2, #11
	strb	r2, [r0, #8]
	bls	.LBB7_9
.Ltmp256:
.LBB7_12:
	@DEBUG_VALUE: RTC_GetDateTimeFromUnix:unix <- $r1
	@DEBUG_VALUE: RTC_GetDateTimeFromUnix:data <- $r0
	.loc	2 570 15 is_stmt 1      @ ../Src/main.c:570:15
	adds	r1, #1
.Ltmp257:
	.loc	2 570 13 is_stmt 0      @ ../Src/main.c:570:13
	strb	r1, [r0, #7]
	.loc	2 567 13 is_stmt 1      @ ../Src/main.c:567:13
	adds	r1, r2, #1
	strb	r1, [r0, #8]
	.loc	2 571 1                 @ ../Src/main.c:571:1
	pop	{r4, r5, r6, r7, pc}
.Ltmp258:
	.p2align	2
@ %bb.13:
	.loc	2 0 1 is_stmt 0         @ ../Src/main.c:0:1
__arm_cp.7_0:
	.long	86400                   @ 0x15180
.Lcpi_end38:
	.size	__arm_cp.7_0, .Lcpi_end38-__arm_cp.7_0
__arm_cp.7_1:
	.long	4294966931              @ 0xfffffe93
.Lcpi_end39:
	.size	__arm_cp.7_1, .Lcpi_end39-__arm_cp.7_1
__arm_cp.7_2:
	.long	4294966930              @ 0xfffffe92
.Lcpi_end40:
	.size	__arm_cp.7_2, .Lcpi_end40-__arm_cp.7_2
__arm_cp.7_3:
	.long	RTC_Months
.Lcpi_end41:
	.size	__arm_cp.7_3, .Lcpi_end41-__arm_cp.7_3
.Lfunc_end7:
	.size	RTC_GetDateTimeFromUnix, .Lfunc_end7-RTC_GetDateTimeFromUnix
	.cfi_endproc
	.cantunwind
	.fnend
                                        @ -- End function
	.section	.text.HAL_RTC_MspInit,"ax",%progbits
	.hidden	HAL_RTC_MspInit         @ -- Begin function HAL_RTC_MspInit
	.globl	HAL_RTC_MspInit
	.p2align	2
	.type	HAL_RTC_MspInit,%function
	.code	16                      @ @HAL_RTC_MspInit
	.thumb_func
HAL_RTC_MspInit:
.Lfunc_begin8:
	.loc	2 575 0 is_stmt 1       @ ../Src/main.c:575:0
	.fnstart
	.cfi_startproc
@ %bb.0:
	.save	{r7, lr}
	push	{r7, lr}
	.cfi_def_cfa_offset 8
	.cfi_offset lr, -4
	.cfi_offset r7, -8
	.pad	#184
	sub	sp, #184
	.cfi_def_cfa_offset 192
	@DEBUG_VALUE: HAL_RTC_MspInit:hrtc <- $r0
	movs	r0, #0
.Ltmp259:
	.loc	2 579 35 prologue_end   @ ../Src/main.c:579:35
	movs	r1, #12
	.loc	2 580 33                @ ../Src/main.c:580:33
	str	r0, [sp, #160]
	.loc	2 579 35                @ ../Src/main.c:579:35
	str	r1, [sp, #136]
	movs	r1, #1
	.loc	2 581 29                @ ../Src/main.c:581:29
	str	r1, [sp, #144]
	.loc	2 582 29                @ ../Src/main.c:582:29
	str	r0, [sp, #156]
	add	r0, sp, #136
.Ltmp260:
	@DEBUG_VALUE: HAL_RTC_MspInit:RCC_OscInitStruct <- [DW_OP_plus_uconst 136] [$sp+0]
	.loc	2 584 5                 @ ../Src/main.c:584:5
	bl	HAL_RCC_OscConfig
.Ltmp261:
	.loc	2 584 5 is_stmt 0       @ ../Src/main.c:584:5
	cbnz	r0, .LBB8_3
.Ltmp262:
@ %bb.1:
	@DEBUG_VALUE: HAL_RTC_MspInit:RCC_OscInitStruct <- [DW_OP_plus_uconst 136] [$sp+0]
	.loc	2 590 40 is_stmt 1      @ ../Src/main.c:590:40
	mov.w	r0, #256
	str	r0, [sp, #52]
	.loc	2 589 43                @ ../Src/main.c:589:43
	movs	r0, #32
	str	r0, [sp, #4]
	add	r0, sp, #4
.Ltmp263:
	@DEBUG_VALUE: HAL_RTC_MspInit:PeriphClkInitStruct <- [DW_OP_plus_uconst 4] [$sp+0]
	.loc	2 592 5                 @ ../Src/main.c:592:5
	bl	HAL_RCCEx_PeriphCLKConfig
.Ltmp264:
	.loc	2 592 5 is_stmt 0       @ ../Src/main.c:592:5
	cbnz	r0, .LBB8_3
.Ltmp265:
@ %bb.2:
	@DEBUG_VALUE: HAL_RTC_MspInit:PeriphClkInitStruct <- [DW_OP_plus_uconst 4] [$sp+0]
	@DEBUG_VALUE: HAL_RTC_MspInit:RCC_OscInitStruct <- [DW_OP_plus_uconst 136] [$sp+0]
	.loc	2 597 2 is_stmt 1       @ ../Src/main.c:597:2
	ldr	r0, __arm_cp.8_0
	ldr	r1, [r0]
	orr	r1, r1, #32768
	str	r1, [r0]
.Ltmp266:
.LBB8_3:
	@DEBUG_VALUE: HAL_RTC_MspInit:RCC_OscInitStruct <- [DW_OP_plus_uconst 136] [$sp+0]
	.loc	2 598 1                 @ ../Src/main.c:598:1
	add	sp, #184
.Ltmp267:
	pop	{r7, pc}
.Ltmp268:
	.p2align	2
@ %bb.4:
	.loc	2 0 1 is_stmt 0         @ ../Src/main.c:0:1
__arm_cp.8_0:
	.long	1073887344              @ 0x40023870
.Lcpi_end42:
	.size	__arm_cp.8_0, .Lcpi_end42-__arm_cp.8_0
.Lfunc_end8:
	.size	HAL_RTC_MspInit, .Lfunc_end8-HAL_RTC_MspInit
	.cfi_endproc
	.cantunwind
	.fnend
                                        @ -- End function
	.section	.text.HAL_RTC_MspDeInit,"ax",%progbits
	.hidden	HAL_RTC_MspDeInit       @ -- Begin function HAL_RTC_MspDeInit
	.globl	HAL_RTC_MspDeInit
	.p2align	2
	.type	HAL_RTC_MspDeInit,%function
	.code	16                      @ @HAL_RTC_MspDeInit
	.thumb_func
HAL_RTC_MspDeInit:
.Lfunc_begin9:
	.loc	2 602 0 is_stmt 1       @ ../Src/main.c:602:0
	.fnstart
	.cfi_startproc
@ %bb.0:
	@DEBUG_VALUE: HAL_RTC_MspDeInit:hrtc <- $r0
	ldr	r0, __arm_cp.9_0
.Ltmp269:
	.loc	2 603 2 prologue_end    @ ../Src/main.c:603:2
	ldr	r1, [r0]
	bic	r1, r1, #32768
	str	r1, [r0]
	.loc	2 604 1                 @ ../Src/main.c:604:1
	bx	lr
.Ltmp270:
	.p2align	2
@ %bb.1:
	.loc	2 0 1 is_stmt 0         @ ../Src/main.c:0:1
__arm_cp.9_0:
	.long	1073887344              @ 0x40023870
.Lcpi_end43:
	.size	__arm_cp.9_0, .Lcpi_end43-__arm_cp.9_0
.Lfunc_end9:
	.size	HAL_RTC_MspDeInit, .Lfunc_end9-HAL_RTC_MspDeInit
	.cfi_endproc
	.cantunwind
	.fnend
                                        @ -- End function
	.section	.text.HAL_TIM_PeriodElapsedCallback,"ax",%progbits
	.hidden	HAL_TIM_PeriodElapsedCallback @ -- Begin function HAL_TIM_PeriodElapsedCallback
	.globl	HAL_TIM_PeriodElapsedCallback
	.p2align	2
	.type	HAL_TIM_PeriodElapsedCallback,%function
	.code	16                      @ @HAL_TIM_PeriodElapsedCallback
	.thumb_func
HAL_TIM_PeriodElapsedCallback:
.Lfunc_begin10:
	.loc	2 649 0 is_stmt 1       @ ../Src/main.c:649:0
	.fnstart
	.cfi_startproc
@ %bb.0:
	.save	{r4, r5, r6, r7, lr}
	.pad	#4
	push	{r3, r4, r5, r6, r7, lr}
	.cfi_def_cfa_offset 24
	.cfi_offset lr, -4
	.cfi_offset r7, -8
	.cfi_offset r6, -12
	.cfi_offset r5, -16
	.cfi_offset r4, -20
	@DEBUG_VALUE: HAL_TIM_PeriodElapsedCallback:htim <- $r0
.Ltmp271:
	.loc	2 650 2 prologue_end    @ ../Src/main.c:650:2
	ldr	r5, __arm_cp.10_0
.Ltmp272:
	.loc	2 652 5                 @ ../Src/main.c:652:5
	ldr	r6, __arm_cp.10_1
.Ltmp273:
	.loc	2 650 2                 @ ../Src/main.c:650:2
	mvn	r1, #1
	ldr	r0, [r5, #36]
.Ltmp274:
	str	r1, [r0, #16]
.Ltmp275:
	.loc	2 652 5                 @ ../Src/main.c:652:5
	ldr	r0, [r6, #20]
.Ltmp276:
	.loc	2 652 5 is_stmt 0       @ ../Src/main.c:652:5
	cbz	r0, .LBB10_5
@ %bb.1:
.Ltmp277:
	.loc	2 657 10 is_stmt 1      @ ../Src/main.c:657:10
	ldrd	r0, r1, [r6, #24]
	adds	r0, #1
.Ltmp278:
	.loc	2 657 10 is_stmt 0      @ ../Src/main.c:657:10
	cmp	r0, r1
.Ltmp279:
	.loc	2 657 10                @ ../Src/main.c:657:10
	str	r0, [r6, #24]
.Ltmp280:
	.loc	2 657 10                @ ../Src/main.c:657:10
	blo	.LBB10_9
.Ltmp281:
@ %bb.2:
	.loc	2 0 10                  @ ../Src/main.c:0:10
	ldr	r4, __arm_cp.10_2
	movs	r0, #1
	movs	r1, #0
	.loc	2 661 2 is_stmt 1       @ ../Src/main.c:661:2
	movs	r2, #0
	.loc	2 659 14                @ ../Src/main.c:659:14
	strd	r1, r0, [r6, #24]
	.loc	2 661 2                 @ ../Src/main.c:661:2
	mov.w	r1, #256
	mov	r0, r4
	bl	HAL_GPIO_WritePin
.Ltmp282:
	.loc	2 663 5                 @ ../Src/main.c:663:5
	ldr	r7, __arm_cp.10_3
	ldrb	r0, [r7]
.Ltmp283:
	.loc	2 663 5 is_stmt 0       @ ../Src/main.c:663:5
	subs	r0, #1
	cmp	r0, #3
	.loc	2 686 1 is_stmt 1       @ ../Src/main.c:686:1
	it	hi
	pophi	{r3, r4, r5, r6, r7, pc}
.LCPI10_5:
	tbb	[pc, r0]
@ %bb.3:
	.loc	2 0 1 is_stmt 0         @ ../Src/main.c:0:1
.LJTI10_0:
	.byte	(.LBB10_4-(.LCPI10_5+4))/2
	.byte	(.LBB10_6-(.LCPI10_5+4))/2
	.byte	(.LBB10_7-(.LCPI10_5+4))/2
	.byte	(.LBB10_10-(.LCPI10_5+4))/2
	.p2align	1
.LBB10_4:
.Ltmp284:
	.loc	2 665 3 is_stmt 1       @ ../Src/main.c:665:3
	mov	r0, r4
	mov.w	r1, #256
	movs	r2, #1
	bl	HAL_GPIO_WritePin
	.loc	2 666 22                @ ../Src/main.c:666:22
	movs	r0, #2
	b	.LBB10_8
.Ltmp285:
.LBB10_5:
	.loc	2 0 22 is_stmt 0        @ ../Src/main.c:0:22
	ldr	r0, __arm_cp.10_2
.Ltmp286:
	.loc	2 654 3 is_stmt 1       @ ../Src/main.c:654:3
	mov.w	r1, #256
	movs	r2, #0
	pop.w	{r3, r4, r5, r6, r7, lr}
	b	HAL_GPIO_WritePin
.Ltmp287:
.LBB10_6:
	.loc	2 671 22                @ ../Src/main.c:671:22
	movs	r0, #3
	strb	r0, [r7]
	.loc	2 670 18                @ ../Src/main.c:670:18
	movs	r0, #99
	str	r0, [r6, #28]
.Ltmp288:
	.loc	2 686 1                 @ ../Src/main.c:686:1
	pop	{r3, r4, r5, r6, r7, pc}
.LBB10_7:
.Ltmp289:
	.loc	2 675 3                 @ ../Src/main.c:675:3
	mov	r0, r4
	mov.w	r1, #256
	movs	r2, #1
	bl	HAL_GPIO_WritePin
	.loc	2 676 22                @ ../Src/main.c:676:22
	movs	r0, #4
.Ltmp290:
.LBB10_8:
	.loc	2 0 22 is_stmt 0        @ ../Src/main.c:0:22
	strb	r0, [r7]
.LBB10_9:
	.loc	2 686 1 is_stmt 1       @ ../Src/main.c:686:1
	pop	{r3, r4, r5, r6, r7, pc}
.LBB10_10:
.Ltmp291:
	.loc	2 680 22                @ ../Src/main.c:680:22
	movs	r0, #0
	strb	r0, [r7]
	.loc	2 681 3                 @ ../Src/main.c:681:3
	add.w	r0, r5, #36
	bl	HAL_TIM_Base_Stop_IT
	.loc	2 682 3                 @ ../Src/main.c:682:3
	movs	r0, #29
	bl	HAL_NVIC_DisableIRQ
	.loc	2 683 3                 @ ../Src/main.c:683:3
	ldr	r0, __arm_cp.10_4
	mov.w	r1, #8192
	str	r1, [r0]
	.loc	2 684 3                 @ ../Src/main.c:684:3
	movs	r0, #40
	pop.w	{r3, r4, r5, r6, r7, lr}
	b	HAL_NVIC_EnableIRQ
.Ltmp292:
	.p2align	2
@ %bb.11:
	.loc	2 0 3 is_stmt 0         @ ../Src/main.c:0:3
__arm_cp.10_0:
	.long	.L_MergedGlobals.1
.Lcpi_end44:
	.size	__arm_cp.10_0, .Lcpi_end44-__arm_cp.10_0
__arm_cp.10_1:
	.long	.L_MergedGlobals
.Lcpi_end45:
	.size	__arm_cp.10_1, .Lcpi_end45-__arm_cp.10_1
__arm_cp.10_2:
	.long	1073874944              @ 0x40020800
.Lcpi_end46:
	.size	__arm_cp.10_2, .Lcpi_end46-__arm_cp.10_2
__arm_cp.10_3:
	.long	TRIAC_ControlState
.Lcpi_end47:
	.size	__arm_cp.10_3, .Lcpi_end47-__arm_cp.10_3
__arm_cp.10_4:
	.long	1073822740              @ 0x40013c14
.Lcpi_end48:
	.size	__arm_cp.10_4, .Lcpi_end48-__arm_cp.10_4
.Lfunc_end10:
	.size	HAL_TIM_PeriodElapsedCallback, .Lfunc_end10-HAL_TIM_PeriodElapsedCallback
	.cfi_endproc
	.cantunwind
	.fnend
                                        @ -- End function
	.section	.text.HAL_TIM_Base_MspInit,"ax",%progbits
	.hidden	HAL_TIM_Base_MspInit    @ -- Begin function HAL_TIM_Base_MspInit
	.globl	HAL_TIM_Base_MspInit
	.p2align	2
	.type	HAL_TIM_Base_MspInit,%function
	.code	16                      @ @HAL_TIM_Base_MspInit
	.thumb_func
HAL_TIM_Base_MspInit:
.Lfunc_begin11:
	.loc	2 690 0 is_stmt 1       @ ../Src/main.c:690:0
	.fnstart
	.cfi_startproc
@ %bb.0:
	.save	{r7, lr}
	.pad	#8
	push	{r5, r6, r7, lr}
	.cfi_def_cfa_offset 16
	.cfi_offset lr, -4
	.cfi_offset r7, -8
	@DEBUG_VALUE: HAL_TIM_Base_MspInit:htim <- $r0
	ldr	r0, __arm_cp.11_0
.Ltmp293:
	.loc	2 692 2 prologue_end    @ ../Src/main.c:692:2
	movs	r2, #0
.Ltmp294:
	.loc	2 691 2                 @ ../Src/main.c:691:2
	ldr	r1, [r0]
	orr	r1, r1, #2
	str	r1, [r0]
.Ltmp295:
	.loc	2 692 2                 @ ../Src/main.c:692:2
	movs	r1, #0
.Ltmp296:
	.loc	2 691 2                 @ ../Src/main.c:691:2
	ldr	r0, [r0]
	and	r0, r0, #2
.Ltmp297:
	@DEBUG_VALUE: tmpreg <- $r0
	str	r0, [sp, #4]
	ldr	r0, [sp, #4]
.Ltmp298:
	@DEBUG_VALUE: tmpreg <- $r0
	.loc	2 692 2                 @ ../Src/main.c:692:2
	movs	r0, #29
.Ltmp299:
	bl	HAL_NVIC_SetPriority
	.loc	2 693 2                 @ ../Src/main.c:693:2
	movs	r0, #29
	pop.w	{r2, r3, r7, lr}
	b	HAL_NVIC_EnableIRQ
.Ltmp300:
	.p2align	2
@ %bb.1:
	.loc	2 0 2 is_stmt 0         @ ../Src/main.c:0:2
__arm_cp.11_0:
	.long	1073887296              @ 0x40023840
.Lcpi_end49:
	.size	__arm_cp.11_0, .Lcpi_end49-__arm_cp.11_0
.Lfunc_end11:
	.size	HAL_TIM_Base_MspInit, .Lfunc_end11-HAL_TIM_Base_MspInit
	.cfi_endproc
	.cantunwind
	.fnend
                                        @ -- End function
	.section	.text.HAL_UART_TxCpltCallback,"ax",%progbits
	.hidden	HAL_UART_TxCpltCallback @ -- Begin function HAL_UART_TxCpltCallback
	.globl	HAL_UART_TxCpltCallback
	.p2align	1
	.type	HAL_UART_TxCpltCallback,%function
	.code	16                      @ @HAL_UART_TxCpltCallback
	.thumb_func
HAL_UART_TxCpltCallback:
.Lfunc_begin12:
	.loc	2 761 0 is_stmt 1       @ ../Src/main.c:761:0
	.fnstart
	.cfi_startproc
@ %bb.0:
	@DEBUG_VALUE: HAL_UART_TxCpltCallback:huart <- $r0
	.loc	2 766 1 prologue_end    @ ../Src/main.c:766:1
	bx	lr
.Ltmp301:
.Lfunc_end12:
	.size	HAL_UART_TxCpltCallback, .Lfunc_end12-HAL_UART_TxCpltCallback
	.cfi_endproc
	.cantunwind
	.fnend
                                        @ -- End function
	.section	.text.HAL_UART_RxCpltCallback,"ax",%progbits
	.hidden	HAL_UART_RxCpltCallback @ -- Begin function HAL_UART_RxCpltCallback
	.globl	HAL_UART_RxCpltCallback
	.p2align	2
	.type	HAL_UART_RxCpltCallback,%function
	.code	16                      @ @HAL_UART_RxCpltCallback
	.thumb_func
HAL_UART_RxCpltCallback:
.Lfunc_begin13:
	.loc	2 770 0                 @ ../Src/main.c:770:0
	.fnstart
	.cfi_startproc
@ %bb.0:
	@DEBUG_VALUE: HAL_UART_RxCpltCallback:huart <- $r0
	@DEBUG_VALUE: HAL_UART_RxCpltCallback:huart <- $r0
	.loc	2 771 12 prologue_end   @ ../Src/main.c:771:12
	ldr	r0, [r0]
.Ltmp302:
	.loc	2 771 21 is_stmt 0      @ ../Src/main.c:771:21
	ldr	r1, __arm_cp.13_0
.Ltmp303:
	.loc	2 771 5                 @ ../Src/main.c:771:5
	cmp	r0, r1
	.loc	2 788 1 is_stmt 1       @ ../Src/main.c:788:1
	it	ne
	bxne	lr
	.save	{r4, r5, r7, lr}
	push	{r4, r5, r7, lr}
	.cfi_def_cfa_offset 16
	.cfi_offset lr, -4
	.cfi_offset r7, -8
	.cfi_offset r5, -12
	.cfi_offset r4, -16
.Ltmp304:
	.loc	2 773 8                 @ ../Src/main.c:773:8
	ldr	r4, __arm_cp.13_1
	ldrb	r0, [r4]
	.loc	2 773 57 is_stmt 0      @ ../Src/main.c:773:57
	cmp	r0, #17
	itt	eq
	ldrbeq	r0, [r4, #1]
	cmpeq	r0, #34
	beq	.LBB13_3
.LBB13_1:
.Ltmp305:
	.loc	2 782 4 is_stmt 1       @ ../Src/main.c:782:4
	movs	r0, #50
	bl	HAL_Delay
.Ltmp306:
	.loc	2 783 4                 @ ../Src/main.c:783:4
	ldr	r0, __arm_cp.13_2
	ldr	r1, [r0]
	ldr	r2, [r1, #24]
	orr	r2, r2, #8
	str	r2, [r1, #24]
	ldr	r2, [r1, #24]
	orr	r2, r2, #16
	str	r2, [r1, #24]
.Ltmp307:
	.loc	2 784 4                 @ ../Src/main.c:784:4
	ldr	r1, __arm_cp.13_1
	movs	r2, #64
	bl	HAL_UART_Receive_IT
	movs	r0, #1
.Ltmp308:
.LBB13_2:
	.loc	2 0 4 is_stmt 0         @ ../Src/main.c:0:4
	ldr	r1, __arm_cp.13_3
	strb	r0, [r1]
	pop.w	{r4, r5, r7, lr}
	.loc	2 788 1 is_stmt 1       @ ../Src/main.c:788:1
	bx	lr
.LBB13_3:
.Ltmp309:
	.loc	2 775 5                 @ ../Src/main.c:775:5
	ldrb.w	r5, [r4, #63]
	.loc	2 775 27 is_stmt 0      @ ../Src/main.c:775:27
	mov	r0, r4
	movs	r1, #63
	bl	CalcCRC
.Ltmp310:
	.loc	2 773 7 is_stmt 1       @ ../Src/main.c:773:7
	cmp	r5, r0
	bne	.LBB13_1
@ %bb.4:
.Ltmp311:
	.loc	2 777 25                @ ../Src/main.c:777:25
	mov	r0, r4
	movs	r1, #63
	bl	CalcCRC
	.loc	2 777 23 is_stmt 0      @ ../Src/main.c:777:23
	strb.w	r0, [r4, #64]
	movs	r0, #2
	b	.LBB13_2
.Ltmp312:
	.p2align	2
@ %bb.5:
	.loc	2 0 23                  @ ../Src/main.c:0:23
__arm_cp.13_0:
	.long	1073759232              @ 0x40004400
.Lcpi_end50:
	.size	__arm_cp.13_0, .Lcpi_end50-__arm_cp.13_0
__arm_cp.13_1:
	.long	onewire_buffer
.Lcpi_end51:
	.size	__arm_cp.13_1, .Lcpi_end51-__arm_cp.13_1
__arm_cp.13_2:
	.long	.L_MergedGlobals.4
.Lcpi_end52:
	.size	__arm_cp.13_2, .Lcpi_end52-__arm_cp.13_2
__arm_cp.13_3:
	.long	OnewireState
.Lcpi_end53:
	.size	__arm_cp.13_3, .Lcpi_end53-__arm_cp.13_3
.Lfunc_end13:
	.size	HAL_UART_RxCpltCallback, .Lfunc_end13-HAL_UART_RxCpltCallback
	.cfi_endproc
	.cantunwind
	.fnend
                                        @ -- End function
	.section	.text.HAL_UART_ErrorCallback,"ax",%progbits
	.hidden	HAL_UART_ErrorCallback  @ -- Begin function HAL_UART_ErrorCallback
	.globl	HAL_UART_ErrorCallback
	.p2align	2
	.type	HAL_UART_ErrorCallback,%function
	.code	16                      @ @HAL_UART_ErrorCallback
	.thumb_func
HAL_UART_ErrorCallback:
.Lfunc_begin14:
	.loc	2 792 0 is_stmt 1       @ ../Src/main.c:792:0
	.fnstart
	.cfi_startproc
@ %bb.0:
	@DEBUG_VALUE: HAL_UART_ErrorCallback:huart <- $r0
	@DEBUG_VALUE: HAL_UART_ErrorCallback:huart <- $r0
	.loc	2 793 12 prologue_end   @ ../Src/main.c:793:12
	ldr	r0, [r0]
.Ltmp313:
	.loc	2 793 21 is_stmt 0      @ ../Src/main.c:793:21
	ldr	r1, __arm_cp.14_0
.Ltmp314:
	.loc	2 793 5                 @ ../Src/main.c:793:5
	cmp	r0, r1
	.loc	2 805 1 is_stmt 1       @ ../Src/main.c:805:1
	it	ne
	bxne	lr
	.save	{r4, r5, r7, lr}
	push	{r4, r5, r7, lr}
	.cfi_def_cfa_offset 16
	.cfi_offset lr, -4
	.cfi_offset r7, -8
	.cfi_offset r5, -12
	.cfi_offset r4, -16
.Ltmp315:
	.loc	2 795 3                 @ ../Src/main.c:795:3
	ldr	r4, __arm_cp.14_1
	movs	r5, #1
	.loc	2 796 3                 @ ../Src/main.c:796:3
	movs	r1, #2
	.loc	2 795 3                 @ ../Src/main.c:795:3
	ldr	r0, [r4]
	str	r5, [r0, #32]
	.loc	2 796 3                 @ ../Src/main.c:796:3
	str	r1, [r0, #32]
	.loc	2 797 3                 @ ../Src/main.c:797:3
	movs	r1, #4
	str	r1, [r0, #32]
	.loc	2 798 3                 @ ../Src/main.c:798:3
	movs	r1, #16
	str	r1, [r0, #32]
	.loc	2 799 3                 @ ../Src/main.c:799:3
	movs	r1, #8
	str	r1, [r0, #32]
	.loc	2 800 3                 @ ../Src/main.c:800:3
	movs	r0, #50
	bl	HAL_Delay
.Ltmp316:
	.loc	2 801 3                 @ ../Src/main.c:801:3
	ldr	r0, [r4]
.Ltmp317:
	.loc	2 802 3                 @ ../Src/main.c:802:3
	movs	r2, #64
.Ltmp318:
	.loc	2 801 3                 @ ../Src/main.c:801:3
	ldr	r1, [r0, #24]
	orr	r1, r1, #8
	str	r1, [r0, #24]
	ldr	r1, [r0, #24]
	orr	r1, r1, #16
	str	r1, [r0, #24]
.Ltmp319:
	.loc	2 802 3                 @ ../Src/main.c:802:3
	ldr	r1, __arm_cp.14_2
	mov	r0, r4
	bl	HAL_UART_Receive_IT
	.loc	2 803 16                @ ../Src/main.c:803:16
	ldr	r0, __arm_cp.14_3
	strb	r5, [r0]
	pop.w	{r4, r5, r7, lr}
.Ltmp320:
	.loc	2 805 1                 @ ../Src/main.c:805:1
	bx	lr
.Ltmp321:
	.p2align	2
@ %bb.1:
	.loc	2 0 1 is_stmt 0         @ ../Src/main.c:0:1
__arm_cp.14_0:
	.long	1073759232              @ 0x40004400
.Lcpi_end54:
	.size	__arm_cp.14_0, .Lcpi_end54-__arm_cp.14_0
__arm_cp.14_1:
	.long	.L_MergedGlobals.4
.Lcpi_end55:
	.size	__arm_cp.14_1, .Lcpi_end55-__arm_cp.14_1
__arm_cp.14_2:
	.long	onewire_buffer
.Lcpi_end56:
	.size	__arm_cp.14_2, .Lcpi_end56-__arm_cp.14_2
__arm_cp.14_3:
	.long	OnewireState
.Lcpi_end57:
	.size	__arm_cp.14_3, .Lcpi_end57-__arm_cp.14_3
.Lfunc_end14:
	.size	HAL_UART_ErrorCallback, .Lfunc_end14-HAL_UART_ErrorCallback
	.cfi_endproc
	.cantunwind
	.fnend
                                        @ -- End function
	.section	.text.HAL_CRC_MspInit,"ax",%progbits
	.hidden	HAL_CRC_MspInit         @ -- Begin function HAL_CRC_MspInit
	.globl	HAL_CRC_MspInit
	.p2align	2
	.type	HAL_CRC_MspInit,%function
	.code	16                      @ @HAL_CRC_MspInit
	.thumb_func
HAL_CRC_MspInit:
.Lfunc_begin15:
	.loc	2 849 0 is_stmt 1       @ ../Src/main.c:849:0
	.fnstart
	.cfi_startproc
@ %bb.0:
	@DEBUG_VALUE: HAL_CRC_MspInit:hcrc <- $r0
	@DEBUG_VALUE: HAL_CRC_MspInit:hcrc <- $r0
	.loc	2 850 11 prologue_end   @ ../Src/main.c:850:11
	ldr	r1, [r0]
	ldr	r0, __arm_cp.15_0
.Ltmp322:
	.loc	2 850 20 is_stmt 0      @ ../Src/main.c:850:20
	sub.w	r2, r0, #2096
.Ltmp323:
	.loc	2 850 5                 @ ../Src/main.c:850:5
	cmp	r1, r2
	.loc	2 854 1 is_stmt 1       @ ../Src/main.c:854:1
	it	ne
	bxne	lr
	.pad	#4
	sub	sp, #4
	.cfi_def_cfa_offset 4
.Ltmp324:
	.loc	2 852 3                 @ ../Src/main.c:852:3
	ldr	r1, [r0]
	orr	r1, r1, #4096
	str	r1, [r0]
	ldr	r0, [r0]
	and	r0, r0, #4096
.Ltmp325:
	@DEBUG_VALUE: tmpreg <- $r0
	str	r0, [sp]
	ldr	r0, [sp]
.Ltmp326:
	@DEBUG_VALUE: tmpreg <- $r0
	.loc	2 0 3 is_stmt 0         @ ../Src/main.c:0:3
	add	sp, #4
.Ltmp327:
	.loc	2 854 1 is_stmt 1       @ ../Src/main.c:854:1
	bx	lr
.Ltmp328:
	.p2align	2
@ %bb.1:
	.loc	2 0 1 is_stmt 0         @ ../Src/main.c:0:1
__arm_cp.15_0:
	.long	1073887280              @ 0x40023830
.Lcpi_end58:
	.size	__arm_cp.15_0, .Lcpi_end58-__arm_cp.15_0
.Lfunc_end15:
	.size	HAL_CRC_MspInit, .Lfunc_end15-HAL_CRC_MspInit
	.cfi_endproc
	.cantunwind
	.fnend
                                        @ -- End function
	.section	.text.HAL_CRC_MspDeInit,"ax",%progbits
	.hidden	HAL_CRC_MspDeInit       @ -- Begin function HAL_CRC_MspDeInit
	.globl	HAL_CRC_MspDeInit
	.p2align	2
	.type	HAL_CRC_MspDeInit,%function
	.code	16                      @ @HAL_CRC_MspDeInit
	.thumb_func
HAL_CRC_MspDeInit:
.Lfunc_begin16:
	.loc	2 858 0 is_stmt 1       @ ../Src/main.c:858:0
	.fnstart
	.cfi_startproc
@ %bb.0:
	@DEBUG_VALUE: HAL_CRC_MspDeInit:hcrc <- $r0
	@DEBUG_VALUE: HAL_CRC_MspDeInit:hcrc <- $r0
	.loc	2 859 11 prologue_end   @ ../Src/main.c:859:11
	ldr	r1, [r0]
	ldr	r0, __arm_cp.16_0
.Ltmp329:
	.loc	2 859 20 is_stmt 0      @ ../Src/main.c:859:20
	sub.w	r2, r0, #2096
.Ltmp330:
	.loc	2 859 5                 @ ../Src/main.c:859:5
	cmp	r1, r2
.Ltmp331:
	.loc	2 861 3 is_stmt 1       @ ../Src/main.c:861:3
	ittt	eq
	ldreq	r1, [r0]
	biceq	r1, r1, #4096
	streq	r1, [r0]
.Ltmp332:
	.loc	2 863 1                 @ ../Src/main.c:863:1
	bx	lr
.Ltmp333:
	.p2align	2
@ %bb.1:
	.loc	2 0 1 is_stmt 0         @ ../Src/main.c:0:1
__arm_cp.16_0:
	.long	1073887280              @ 0x40023830
.Lcpi_end59:
	.size	__arm_cp.16_0, .Lcpi_end59-__arm_cp.16_0
.Lfunc_end16:
	.size	HAL_CRC_MspDeInit, .Lfunc_end16-HAL_CRC_MspDeInit
	.cfi_endproc
	.cantunwind
	.fnend
                                        @ -- End function
	.section	.text.HAL_GPIO_EXTI_Callback,"ax",%progbits
	.hidden	HAL_GPIO_EXTI_Callback  @ -- Begin function HAL_GPIO_EXTI_Callback
	.globl	HAL_GPIO_EXTI_Callback
	.p2align	2
	.type	HAL_GPIO_EXTI_Callback,%function
	.code	16                      @ @HAL_GPIO_EXTI_Callback
	.thumb_func
HAL_GPIO_EXTI_Callback:
.Lfunc_begin17:
	.loc	2 918 0 is_stmt 1       @ ../Src/main.c:918:0
	.fnstart
	.cfi_startproc
@ %bb.0:
	.save	{r4, lr}
	push	{r4, lr}
	.cfi_def_cfa_offset 8
	.cfi_offset lr, -4
	.cfi_offset r4, -8
	@DEBUG_VALUE: HAL_GPIO_EXTI_Callback:GPIO_Pin <- $r0
	@DEBUG_VALUE: HAL_GPIO_EXTI_Callback:GPIO_Pin <- $r0
.Ltmp334:
	.loc	2 919 5 prologue_end    @ ../Src/main.c:919:5
	cmp.w	r0, #16384
	beq	.LBB17_4
.Ltmp335:
@ %bb.1:
	@DEBUG_VALUE: HAL_GPIO_EXTI_Callback:GPIO_Pin <- $r0
	cmp.w	r0, #8192
	beq	.LBB17_7
.Ltmp336:
@ %bb.2:
	@DEBUG_VALUE: HAL_GPIO_EXTI_Callback:GPIO_Pin <- $r0
	cmp	r0, #8
	bne	.LBB17_6
.Ltmp337:
@ %bb.3:
	@DEBUG_VALUE: HAL_GPIO_EXTI_Callback:GPIO_Pin <- $r0
	.loc	2 921 3                 @ ../Src/main.c:921:3
	movs	r0, #9
.Ltmp338:
	bl	HAL_NVIC_DisableIRQ
	ldr	r0, __arm_cp.17_0
	.loc	2 922 3                 @ ../Src/main.c:922:3
	movs	r1, #8
	b	.LBB17_5
.Ltmp339:
.LBB17_4:
	@DEBUG_VALUE: HAL_GPIO_EXTI_Callback:GPIO_Pin <- $r0
	.loc	2 944 3                 @ ../Src/main.c:944:3
	movs	r0, #40
.Ltmp340:
	bl	HAL_NVIC_DisableIRQ
	ldr	r0, __arm_cp.17_0
	.loc	2 945 3                 @ ../Src/main.c:945:3
	mov.w	r1, #16384
.Ltmp341:
.LBB17_5:
	.loc	2 0 3 is_stmt 0         @ ../Src/main.c:0:3
	str	r1, [r0]
.LBB17_6:
	.loc	2 949 1 is_stmt 1       @ ../Src/main.c:949:1
	pop	{r4, pc}
.LBB17_7:
.Ltmp342:
	@DEBUG_VALUE: HAL_GPIO_EXTI_Callback:GPIO_Pin <- $r0
	.loc	2 929 3                 @ ../Src/main.c:929:3
	movs	r0, #40
.Ltmp343:
	bl	HAL_NVIC_DisableIRQ
	ldr	r0, __arm_cp.17_0
	.loc	2 930 3                 @ ../Src/main.c:930:3
	mov.w	r1, #8192
	str	r1, [r0]
.Ltmp344:
	.loc	2 932 6                 @ ../Src/main.c:932:6
	ldr	r0, __arm_cp.17_1
	ldrb	r1, [r0]
.Ltmp345:
	.loc	2 932 6 is_stmt 0       @ ../Src/main.c:932:6
	cmp	r1, #0
.Ltmp346:
	.loc	2 949 1 is_stmt 1       @ ../Src/main.c:949:1
	it	ne
	popne	{r4, pc}
.Ltmp347:
	.loc	2 934 16                @ ../Src/main.c:934:16
	ldr	r1, __arm_cp.17_2
	.loc	2 936 23                @ ../Src/main.c:936:23
	movs	r3, #1
	.loc	2 937 4                 @ ../Src/main.c:937:4
	ldr	r4, __arm_cp.17_3
	movs	r2, #0
	.loc	2 936 23                @ ../Src/main.c:936:23
	strb	r3, [r0]
	.loc	2 935 21                @ ../Src/main.c:935:21
	ldr	r0, [r1, #20]
	.loc	2 934 16                @ ../Src/main.c:934:16
	strd	r2, r0, [r1, #24]
	.loc	2 937 4                 @ ../Src/main.c:937:4
	ldr	r0, [r4, #36]!
	str	r2, [r0, #36]
	.loc	2 938 4                 @ ../Src/main.c:938:4
	movs	r0, #29
	bl	HAL_NVIC_EnableIRQ
	.loc	2 939 4                 @ ../Src/main.c:939:4
	mov	r0, r4
	bl	HAL_TIM_Base_Start_IT
.Ltmp348:
	.loc	2 949 1                 @ ../Src/main.c:949:1
	pop	{r4, pc}
.Ltmp349:
	.p2align	2
@ %bb.8:
	.loc	2 0 1 is_stmt 0         @ ../Src/main.c:0:1
__arm_cp.17_0:
	.long	1073822740              @ 0x40013c14
.Lcpi_end60:
	.size	__arm_cp.17_0, .Lcpi_end60-__arm_cp.17_0
__arm_cp.17_1:
	.long	TRIAC_ControlState
.Lcpi_end61:
	.size	__arm_cp.17_1, .Lcpi_end61-__arm_cp.17_1
__arm_cp.17_2:
	.long	.L_MergedGlobals
.Lcpi_end62:
	.size	__arm_cp.17_2, .Lcpi_end62-__arm_cp.17_2
__arm_cp.17_3:
	.long	.L_MergedGlobals.1
.Lcpi_end63:
	.size	__arm_cp.17_3, .Lcpi_end63-__arm_cp.17_3
.Lfunc_end17:
	.size	HAL_GPIO_EXTI_Callback, .Lfunc_end17-HAL_GPIO_EXTI_Callback
	.cfi_endproc
	.cantunwind
	.fnend
                                        @ -- End function
	.section	.text.BootloaderExe,"ax",%progbits
	.hidden	BootloaderExe           @ -- Begin function BootloaderExe
	.globl	BootloaderExe
	.p2align	2
	.type	BootloaderExe,%function
	.code	16                      @ @BootloaderExe
	.thumb_func
BootloaderExe:
.Lfunc_begin18:
	.loc	2 1038 0 is_stmt 1      @ ../Src/main.c:1038:0
	.fnstart
	.cfi_startproc
@ %bb.0:
	.loc	2 859 11 prologue_end   @ ../Src/main.c:859:11
	ldr	r0, __arm_cp.18_0
	ldr	r1, __arm_cp.18_1
	ldr	r2, [r0]
	.loc	2 859 20 is_stmt 0      @ ../Src/main.c:859:20
	sub.w	r3, r1, #2096
.Ltmp350:
	.loc	2 859 5                 @ ../Src/main.c:859:5
	cmp	r2, r3
.Ltmp351:
	.loc	2 861 3 is_stmt 1       @ ../Src/main.c:861:3
	ittt	eq
	ldreq	r2, [r1]
	biceq	r2, r2, #4096
	streq	r2, [r1]
	.save	{r7, lr}
	push	{r7, lr}
	.cfi_def_cfa_offset 8
	.cfi_offset lr, -4
	.cfi_offset r7, -8
.Ltmp352:
	.loc	2 603 2                 @ ../Src/main.c:603:2
	ldr	r2, [r1, #64]
.Ltmp353:
	.loc	2 1046 2                @ ../Src/main.c:1046:2
	adds	r0, #36
.Ltmp354:
	.loc	2 603 2                 @ ../Src/main.c:603:2
	bic	r2, r2, #32768
	str	r2, [r1, #64]
.Ltmp355:
	.loc	2 1046 2                @ ../Src/main.c:1046:2
	bl	HAL_TIM_PWM_MspDeInit
	.loc	2 1049 5                @ ../Src/main.c:1049:5
	movs	r0, #37
	bl	HAL_NVIC_DisableIRQ
	.loc	2 1050 2                @ ../Src/main.c:1050:2
	movs	r0, #1
	bl	HAL_NVIC_DisableIRQ
	.loc	2 1051 5                @ ../Src/main.c:1051:5
	bl	HAL_DeInit
	.loc	2 1052 5                @ ../Src/main.c:1052:5
	pop.w	{r7, lr}
	b	HAL_FLASH_OB_Launch
.Ltmp356:
	.p2align	2
@ %bb.1:
	.loc	2 0 5 is_stmt 0         @ ../Src/main.c:0:5
__arm_cp.18_0:
	.long	.L_MergedGlobals.1
.Lcpi_end64:
	.size	__arm_cp.18_0, .Lcpi_end64-__arm_cp.18_0
__arm_cp.18_1:
	.long	1073887280              @ 0x40023830
.Lcpi_end65:
	.size	__arm_cp.18_1, .Lcpi_end65-__arm_cp.18_1
.Lfunc_end18:
	.size	BootloaderExe, .Lfunc_end18-BootloaderExe
	.cfi_endproc
	.cantunwind
	.fnend
                                        @ -- End function
	.section	.text.Error_Handler,"ax",%progbits
	.hidden	Error_Handler           @ -- Begin function Error_Handler
	.globl	Error_Handler
	.p2align	1
	.type	Error_Handler,%function
	.code	16                      @ @Error_Handler
	.thumb_func
Error_Handler:
.Lfunc_begin19:
	.loc	2 1057 0 is_stmt 1      @ ../Src/main.c:1057:0
	.fnstart
	.cfi_startproc
@ %bb.0:
	.loc	2 1059 1 prologue_end   @ ../Src/main.c:1059:1
	bx	lr
.Ltmp357:
.Lfunc_end19:
	.size	Error_Handler, .Lfunc_end19-Error_Handler
	.cfi_endproc
	.cantunwind
	.fnend
                                        @ -- End function
	.section	.text.FAN_SetSpeed,"ax",%progbits
	.hidden	FAN_SetSpeed            @ -- Begin function FAN_SetSpeed
	.globl	FAN_SetSpeed
	.p2align	2
	.type	FAN_SetSpeed,%function
	.code	16                      @ @FAN_SetSpeed
	.thumb_func
FAN_SetSpeed:
.Lfunc_begin20:
	.loc	2 1063 0                @ ../Src/main.c:1063:0
	.fnstart
	.cfi_startproc
@ %bb.0:
	.save	{r4, r5, r6, r7, r8, lr}
	push.w	{r4, r5, r6, r7, r8, lr}
	.cfi_def_cfa_offset 24
	.cfi_offset lr, -4
	.cfi_offset r8, -8
	.cfi_offset r7, -12
	.cfi_offset r6, -16
	.cfi_offset r5, -20
	.cfi_offset r4, -24
	@DEBUG_VALUE: FAN_SetSpeed:fan_speed <- $r0
	ldr	r6, __arm_cp.20_0
	ldr	r7, __arm_cp.20_1
.Ltmp358:
	@DEBUG_VALUE: FAN_SetSpeed:fan_speed <- $r5
	mov	r5, r0
.Ltmp359:
	.loc	2 1064 5 prologue_end   @ ../Src/main.c:1064:5
	cbz	r0, .LBB20_2
@ %bb.1:
	.loc	2 0 5 is_stmt 0         @ ../Src/main.c:0:5
	mov	r8, r7
.Ltmp360:
	.loc	2 1079 3 is_stmt 1      @ ../Src/main.c:1079:3
	ldr	r7, __arm_cp.20_2
	add.w	r0, r7, #36
	bl	HAL_TIM_Base_Stop_IT
	.loc	2 1080 3                @ ../Src/main.c:1080:3
	movs	r0, #29
	bl	HAL_NVIC_DisableIRQ
	.loc	2 1081 3                @ ../Src/main.c:1081:3
	movs	r0, #40
	bl	HAL_NVIC_DisableIRQ
	.loc	2 1082 3                @ ../Src/main.c:1082:3
	mov.w	r4, #8192
	.loc	2 1083 3                @ ../Src/main.c:1083:3
	mvn	r1, #1
	.loc	2 1084 3                @ ../Src/main.c:1084:3
	movs	r2, #0
	.loc	2 1082 3                @ ../Src/main.c:1082:3
	str	r4, [r6]
	.loc	2 1083 3                @ ../Src/main.c:1083:3
	ldr	r0, [r7, #36]
	movs	r7, #0
	str	r1, [r0, #16]
	.loc	2 1084 3                @ ../Src/main.c:1084:3
	mov	r0, r8
	mov.w	r1, #256
	bl	HAL_GPIO_WritePin
	.loc	2 1085 22               @ ../Src/main.c:1085:22
	ldr	r1, __arm_cp.20_4
	.loc	2 1086 17               @ ../Src/main.c:1086:17
	ldr	r0, __arm_cp.20_3
	.loc	2 1085 22               @ ../Src/main.c:1085:22
	strb	r7, [r1]
	.loc	2 1086 17               @ ../Src/main.c:1086:17
	strd	r5, r7, [r0, #20]
	.loc	2 1087 18               @ ../Src/main.c:1087:18
	str	r7, [r0, #28]
	.loc	2 1089 3                @ ../Src/main.c:1089:3
	str	r4, [r6]
	.loc	2 1090 3                @ ../Src/main.c:1090:3
	movs	r0, #40
	pop.w	{r4, r5, r6, r7, r8, lr}
	b	HAL_NVIC_EnableIRQ
.Ltmp361:
.LBB20_2:
	.loc	2 1066 3                @ ../Src/main.c:1066:3
	movs	r0, #40
	bl	HAL_NVIC_DisableIRQ
	.loc	2 1067 3                @ ../Src/main.c:1067:3
	movs	r0, #29
	bl	HAL_NVIC_DisableIRQ
	.loc	2 1068 3                @ ../Src/main.c:1068:3
	ldr	r0, __arm_cp.20_2
	mvn	r2, #1
	ldr	r1, [r0, #36]!
	str	r2, [r1, #16]
	.loc	2 1069 3                @ ../Src/main.c:1069:3
	mov.w	r1, #8192
	str	r1, [r6]
	.loc	2 1070 3                @ ../Src/main.c:1070:3
	bl	HAL_TIM_Base_Stop_IT
	.loc	2 1071 3                @ ../Src/main.c:1071:3
	mov	r0, r7
	mov.w	r1, #256
	movs	r2, #0
	movs	r4, #0
	bl	HAL_GPIO_WritePin
	.loc	2 1072 22               @ ../Src/main.c:1072:22
	ldr	r1, __arm_cp.20_4
	.loc	2 1073 18               @ ../Src/main.c:1073:18
	ldr	r0, __arm_cp.20_3
	.loc	2 1072 22               @ ../Src/main.c:1072:22
	strb	r4, [r1]
	.loc	2 1074 17               @ ../Src/main.c:1074:17
	strd	r4, r4, [r0, #20]
	.loc	2 1073 18               @ ../Src/main.c:1073:18
	str	r4, [r0, #28]
.Ltmp362:
	.loc	2 1092 1                @ ../Src/main.c:1092:1
	pop.w	{r4, r5, r6, r7, r8, pc}
.Ltmp363:
	.p2align	2
@ %bb.3:
	.loc	2 0 1 is_stmt 0         @ ../Src/main.c:0:1
__arm_cp.20_0:
	.long	1073822740              @ 0x40013c14
.Lcpi_end66:
	.size	__arm_cp.20_0, .Lcpi_end66-__arm_cp.20_0
__arm_cp.20_1:
	.long	1073874944              @ 0x40020800
.Lcpi_end67:
	.size	__arm_cp.20_1, .Lcpi_end67-__arm_cp.20_1
__arm_cp.20_2:
	.long	.L_MergedGlobals.1
.Lcpi_end68:
	.size	__arm_cp.20_2, .Lcpi_end68-__arm_cp.20_2
__arm_cp.20_3:
	.long	.L_MergedGlobals
.Lcpi_end69:
	.size	__arm_cp.20_3, .Lcpi_end69-__arm_cp.20_3
__arm_cp.20_4:
	.long	TRIAC_ControlState
.Lcpi_end70:
	.size	__arm_cp.20_4, .Lcpi_end70-__arm_cp.20_4
.Lfunc_end20:
	.size	FAN_SetSpeed, .Lfunc_end20-FAN_SetSpeed
	.cfi_endproc
	.cantunwind
	.fnend
                                        @ -- End function
	.hidden	SelLayer                @ @SelLayer
	.type	SelLayer,%object
	.section	.bss.SelLayer,"aw",%nobits
	.globl	SelLayer
SelLayer:
	.byte	0                       @ 0x0
	.size	SelLayer, 1

	.hidden	RTC_Months              @ @RTC_Months
	.type	RTC_Months,%object
	.section	.data.RTC_Months,"aw",%progbits
	.globl	RTC_Months
RTC_Months:
	.ascii	"\037\034\037\036\037\036\037\037\036\037\036\037"
	.ascii	"\037\035\037\036\037\036\037\037\036\037\036\037"
	.size	RTC_Months, 24

	.type	HAL_SYSTICK_Callback.i,%object @ @HAL_SYSTICK_Callback.i
	.section	.bss.HAL_SYSTICK_Callback.i,"aw",%nobits
	.p2align	2
HAL_SYSTICK_Callback.i:
	.long	0                       @ 0x0
	.size	HAL_SYSTICK_Callback.i, 4

	.type	TRIAC_ControlState,%object @ @TRIAC_ControlState
	.section	.bss.TRIAC_ControlState,"aw",%nobits
TRIAC_ControlState:
	.byte	0                       @ 0x0
	.size	TRIAC_ControlState, 1

	.type	TouchUpdate.TS_State,%object @ @TouchUpdate.TS_State
	.section	.bss.TouchUpdate.TS_State,"aw",%nobits
	.p2align	2
TouchUpdate.TS_State:
	.zero	12
	.size	TouchUpdate.TS_State, 12

	.hidden	hltdc                   @ @hltdc
	.type	hltdc,%object
	.section	.bss.hltdc,"aw",%nobits
	.globl	hltdc
	.p2align	2
hltdc:
	.zero	168
	.size	hltdc, 168

	.hidden	hdma2d                  @ @hdma2d
	.type	hdma2d,%object
	.section	.bss.hdma2d,"aw",%nobits
	.globl	hdma2d
	.p2align	2
hdma2d:
	.zero	64
	.size	hdma2d, 64

	.hidden	SystickCnt              @ @SystickCnt
	.type	SystickCnt,%object
	.section	.bss.SystickCnt,"aw",%nobits
	.globl	SystickCnt
	.p2align	2
SystickCnt:
	.long	0                       @ 0x0
	.size	SystickCnt, 4

	.hidden	led_timer               @ @led_timer
	.type	led_timer,%object
	.section	.bss.led_timer,"aw",%nobits
	.globl	led_timer
	.p2align	1
led_timer:
	.short	0                       @ 0x0
	.size	led_timer, 2

	.hidden	uart_baudrate           @ @uart_baudrate
	.type	uart_baudrate,%object
	.section	.bss.uart_baudrate,"aw",%nobits
	.globl	uart_baudrate
uart_baudrate:
	.byte	0                       @ 0x0
	.size	uart_baudrate, 1

	.hidden	zero_cross_cnt          @ @zero_cross_cnt
	.type	zero_cross_cnt,%object
	.section	.bss.zero_cross_cnt,"aw",%nobits
	.globl	zero_cross_cnt
zero_cross_cnt:
	.byte	0                       @ 0x0
	.size	zero_cross_cnt, 1

	.type	__ARM_use_no_argv,%object @ @__ARM_use_no_argv
	.section	.ARM.use_no_argv,"aw",%progbits
	.globl	__ARM_use_no_argv
	.p2align	2
__ARM_use_no_argv:
	.long	1                       @ 0x1
	.size	__ARM_use_no_argv, 4

	.globl	__ARM_use_no_argv
	.type	.L_MergedGlobals,%object @ @_MergedGlobals
	.section	.data..L_MergedGlobals,"aw",%progbits
	.p2align	4
.L_MergedGlobals:
	.byte	0                       @ 0x0
	.byte	0                       @ 0x0
	.short	0                       @ 0x0
	.short	0                       @ 0x0
	.short	0                       @ 0x0
	.short	0                       @ 0x0
	.zero	4
	.zero	2
	.long	0                       @ float 0
	.long	0                       @ 0x0
	.long	0                       @ 0x0
	.long	0                       @ 0x0
	.short	2100                    @ 0x834
	.short	2100                    @ 0x834
	.short	2100                    @ 0x834
	.short	2100                    @ 0x834
	.short	2100                    @ 0x834
	.short	2100                    @ 0x834
	.short	2100                    @ 0x834
	.short	2100                    @ 0x834
	.short	2100                    @ 0x834
	.short	2100                    @ 0x834
	.zero	24
	.zero	32
	.size	.L_MergedGlobals, 108

	.type	.L_MergedGlobals.1,%object @ @_MergedGlobals.1
	.section	.bss..L_MergedGlobals.1,"aw",%nobits
	.p2align	4
.L_MergedGlobals.1:
	.zero	100
	.size	.L_MergedGlobals.1, 100

	.type	.L_MergedGlobals.2,%object @ @_MergedGlobals.2
	.section	.bss..L_MergedGlobals.2,"aw",%nobits
	.p2align	4
.L_MergedGlobals.2:
	.zero	64
	.size	.L_MergedGlobals.2, 64

	.type	.L_MergedGlobals.3,%object @ @_MergedGlobals.3
	.section	.bss..L_MergedGlobals.3,"aw",%nobits
	.p2align	4
.L_MergedGlobals.3:
	.zero	72
	.size	.L_MergedGlobals.3, 72

	.type	.L_MergedGlobals.4,%object @ @_MergedGlobals.4
	.section	.bss..L_MergedGlobals.4,"aw",%nobits
	.p2align	4
.L_MergedGlobals.4:
	.zero	112
	.size	.L_MergedGlobals.4, 112

	.file	22 "../Inc" "main.h"
	.section	".note.GNU-stack","",%progbits
	.eabi_attribute	30, 4	@ Tag_ABI_optimization_goals
	.ARM_attribute	16, 1	@ Tag_AV_eba