	.text
	.syntax unified
	.eabi_attribute	67, "2.09"	@ Tag_conformance
	.cpu	cortex-m7
	.eabi_attribute	6, 13	@ Tag_CPU_arch
	.eabi_attribute	7, 77	@ Tag_CPU_arch_profile
	.eabi_attribute	8, 0	@ Tag_ARM_ISA_use
	.eabi_attribute	9, 2	@ Tag_THUMB_ISA_use
	.fpu	fpv5-sp-d16
	.eabi_attribute	27, 1	@ Tag_ABI_HardFP_use
	.eabi_attribute	36, 1	@ Tag_FP_HP_extension
	.eabi_attribute	34, 1	@ Tag_CPU_unaligned_access
	.eabi_attribute	17, 1	@ Tag_ABI_PCS_GOT_use
	.eabi_attribute	20, 2	@ Tag_ABI_FP_denormal
	.eabi_attribute	21, 0	@ Tag_ABI_FP_exceptions
	.eabi_attribute	23, 1	@ Tag_ABI_FP_number_model
	.eabi_attribute	24, 1	@ Tag_ABI_align_needed
	.eabi_attribute	25, 1	@ Tag_ABI_align_preserved
	.eabi_attribute	28, 1	@ Tag_ABI_VFP_args
	.eabi_attribute	38, 1	@ Tag_ABI_FP_16bit_format
	.eabi_attribute	18, 2	@ Tag_ABI_PCS_wchar_t
	.eabi_attribute	26, 1	@ Tag_ABI_enum_size
	.eabi_attribute	14, 0	@ Tag_ABI_PCS_R9_use
	.file	"one_wire.c"
	.file	1 "C:\\Keil\\ARM\\ARMCLANG\\Bin\\..\\include" "stdint.h"
	.file	2 "../Src" "one_wire.c"
	.file	3 "../Inc" "one_wire.h"
	.file	4 "../Drivers/STM32F7xx_HAL_Driver/Inc" "stm32f7xx_hal_uart.h"
	.file	5 "../Drivers/STM32F7xx_HAL_Driver/Inc" "stm32f7xx_hal_def.h"
	.file	6 "../Drivers/CMSIS/Device/ST/STM32F7xx/Include" "stm32f746xx.h"
	.section	.text.ONEWIRE_Init,"ax",%progbits
	.hidden	ONEWIRE_Init            @ -- Begin function ONEWIRE_Init
	.globl	ONEWIRE_Init
	.p2align	2
	.type	ONEWIRE_Init,%function
	.code	16                      @ @ONEWIRE_Init
	.thumb_func
ONEWIRE_Init:
.Lfunc_begin0:
	.loc	2 84 0                  @ ../Src/one_wire.c:84:0
	.fnstart
	.cfi_sections .debug_frame
	.cfi_startproc
@ %bb.0:
	.save	{r4, r5, r7, lr}
	push	{r4, r5, r7, lr}
	.cfi_def_cfa_offset 16
	.cfi_offset lr, -4
	.cfi_offset r7, -8
	.cfi_offset r5, -12
	.cfi_offset r4, -16
.Ltmp0:
	.loc	2 591 27 prologue_end   @ ../Src/one_wire.c:591:27
	ldr	r4, __arm_cp.0_0
	movs	r0, #0
	.loc	2 593 27                @ ../Src/one_wire.c:593:27
	strb	r0, [r4, #5]
	.loc	2 591 27                @ ../Src/one_wire.c:591:27
	strh.w	r0, [r4, #3]
	.loc	2 594 24                @ ../Src/one_wire.c:594:24
	strb	r0, [r4]
.Ltmp1:
	.loc	2 87 5                  @ ../Src/one_wire.c:87:5
	add.w	r0, r4, #16
	mov	r1, r4
	bl	ONEWIRE_Search
	ldr	r1, [r4, #8]
.Ltmp2:
	.loc	2 87 5 is_stmt 0        @ ../Src/one_wire.c:87:5
	cbz	r0, .LBB0_8
@ %bb.1:
.Ltmp3:
	.loc	2 89 3 is_stmt 1        @ ../Src/one_wire.c:89:3
	orr	r0, r1, #2
.Ltmp4:
	.loc	2 90 6                  @ ../Src/one_wire.c:90:6
	mov	r1, r4
.Ltmp5:
	.loc	2 89 3                  @ ../Src/one_wire.c:89:3
	str	r0, [r4, #8]
.Ltmp6:
	.loc	2 90 6                  @ ../Src/one_wire.c:90:6
	add.w	r0, r4, #32
	bl	ONEWIRE_Search
.Ltmp7:
	.loc	2 90 6 is_stmt 0        @ ../Src/one_wire.c:90:6
	cmp	r0, #0
	beq	.LBB0_9
@ %bb.2:
.Ltmp8:
	.loc	2 91 6 is_stmt 1        @ ../Src/one_wire.c:91:6
	add.w	r0, r4, #48
	mov	r1, r4
	bl	ONEWIRE_Search
.Ltmp9:
	.loc	2 91 6 is_stmt 0        @ ../Src/one_wire.c:91:6
	cbz	r0, .LBB0_9
@ %bb.3:
.Ltmp10:
	.loc	2 92 6 is_stmt 1        @ ../Src/one_wire.c:92:6
	add.w	r0, r4, #64
	mov	r1, r4
	bl	ONEWIRE_Search
.Ltmp11:
	.loc	2 92 6 is_stmt 0        @ ../Src/one_wire.c:92:6
	cbz	r0, .LBB0_9
@ %bb.4:
.Ltmp12:
	.loc	2 93 6 is_stmt 1        @ ../Src/one_wire.c:93:6
	add.w	r0, r4, #80
	mov	r1, r4
	bl	ONEWIRE_Search
.Ltmp13:
	.loc	2 93 6 is_stmt 0        @ ../Src/one_wire.c:93:6
	cbz	r0, .LBB0_9
@ %bb.5:
.Ltmp14:
	.loc	2 94 6 is_stmt 1        @ ../Src/one_wire.c:94:6
	add.w	r0, r4, #96
	mov	r1, r4
	bl	ONEWIRE_Search
.Ltmp15:
	.loc	2 94 6 is_stmt 0        @ ../Src/one_wire.c:94:6
	cbz	r0, .LBB0_9
@ %bb.6:
.Ltmp16:
	.loc	2 95 6 is_stmt 1        @ ../Src/one_wire.c:95:6
	add.w	r0, r4, #112
	mov	r1, r4
	bl	ONEWIRE_Search
.Ltmp17:
	.loc	2 95 6 is_stmt 0        @ ../Src/one_wire.c:95:6
	cbz	r0, .LBB0_9
@ %bb.7:
.Ltmp18:
	.loc	2 96 6 is_stmt 1        @ ../Src/one_wire.c:96:6
	ldr	r0, __arm_cp.0_1
	ldr	r1, __arm_cp.0_0
	bl	ONEWIRE_Search
.Ltmp19:
	.loc	2 107 1                 @ ../Src/one_wire.c:107:1
	pop	{r4, r5, r7, pc}
.LBB0_8:
.Ltmp20:
	.loc	2 100 3                 @ ../Src/one_wire.c:100:3
	bic	r0, r1, #2
	str	r0, [r4, #8]
	.loc	2 101 3                 @ ../Src/one_wire.c:101:3
	mov.w	r0, #9600
	bl	ONEWIRE_SetUsart
	.loc	2 102 3                 @ ../Src/one_wire.c:102:3
	ldr	r5, __arm_cp.0_2
	mov	r0, r5
	bl	HAL_HalfDuplex_EnableReceiver
.Ltmp21:
	.loc	2 103 3                 @ ../Src/one_wire.c:103:3
	ldr	r0, [r5]
.Ltmp22:
	.loc	2 104 3                 @ ../Src/one_wire.c:104:3
	movs	r2, #64
.Ltmp23:
	.loc	2 103 3                 @ ../Src/one_wire.c:103:3
	ldr	r1, [r0, #24]
	orr	r1, r1, #8
	str	r1, [r0, #24]
	ldr	r1, [r0, #24]
	orr	r1, r1, #16
	str	r1, [r0, #24]
.Ltmp24:
	.loc	2 104 3                 @ ../Src/one_wire.c:104:3
	ldr	r0, __arm_cp.0_1
	add.w	r1, r0, #16
	mov	r0, r5
	bl	HAL_UART_Receive_IT
	.loc	2 105 16                @ ../Src/one_wire.c:105:16
	movs	r0, #1
	strb	r0, [r4, #1]
.Ltmp25:
.LBB0_9:
	.loc	2 107 1                 @ ../Src/one_wire.c:107:1
	pop	{r4, r5, r7, pc}
.Ltmp26:
	.p2align	2
@ %bb.10:
	.loc	2 0 1 is_stmt 0         @ ../Src/one_wire.c:0:1
__arm_cp.0_0:
	.long	.L_MergedGlobals
.Lcpi_end0:
	.size	__arm_cp.0_0, .Lcpi_end0-__arm_cp.0_0
__arm_cp.0_1:
	.long	.L_MergedGlobals.1
.Lcpi_end1:
	.size	__arm_cp.0_1, .Lcpi_end1-__arm_cp.0_1
__arm_cp.0_2:
	.long	huart2
.Lcpi_end2:
	.size	__arm_cp.0_2, .Lcpi_end2-__arm_cp.0_2
.Lfunc_end0:
	.size	ONEWIRE_Init, .Lfunc_end0-ONEWIRE_Init
	.cfi_endproc
	.cantunwind
	.fnend
                                        @ -- End function
	.section	.text.ONEWIRE_ResetSearch,"ax",%progbits
	.hidden	ONEWIRE_ResetSearch     @ -- Begin function ONEWIRE_ResetSearch
	.globl	ONEWIRE_ResetSearch
	.p2align	2
	.type	ONEWIRE_ResetSearch,%function
	.code	16                      @ @ONEWIRE_ResetSearch
	.thumb_func
ONEWIRE_ResetSearch:
.Lfunc_begin1:
	.loc	2 590 0 is_stmt 1       @ ../Src/one_wire.c:590:0
	.fnstart
	.cfi_startproc
@ %bb.0:
	.loc	2 591 27 prologue_end   @ ../Src/one_wire.c:591:27
	ldr	r0, __arm_cp.1_0
	movs	r1, #0
	.loc	2 593 27                @ ../Src/one_wire.c:593:27
	strb	r1, [r0, #5]
	.loc	2 591 27                @ ../Src/one_wire.c:591:27
	strh.w	r1, [r0, #3]
	.loc	2 594 24                @ ../Src/one_wire.c:594:24
	strb	r1, [r0]
	.loc	2 595 1                 @ ../Src/one_wire.c:595:1
	bx	lr
.Ltmp27:
	.p2align	2
@ %bb.1:
	.loc	2 0 1 is_stmt 0         @ ../Src/one_wire.c:0:1
__arm_cp.1_0:
	.long	.L_MergedGlobals
.Lcpi_end3:
	.size	__arm_cp.1_0, .Lcpi_end3-__arm_cp.1_0
.Lfunc_end1:
	.size	ONEWIRE_ResetSearch, .Lfunc_end1-ONEWIRE_ResetSearch
	.cfi_endproc
	.cantunwind
	.fnend
                                        @ -- End function
	.section	.text.ONEWIRE_Search,"ax",%progbits
	.hidden	ONEWIRE_Search          @ -- Begin function ONEWIRE_Search
	.globl	ONEWIRE_Search
	.p2align	2
	.type	ONEWIRE_Search,%function
	.code	16                      @ @ONEWIRE_Search
	.thumb_func
ONEWIRE_Search:
.Lfunc_begin2:
	.loc	2 599 0 is_stmt 1       @ ../Src/one_wire.c:599:0
	.fnstart
	.cfi_startproc
@ %bb.0:
	.save	{r4, r5, r6, r7, r8, r9, r10, r11, lr}
	.pad	#4
	push.w	{r3, r4, r5, r6, r7, r8, r9, r10, r11, lr}
	.cfi_def_cfa_offset 40
	.cfi_offset lr, -4
	.cfi_offset r11, -8
	.cfi_offset r10, -12
	.cfi_offset r9, -16
	.cfi_offset r8, -20
	.cfi_offset r7, -24
	.cfi_offset r6, -28
	.cfi_offset r5, -32
	.cfi_offset r4, -36
	@DEBUG_VALUE: ONEWIRE_Search:ds18b20 <- $r0
	@DEBUG_VALUE: ONEWIRE_Search:sensor_cnt <- $r1
.Ltmp28:
	.loc	2 610 6 prologue_end    @ ../Src/one_wire.c:610:6
	ldr.w	r9, __arm_cp.2_0
	mov	r11, r0
.Ltmp29:
	@DEBUG_VALUE: ONEWIRE_Search:rom_byte_mask <- 1
	@DEBUG_VALUE: ONEWIRE_Search:rom_byte_number <- 0
	@DEBUG_VALUE: ONEWIRE_Search:last_zero <- 0
	@DEBUG_VALUE: ONEWIRE_Search:id_bit_number <- 1
	@DEBUG_VALUE: ONEWIRE_Search:sensor_cnt <- $r8
	@DEBUG_VALUE: ONEWIRE_Search:ds18b20 <- $r11
	.loc	2 0 6 is_stmt 0         @ ../Src/one_wire.c:0:6
	mov	r8, r1
.Ltmp30:
	.loc	2 610 6                 @ ../Src/one_wire.c:610:6
	ldrb.w	r0, [r9, #5]
.Ltmp31:
	.loc	2 610 6                 @ ../Src/one_wire.c:610:6
	cbz	r0, .LBB2_3
.Ltmp32:
.LBB2_1:
	@DEBUG_VALUE: ONEWIRE_Search:ds18b20 <- $r11
	.loc	2 668 31 is_stmt 1      @ ../Src/one_wire.c:668:31
	ldrb.w	r0, [r11, #1]
.Ltmp33:
	.loc	2 668 6 is_stmt 0       @ ../Src/one_wire.c:668:6
	cmp	r0, #0
	beq	.LBB2_17
.Ltmp34:
@ %bb.2:
	@DEBUG_VALUE: ONEWIRE_Search:ds18b20 <- $r11
	.loc	2 677 11 is_stmt 1      @ ../Src/one_wire.c:677:11
	ldr	r1, __arm_cp.2_1
	ldrb	r0, [r1]
	adds	r0, #1
	strb	r0, [r1]
	.loc	2 678 15                @ ../Src/one_wire.c:678:15
	strb.w	r0, [r8]
	.loc	2 679 22                @ ../Src/one_wire.c:679:22
	strb.w	r0, [r11]
	b	.LBB2_18
.Ltmp35:
.LBB2_3:
	@DEBUG_VALUE: ONEWIRE_Search:ds18b20 <- $r11
	.loc	2 612 7                 @ ../Src/one_wire.c:612:7
	bl	ONEWIRE_Reset
.Ltmp36:
	.loc	2 612 7 is_stmt 0       @ ../Src/one_wire.c:612:7
	cmp	r0, #0
	beq	.LBB2_17
.Ltmp37:
@ %bb.4:
	@DEBUG_VALUE: ONEWIRE_Search:ds18b20 <- $r11
	.loc	2 620 3 is_stmt 1       @ ../Src/one_wire.c:620:3
	movs	r0, #240
	bl	ONEWIRE_SendByte
	movs	r5, #1
	movs	r7, #0
	mov.w	r10, #0
	movs	r4, #1
.Ltmp38:
.LBB2_5:                                @ =>This Inner Loop Header: Depth=1
	@DEBUG_VALUE: ONEWIRE_Search:ds18b20 <- $r11
	.loc	2 623 13                @ ../Src/one_wire.c:623:13
	bl	ONEWIRE_ReceiveBit
	mov	r6, r0
	.loc	2 624 17                @ ../Src/one_wire.c:624:17
	bl	ONEWIRE_ReceiveBit
.Ltmp39:
	.loc	2 626 22                @ ../Src/one_wire.c:626:22
	cmp	r6, #1
	it	eq
	cmpeq	r0, #1
	beq	.LBB2_15
.Ltmp40:
@ %bb.6:                                @   in Loop: Header=BB2_5 Depth=1
	@DEBUG_VALUE: ONEWIRE_Search:ds18b20 <- $r11
	.loc	2 629 9                 @ ../Src/one_wire.c:629:9
	cmp	r6, r0
	bne	.LBB2_9
.Ltmp41:
@ %bb.7:                                @   in Loop: Header=BB2_5 Depth=1
	@DEBUG_VALUE: ONEWIRE_Search:ds18b20 <- $r11
	.loc	2 632 26                @ ../Src/one_wire.c:632:26
	ldrb.w	r1, [r9, #3]
	.loc	2 632 24 is_stmt 0      @ ../Src/one_wire.c:632:24
	uxtb	r0, r5
.Ltmp42:
	.loc	2 632 10                @ ../Src/one_wire.c:632:10
	cmp	r0, r1
	bhs	.LBB2_10
.Ltmp43:
@ %bb.8:                                @   in Loop: Header=BB2_5 Depth=1
	@DEBUG_VALUE: ONEWIRE_Search:ds18b20 <- $r11
	.loc	2 634 28 is_stmt 1      @ ../Src/one_wire.c:634:28
	uxtab	r1, r11, r7
	ldrb	r1, [r1, #1]
.Ltmp44:
	.loc	2 638 10                @ ../Src/one_wire.c:638:10
	tst	r1, r4
	bne	.LBB2_11
	b	.LBB2_12
.Ltmp45:
.LBB2_9:                                @   in Loop: Header=BB2_5 Depth=1
	@DEBUG_VALUE: ONEWIRE_Search:ds18b20 <- $r11
	.loc	2 645 9                 @ ../Src/one_wire.c:645:9
	cmp	r6, #1
	beq	.LBB2_11
	b	.LBB2_13
.Ltmp46:
.LBB2_10:                               @   in Loop: Header=BB2_5 Depth=1
	@DEBUG_VALUE: ONEWIRE_Search:ds18b20 <- $r11
	.loc	2 638 10                @ ../Src/one_wire.c:638:10
	bne	.LBB2_12
.Ltmp47:
.LBB2_11:                               @   in Loop: Header=BB2_5 Depth=1
	@DEBUG_VALUE: ONEWIRE_Search:ds18b20 <- $r11
	.loc	2 645 32                @ ../Src/one_wire.c:645:32
	uxtab	r0, r11, r7
	movs	r6, #1
	.loc	2 645 67 is_stmt 0      @ ../Src/one_wire.c:645:67
	ldrb	r1, [r0, #1]
	orrs	r1, r4
	b	.LBB2_14
.Ltmp48:
.LBB2_12:                               @   in Loop: Header=BB2_5 Depth=1
	@DEBUG_VALUE: ONEWIRE_Search:ds18b20 <- $r11
	.loc	2 641 11 is_stmt 1      @ ../Src/one_wire.c:641:11
	cmp	r0, #8
	mov.w	r6, #0
	mov	r10, r5
.Ltmp49:
	.loc	2 641 59 is_stmt 0      @ ../Src/one_wire.c:641:59
	it	ls
	strbls.w	r5, [r9, #4]
.Ltmp50:
.LBB2_13:                               @   in Loop: Header=BB2_5 Depth=1
	@DEBUG_VALUE: ONEWIRE_Search:ds18b20 <- $r11
	.loc	2 646 10 is_stmt 1      @ ../Src/one_wire.c:646:10
	uxtab	r0, r11, r7
	.loc	2 646 45 is_stmt 0      @ ../Src/one_wire.c:646:45
	ldrb	r1, [r0, #1]
	bics	r1, r4
.Ltmp51:
.LBB2_14:                               @   in Loop: Header=BB2_5 Depth=1
	@DEBUG_VALUE: ONEWIRE_Search:ds18b20 <- $r11
	.loc	2 0 45                  @ ../Src/one_wire.c:0:45
	strb	r1, [r0, #1]
	.loc	2 648 5 is_stmt 1       @ ../Src/one_wire.c:648:5
	mov	r0, r6
	bl	ONEWIRE_SendBit
	.loc	2 650 19                @ ../Src/one_wire.c:650:19
	lsls	r4, r4, #1
	.loc	2 649 18                @ ../Src/one_wire.c:649:18
	adds	r5, #1
	.loc	2 650 19                @ ../Src/one_wire.c:650:19
	uxtb	r0, r4
	.loc	2 652 9                 @ ../Src/one_wire.c:652:9
	cmp	r0, #0
	it	eq
	addeq	r7, #1
	it	eq
	moveq	r4, #1
	uxtb	r0, r7
.Ltmp52:
	.loc	2 658 3                 @ ../Src/one_wire.c:658:3
	cmp	r0, #8
	blo	.LBB2_5
.Ltmp53:
.LBB2_15:
	@DEBUG_VALUE: ONEWIRE_Search:ds18b20 <- $r11
	.loc	2 660 23                @ ../Src/one_wire.c:660:23
	uxtb	r0, r5
.Ltmp54:
	.loc	2 660 7 is_stmt 0       @ ../Src/one_wire.c:660:7
	cmp	r0, #65
	blo	.LBB2_1
.Ltmp55:
@ %bb.16:
	@DEBUG_VALUE: ONEWIRE_Search:ds18b20 <- $r11
	@DEBUG_VALUE: ONEWIRE_Search:search_result <- 1
	.loc	2 664 8 is_stmt 1       @ ../Src/one_wire.c:664:8
	tst.w	r10, #255
	.loc	2 663 29                @ ../Src/one_wire.c:663:29
	strb.w	r10, [r9, #3]
.Ltmp56:
	.loc	2 664 64                @ ../Src/one_wire.c:664:64
	itt	eq
	moveq	r0, #1
	strbeq.w	r0, [r9, #5]
	b	.LBB2_1
.Ltmp57:
.LBB2_17:
	@DEBUG_VALUE: ONEWIRE_Search:ds18b20 <- $r11
	.loc	2 0 64 is_stmt 0        @ ../Src/one_wire.c:0:64
	movs	r0, #0
	strb.w	r0, [r9, #5]
	strh.w	r0, [r9, #3]
.Ltmp58:
.LBB2_18:
	@DEBUG_VALUE: ONEWIRE_Search:ds18b20 <- $r11
	.loc	2 682 1 is_stmt 1       @ ../Src/one_wire.c:682:1
	uxtb	r0, r0
	add	sp, #4
	pop.w	{r4, r5, r6, r7, r8, r9, r10, r11, pc}
.Ltmp59:
	.p2align	2
@ %bb.19:
	.loc	2 0 1 is_stmt 0         @ ../Src/one_wire.c:0:1
__arm_cp.2_0:
	.long	.L_MergedGlobals
.Lcpi_end4:
	.size	__arm_cp.2_0, .Lcpi_end4-__arm_cp.2_0
__arm_cp.2_1:
	.long	ONEWIRE_Search.init_cnt
.Lcpi_end5:
	.size	__arm_cp.2_1, .Lcpi_end5-__arm_cp.2_1
.Lfunc_end2:
	.size	ONEWIRE_Search, .Lfunc_end2-ONEWIRE_Search
	.cfi_endproc
	.cantunwind
	.fnend
                                        @ -- End function
	.section	.text.ONEWIRE_SetUsart,"ax",%progbits
	.hidden	ONEWIRE_SetUsart        @ -- Begin function ONEWIRE_SetUsart
	.globl	ONEWIRE_SetUsart
	.p2align	2
	.type	ONEWIRE_SetUsart,%function
	.code	16                      @ @ONEWIRE_SetUsart
	.thumb_func
ONEWIRE_SetUsart:
.Lfunc_begin3:
	.loc	2 405 0 is_stmt 1       @ ../Src/one_wire.c:405:0
	.fnstart
	.cfi_startproc
@ %bb.0:
	.save	{r7, lr}
	push	{r7, lr}
	.cfi_def_cfa_offset 8
	.cfi_offset lr, -4
	.cfi_offset r7, -8
	@DEBUG_VALUE: ONEWIRE_SetUsart:setup <- $r0
	@DEBUG_VALUE: ONEWIRE_SetUsart:setup <- $r0
.Ltmp60:
	.loc	2 406 27 prologue_end   @ ../Src/one_wire.c:406:27
	ldr	r1, __arm_cp.3_0
	ldr	r2, __arm_cp.3_1
	movs	r3, #0
	mov.w	r12, #12
	strd	r2, r0, [r1]
.Ltmp61:
	.loc	2 415 5                 @ ../Src/one_wire.c:415:5
	mov	r0, r1
.Ltmp62:
	.loc	2 408 27                @ ../Src/one_wire.c:408:27
	strd	r3, r3, [r1, #8]
	.loc	2 410 27                @ ../Src/one_wire.c:410:27
	strd	r3, r12, [r1, #16]
	.loc	2 411 27                @ ../Src/one_wire.c:411:27
	strd	r3, r3, [r1, #24]
	.loc	2 414 37                @ ../Src/one_wire.c:414:37
	str	r3, [r1, #36]
.Ltmp63:
	.loc	2 415 5                 @ ../Src/one_wire.c:415:5
	bl	HAL_UART_DeInit
.Ltmp64:
	.loc	2 415 5 is_stmt 0       @ ../Src/one_wire.c:415:5
	cbz	r0, .LBB3_2
@ %bb.1:
.Ltmp65:
	.loc	2 415 41                @ ../Src/one_wire.c:415:41
	bl	Error_Handler
.Ltmp66:
.LBB3_2:
	.loc	2 416 5 is_stmt 1       @ ../Src/one_wire.c:416:5
	ldr	r0, __arm_cp.3_0
	bl	HAL_HalfDuplex_Init
.Ltmp67:
	.loc	2 416 5 is_stmt 0       @ ../Src/one_wire.c:416:5
	cbz	r0, .LBB3_4
@ %bb.3:
.Ltmp68:
	.loc	2 416 45                @ ../Src/one_wire.c:416:45
	pop.w	{r7, lr}
	b	Error_Handler
.Ltmp69:
.LBB3_4:
	.loc	2 417 1 is_stmt 1       @ ../Src/one_wire.c:417:1
	pop	{r7, pc}
.Ltmp70:
	.p2align	2
@ %bb.5:
	.loc	2 0 1 is_stmt 0         @ ../Src/one_wire.c:0:1
__arm_cp.3_0:
	.long	huart2
.Lcpi_end6:
	.size	__arm_cp.3_0, .Lcpi_end6-__arm_cp.3_0
__arm_cp.3_1:
	.long	1073759232              @ 0x40004400
.Lcpi_end7:
	.size	__arm_cp.3_1, .Lcpi_end7-__arm_cp.3_1
.Lfunc_end3:
	.size	ONEWIRE_SetUsart, .Lfunc_end3-ONEWIRE_SetUsart
	.cfi_endproc
	.cantunwind
	.fnend
                                        @ -- End function
	.section	.text.ONEWIRE_Service,"ax",%progbits
	.hidden	ONEWIRE_Service         @ -- Begin function ONEWIRE_Service
	.globl	ONEWIRE_Service
	.p2align	2
	.type	ONEWIRE_Service,%function
	.code	16                      @ @ONEWIRE_Service
	.thumb_func
ONEWIRE_Service:
.Lfunc_begin4:
	.loc	2 111 0 is_stmt 1       @ ../Src/one_wire.c:111:0
	.fnstart
	.cfi_startproc
@ %bb.0:
	.save	{r4, r5, r6, r7, r8, lr}
	push.w	{r4, r5, r6, r7, r8, lr}
	.cfi_def_cfa_offset 24
	.cfi_offset lr, -4
	.cfi_offset r8, -8
	.cfi_offset r7, -12
	.cfi_offset r6, -16
	.cfi_offset r5, -20
	.cfi_offset r4, -24
.Ltmp71:
	.loc	2 117 6 prologue_end    @ ../Src/one_wire.c:117:6
	ldr.w	r6, __arm_cp.4_0
	ldr	r0, [r6, #12]
.Ltmp72:
	.loc	2 117 5 is_stmt 0       @ ../Src/one_wire.c:117:5
	cbz	r0, .LBB4_2
.LBB4_1:
	.loc	2 389 1 is_stmt 1       @ ../Src/one_wire.c:389:1
	pop.w	{r4, r5, r6, r7, r8, pc}
.LBB4_2:
.Ltmp73:
	.loc	2 121 10                @ ../Src/one_wire.c:121:10
	ldrb	r0, [r6, #8]
	lsls	r0, r0, #30
	bmi	.LBB4_14
@ %bb.3:
.Ltmp74:
	.loc	2 187 7                 @ ../Src/one_wire.c:187:7
	ldrb	r0, [r6, #1]
.Ltmp75:
	.loc	2 187 7 is_stmt 0       @ ../Src/one_wire.c:187:7
	cmp	r0, #3
	beq.w	.LBB4_51
@ %bb.4:
	cmp	r0, #2
	bne	.LBB4_1
@ %bb.5:
.Ltmp76:
	.loc	2 192 7 is_stmt 1       @ ../Src/one_wire.c:192:7
	ldr.w	r7, __arm_cp.4_2
	ldrb	r0, [r7, #18]
.Ltmp77:
	.loc	2 192 7 is_stmt 0       @ ../Src/one_wire.c:192:7
	cmp	r0, #6
	bne	.LBB4_7
@ %bb.6:
.Ltmp78:
	.loc	2 194 5 is_stmt 1       @ ../Src/one_wire.c:194:5
	ldrb	r1, [r7, #19]
	ldr.w	r4, __arm_cp.4_10
	movw	r0, #2051
	blx	r4
	.loc	2 195 5                 @ ../Src/one_wire.c:195:5
	ldrb	r1, [r7, #20]
	movw	r0, #2052
	blx	r4
	.loc	2 196 5                 @ ../Src/one_wire.c:196:5
	ldrb	r1, [r7, #21]
	movw	r0, #2053
	blx	r4
.Ltmp79:
.LBB4_7:
	.loc	2 201 7                 @ ../Src/one_wire.c:201:7
	ldrb	r0, [r7, #22]
.Ltmp80:
	.loc	2 201 7 is_stmt 0       @ ../Src/one_wire.c:201:7
	cmp	r0, #6
	bne	.LBB4_9
@ %bb.8:
.Ltmp81:
	.loc	2 203 17 is_stmt 1      @ ../Src/one_wire.c:203:17
	ldrb	r0, [r7, #23]
	.loc	2 203 15 is_stmt 0      @ ../Src/one_wire.c:203:15
	ldr	r4, __arm_cp.4_4
	.loc	2 206 17 is_stmt 1      @ ../Src/one_wire.c:206:17
	ldrb	r1, [r7, #26]
	.loc	2 207 18                @ ../Src/one_wire.c:207:18
	ldrb	r2, [r7, #27]
	.loc	2 210 5                 @ ../Src/one_wire.c:210:5
	ldr.w	r5, __arm_cp.4_11
	.loc	2 203 15                @ ../Src/one_wire.c:203:15
	strb	r0, [r4, #2]
	.loc	2 204 20                @ ../Src/one_wire.c:204:20
	ldrh	r0, [r7, #24]
	.loc	2 204 18 is_stmt 0      @ ../Src/one_wire.c:204:18
	strh	r0, [r4]
	.loc	2 206 15 is_stmt 1      @ ../Src/one_wire.c:206:15
	strb	r1, [r4, #3]
	.loc	2 207 16                @ ../Src/one_wire.c:207:16
	ldr	r1, __arm_cp.4_5
	.loc	2 208 20                @ ../Src/one_wire.c:208:20
	ldrh	r0, [r7, #28]
	.loc	2 207 16                @ ../Src/one_wire.c:207:16
	strb	r2, [r1]
	.loc	2 208 18                @ ../Src/one_wire.c:208:18
	strh.w	r0, [r1, #1]
	.loc	2 210 5                 @ ../Src/one_wire.c:210:5
	mov	r0, r5
	movs	r2, #1
	bl	HAL_RTC_SetTime
	.loc	2 211 5                 @ ../Src/one_wire.c:211:5
	mov	r0, r5
	mov	r1, r4
	movs	r2, #1
	bl	HAL_RTC_SetDate
	.loc	2 212 5                 @ ../Src/one_wire.c:212:5
	mov	r0, r5
	bl	HAL_RTC_WaitForSynchro
.Ltmp82:
.LBB4_9:
	.loc	2 217 7                 @ ../Src/one_wire.c:217:7
	ldrb	r0, [r7, #30]
.Ltmp83:
	.loc	2 217 7 is_stmt 0       @ ../Src/one_wire.c:217:7
	cmp	r0, #6
	bne	.LBB4_11
@ %bb.10:
.Ltmp84:
	.loc	2 219 26 is_stmt 1      @ ../Src/one_wire.c:219:26
	ldr.w	r0, [r7, #31]
	.loc	2 219 24 is_stmt 0      @ ../Src/one_wire.c:219:24
	ldr	r2, __arm_cp.4_6
	.loc	2 225 41 is_stmt 1      @ ../Src/one_wire.c:225:41
	ldr.w	r1, [r7, #39]
	.loc	2 219 24                @ ../Src/one_wire.c:219:24
	str	r0, [r2]
	.loc	2 223 66                @ ../Src/one_wire.c:223:66
	ldrh.w	r0, [r7, #35]
	.loc	2 225 39                @ ../Src/one_wire.c:225:39
	str	r1, [r2, #8]
	.loc	2 223 66                @ ../Src/one_wire.c:223:66
	rev	r0, r0
	lsrs	r0, r0, #16
	.loc	2 223 37 is_stmt 0      @ ../Src/one_wire.c:223:37
	strh	r0, [r2, #4]
	.loc	2 224 63 is_stmt 1      @ ../Src/one_wire.c:224:63
	ldrh.w	r0, [r7, #37]
	rev	r0, r0
	lsrs	r0, r0, #16
	.loc	2 224 34 is_stmt 0      @ ../Src/one_wire.c:224:34
	strh	r0, [r2, #6]
.Ltmp85:
.LBB4_11:
	.loc	2 280 7 is_stmt 1       @ ../Src/one_wire.c:280:7
	ldrb.w	r0, [r7, #72]
.Ltmp86:
	.loc	2 280 7 is_stmt 0       @ ../Src/one_wire.c:280:7
	cmp	r0, #6
	bne	.LBB4_13
@ %bb.12:
	.loc	2 0 7                   @ ../Src/one_wire.c:0:7
	ldr	r2, __arm_cp.4_7
.Ltmp87:
	.loc	2 282 8 is_stmt 1       @ ../Src/one_wire.c:282:8
	ldrb.w	r0, [r7, #73]
.Ltmp88:
	.loc	2 285 8                 @ ../Src/one_wire.c:285:8
	ldrb.w	r1, [r7, #74]
	ldr	r3, [r2]
.Ltmp89:
	.loc	2 282 8                 @ ../Src/one_wire.c:282:8
	cmp	r0, #0
.Ltmp90:
	.loc	2 283 10                @ ../Src/one_wire.c:283:10
	orr	r5, r3, #1
.Ltmp91:
	.loc	2 282 8                 @ ../Src/one_wire.c:282:8
	it	eq
	biceq	r5, r3, #1
	.loc	2 285 8                 @ ../Src/one_wire.c:285:8
	cmp	r1, #0
.Ltmp92:
	.loc	2 286 10                @ ../Src/one_wire.c:286:10
	orr	r0, r5, #2
.Ltmp93:
	.loc	2 285 8                 @ ../Src/one_wire.c:285:8
	it	eq
	biceq	r0, r5, #2
	str	r0, [r2]
.Ltmp94:
.LBB4_13:
	.loc	2 290 17                @ ../Src/one_wire.c:290:17
	movs	r0, #3
	.loc	2 289 32                @ ../Src/one_wire.c:289:32
	ldr	r1, __arm_cp.4_8
	.loc	2 290 17                @ ../Src/one_wire.c:290:17
	strb	r0, [r6, #1]
	.loc	2 289 34                @ ../Src/one_wire.c:289:34
	ldrb.w	r0, [r7, #75]
	.loc	2 289 32 is_stmt 0      @ ../Src/one_wire.c:289:32
	strb	r0, [r1]
.Ltmp95:
	.loc	2 389 1 is_stmt 1       @ ../Src/one_wire.c:389:1
	pop.w	{r4, r5, r6, r7, r8, pc}
.LBB4_14:
	.loc	2 0 1 is_stmt 0         @ ../Src/one_wire.c:0:1
	ldr	r5, __arm_cp.4_1
	ldrb	r4, [r5]
.Ltmp96:
	bl	ONEWIRE_Reset
	movs	r0, #85
	bl	ONEWIRE_SendByte
.Ltmp97:
	@DEBUG_VALUE: ONEWIRE_Service:e <- 0
	.loc	2 126 6 is_stmt 1       @ ../Src/one_wire.c:126:6
	cmp	r4, #0
	beq	.LBB4_35
@ %bb.15:
	.loc	2 0 6 is_stmt 0         @ ../Src/one_wire.c:0:6
	ldr	r7, __arm_cp.4_2
	movs	r4, #0
	b	.LBB4_29
.LBB4_16:                               @   in Loop: Header=BB4_29 Depth=1
.Ltmp98:
	@DEBUG_VALUE: ONEWIRE_Service:e <- $r4
	.loc	2 154 8 is_stmt 1       @ ../Src/one_wire.c:154:8
	ldrb	r0, [r5, #1]
.Ltmp99:
	.loc	2 154 8 is_stmt 0       @ ../Src/one_wire.c:154:8
	cmp	r0, #7
	bhi	.LBB4_28
.Ltmp100:
@ %bb.17:                               @   in Loop: Header=BB4_29 Depth=1
	@DEBUG_VALUE: ONEWIRE_Service:e <- $r4
	.loc	2 0 8                   @ ../Src/one_wire.c:0:8
.LCPI4_12:
	tbb	[pc, r0]
.Ltmp101:
@ %bb.18:
.LJTI4_1:
	.byte	(.LBB4_19-(.LCPI4_12+4))/2
	.byte	(.LBB4_20-(.LCPI4_12+4))/2
	.byte	(.LBB4_21-(.LCPI4_12+4))/2
	.byte	(.LBB4_22-(.LCPI4_12+4))/2
	.byte	(.LBB4_23-(.LCPI4_12+4))/2
	.byte	(.LBB4_24-(.LCPI4_12+4))/2
	.byte	(.LBB4_26-(.LCPI4_12+4))/2
	.byte	(.LBB4_25-(.LCPI4_12+4))/2
	.p2align	1
.LBB4_19:                               @   in Loop: Header=BB4_29 Depth=1
.Ltmp102:
	@DEBUG_VALUE: ONEWIRE_Service:e <- $r4
	.loc	2 154 43                @ ../Src/one_wire.c:154:43
	adds	r0, r6, r4
	.loc	2 154 26                @ ../Src/one_wire.c:154:26
	ldrb	r0, [r0, #17]
	b	.LBB4_27
.Ltmp103:
.LBB4_20:                               @   in Loop: Header=BB4_29 Depth=1
	@DEBUG_VALUE: ONEWIRE_Service:e <- $r4
	.loc	2 155 48 is_stmt 1      @ ../Src/one_wire.c:155:48
	adds	r0, r6, r4
	.loc	2 155 31 is_stmt 0      @ ../Src/one_wire.c:155:31
	ldrb.w	r0, [r0, #33]
	b	.LBB4_27
.Ltmp104:
.LBB4_21:                               @   in Loop: Header=BB4_29 Depth=1
	@DEBUG_VALUE: ONEWIRE_Service:e <- $r4
	.loc	2 156 48 is_stmt 1      @ ../Src/one_wire.c:156:48
	adds	r0, r6, r4
	.loc	2 156 31 is_stmt 0      @ ../Src/one_wire.c:156:31
	ldrb.w	r0, [r0, #49]
	b	.LBB4_27
.Ltmp105:
.LBB4_22:                               @   in Loop: Header=BB4_29 Depth=1
	@DEBUG_VALUE: ONEWIRE_Service:e <- $r4
	.loc	2 157 48 is_stmt 1      @ ../Src/one_wire.c:157:48
	adds	r0, r6, r4
	.loc	2 157 31 is_stmt 0      @ ../Src/one_wire.c:157:31
	ldrb.w	r0, [r0, #65]
	b	.LBB4_27
.Ltmp106:
.LBB4_23:                               @   in Loop: Header=BB4_29 Depth=1
	@DEBUG_VALUE: ONEWIRE_Service:e <- $r4
	.loc	2 158 48 is_stmt 1      @ ../Src/one_wire.c:158:48
	adds	r0, r6, r4
	.loc	2 158 31 is_stmt 0      @ ../Src/one_wire.c:158:31
	ldrb.w	r0, [r0, #81]
	b	.LBB4_27
.Ltmp107:
.LBB4_24:                               @   in Loop: Header=BB4_29 Depth=1
	@DEBUG_VALUE: ONEWIRE_Service:e <- $r4
	.loc	2 159 48 is_stmt 1      @ ../Src/one_wire.c:159:48
	adds	r0, r6, r4
	.loc	2 159 31 is_stmt 0      @ ../Src/one_wire.c:159:31
	ldrb.w	r0, [r0, #97]
	b	.LBB4_27
.Ltmp108:
.LBB4_25:                               @   in Loop: Header=BB4_29 Depth=1
	@DEBUG_VALUE: ONEWIRE_Service:e <- $r4
	.loc	2 161 48 is_stmt 1      @ ../Src/one_wire.c:161:48
	adds	r0, r7, r4
	.loc	2 161 31 is_stmt 0      @ ../Src/one_wire.c:161:31
	ldrb	r0, [r0, #1]
	b	.LBB4_27
.Ltmp109:
.LBB4_26:                               @   in Loop: Header=BB4_29 Depth=1
	@DEBUG_VALUE: ONEWIRE_Service:e <- $r4
	.loc	2 160 48 is_stmt 1      @ ../Src/one_wire.c:160:48
	adds	r0, r6, r4
	.loc	2 160 31 is_stmt 0      @ ../Src/one_wire.c:160:31
	ldrb.w	r0, [r0, #113]
.Ltmp110:
.LBB4_27:                               @   in Loop: Header=BB4_29 Depth=1
	@DEBUG_VALUE: ONEWIRE_Service:e <- $r4
	.loc	2 0 31                  @ ../Src/one_wire.c:0:31
	bl	ONEWIRE_SendByte
.Ltmp111:
.LBB4_28:                               @   in Loop: Header=BB4_29 Depth=1
	@DEBUG_VALUE: ONEWIRE_Service:e <- $r4
	.loc	2 152 23 is_stmt 1      @ ../Src/one_wire.c:152:23
	adds	r4, #1
.Ltmp112:
.LBB4_29:                               @ =>This Inner Loop Header: Depth=1
	@DEBUG_VALUE: ONEWIRE_Service:e <- $r4
	.loc	2 152 4 is_stmt 0       @ ../Src/one_wire.c:152:4
	cmp	r4, #8
	bne	.LBB4_16
.Ltmp113:
@ %bb.30:
	@DEBUG_VALUE: ONEWIRE_Service:e <- $r4
	.loc	2 164 4 is_stmt 1       @ ../Src/one_wire.c:164:4
	movs	r0, #190
	bl	ONEWIRE_SendByte
	.loc	2 165 4                 @ ../Src/one_wire.c:165:4
	add.w	r4, r7, #16
.Ltmp114:
	movs	r1, #9
	mov	r0, r4
	bl	ONEWIRE_Receive
	.loc	2 166 18                @ ../Src/one_wire.c:166:18
	mov	r0, r4
	movs	r1, #8
	bl	ONEWIRE_CrcCheck
.Ltmp115:
	.loc	2 168 22                @ ../Src/one_wire.c:168:22
	ldrb	r1, [r7, #24]
.Ltmp116:
	.loc	2 166 16                @ ../Src/one_wire.c:166:16
	strb	r0, [r6, #2]
	.loc	2 168 7                 @ ../Src/one_wire.c:168:7
	cmp	r0, r1
	bne.w	.LBB4_54
@ %bb.31:
.Ltmp117:
	.loc	2 171 8                 @ ../Src/one_wire.c:171:8
	ldrb	r0, [r5, #1]
.Ltmp118:
	.loc	2 171 8 is_stmt 0       @ ../Src/one_wire.c:171:8
	cmp	r0, #7
	bhi.w	.LBB4_55
@ %bb.32:
	.loc	2 0 8                   @ ../Src/one_wire.c:0:8
	ldrh	r1, [r7, #16]
.LCPI4_13:
	tbh	[pc, r0, lsl #1]
@ %bb.33:
.LJTI4_2:
	.short	(.LBB4_34-(.LCPI4_13+4))/2
	.short	(.LBB4_56-(.LCPI4_13+4))/2
	.short	(.LBB4_57-(.LCPI4_13+4))/2
	.short	(.LBB4_58-(.LCPI4_13+4))/2
	.short	(.LBB4_59-(.LCPI4_13+4))/2
	.short	(.LBB4_60-(.LCPI4_13+4))/2
	.short	(.LBB4_61-(.LCPI4_13+4))/2
	.short	(.LBB4_62-(.LCPI4_13+4))/2
	.p2align	1
.LBB4_34:
.Ltmp119:
	.loc	2 171 50                @ ../Src/one_wire.c:171:50
	uxth	r0, r1
	bl	ONEWIRE_ScratchpadToTemperature
	.loc	2 171 48                @ ../Src/one_wire.c:171:48
	str	r0, [r6, #28]
	movs	r0, #0
	b	.LBB4_55
.Ltmp120:
.LBB4_35:
	.loc	2 0 48                  @ ../Src/one_wire.c:0:48
	ldr	r7, __arm_cp.4_2
	movs	r4, #0
	b	.LBB4_49
.LBB4_36:                               @   in Loop: Header=BB4_49 Depth=1
.Ltmp121:
	@DEBUG_VALUE: ONEWIRE_Service:e <- $r4
	.loc	2 133 8 is_stmt 1       @ ../Src/one_wire.c:133:8
	ldrb	r0, [r5, #1]
.Ltmp122:
	.loc	2 133 8 is_stmt 0       @ ../Src/one_wire.c:133:8
	cmp	r0, #7
	bhi	.LBB4_48
.Ltmp123:
@ %bb.37:                               @   in Loop: Header=BB4_49 Depth=1
	@DEBUG_VALUE: ONEWIRE_Service:e <- $r4
	.loc	2 0 8                   @ ../Src/one_wire.c:0:8
.LCPI4_14:
	tbb	[pc, r0]
.Ltmp124:
@ %bb.38:
.LJTI4_0:
	.byte	(.LBB4_39-(.LCPI4_14+4))/2
	.byte	(.LBB4_40-(.LCPI4_14+4))/2
	.byte	(.LBB4_41-(.LCPI4_14+4))/2
	.byte	(.LBB4_42-(.LCPI4_14+4))/2
	.byte	(.LBB4_43-(.LCPI4_14+4))/2
	.byte	(.LBB4_44-(.LCPI4_14+4))/2
	.byte	(.LBB4_46-(.LCPI4_14+4))/2
	.byte	(.LBB4_45-(.LCPI4_14+4))/2
	.p2align	1
.LBB4_39:                               @   in Loop: Header=BB4_49 Depth=1
.Ltmp125:
	@DEBUG_VALUE: ONEWIRE_Service:e <- $r4
	.loc	2 133 43                @ ../Src/one_wire.c:133:43
	adds	r0, r6, r4
	.loc	2 133 26                @ ../Src/one_wire.c:133:26
	ldrb	r0, [r0, #17]
	b	.LBB4_47
.Ltmp126:
.LBB4_40:                               @   in Loop: Header=BB4_49 Depth=1
	@DEBUG_VALUE: ONEWIRE_Service:e <- $r4
	.loc	2 134 48 is_stmt 1      @ ../Src/one_wire.c:134:48
	adds	r0, r6, r4
	.loc	2 134 31 is_stmt 0      @ ../Src/one_wire.c:134:31
	ldrb.w	r0, [r0, #33]
	b	.LBB4_47
.Ltmp127:
.LBB4_41:                               @   in Loop: Header=BB4_49 Depth=1
	@DEBUG_VALUE: ONEWIRE_Service:e <- $r4
	.loc	2 135 48 is_stmt 1      @ ../Src/one_wire.c:135:48
	adds	r0, r6, r4
	.loc	2 135 31 is_stmt 0      @ ../Src/one_wire.c:135:31
	ldrb.w	r0, [r0, #49]
	b	.LBB4_47
.Ltmp128:
.LBB4_42:                               @   in Loop: Header=BB4_49 Depth=1
	@DEBUG_VALUE: ONEWIRE_Service:e <- $r4
	.loc	2 136 48 is_stmt 1      @ ../Src/one_wire.c:136:48
	adds	r0, r6, r4
	.loc	2 136 31 is_stmt 0      @ ../Src/one_wire.c:136:31
	ldrb.w	r0, [r0, #65]
	b	.LBB4_47
.Ltmp129:
.LBB4_43:                               @   in Loop: Header=BB4_49 Depth=1
	@DEBUG_VALUE: ONEWIRE_Service:e <- $r4
	.loc	2 137 48 is_stmt 1      @ ../Src/one_wire.c:137:48
	adds	r0, r6, r4
	.loc	2 137 31 is_stmt 0      @ ../Src/one_wire.c:137:31
	ldrb.w	r0, [r0, #81]
	b	.LBB4_47
.Ltmp130:
.LBB4_44:                               @   in Loop: Header=BB4_49 Depth=1
	@DEBUG_VALUE: ONEWIRE_Service:e <- $r4
	.loc	2 138 48 is_stmt 1      @ ../Src/one_wire.c:138:48
	adds	r0, r6, r4
	.loc	2 138 31 is_stmt 0      @ ../Src/one_wire.c:138:31
	ldrb.w	r0, [r0, #97]
	b	.LBB4_47
.Ltmp131:
.LBB4_45:                               @   in Loop: Header=BB4_49 Depth=1
	@DEBUG_VALUE: ONEWIRE_Service:e <- $r4
	.loc	2 140 48 is_stmt 1      @ ../Src/one_wire.c:140:48
	adds	r0, r7, r4
	.loc	2 140 31 is_stmt 0      @ ../Src/one_wire.c:140:31
	ldrb	r0, [r0, #1]
	b	.LBB4_47
.Ltmp132:
.LBB4_46:                               @   in Loop: Header=BB4_49 Depth=1
	@DEBUG_VALUE: ONEWIRE_Service:e <- $r4
	.loc	2 139 48 is_stmt 1      @ ../Src/one_wire.c:139:48
	adds	r0, r6, r4
	.loc	2 139 31 is_stmt 0      @ ../Src/one_wire.c:139:31
	ldrb.w	r0, [r0, #113]
.Ltmp133:
.LBB4_47:                               @   in Loop: Header=BB4_49 Depth=1
	@DEBUG_VALUE: ONEWIRE_Service:e <- $r4
	.loc	2 0 31                  @ ../Src/one_wire.c:0:31
	bl	ONEWIRE_SendByte
.Ltmp134:
.LBB4_48:                               @   in Loop: Header=BB4_49 Depth=1
	@DEBUG_VALUE: ONEWIRE_Service:e <- $r4
	.loc	2 131 23 is_stmt 1      @ ../Src/one_wire.c:131:23
	adds	r4, #1
.Ltmp135:
.LBB4_49:                               @ =>This Inner Loop Header: Depth=1
	@DEBUG_VALUE: ONEWIRE_Service:e <- $r4
	.loc	2 131 4 is_stmt 0       @ ../Src/one_wire.c:131:4
	cmp	r4, #8
	bne	.LBB4_36
.Ltmp136:
@ %bb.50:
	@DEBUG_VALUE: ONEWIRE_Service:e <- $r4
	.loc	2 143 4 is_stmt 1       @ ../Src/one_wire.c:143:4
	movs	r0, #68
	bl	ONEWIRE_SendByte
	movs	r0, #1
	strb	r0, [r5]
	.loc	2 144 4                 @ ../Src/one_wire.c:144:4
	movw	r0, #750
	str	r0, [r6, #12]
.Ltmp137:
	.loc	2 389 1                 @ ../Src/one_wire.c:389:1
	pop.w	{r4, r5, r6, r7, r8, pc}
.Ltmp138:
.LBB4_51:
	.loc	2 294 4                 @ ../Src/one_wire.c:294:4
	ldr	r5, __arm_cp.4_2
	movs	r1, #96
	add.w	r8, r5, #16
	mov	r0, r8
	bl	ClearBuffer
	.loc	2 304 24                @ ../Src/one_wire.c:304:24
	ldr	r4, __arm_cp.4_3
	movs	r7, #21
	.loc	2 298 22                @ ../Src/one_wire.c:298:22
	movw	r0, #4386
	.loc	2 303 22                @ ../Src/one_wire.c:303:22
	strb	r7, [r5, #18]
	.loc	2 298 22                @ ../Src/one_wire.c:298:22
	strh	r0, [r5, #16]
	.loc	2 304 24                @ ../Src/one_wire.c:304:24
	movw	r0, #2051
	blx	r4
	.loc	2 304 22 is_stmt 0      @ ../Src/one_wire.c:304:22
	strb	r0, [r5, #19]
	.loc	2 305 24 is_stmt 1      @ ../Src/one_wire.c:305:24
	movw	r0, #2052
	blx	r4
	.loc	2 305 22 is_stmt 0      @ ../Src/one_wire.c:305:22
	strb	r0, [r5, #20]
	.loc	2 306 24 is_stmt 1      @ ../Src/one_wire.c:306:24
	movw	r0, #2053
	blx	r4
	.loc	2 306 22 is_stmt 0      @ ../Src/one_wire.c:306:22
	strb	r0, [r5, #21]
	.loc	2 311 29 is_stmt 1      @ ../Src/one_wire.c:311:29
	ldr	r0, __arm_cp.4_4
	.loc	2 310 22                @ ../Src/one_wire.c:310:22
	strb	r7, [r5, #22]
	.loc	2 321 23                @ ../Src/one_wire.c:321:23
	strb	r7, [r5, #30]
	.loc	2 311 29                @ ../Src/one_wire.c:311:29
	ldrb	r1, [r0, #2]
	.loc	2 314 30                @ ../Src/one_wire.c:314:30
	ldrb	r2, [r0, #3]
	.loc	2 312 29                @ ../Src/one_wire.c:312:29
	ldrh	r0, [r0]
	.loc	2 311 22                @ ../Src/one_wire.c:311:22
	strb	r1, [r5, #23]
	.loc	2 312 22                @ ../Src/one_wire.c:312:22
	strh	r0, [r5, #24]
	.loc	2 315 30                @ ../Src/one_wire.c:315:30
	ldr	r0, __arm_cp.4_5
	.loc	2 314 23                @ ../Src/one_wire.c:314:23
	strb	r2, [r5, #26]
	.loc	2 315 30                @ ../Src/one_wire.c:315:30
	ldrh	r1, [r0]
	.loc	2 317 30                @ ../Src/one_wire.c:317:30
	ldrb	r0, [r0, #2]
	.loc	2 315 23                @ ../Src/one_wire.c:315:23
	strh.w	r1, [r5, #27]
	.loc	2 317 23                @ ../Src/one_wire.c:317:23
	strb	r0, [r5, #29]
	.loc	2 322 38                @ ../Src/one_wire.c:322:38
	ldr	r0, __arm_cp.4_6
	ldrb	r1, [r0]
	.loc	2 323 38                @ ../Src/one_wire.c:323:38
	ldrb	r2, [r0, #1]
	.loc	2 322 23                @ ../Src/one_wire.c:322:23
	strb	r1, [r5, #31]
	.loc	2 324 38                @ ../Src/one_wire.c:324:38
	ldrh	r1, [r0, #2]
	.loc	2 323 23                @ ../Src/one_wire.c:323:23
	strb.w	r2, [r5, #32]
	.loc	2 337 23                @ ../Src/one_wire.c:337:23
	strb.w	r7, [r5, #43]
	.loc	2 369 23                @ ../Src/one_wire.c:369:23
	strb.w	r7, [r5, #72]
	.loc	2 328 39                @ ../Src/one_wire.c:328:39
	ldrh	r2, [r0, #6]
	.loc	2 324 23                @ ../Src/one_wire.c:324:23
	strh.w	r1, [r5, #33]
	.loc	2 326 39                @ ../Src/one_wire.c:326:39
	ldrh	r1, [r0, #4]
	.loc	2 330 38                @ ../Src/one_wire.c:330:38
	ldr	r0, [r0, #8]
	.loc	2 327 23                @ ../Src/one_wire.c:327:23
	strb.w	r1, [r5, #36]
	.loc	2 329 23                @ ../Src/one_wire.c:329:23
	strb.w	r2, [r5, #38]
	.loc	2 330 23                @ ../Src/one_wire.c:330:23
	str.w	r0, [r5, #39]
	.loc	2 326 58                @ ../Src/one_wire.c:326:58
	lsrs	r0, r1, #8
	.loc	2 326 23 is_stmt 0      @ ../Src/one_wire.c:326:23
	strb.w	r0, [r5, #35]
	.loc	2 328 55 is_stmt 1      @ ../Src/one_wire.c:328:55
	lsrs	r0, r2, #8
	.loc	2 328 23 is_stmt 0      @ ../Src/one_wire.c:328:23
	strb.w	r0, [r5, #37]
	.loc	2 370 25 is_stmt 1      @ ../Src/one_wire.c:370:25
	ldr	r0, __arm_cp.4_7
	ldrb	r0, [r0]
	and	r1, r0, #1
	.loc	2 370 23 is_stmt 0      @ ../Src/one_wire.c:370:23
	strb.w	r1, [r5, #73]
	.loc	2 371 25 is_stmt 1      @ ../Src/one_wire.c:371:25
	ubfx	r0, r0, #1, #1
	.loc	2 379 25                @ ../Src/one_wire.c:379:25
	movs	r1, #63
	.loc	2 371 23                @ ../Src/one_wire.c:371:23
	strb.w	r0, [r5, #74]
	.loc	2 375 25                @ ../Src/one_wire.c:375:25
	ldr	r0, __arm_cp.4_8
	ldrb	r0, [r0]
	.loc	2 375 23 is_stmt 0      @ ../Src/one_wire.c:375:23
	strb.w	r0, [r5, #75]
	.loc	2 376 23 is_stmt 1      @ ../Src/one_wire.c:376:23
	movs	r0, #0
	strh.w	r0, [r5, #76]
	.loc	2 378 23                @ ../Src/one_wire.c:378:23
	strb.w	r0, [r5, #78]
	.loc	2 379 25                @ ../Src/one_wire.c:379:25
	mov	r0, r8
	bl	CalcCRC
	.loc	2 379 23 is_stmt 0      @ ../Src/one_wire.c:379:23
	strb.w	r0, [r5, #79]
	.loc	2 380 4 is_stmt 1       @ ../Src/one_wire.c:380:4
	movs	r0, #10
	bl	HAL_Delay
	.loc	2 381 4                 @ ../Src/one_wire.c:381:4
	ldr	r5, __arm_cp.4_9
	mov	r0, r5
	bl	HAL_HalfDuplex_EnableTransmitter
	.loc	2 382 4                 @ ../Src/one_wire.c:382:4
	mov	r0, r5
	mov	r1, r8
	movs	r2, #64
	movw	r3, #345
	bl	HAL_UART_Transmit
.LBB4_52:                               @ =>This Inner Loop Header: Depth=1
	.loc	2 383 18                @ ../Src/one_wire.c:383:18
	ldrb.w	r0, [r5, #105]
	.loc	2 383 4 is_stmt 0       @ ../Src/one_wire.c:383:4
	cmp	r0, #32
	bne	.LBB4_52
@ %bb.53:
	.loc	2 384 4 is_stmt 1       @ ../Src/one_wire.c:384:4
	ldr	r5, __arm_cp.4_9
	mov	r0, r5
	bl	HAL_HalfDuplex_EnableReceiver
	.loc	2 385 4                 @ ../Src/one_wire.c:385:4
	mov	r0, r5
	mov	r1, r8
	movs	r2, #64
	bl	HAL_UART_Receive_IT
	.loc	2 386 17                @ ../Src/one_wire.c:386:17
	movs	r0, #1
	strb	r0, [r6, #1]
.Ltmp139:
	.loc	2 389 1                 @ ../Src/one_wire.c:389:1
	pop.w	{r4, r5, r6, r7, r8, pc}
.LBB4_54:
.Ltmp140:
	.loc	2 181 7                 @ ../Src/one_wire.c:181:7
	ldrb	r0, [r5, #1]
.LBB4_55:
	.loc	2 181 24 is_stmt 0      @ ../Src/one_wire.c:181:24
	ldrb	r2, [r6]
	.loc	2 181 7                 @ ../Src/one_wire.c:181:7
	adds	r0, #1
	movs	r1, #0
	uxtb	r3, r0
	strb	r1, [r5]
.Ltmp141:
	.loc	2 181 7                 @ ../Src/one_wire.c:181:7
	cmp	r3, r2
	it	lo
	movlo	r1, r0
	strb	r1, [r5, #1]
.Ltmp142:
	.loc	2 389 1 is_stmt 1       @ ../Src/one_wire.c:389:1
	pop.w	{r4, r5, r6, r7, r8, pc}
.LBB4_56:
.Ltmp143:
	.loc	2 172 55                @ ../Src/one_wire.c:172:55
	uxth	r0, r1
	bl	ONEWIRE_ScratchpadToTemperature
	.loc	2 172 53 is_stmt 0      @ ../Src/one_wire.c:172:53
	str	r0, [r6, #44]
	movs	r0, #1
	b	.LBB4_55
.LBB4_57:
.Ltmp144:
	.loc	2 173 55 is_stmt 1      @ ../Src/one_wire.c:173:55
	uxth	r0, r1
	bl	ONEWIRE_ScratchpadToTemperature
	.loc	2 173 53 is_stmt 0      @ ../Src/one_wire.c:173:53
	str	r0, [r6, #60]
	movs	r0, #2
	b	.LBB4_55
.LBB4_58:
.Ltmp145:
	.loc	2 174 55 is_stmt 1      @ ../Src/one_wire.c:174:55
	uxth	r0, r1
	bl	ONEWIRE_ScratchpadToTemperature
	.loc	2 174 53 is_stmt 0      @ ../Src/one_wire.c:174:53
	str	r0, [r6, #76]
	movs	r0, #3
	b	.LBB4_55
.LBB4_59:
.Ltmp146:
	.loc	2 175 55 is_stmt 1      @ ../Src/one_wire.c:175:55
	uxth	r0, r1
	bl	ONEWIRE_ScratchpadToTemperature
	.loc	2 175 53 is_stmt 0      @ ../Src/one_wire.c:175:53
	str	r0, [r6, #92]
	movs	r0, #4
	b	.LBB4_55
.LBB4_60:
.Ltmp147:
	.loc	2 176 55 is_stmt 1      @ ../Src/one_wire.c:176:55
	uxth	r0, r1
	bl	ONEWIRE_ScratchpadToTemperature
	.loc	2 176 53 is_stmt 0      @ ../Src/one_wire.c:176:53
	str	r0, [r6, #108]
	movs	r0, #5
	b	.LBB4_55
.LBB4_61:
.Ltmp148:
	.loc	2 177 55 is_stmt 1      @ ../Src/one_wire.c:177:55
	uxth	r0, r1
	bl	ONEWIRE_ScratchpadToTemperature
	.loc	2 177 53 is_stmt 0      @ ../Src/one_wire.c:177:53
	str	r0, [r6, #124]
	movs	r0, #6
	b	.LBB4_55
.LBB4_62:
.Ltmp149:
	.loc	2 178 55 is_stmt 1      @ ../Src/one_wire.c:178:55
	uxth	r0, r1
	bl	ONEWIRE_ScratchpadToTemperature
	.loc	2 178 53 is_stmt 0      @ ../Src/one_wire.c:178:53
	str	r0, [r7, #12]
	movs	r0, #7
	b	.LBB4_55
.Ltmp150:
	.p2align	2
@ %bb.63:
	.loc	2 0 53                  @ ../Src/one_wire.c:0:53
__arm_cp.4_0:
	.long	.L_MergedGlobals
.Lcpi_end8:
	.size	__arm_cp.4_0, .Lcpi_end8-__arm_cp.4_0
__arm_cp.4_1:
	.long	.L_MergedGlobals.2
.Lcpi_end9:
	.size	__arm_cp.4_1, .Lcpi_end9-__arm_cp.4_1
__arm_cp.4_2:
	.long	.L_MergedGlobals.1
.Lcpi_end10:
	.size	__arm_cp.4_2, .Lcpi_end10-__arm_cp.4_2
__arm_cp.4_3:
	.long	BUTTON_GetState
.Lcpi_end11:
	.size	__arm_cp.4_3, .Lcpi_end11-__arm_cp.4_3
__arm_cp.4_4:
	.long	date
.Lcpi_end12:
	.size	__arm_cp.4_4, .Lcpi_end12-__arm_cp.4_4
__arm_cp.4_5:
	.long	time
.Lcpi_end13:
	.size	__arm_cp.4_5, .Lcpi_end13-__arm_cp.4_5
__arm_cp.4_6:
	.long	Thermostat_1
.Lcpi_end14:
	.size	__arm_cp.4_6, .Lcpi_end14-__arm_cp.4_6
__arm_cp.4_7:
	.long	display_flags
.Lcpi_end15:
	.size	__arm_cp.4_7, .Lcpi_end15-__arm_cp.4_7
__arm_cp.4_8:
	.long	current_outdoor_temperature
.Lcpi_end16:
	.size	__arm_cp.4_8, .Lcpi_end16-__arm_cp.4_8
__arm_cp.4_9:
	.long	huart2
.Lcpi_end17:
	.size	__arm_cp.4_9, .Lcpi_end17-__arm_cp.4_9
__arm_cp.4_10:
	.long	BUTTON_SetNewState
.Lcpi_end18:
	.size	__arm_cp.4_10, .Lcpi_end18-__arm_cp.4_10
__arm_cp.4_11:
	.long	hrtc
.Lcpi_end19:
	.size	__arm_cp.4_11, .Lcpi_end19-__arm_cp.4_11
.Lfunc_end4:
	.size	ONEWIRE_Service, .Lfunc_end4-ONEWIRE_Service
	.cfi_endproc
	.cantunwind
	.fnend
                                        @ -- End function
	.section	.text.ONEWIRE_Reset,"ax",%progbits
	.hidden	ONEWIRE_Reset           @ -- Begin function ONEWIRE_Reset
	.globl	ONEWIRE_Reset
	.p2align	2
	.type	ONEWIRE_Reset,%function
	.code	16                      @ @ONEWIRE_Reset
	.thumb_func
ONEWIRE_Reset:
.Lfunc_begin5:
	.loc	2 393 0 is_stmt 1       @ ../Src/one_wire.c:393:0
	.fnstart
	.cfi_startproc
@ %bb.0:
	.save	{r4, r5, r6, lr}
	push	{r4, r5, r6, lr}
	.cfi_def_cfa_offset 16
	.cfi_offset lr, -4
	.cfi_offset r6, -8
	.cfi_offset r5, -12
	.cfi_offset r4, -16
.Ltmp151:
	.loc	2 394 2 prologue_end    @ ../Src/one_wire.c:394:2
	mov.w	r0, #9600
	bl	ONEWIRE_SetUsart
	.loc	2 395 20                @ ../Src/one_wire.c:395:20
	ldr	r5, __arm_cp.5_0
	.loc	2 396 2                 @ ../Src/one_wire.c:396:2
	ldr	r6, __arm_cp.5_1
	.loc	2 395 20                @ ../Src/one_wire.c:395:20
	movs	r0, #240
	.loc	2 396 2                 @ ../Src/one_wire.c:396:2
	movs	r2, #1
	mov.w	r3, #800
	movs	r4, #1
	.loc	2 395 20                @ ../Src/one_wire.c:395:20
	strb	r0, [r5, #16]!
	.loc	2 396 2                 @ ../Src/one_wire.c:396:2
	mov	r0, r6
	mov	r1, r5
	bl	HAL_UART_Transmit
	.loc	2 397 2                 @ ../Src/one_wire.c:397:2
	mov	r0, r6
	mov	r1, r5
	movs	r2, #1
	mov.w	r3, #800
	bl	HAL_UART_Receive
	.loc	2 398 2                 @ ../Src/one_wire.c:398:2
	mov.w	r0, #115200
	bl	ONEWIRE_SetUsart
.Ltmp152:
	.loc	2 399 6                 @ ../Src/one_wire.c:399:6
	ldrb	r0, [r5]
	.loc	2 399 33 is_stmt 0      @ ../Src/one_wire.c:399:33
	cbz	r0, .LBB5_2
@ %bb.1:
	cmp	r0, #255
	it	ne
	cmpne	r0, #240
	bne	.LBB5_3
.Ltmp153:
.LBB5_2:
	.loc	2 0 33                  @ ../Src/one_wire.c:0:33
	movs	r4, #0
.LBB5_3:
	.loc	2 401 1 is_stmt 1       @ ../Src/one_wire.c:401:1
	mov	r0, r4
	pop	{r4, r5, r6, pc}
.Ltmp154:
	.p2align	2
@ %bb.4:
	.loc	2 0 1 is_stmt 0         @ ../Src/one_wire.c:0:1
__arm_cp.5_0:
	.long	.L_MergedGlobals.1
.Lcpi_end20:
	.size	__arm_cp.5_0, .Lcpi_end20-__arm_cp.5_0
__arm_cp.5_1:
	.long	huart2
.Lcpi_end21:
	.size	__arm_cp.5_1, .Lcpi_end21-__arm_cp.5_1
.Lfunc_end5:
	.size	ONEWIRE_Reset, .Lfunc_end5-ONEWIRE_Reset
	.cfi_endproc
	.cantunwind
	.fnend
                                        @ -- End function
	.section	.text.ONEWIRE_SendByte,"ax",%progbits
	.hidden	ONEWIRE_SendByte        @ -- Begin function ONEWIRE_SendByte
	.globl	ONEWIRE_SendByte
	.p2align	1
	.type	ONEWIRE_SendByte,%function
	.code	16                      @ @ONEWIRE_SendByte
	.thumb_func
ONEWIRE_SendByte:
.Lfunc_begin6:
	.loc	2 421 0 is_stmt 1       @ ../Src/one_wire.c:421:0
	.fnstart
	.cfi_startproc
@ %bb.0:
	.save	{r4, r5, r7, lr}
	push	{r4, r5, r7, lr}
	.cfi_def_cfa_offset 16
	.cfi_offset lr, -4
	.cfi_offset r7, -8
	.cfi_offset r5, -12
	.cfi_offset r4, -16
	@DEBUG_VALUE: ONEWIRE_SendByte:data <- $r0
	mov	r4, r0
.Ltmp155:
	@DEBUG_VALUE: ONEWIRE_SendByte:data <- $r4
	movs	r5, #0
.Ltmp156:
	@DEBUG_VALUE: ONEWIRE_SendByte:i <- 0
.LBB6_1:                                @ =>This Inner Loop Header: Depth=1
	@DEBUG_VALUE: ONEWIRE_SendByte:data <- $r4
	.loc	2 424 15 prologue_end   @ ../Src/one_wire.c:424:15
	uxtb	r0, r5
.Ltmp157:
	.loc	2 424 2 is_stmt 0       @ ../Src/one_wire.c:424:2
	cmp	r0, #7
.Ltmp158:
	.loc	2 428 1 is_stmt 1       @ ../Src/one_wire.c:428:1
	it	hi
	pophi	{r4, r5, r7, pc}
.Ltmp159:
	.loc	2 426 3                 @ ../Src/one_wire.c:426:3
	and	r0, r4, #1
	bl	ONEWIRE_SendBit
.Ltmp160:
	.loc	2 424 38                @ ../Src/one_wire.c:424:38
	ubfx	r4, r4, #1, #7
	.loc	2 424 21 is_stmt 0      @ ../Src/one_wire.c:424:21
	adds	r5, #1
	b	.LBB6_1
.Ltmp161:
.Lfunc_end6:
	.size	ONEWIRE_SendByte, .Lfunc_end6-ONEWIRE_SendByte
	.cfi_endproc
	.cantunwind
	.fnend
                                        @ -- End function
	.section	.text.ONEWIRE_Receive,"ax",%progbits
	.hidden	ONEWIRE_Receive         @ -- Begin function ONEWIRE_Receive
	.globl	ONEWIRE_Receive
	.p2align	2
	.type	ONEWIRE_Receive,%function
	.code	16                      @ @ONEWIRE_Receive
	.thumb_func
ONEWIRE_Receive:
.Lfunc_begin7:
	.loc	2 481 0 is_stmt 1       @ ../Src/one_wire.c:481:0
	.fnstart
	.cfi_startproc
@ %bb.0:
	.save	{r4, r5, r6, r7, r8, r9, r10, lr}
	.pad	#8
	push.w	{r2, r3, r4, r5, r6, r7, r8, r9, r10, lr}
	.cfi_def_cfa_offset 40
	.cfi_offset lr, -4
	.cfi_offset r10, -8
	.cfi_offset r9, -12
	.cfi_offset r8, -16
	.cfi_offset r7, -20
	.cfi_offset r6, -24
	.cfi_offset r5, -28
	.cfi_offset r4, -32
	@DEBUG_VALUE: ONEWIRE_Receive:data <- $r0
	@DEBUG_VALUE: ONEWIRE_Receive:lenght <- $r1
	mov	r10, r0
.Ltmp162:
	@DEBUG_VALUE: ONEWIRE_Receive:lenght <- $r4
	@DEBUG_VALUE: ONEWIRE_Receive:data <- $r10
	.loc	2 484 10 prologue_end   @ ../Src/one_wire.c:484:10
	movs	r0, #255
.Ltmp163:
	@DEBUG_VALUE: ONEWIRE_Receive:tx_byte <- -1
	.loc	2 0 10 is_stmt 0        @ ../Src/one_wire.c:0:10
	ldr.w	r9, __arm_cp.7_1
	mov	r4, r1
.Ltmp164:
	.loc	2 486 6 is_stmt 1       @ ../Src/one_wire.c:486:6
	lsls	r5, r1, #3
	add.w	r8, sp, #7
.Ltmp165:
	.loc	2 484 10                @ ../Src/one_wire.c:484:10
	strb.w	r0, [sp, #7]
.Ltmp166:
	@DEBUG_VALUE: ONEWIRE_Receive:i <- 0
	.loc	2 0 10 is_stmt 0        @ ../Src/one_wire.c:0:10
	ldr	r0, __arm_cp.7_0
	add.w	r6, r0, #16
	mov	r7, r6
	b	.LBB7_2
.Ltmp167:
.LBB7_1:                                @   in Loop: Header=BB7_2 Depth=1
	@DEBUG_VALUE: ONEWIRE_Receive:data <- $r10
	@DEBUG_VALUE: ONEWIRE_Receive:tx_byte <- [DW_OP_plus_uconst 7] [$sp+0]
	.loc	2 488 3 is_stmt 1       @ ../Src/one_wire.c:488:3
	mov	r0, r9
	mov	r1, r8
	movs	r2, #1
	mov.w	r3, #800
	bl	HAL_UART_Transmit
	.loc	2 489 3                 @ ../Src/one_wire.c:489:3
	mov	r0, r9
	mov	r1, r7
	movs	r2, #1
	mov.w	r3, #800
	bl	HAL_UART_Receive
.Ltmp168:
	.loc	2 486 2                 @ ../Src/one_wire.c:486:2
	adds	r7, #1
	subs	r5, #1
.Ltmp169:
.LBB7_2:                                @ =>This Inner Loop Header: Depth=1
	@DEBUG_VALUE: ONEWIRE_Receive:data <- $r10
	.loc	2 486 2 is_stmt 0       @ ../Src/one_wire.c:486:2
	cmp	r5, #0
	bne	.LBB7_1
	b	.LBB7_4
.Ltmp170:
.LBB7_3:                                @   in Loop: Header=BB7_4 Depth=1
	@DEBUG_VALUE: ONEWIRE_Receive:data <- $r10
	.loc	2 494 13 is_stmt 1      @ ../Src/one_wire.c:494:13
	mov	r0, r6
	bl	ONEWIRE_Unpack
	.loc	2 494 11 is_stmt 0      @ ../Src/one_wire.c:494:11
	strb	r0, [r10], #1
.Ltmp171:
	.loc	2 492 2 is_stmt 1       @ ../Src/one_wire.c:492:2
	adds	r6, #8
	subs	r4, #1
.Ltmp172:
.LBB7_4:                                @ =>This Inner Loop Header: Depth=1
	@DEBUG_VALUE: ONEWIRE_Receive:data <- $r10
	.loc	2 492 2 is_stmt 0       @ ../Src/one_wire.c:492:2
	cmp	r4, #0
	bne	.LBB7_3
.Ltmp173:
@ %bb.5:
	@DEBUG_VALUE: ONEWIRE_Receive:data <- $r10
	.loc	2 496 1 is_stmt 1       @ ../Src/one_wire.c:496:1
	pop.w	{r2, r3, r4, r5, r6, r7, r8, r9, r10, pc}
.Ltmp174:
	.p2align	2
@ %bb.6:
	.loc	2 0 1 is_stmt 0         @ ../Src/one_wire.c:0:1
__arm_cp.7_0:
	.long	.L_MergedGlobals.1
.Lcpi_end22:
	.size	__arm_cp.7_0, .Lcpi_end22-__arm_cp.7_0
__arm_cp.7_1:
	.long	huart2
.Lcpi_end23:
	.size	__arm_cp.7_1, .Lcpi_end23-__arm_cp.7_1
.Lfunc_end7:
	.size	ONEWIRE_Receive, .Lfunc_end7-ONEWIRE_Receive
	.cfi_endproc
	.cantunwind
	.fnend
                                        @ -- End function
	.section	.text.ONEWIRE_CrcCheck,"ax",%progbits
	.hidden	ONEWIRE_CrcCheck        @ -- Begin function ONEWIRE_CrcCheck
	.globl	ONEWIRE_CrcCheck
	.p2align	1
	.type	ONEWIRE_CrcCheck,%function
	.code	16                      @ @ONEWIRE_CrcCheck
	.thumb_func
ONEWIRE_CrcCheck:
.Lfunc_begin8:
	.loc	2 516 0 is_stmt 1       @ ../Src/one_wire.c:516:0
	.fnstart
	.cfi_startproc
@ %bb.0:
	.save	{r4, r5, r7, lr}
	push	{r4, r5, r7, lr}
	.cfi_def_cfa_offset 16
	.cfi_offset lr, -4
	.cfi_offset r7, -8
	.cfi_offset r5, -12
	.cfi_offset r4, -16
	@DEBUG_VALUE: ONEWIRE_CrcCheck:ow_address <- $r0
	@DEBUG_VALUE: ONEWIRE_CrcCheck:ow_address <- $r0
	@DEBUG_VALUE: ONEWIRE_CrcCheck:lenght <- $r1
	@DEBUG_VALUE: ONEWIRE_CrcCheck:lenght <- $r1
	mov.w	r12, #0
.Ltmp175:
	@DEBUG_VALUE: ONEWIRE_CrcCheck:i <- 0
	@DEBUG_VALUE: ONEWIRE_CrcCheck:crc <- 0
	@DEBUG_VALUE: ONEWIRE_CrcCheck:lenght <- undef
	mvn	lr, #115
	movs	r2, #0
.Ltmp176:
.LBB8_1:                                @ =>This Loop Header: Depth=1
                                        @     Child Loop BB8_3 Depth 2
	@DEBUG_VALUE: ONEWIRE_CrcCheck:ow_address <- $r0
	@DEBUG_VALUE: ONEWIRE_CrcCheck:i <- $r12
	.loc	2 520 2 prologue_end    @ ../Src/one_wire.c:520:2
	cmp	r12, r1
.Ltmp177:
	.loc	2 534 2                 @ ../Src/one_wire.c:534:2
	itt	eq
	uxtbeq	r0, r2
.Ltmp178:
	@DEBUG_VALUE: ONEWIRE_CrcCheck:crc <- $r0
	popeq	{r4, r5, r7, pc}
.Ltmp179:
	.loc	2 522 20                @ ../Src/one_wire.c:522:20
	ldrb.w	r3, [r0, r12]
	movs	r4, #0
.Ltmp180:
	@DEBUG_VALUE: ONEWIRE_CrcCheck:j <- 0
	.loc	2 0 20 is_stmt 0        @ ../Src/one_wire.c:0:20
	b	.LBB8_3
.Ltmp181:
.LBB8_2:                                @   in Loop: Header=BB8_3 Depth=2
	@DEBUG_VALUE: ONEWIRE_CrcCheck:crc <- $r0
	@DEBUG_VALUE: ONEWIRE_CrcCheck:i <- $r12
	.loc	2 527 8 is_stmt 1       @ ../Src/one_wire.c:527:8
	ubfx	r5, r2, #1, #7
	.loc	2 526 23                @ ../Src/one_wire.c:526:23
	eors	r2, r3
.Ltmp182:
	.loc	2 524 23                @ ../Src/one_wire.c:524:23
	adds	r4, #1
.Ltmp183:
	.loc	2 528 8                 @ ../Src/one_wire.c:528:8
	lsls	r2, r2, #31
	it	ne
	eorne.w	r5, r5, lr
	.loc	2 530 11                @ ../Src/one_wire.c:530:11
	ubfx	r3, r3, #1, #7
	mov	r2, r5
.Ltmp184:
.LBB8_3:                                @   Parent Loop BB8_1 Depth=1
                                        @ =>  This Inner Loop Header: Depth=2
	@DEBUG_VALUE: ONEWIRE_CrcCheck:crc <- $r0
	@DEBUG_VALUE: ONEWIRE_CrcCheck:i <- $r12
	.loc	2 524 17                @ ../Src/one_wire.c:524:17
	uxtb	r5, r4
.Ltmp185:
	.loc	2 524 3 is_stmt 0       @ ../Src/one_wire.c:524:3
	cmp	r5, #7
	bls	.LBB8_2
.Ltmp186:
@ %bb.4:                                @   in Loop: Header=BB8_1 Depth=1
	@DEBUG_VALUE: ONEWIRE_CrcCheck:crc <- $r0
	@DEBUG_VALUE: ONEWIRE_CrcCheck:i <- $r12
	.loc	2 520 27 is_stmt 1      @ ../Src/one_wire.c:520:27
	add.w	r12, r12, #1
.Ltmp187:
	.loc	2 0 27 is_stmt 0        @ ../Src/one_wire.c:0:27
	b	.LBB8_1
.Ltmp188:
.Lfunc_end8:
	.size	ONEWIRE_CrcCheck, .Lfunc_end8-ONEWIRE_CrcCheck
	.cfi_endproc
	.cantunwind
	.fnend
                                        @ -- End function
	.section	.text.ONEWIRE_ScratchpadToTemperature,"ax",%progbits
	.hidden	ONEWIRE_ScratchpadToTemperature @ -- Begin function ONEWIRE_ScratchpadToTemperature
	.globl	ONEWIRE_ScratchpadToTemperature
	.p2align	2
	.type	ONEWIRE_ScratchpadToTemperature,%function
	.code	16                      @ @ONEWIRE_ScratchpadToTemperature
	.thumb_func
ONEWIRE_ScratchpadToTemperature:
.Lfunc_begin9:
	.loc	2 567 0 is_stmt 1       @ ../Src/one_wire.c:567:0
	.fnstart
	.cfi_startproc
@ %bb.0:
	@DEBUG_VALUE: ONEWIRE_ScratchpadToTemperature:scratchpad <- $r0
	@DEBUG_VALUE: ONEWIRE_ScratchpadToTemperature:scratchpad <- $r0
	.loc	2 570 5 prologue_end    @ ../Src/one_wire.c:570:5
	cmp.w	r0, #64512
	blo	.LBB9_2
.Ltmp189:
@ %bb.1:
	@DEBUG_VALUE: ONEWIRE_ScratchpadToTemperature:scratchpad <- $r0
	.loc	2 572 28                @ ../Src/one_wire.c:572:28
	rsbs	r0, r0, #0
.Ltmp190:
	.loc	2 575 37                @ ../Src/one_wire.c:575:37
	movw	r2, #625
	.loc	2 575 27 is_stmt 0      @ ../Src/one_wire.c:575:27
	and	r1, r0, #15
	.loc	2 573 23 is_stmt 1      @ ../Src/one_wire.c:573:23
	ubfx	r0, r0, #4, #12
	.loc	2 575 37                @ ../Src/one_wire.c:575:37
	smulbb	r1, r1, r2
	.loc	2 575 43 is_stmt 0      @ ../Src/one_wire.c:575:43
	mov.w	r2, #1000
	.loc	2 574 10 is_stmt 1      @ ../Src/one_wire.c:574:10
	add.w	r0, r0, r0, lsl #2
	.loc	2 575 43                @ ../Src/one_wire.c:575:43
	udiv	r1, r1, r2
	.loc	2 575 10 is_stmt 0      @ ../Src/one_wire.c:575:10
	add.w	r0, r1, r0, lsl #1
	.loc	2 576 10 is_stmt 1      @ ../Src/one_wire.c:576:10
	ldr	r1, __arm_cp.9_0
	orrs	r0, r1
	b	.LBB9_3
.Ltmp191:
.LBB9_2:
	@DEBUG_VALUE: ONEWIRE_ScratchpadToTemperature:scratchpad <- $r0
	.loc	2 582 27                @ ../Src/one_wire.c:582:27
	and	r1, r0, #15
	.loc	2 582 37 is_stmt 0      @ ../Src/one_wire.c:582:37
	movw	r2, #625
	.loc	2 580 23 is_stmt 1      @ ../Src/one_wire.c:580:23
	lsrs	r0, r0, #4
.Ltmp192:
	.loc	2 582 37                @ ../Src/one_wire.c:582:37
	smulbb	r1, r1, r2
	.loc	2 582 43 is_stmt 0      @ ../Src/one_wire.c:582:43
	mov.w	r2, #1000
	.loc	2 581 10 is_stmt 1      @ ../Src/one_wire.c:581:10
	add.w	r0, r0, r0, lsl #2
	.loc	2 582 43                @ ../Src/one_wire.c:582:43
	udiv	r1, r1, r2
	.loc	2 582 10 is_stmt 0      @ ../Src/one_wire.c:582:10
	add.w	r0, r1, r0, lsl #1
.Ltmp193:
.LBB9_3:
	.loc	2 585 5 is_stmt 1       @ ../Src/one_wire.c:585:5
	uxth	r0, r0
.Ltmp194:
	@DEBUG_VALUE: ONEWIRE_ScratchpadToTemperature:result <- $r0
	bx	lr
.Ltmp195:
	.p2align	2
@ %bb.4:
	.loc	2 0 5 is_stmt 0         @ ../Src/one_wire.c:0:5
__arm_cp.9_0:
	.long	4294934528              @ 0xffff8000
.Lcpi_end24:
	.size	__arm_cp.9_0, .Lcpi_end24-__arm_cp.9_0
.Lfunc_end9:
	.size	ONEWIRE_ScratchpadToTemperature, .Lfunc_end9-ONEWIRE_ScratchpadToTemperature
	.cfi_endproc
	.cantunwind
	.fnend
                                        @ -- End function
	.section	.text.ONEWIRE_SendBit,"ax",%progbits
	.hidden	ONEWIRE_SendBit         @ -- Begin function ONEWIRE_SendBit
	.globl	ONEWIRE_SendBit
	.p2align	2
	.type	ONEWIRE_SendBit,%function
	.code	16                      @ @ONEWIRE_SendBit
	.thumb_func
ONEWIRE_SendBit:
.Lfunc_begin10:
	.loc	2 456 0 is_stmt 1       @ ../Src/one_wire.c:456:0
	.fnstart
	.cfi_startproc
@ %bb.0:
	.save	{r4, lr}
	.pad	#8
	push	{r2, r3, r4, lr}
	.cfi_def_cfa_offset 16
	.cfi_offset lr, -4
	.cfi_offset r4, -8
	@DEBUG_VALUE: ONEWIRE_SendBit:send_bit <- $r0
	@DEBUG_VALUE: ONEWIRE_SendBit:send_bit <- $r0
.Ltmp196:
	.loc	2 460 2 prologue_end    @ ../Src/one_wire.c:460:2
	ldr	r4, __arm_cp.10_0
	.loc	2 458 5                 @ ../Src/one_wire.c:458:5
	cmp	r0, #0
	add.w	r1, sp, #7
.Ltmp197:
	@DEBUG_VALUE: ONEWIRE_SendBit:txb <- [DW_OP_plus_uconst 7] [$sp+0]
	.loc	2 460 2                 @ ../Src/one_wire.c:460:2
	mov.w	r2, #1
	mov.w	r3, #800
	.loc	2 458 5                 @ ../Src/one_wire.c:458:5
	it	ne
	movne.w	r0, #-1
.Ltmp198:
	.loc	2 0 5 is_stmt 0         @ ../Src/one_wire.c:0:5
	strb.w	r0, [sp, #7]
	.loc	2 460 2 is_stmt 1       @ ../Src/one_wire.c:460:2
	mov	r0, r4
	bl	HAL_UART_Transmit
	add.w	r1, sp, #6
.Ltmp199:
	@DEBUG_VALUE: ONEWIRE_SendBit:rxb <- [DW_OP_plus_uconst 6] [$sp+0]
	.loc	2 461 2                 @ ../Src/one_wire.c:461:2
	mov	r0, r4
	movs	r2, #1
	mov.w	r3, #800
	bl	HAL_UART_Receive
	.loc	2 462 1                 @ ../Src/one_wire.c:462:1
	pop	{r2, r3, r4, pc}
.Ltmp200:
	.p2align	2
@ %bb.1:
	.loc	2 0 1 is_stmt 0         @ ../Src/one_wire.c:0:1
__arm_cp.10_0:
	.long	huart2
.Lcpi_end25:
	.size	__arm_cp.10_0, .Lcpi_end25-__arm_cp.10_0
.Lfunc_end10:
	.size	ONEWIRE_SendBit, .Lfunc_end10-ONEWIRE_SendBit
	.cfi_endproc
	.cantunwind
	.fnend
                                        @ -- End function
	.section	.text.ONEWIRE_ReadByte,"ax",%progbits
	.hidden	ONEWIRE_ReadByte        @ -- Begin function ONEWIRE_ReadByte
	.globl	ONEWIRE_ReadByte
	.p2align	1
	.type	ONEWIRE_ReadByte,%function
	.code	16                      @ @ONEWIRE_ReadByte
	.thumb_func
ONEWIRE_ReadByte:
.Lfunc_begin11:
	.loc	2 432 0 is_stmt 1       @ ../Src/one_wire.c:432:0
	.fnstart
	.cfi_startproc
@ %bb.0:
	.save	{r4, r5, r7, lr}
	push	{r4, r5, r7, lr}
	.cfi_def_cfa_offset 16
	.cfi_offset lr, -4
	.cfi_offset r7, -8
	.cfi_offset r5, -12
	.cfi_offset r4, -16
	movs	r4, #0
.Ltmp201:
	@DEBUG_VALUE: ONEWIRE_ReadByte:i <- 0
                                        @ implicit-def: $r0
.LBB11_1:                               @ =>This Inner Loop Header: Depth=1
	.loc	2 435 15 prologue_end   @ ../Src/one_wire.c:435:15
	uxtb	r1, r4
.Ltmp202:
	.loc	2 435 2 is_stmt 0       @ ../Src/one_wire.c:435:2
	cmp	r1, #7
.Ltmp203:
	.loc	2 440 2 is_stmt 1       @ ../Src/one_wire.c:440:2
	itt	hi
	uxtbhi	r0, r0
.Ltmp204:
	@DEBUG_VALUE: ONEWIRE_ReadByte:rd_byte <- $r0
	pophi	{r4, r5, r7, pc}
.Ltmp205:
	.loc	2 437 22                @ ../Src/one_wire.c:437:22
	and	r5, r0, #254
	.loc	2 437 34 is_stmt 0      @ ../Src/one_wire.c:437:34
	bl	ONEWIRE_ReceiveBit
.Ltmp206:
	.loc	2 437 32                @ ../Src/one_wire.c:437:32
	lsls	r0, r0, #7
.Ltmp207:
	.loc	2 435 21 is_stmt 1      @ ../Src/one_wire.c:435:21
	adds	r4, #1
.Ltmp208:
	.loc	2 437 26                @ ../Src/one_wire.c:437:26
	orr.w	r0, r0, r5, lsr #1
	b	.LBB11_1
.Ltmp209:
.Lfunc_end11:
	.size	ONEWIRE_ReadByte, .Lfunc_end11-ONEWIRE_ReadByte
	.cfi_endproc
	.cantunwind
	.fnend
                                        @ -- End function
	.section	.text.ONEWIRE_ReceiveBit,"ax",%progbits
	.hidden	ONEWIRE_ReceiveBit      @ -- Begin function ONEWIRE_ReceiveBit
	.globl	ONEWIRE_ReceiveBit
	.p2align	2
	.type	ONEWIRE_ReceiveBit,%function
	.code	16                      @ @ONEWIRE_ReceiveBit
	.thumb_func
ONEWIRE_ReceiveBit:
.Lfunc_begin12:
	.loc	2 445 0                 @ ../Src/one_wire.c:445:0
	.fnstart
	.cfi_startproc
@ %bb.0:
	.save	{r4, lr}
	.pad	#8
	push	{r2, r3, r4, lr}
	.cfi_def_cfa_offset 16
	.cfi_offset lr, -4
	.cfi_offset r4, -8
.Ltmp210:
	.loc	2 448 2 prologue_end    @ ../Src/one_wire.c:448:2
	ldr	r4, __arm_cp.12_0
	.loc	2 447 6                 @ ../Src/one_wire.c:447:6
	movs	r0, #255
.Ltmp211:
	@DEBUG_VALUE: ONEWIRE_ReceiveBit:txd <- -1
	.loc	2 0 6 is_stmt 0         @ ../Src/one_wire.c:0:6
	add.w	r1, sp, #7
.Ltmp212:
	@DEBUG_VALUE: ONEWIRE_ReceiveBit:txd <- [DW_OP_plus_uconst 7] [$sp+0]
	.loc	2 448 2 is_stmt 1       @ ../Src/one_wire.c:448:2
	movs	r2, #1
	mov.w	r3, #800
	.loc	2 447 6                 @ ../Src/one_wire.c:447:6
	strb.w	r0, [sp, #7]
	.loc	2 448 2                 @ ../Src/one_wire.c:448:2
	mov	r0, r4
	bl	HAL_UART_Transmit
	add.w	r1, sp, #6
.Ltmp213:
	@DEBUG_VALUE: ONEWIRE_ReceiveBit:rxd <- [DW_OP_plus_uconst 6] [$sp+0]
	.loc	2 449 2                 @ ../Src/one_wire.c:449:2
	mov	r0, r4
	movs	r2, #1
	mov.w	r3, #800
	bl	HAL_UART_Receive
.Ltmp214:
	.loc	2 450 12                @ ../Src/one_wire.c:450:12
	ldrb.w	r0, [sp, #7]
	.loc	2 450 5 is_stmt 0       @ ../Src/one_wire.c:450:5
	ldrb.w	r1, [sp, #6]
	.loc	2 450 9                 @ ../Src/one_wire.c:450:9
	subs	r0, r1, r0
	clz	r0, r0
	lsrs	r0, r0, #5
.Ltmp215:
	.loc	2 452 1 is_stmt 1       @ ../Src/one_wire.c:452:1
	add	sp, #8
.Ltmp216:
	pop	{r4, pc}
.Ltmp217:
	.p2align	2
@ %bb.1:
	.loc	2 0 1 is_stmt 0         @ ../Src/one_wire.c:0:1
__arm_cp.12_0:
	.long	huart2
.Lcpi_end26:
	.size	__arm_cp.12_0, .Lcpi_end26-__arm_cp.12_0
.Lfunc_end12:
	.size	ONEWIRE_ReceiveBit, .Lfunc_end12-ONEWIRE_ReceiveBit
	.cfi_endproc
	.cantunwind
	.fnend
                                        @ -- End function
	.section	.text.ONEWIRE_Send,"ax",%progbits
	.hidden	ONEWIRE_Send            @ -- Begin function ONEWIRE_Send
	.globl	ONEWIRE_Send
	.p2align	2
	.type	ONEWIRE_Send,%function
	.code	16                      @ @ONEWIRE_Send
	.thumb_func
ONEWIRE_Send:
.Lfunc_begin13:
	.loc	2 466 0 is_stmt 1       @ ../Src/one_wire.c:466:0
	.fnstart
	.cfi_startproc
@ %bb.0:
	.save	{r4, r5, r6, lr}
	push	{r4, r5, r6, lr}
	.cfi_def_cfa_offset 16
	.cfi_offset lr, -4
	.cfi_offset r6, -8
	.cfi_offset r5, -12
	.cfi_offset r4, -16
	@DEBUG_VALUE: ONEWIRE_Send:command <- $r0
	@DEBUG_VALUE: ONEWIRE_Send:lenght <- $r1
	mov	r12, r1
.Ltmp218:
	@DEBUG_VALUE: ONEWIRE_Send:lenght <- $r12
	@DEBUG_VALUE: ONEWIRE_Send:command <- $r0
	ldr	r1, __arm_cp.13_0
	mov.w	lr, #0
.Ltmp219:
	@DEBUG_VALUE: ONEWIRE_Send:i <- 0
	movs	r2, #1
	adds	r1, #16
	mov	r3, r1
	b	.LBB13_5
.Ltmp220:
.LBB13_1:                               @   in Loop: Header=BB13_5 Depth=1
	@DEBUG_VALUE: ONEWIRE_Send:i <- $lr
	@DEBUG_VALUE: ONEWIRE_Send:lenght <- $r12
	@DEBUG_VALUE: ONEWIRE_Send:command <- $r0
	@DEBUG_VALUE: ONEWIRE_Pack:i <- 0
	ldrb.w	r4, [r0, lr]
	movs	r5, #0
	b	.LBB13_3
.Ltmp221:
.LBB13_2:                               @   in Loop: Header=BB13_3 Depth=2
	@DEBUG_VALUE: ONEWIRE_Send:i <- $lr
	@DEBUG_VALUE: ONEWIRE_Pack:i <- $r5
	@DEBUG_VALUE: ONEWIRE_Send:lenght <- $r12
	@DEBUG_VALUE: ONEWIRE_Send:command <- $r0
	.loc	2 544 29 prologue_end   @ ../Src/one_wire.c:544:29
	lsl.w	r6, r2, r5
	.loc	2 544 24 is_stmt 0      @ ../Src/one_wire.c:544:24
	ands	r6, r4
	.loc	2 544 15                @ ../Src/one_wire.c:544:15
	it	ne
	movne.w	r6, #-1
	.loc	2 544 13                @ ../Src/one_wire.c:544:13
	strb	r6, [r3, r5]
.Ltmp222:
	.loc	2 542 23 is_stmt 1      @ ../Src/one_wire.c:542:23
	adds	r5, #1
.Ltmp223:
	@DEBUG_VALUE: ONEWIRE_Pack:i <- $r5
.LBB13_3:                               @   Parent Loop BB13_5 Depth=1
                                        @ =>  This Inner Loop Header: Depth=2
	@DEBUG_VALUE: ONEWIRE_Send:i <- $lr
	@DEBUG_VALUE: ONEWIRE_Send:lenght <- $r12
	@DEBUG_VALUE: ONEWIRE_Send:command <- $r0
	@DEBUG_VALUE: ONEWIRE_Pack:i <- $r5
	.loc	2 542 2 is_stmt 0       @ ../Src/one_wire.c:542:2
	cmp	r5, #8
	bne	.LBB13_2
.Ltmp224:
@ %bb.4:                                @   in Loop: Header=BB13_5 Depth=1
	@DEBUG_VALUE: ONEWIRE_Send:i <- $lr
	@DEBUG_VALUE: ONEWIRE_Send:lenght <- $r12
	@DEBUG_VALUE: ONEWIRE_Send:command <- $r0
	.loc	2 471 2 is_stmt 1       @ ../Src/one_wire.c:471:2
	adds	r3, #8
	.loc	2 471 28 is_stmt 0      @ ../Src/one_wire.c:471:28
	add.w	lr, lr, #1
.Ltmp225:
	@DEBUG_VALUE: ONEWIRE_Send:i <- $lr
.LBB13_5:                               @ =>This Loop Header: Depth=1
                                        @     Child Loop BB13_3 Depth 2
	@DEBUG_VALUE: ONEWIRE_Send:lenght <- $r12
	@DEBUG_VALUE: ONEWIRE_Send:command <- $r0
	@DEBUG_VALUE: ONEWIRE_Send:i <- $lr
	.loc	2 471 2                 @ ../Src/one_wire.c:471:2
	cmp	lr, r12
	bne	.LBB13_1
.Ltmp226:
@ %bb.6:
	@DEBUG_VALUE: ONEWIRE_Send:i <- $lr
	@DEBUG_VALUE: ONEWIRE_Send:lenght <- $r12
	@DEBUG_VALUE: ONEWIRE_Send:command <- $r0
	.loc	2 476 2 is_stmt 1       @ ../Src/one_wire.c:476:2
	ldr	r0, __arm_cp.13_1
	lsl.w	r2, r12, #3
	mov.w	r3, #800
	pop.w	{r4, r5, r6, lr}
.Ltmp227:
	b	HAL_UART_Transmit
.Ltmp228:
	.p2align	2
@ %bb.7:
	.loc	2 0 2 is_stmt 0         @ ../Src/one_wire.c:0:2
__arm_cp.13_0:
	.long	.L_MergedGlobals.1
.Lcpi_end27:
	.size	__arm_cp.13_0, .Lcpi_end27-__arm_cp.13_0
__arm_cp.13_1:
	.long	huart2
.Lcpi_end28:
	.size	__arm_cp.13_1, .Lcpi_end28-__arm_cp.13_1
.Lfunc_end13:
	.size	ONEWIRE_Send, .Lfunc_end13-ONEWIRE_Send
	.cfi_endproc
	.cantunwind
	.fnend
                                        @ -- End function
	.section	.text.ONEWIRE_Pack,"ax",%progbits
	.hidden	ONEWIRE_Pack            @ -- Begin function ONEWIRE_Pack
	.globl	ONEWIRE_Pack
	.p2align	1
	.type	ONEWIRE_Pack,%function
	.code	16                      @ @ONEWIRE_Pack
	.thumb_func
ONEWIRE_Pack:
.Lfunc_begin14:
	.loc	2 539 0 is_stmt 1       @ ../Src/one_wire.c:539:0
	.fnstart
	.cfi_startproc
@ %bb.0:
	@DEBUG_VALUE: ONEWIRE_Pack:command <- $r0
	@DEBUG_VALUE: ONEWIRE_Pack:command <- $r0
	@DEBUG_VALUE: ONEWIRE_Pack:buffer <- $r1
	@DEBUG_VALUE: ONEWIRE_Pack:buffer <- $r1
	movs	r2, #0
.Ltmp229:
	@DEBUG_VALUE: ONEWIRE_Pack:i <- 0
	@DEBUG_VALUE: ONEWIRE_Pack:command <- undef
	mov.w	r12, #1
.LBB14_1:                               @ =>This Inner Loop Header: Depth=1
	@DEBUG_VALUE: ONEWIRE_Pack:buffer <- $r1
.Ltmp230:
	@DEBUG_VALUE: ONEWIRE_Pack:i <- $r2
	.loc	2 542 2 prologue_end    @ ../Src/one_wire.c:542:2
	cmp	r2, #8
.Ltmp231:
	.loc	2 546 1                 @ ../Src/one_wire.c:546:1
	it	eq
	bxeq	lr
.Ltmp232:
	.loc	2 544 29                @ ../Src/one_wire.c:544:29
	lsl.w	r3, r12, r2
	.loc	2 544 24 is_stmt 0      @ ../Src/one_wire.c:544:24
	ands	r3, r0
	.loc	2 544 15                @ ../Src/one_wire.c:544:15
	it	ne
	movne.w	r3, #-1
	.loc	2 544 13                @ ../Src/one_wire.c:544:13
	strb	r3, [r1, r2]
.Ltmp233:
	.loc	2 542 23 is_stmt 1      @ ../Src/one_wire.c:542:23
	adds	r2, #1
.Ltmp234:
	@DEBUG_VALUE: ONEWIRE_Pack:i <- $r2
	.loc	2 0 23 is_stmt 0        @ ../Src/one_wire.c:0:23
	b	.LBB14_1
.Ltmp235:
.Lfunc_end14:
	.size	ONEWIRE_Pack, .Lfunc_end14-ONEWIRE_Pack
	.cfi_endproc
	.cantunwind
	.fnend
                                        @ -- End function
	.section	.text.ONEWIRE_Unpack,"ax",%progbits
	.hidden	ONEWIRE_Unpack          @ -- Begin function ONEWIRE_Unpack
	.globl	ONEWIRE_Unpack
	.p2align	1
	.type	ONEWIRE_Unpack,%function
	.code	16                      @ @ONEWIRE_Unpack
	.thumb_func
ONEWIRE_Unpack:
.Lfunc_begin15:
	.loc	2 550 0 is_stmt 1       @ ../Src/one_wire.c:550:0
	.fnstart
	.cfi_startproc
@ %bb.0:
	@DEBUG_VALUE: ONEWIRE_Unpack:buffer <- $r0
	@DEBUG_VALUE: ONEWIRE_Unpack:buffer <- $r0
	movs	r1, #0
.Ltmp236:
	@DEBUG_VALUE: ONEWIRE_Unpack:i <- 0
	@DEBUG_VALUE: ONEWIRE_Unpack:res <- 0
	mov.w	r12, #1
	movs	r3, #0
.Ltmp237:
.LBB15_1:                               @ =>This Inner Loop Header: Depth=1
	@DEBUG_VALUE: ONEWIRE_Unpack:buffer <- $r0
	@DEBUG_VALUE: ONEWIRE_Unpack:i <- $r1
	.loc	2 554 2 prologue_end    @ ../Src/one_wire.c:554:2
	cmp	r1, #8
.Ltmp238:
	.loc	2 562 2                 @ ../Src/one_wire.c:562:2
	itt	eq
	uxtbeq	r0, r3
.Ltmp239:
	bxeq	lr
.Ltmp240:
	.loc	2 556 7                 @ ../Src/one_wire.c:556:7
	ldrb	r2, [r0, r1]
.Ltmp241:
	.loc	2 556 7 is_stmt 0       @ ../Src/one_wire.c:556:7
	cmp	r2, #255
.Ltmp242:
	.loc	2 558 15 is_stmt 1      @ ../Src/one_wire.c:558:15
	itt	eq
	lsleq.w	r2, r12, r1
	.loc	2 558 8 is_stmt 0       @ ../Src/one_wire.c:558:8
	orreq	r3, r2
.Ltmp243:
	.loc	2 554 22 is_stmt 1      @ ../Src/one_wire.c:554:22
	adds	r1, #1
.Ltmp244:
	@DEBUG_VALUE: ONEWIRE_Unpack:i <- $r1
	.loc	2 0 22 is_stmt 0        @ ../Src/one_wire.c:0:22
	b	.LBB15_1
.Ltmp245:
.Lfunc_end15:
	.size	ONEWIRE_Unpack, .Lfunc_end15-ONEWIRE_Unpack
	.cfi_endproc
	.cantunwind
	.fnend
                                        @ -- End function
	.section	.text.ONEWIRE_ReadROM,"ax",%progbits
	.hidden	ONEWIRE_ReadROM         @ -- Begin function ONEWIRE_ReadROM
	.globl	ONEWIRE_ReadROM
	.p2align	1
	.type	ONEWIRE_ReadROM,%function
	.code	16                      @ @ONEWIRE_ReadROM
	.thumb_func
ONEWIRE_ReadROM:
.Lfunc_begin16:
	.loc	2 500 0 is_stmt 1       @ ../Src/one_wire.c:500:0
	.fnstart
	.cfi_startproc
@ %bb.0:
	.save	{r4, lr}
	push	{r4, lr}
	.cfi_def_cfa_offset 8
	.cfi_offset lr, -4
	.cfi_offset r4, -8
	@DEBUG_VALUE: ONEWIRE_ReadROM:ow_address <- $r0
	mov	r4, r0
.Ltmp246:
	@DEBUG_VALUE: ONEWIRE_ReadROM:ow_address <- $r4
	.loc	2 503 5 prologue_end    @ ../Src/one_wire.c:503:5
	bl	ONEWIRE_Reset
.Ltmp247:
	.loc	2 503 5 is_stmt 0       @ ../Src/one_wire.c:503:5
	cbz	r0, .LBB16_2
.Ltmp248:
@ %bb.1:
	@DEBUG_VALUE: ONEWIRE_ReadROM:ow_address <- $r4
	.loc	2 505 3 is_stmt 1       @ ../Src/one_wire.c:505:3
	movs	r0, #51
	bl	ONEWIRE_SendByte
	.loc	2 506 3                 @ ../Src/one_wire.c:506:3
	mov	r0, r4
	movs	r1, #8
	bl	ONEWIRE_Receive
	.loc	2 507 9                 @ ../Src/one_wire.c:507:9
	mov	r0, r4
	movs	r1, #7
	bl	ONEWIRE_CrcCheck
.Ltmp249:
	.loc	2 508 14                @ ../Src/one_wire.c:508:14
	ldrb	r1, [r4, #7]
	.loc	2 508 11 is_stmt 0      @ ../Src/one_wire.c:508:11
	subs	r1, r0, r1
	.loc	2 508 37                @ ../Src/one_wire.c:508:37
	clz	r0, r0
	.loc	2 508 11                @ ../Src/one_wire.c:508:11
	it	ne
	movne	r1, #1
	.loc	2 508 37                @ ../Src/one_wire.c:508:37
	lsrs	r0, r0, #5
	.loc	2 508 29                @ ../Src/one_wire.c:508:29
	orrs	r0, r1
	pop	{r4, pc}
.Ltmp250:
.LBB16_2:
	@DEBUG_VALUE: ONEWIRE_ReadROM:ow_address <- $r4
	.loc	2 512 1 is_stmt 1       @ ../Src/one_wire.c:512:1
	movs	r0, #2
	pop	{r4, pc}
.Ltmp251:
.Lfunc_end16:
	.size	ONEWIRE_ReadROM, .Lfunc_end16-ONEWIRE_ReadROM
	.cfi_endproc
	.cantunwind
	.fnend
                                        @ -- End function
	.section	.text.ONEWIRE_Select,"ax",%progbits
	.hidden	ONEWIRE_Select          @ -- Begin function ONEWIRE_Select
	.globl	ONEWIRE_Select
	.p2align	1
	.type	ONEWIRE_Select,%function
	.code	16                      @ @ONEWIRE_Select
	.thumb_func
ONEWIRE_Select:
.Lfunc_begin17:
	.loc	2 686 0                 @ ../Src/one_wire.c:686:0
	.fnstart
	.cfi_startproc
@ %bb.0:
	.save	{r4, r5, r7, lr}
	push	{r4, r5, r7, lr}
	.cfi_def_cfa_offset 16
	.cfi_offset lr, -4
	.cfi_offset r7, -8
	.cfi_offset r5, -12
	.cfi_offset r4, -16
	@DEBUG_VALUE: ONEWIRE_Select:addr <- $r0
	mov	r4, r0
.Ltmp252:
	@DEBUG_VALUE: ONEWIRE_Select:addr <- $r4
	.loc	2 689 2 prologue_end    @ ../Src/one_wire.c:689:2
	movs	r0, #85
	bl	ONEWIRE_SendByte
	movs	r5, #0
.Ltmp253:
	@DEBUG_VALUE: ONEWIRE_Select:i <- 0
.LBB17_1:                               @ =>This Inner Loop Header: Depth=1
	@DEBUG_VALUE: ONEWIRE_Select:addr <- $r4
	@DEBUG_VALUE: ONEWIRE_Select:i <- $r5
	.loc	2 691 2                 @ ../Src/one_wire.c:691:2
	cmp	r5, #8
.Ltmp254:
	.loc	2 695 1                 @ ../Src/one_wire.c:695:1
	it	eq
	popeq	{r4, r5, r7, pc}
.Ltmp255:
	.loc	2 693 3                 @ ../Src/one_wire.c:693:3
	ldrb	r0, [r4, r5]
	bl	ONEWIRE_SendByte
.Ltmp256:
	.loc	2 691 22                @ ../Src/one_wire.c:691:22
	adds	r5, #1
	b	.LBB17_1
.Ltmp257:
.Lfunc_end17:
	.size	ONEWIRE_Select, .Lfunc_end17-ONEWIRE_Select
	.cfi_endproc
	.cantunwind
	.fnend
                                        @ -- End function
	.type	ONEWIRE_Search.init_cnt,%object @ @ONEWIRE_Search.init_cnt
	.section	.bss.ONEWIRE_Search.init_cnt,"aw",%nobits
ONEWIRE_Search.init_cnt:
	.byte	0                       @ 0x0
	.size	ONEWIRE_Search.init_cnt, 1

	.hidden	onewire_timeout_timer   @ @onewire_timeout_timer
	.type	onewire_timeout_timer,%object
	.section	.bss.onewire_timeout_timer,"aw",%nobits
	.globl	onewire_timeout_timer
	.p2align	2
onewire_timeout_timer:
	.long	0                       @ 0x0
	.size	onewire_timeout_timer, 4

	.type	.L_MergedGlobals,%object @ @_MergedGlobals
	.section	.bss..L_MergedGlobals,"aw",%nobits
	.p2align	4
.L_MergedGlobals:
	.zero	128
	.size	.L_MergedGlobals, 128

	.type	.L_MergedGlobals.1,%object @ @_MergedGlobals.1
	.section	.bss..L_MergedGlobals.1,"aw",%nobits
	.p2align	4
.L_MergedGlobals.1:
	.zero	112
	.size	.L_MergedGlobals.1, 112

	.type	.L_MergedGlobals.2,%object @ @_MergedGlobals.2
	.section	.bss..L_MergedGlobals.2,"aw",%nobits
	.p2align	2
.L_MergedGlobals.2:
	.zero	2
	.size	.L_MergedGlobals.2, 2

	.section	".note.GNU-stack","",%progbits
	.eabi_attribute	30, 4	@ Tag_ABI_optimization_goals
	.ARM_attribute	16, 1	@ Tag_AV_eba