	.text
	.syntax unified
	.eabi_attribute	67, "2.09"	@ Tag_conformance
	.cpu	cortex-m7
	.eabi_attribute	6, 13	@ Tag_CPU_arch
	.eabi_attribute	7, 77	@ Tag_CPU_arch_profile
	.eabi_attribute	8, 0	@ Tag_ARM_ISA_use
	.eabi_attribute	9, 2	@ Tag_THUMB_ISA_use
	.fpu	fpv5-sp-d16
	.eabi_attribute	27, 1	@ Tag_ABI_HardFP_use
	.eabi_attribute	36, 1	@ Tag_FP_HP_extension
	.eabi_attribute	34, 1	@ Tag_CPU_unaligned_access
	.eabi_attribute	17, 1	@ Tag_ABI_PCS_GOT_use
	.eabi_attribute	20, 2	@ Tag_ABI_FP_denormal
	.eabi_attribute	21, 0	@ Tag_ABI_FP_exceptions
	.eabi_attribute	23, 1	@ Tag_ABI_FP_number_model
	.eabi_attribute	24, 1	@ Tag_ABI_align_needed
	.eabi_attribute	25, 1	@ Tag_ABI_align_preserved
	.eabi_attribute	28, 1	@ Tag_ABI_VFP_args
	.eabi_attribute	38, 1	@ Tag_ABI_FP_16bit_format
	.eabi_attribute	18, 2	@ Tag_ABI_PCS_wchar_t
	.eabi_attribute	26, 1	@ Tag_ABI_enum_size
	.eabi_attribute	14, 0	@ Tag_ABI_PCS_R9_use
	.file	"stm32f7xx_hal_rcc_ex.c"
	.file	1 "../Drivers/STM32F7xx_HAL_Driver/Inc" "stm32f7xx_hal_def.h"
	.file	2 "../Drivers/CMSIS/Device/ST/STM32F7xx/Include" "stm32f7xx.h"
	.file	3 "C:\\Keil\\ARM\\ARMCLANG\\Bin\\..\\include" "stdint.h"
	.file	4 "../Drivers/CMSIS/Device/ST/STM32F7xx/Include" "stm32f746xx.h"
	.section	.text.HAL_RCCEx_PeriphCLKConfig,"ax",%progbits
	.hidden	HAL_RCCEx_PeriphCLKConfig @ -- Begin function HAL_RCCEx_PeriphCLKConfig
	.globl	HAL_RCCEx_PeriphCLKConfig
	.p2align	2
	.type	HAL_RCCEx_PeriphCLKConfig,%function
	.code	16                      @ @HAL_RCCEx_PeriphCLKConfig
	.thumb_func
HAL_RCCEx_PeriphCLKConfig:
.Lfunc_begin0:
	.file	5 "../Drivers/STM32F7xx_HAL_Driver/Src" "stm32f7xx_hal_rcc_ex.c"
	.loc	5 127 0                 @ ../Drivers/STM32F7xx_HAL_Driver/Src/stm32f7xx_hal_rcc_ex.c:127:0
	.fnstart
	.cfi_sections .debug_frame
	.cfi_startproc
@ %bb.0:
	.save	{r4, r5, r6, r7, r8, r9, r10, r11, lr}
	.pad	#4
	push.w	{r3, r4, r5, r6, r7, r8, r9, r10, r11, lr}
	.cfi_def_cfa_offset 40
	.cfi_offset lr, -4
	.cfi_offset r11, -8
	.cfi_offset r10, -12
	.cfi_offset r9, -16
	.cfi_offset r8, -20
	.cfi_offset r7, -24
	.cfi_offset r6, -28
	.cfi_offset r5, -32
	.cfi_offset r4, -36
	@DEBUG_VALUE: HAL_RCCEx_PeriphCLKConfig:PeriphClkInit <- $r0
.Ltmp0:
	.loc	5 138 23 prologue_end   @ ../Drivers/STM32F7xx_HAL_Driver/Src/stm32f7xx_hal_rcc_ex.c:138:23
	ldr.w	r9, [r0]
	ldr	r5, __arm_cp.0_4
	mov	r4, r0
.Ltmp1:
	@DEBUG_VALUE: HAL_RCCEx_PeriphCLKConfig:pllsaiused <- 0
	@DEBUG_VALUE: HAL_RCCEx_PeriphCLKConfig:plli2sused <- 0
	@DEBUG_VALUE: HAL_RCCEx_PeriphCLKConfig:tmpreg1 <- 0
	@DEBUG_VALUE: HAL_RCCEx_PeriphCLKConfig:tmpreg0 <- 0
	@DEBUG_VALUE: HAL_RCCEx_PeriphCLKConfig:tickstart <- 0
	@DEBUG_VALUE: HAL_RCCEx_PeriphCLKConfig:PeriphClkInit <- $r4
	.loc	5 138 6 is_stmt 0       @ ../Drivers/STM32F7xx_HAL_Driver/Src/stm32f7xx_hal_rcc_ex.c:138:6
	tst.w	r9, #1
	bne	.LBB0_2
.Ltmp2:
@ %bb.1:
	@DEBUG_VALUE: HAL_RCCEx_PeriphCLKConfig:PeriphClkInit <- $r4
	.loc	5 0 6                   @ ../Drivers/STM32F7xx_HAL_Driver/Src/stm32f7xx_hal_rcc_ex.c:0:6
	mov.w	r10, #0
	b	.LBB0_3
.Ltmp3:
.LBB0_2:
	@DEBUG_VALUE: HAL_RCCEx_PeriphCLKConfig:PeriphClkInit <- $r4
	.loc	5 144 5 is_stmt 1       @ ../Drivers/STM32F7xx_HAL_Driver/Src/stm32f7xx_hal_rcc_ex.c:144:5
	ldr	r0, [r5]
	bic	r0, r0, #8388608
	str	r0, [r5]
	ldr	r0, [r4, #52]
	ldr	r1, [r5]
	orrs	r1, r0
.Ltmp4:
	.loc	5 147 41                @ ../Drivers/STM32F7xx_HAL_Driver/Src/stm32f7xx_hal_rcc_ex.c:147:41
	clz	r0, r0
	lsr.w	r10, r0, #5
.Ltmp5:
	.loc	5 144 5                 @ ../Drivers/STM32F7xx_HAL_Driver/Src/stm32f7xx_hal_rcc_ex.c:144:5
	str	r1, [r5]
.Ltmp6:
.LBB0_3:
	@DEBUG_VALUE: HAL_RCCEx_PeriphCLKConfig:PeriphClkInit <- $r4
	.loc	5 154 6                 @ ../Drivers/STM32F7xx_HAL_Driver/Src/stm32f7xx_hal_rcc_ex.c:154:6
	lsls.w	r0, r9, #12
	bmi	.LBB0_5
.Ltmp7:
@ %bb.4:
	@DEBUG_VALUE: HAL_RCCEx_PeriphCLKConfig:PeriphClkInit <- $r4
	.loc	5 0 6 is_stmt 0         @ ../Drivers/STM32F7xx_HAL_Driver/Src/stm32f7xx_hal_rcc_ex.c:0:6
	mov.w	r8, #0
	b	.LBB0_8
.Ltmp8:
.LBB0_5:
	@DEBUG_VALUE: HAL_RCCEx_PeriphCLKConfig:PeriphClkInit <- $r4
	.loc	5 160 5 is_stmt 1       @ ../Drivers/STM32F7xx_HAL_Driver/Src/stm32f7xx_hal_rcc_ex.c:160:5
	ldr.w	r1, [r5, #132]
	ldr	r0, [r4, #60]
	bic	r1, r1, #3145728
	.loc	5 162 8                 @ ../Drivers/STM32F7xx_HAL_Driver/Src/stm32f7xx_hal_rcc_ex.c:162:8
	cmp.w	r0, #1048576
	.loc	5 160 5                 @ ../Drivers/STM32F7xx_HAL_Driver/Src/stm32f7xx_hal_rcc_ex.c:160:5
	orr.w	r1, r1, r0
	str.w	r1, [r5, #132]
	.loc	5 162 8                 @ ../Drivers/STM32F7xx_HAL_Driver/Src/stm32f7xx_hal_rcc_ex.c:162:8
	bne	.LBB0_7
.Ltmp9:
@ %bb.6:
	@DEBUG_VALUE: HAL_RCCEx_PeriphCLKConfig:PeriphClkInit <- $r4
	.loc	5 0 8 is_stmt 0         @ ../Drivers/STM32F7xx_HAL_Driver/Src/stm32f7xx_hal_rcc_ex.c:0:8
	mov.w	r8, #0
	mov.w	r10, #1
	b	.LBB0_8
.Ltmp10:
.LBB0_7:
	@DEBUG_VALUE: HAL_RCCEx_PeriphCLKConfig:PeriphClkInit <- $r4
	.loc	5 167 42 is_stmt 1      @ ../Drivers/STM32F7xx_HAL_Driver/Src/stm32f7xx_hal_rcc_ex.c:167:42
	clz	r0, r0
	lsr.w	r8, r0, #5
.Ltmp11:
.LBB0_8:
	@DEBUG_VALUE: HAL_RCCEx_PeriphCLKConfig:PeriphClkInit <- $r4
	.loc	5 174 6                 @ ../Drivers/STM32F7xx_HAL_Driver/Src/stm32f7xx_hal_rcc_ex.c:174:6
	lsls.w	r0, r9, #11
	bpl	.LBB0_12
.Ltmp12:
@ %bb.9:
	@DEBUG_VALUE: HAL_RCCEx_PeriphCLKConfig:PeriphClkInit <- $r4
	.loc	5 180 5                 @ ../Drivers/STM32F7xx_HAL_Driver/Src/stm32f7xx_hal_rcc_ex.c:180:5
	ldr.w	r1, [r5, #132]
	ldr	r0, [r4, #64]
	bic	r1, r1, #12582912
	.loc	5 183 8                 @ ../Drivers/STM32F7xx_HAL_Driver/Src/stm32f7xx_hal_rcc_ex.c:183:8
	cmp.w	r0, #4194304
	.loc	5 180 5                 @ ../Drivers/STM32F7xx_HAL_Driver/Src/stm32f7xx_hal_rcc_ex.c:180:5
	orr.w	r1, r1, r0
	str.w	r1, [r5, #132]
	.loc	5 183 8                 @ ../Drivers/STM32F7xx_HAL_Driver/Src/stm32f7xx_hal_rcc_ex.c:183:8
	bne	.LBB0_11
.Ltmp13:
@ %bb.10:
	@DEBUG_VALUE: HAL_RCCEx_PeriphCLKConfig:PeriphClkInit <- $r4
	.loc	5 0 8 is_stmt 0         @ ../Drivers/STM32F7xx_HAL_Driver/Src/stm32f7xx_hal_rcc_ex.c:0:8
	mov.w	r10, #1
	b	.LBB0_12
.Ltmp14:
.LBB0_11:
	@DEBUG_VALUE: HAL_RCCEx_PeriphCLKConfig:PeriphClkInit <- $r4
	.loc	5 188 8 is_stmt 1       @ ../Drivers/STM32F7xx_HAL_Driver/Src/stm32f7xx_hal_rcc_ex.c:188:8
	cmp	r0, #0
	it	eq
	moveq.w	r8, #1
.Ltmp15:
	@DEBUG_VALUE: HAL_RCCEx_PeriphCLKConfig:pllsaiused <- $r8
.LBB0_12:
	@DEBUG_VALUE: HAL_RCCEx_PeriphCLKConfig:PeriphClkInit <- $r4
	.loc	5 0 8 is_stmt 0         @ ../Drivers/STM32F7xx_HAL_Driver/Src/stm32f7xx_hal_rcc_ex.c:0:8
	ldr	r7, __arm_cp.0_5
	.loc	5 201 6 is_stmt 1       @ ../Drivers/STM32F7xx_HAL_Driver/Src/stm32f7xx_hal_rcc_ex.c:201:6
	tst.w	r9, #32
.Ltmp16:
	.loc	5 259 23                @ ../Drivers/STM32F7xx_HAL_Driver/Src/stm32f7xx_hal_rcc_ex.c:259:23
	mov	r6, r9
	mov	r11, r5
.Ltmp17:
	.loc	5 201 6                 @ ../Drivers/STM32F7xx_HAL_Driver/Src/stm32f7xx_hal_rcc_ex.c:201:6
	beq	.LBB0_23
.Ltmp18:
@ %bb.13:
	@DEBUG_VALUE: HAL_RCCEx_PeriphCLKConfig:PeriphClkInit <- $r4
	.loc	5 207 5                 @ ../Drivers/STM32F7xx_HAL_Driver/Src/stm32f7xx_hal_rcc_ex.c:207:5
	ldr	r0, [r5, #56]
.Ltmp19:
	.loc	5 210 14                @ ../Drivers/STM32F7xx_HAL_Driver/Src/stm32f7xx_hal_rcc_ex.c:210:14
	ldr	r6, __arm_cp.0_6
.Ltmp20:
	.loc	5 207 5                 @ ../Drivers/STM32F7xx_HAL_Driver/Src/stm32f7xx_hal_rcc_ex.c:207:5
	orr	r0, r0, #268435456
	str	r0, [r5, #56]
	ldr	r0, [r5, #56]
	and	r0, r0, #268435456
.Ltmp21:
	@DEBUG_VALUE: tmpreg <- $r0
	str	r0, [sp]
	ldr	r0, [sp]
.Ltmp22:
	@DEBUG_VALUE: tmpreg <- $r0
	.loc	5 210 14                @ ../Drivers/STM32F7xx_HAL_Driver/Src/stm32f7xx_hal_rcc_ex.c:210:14
	ldr	r0, [r7, r6]
.Ltmp23:
	orr	r0, r0, #256
	str	r0, [r7, r6]
	.loc	5 213 17                @ ../Drivers/STM32F7xx_HAL_Driver/Src/stm32f7xx_hal_rcc_ex.c:213:17
	bl	HAL_GetTick
	mov	r5, r0
.Ltmp24:
	@DEBUG_VALUE: HAL_RCCEx_PeriphCLKConfig:tickstart <- $r5
.LBB0_14:                               @ =>This Inner Loop Header: Depth=1
	@DEBUG_VALUE: HAL_RCCEx_PeriphCLKConfig:tickstart <- $r5
	@DEBUG_VALUE: HAL_RCCEx_PeriphCLKConfig:PeriphClkInit <- $r4
	.loc	5 216 17                @ ../Drivers/STM32F7xx_HAL_Driver/Src/stm32f7xx_hal_rcc_ex.c:216:17
	ldr	r0, [r7, r6]
	.loc	5 216 5 is_stmt 0       @ ../Drivers/STM32F7xx_HAL_Driver/Src/stm32f7xx_hal_rcc_ex.c:216:5
	tst.w	r0, #256
	bne	.LBB0_16
.Ltmp25:
@ %bb.15:                               @   in Loop: Header=BB0_14 Depth=1
	@DEBUG_VALUE: HAL_RCCEx_PeriphCLKConfig:tickstart <- $r5
	@DEBUG_VALUE: HAL_RCCEx_PeriphCLKConfig:PeriphClkInit <- $r4
	.loc	5 218 11 is_stmt 1      @ ../Drivers/STM32F7xx_HAL_Driver/Src/stm32f7xx_hal_rcc_ex.c:218:11
	bl	HAL_GetTick
	.loc	5 218 25 is_stmt 0      @ ../Drivers/STM32F7xx_HAL_Driver/Src/stm32f7xx_hal_rcc_ex.c:218:25
	subs	r0, r0, r5
.Ltmp26:
	.loc	5 218 10                @ ../Drivers/STM32F7xx_HAL_Driver/Src/stm32f7xx_hal_rcc_ex.c:218:10
	cmp	r0, #100
	bls	.LBB0_14
	b	.LBB0_99
.Ltmp27:
.LBB0_16:
	@DEBUG_VALUE: HAL_RCCEx_PeriphCLKConfig:tickstart <- $r5
	@DEBUG_VALUE: HAL_RCCEx_PeriphCLKConfig:PeriphClkInit <- $r4
	.loc	5 0 10                  @ ../Drivers/STM32F7xx_HAL_Driver/Src/stm32f7xx_hal_rcc_ex.c:0:10
	mov	r0, r11
	.loc	5 225 21 is_stmt 1      @ ../Drivers/STM32F7xx_HAL_Driver/Src/stm32f7xx_hal_rcc_ex.c:225:21
	ldr.w	r0, [r11, #104]
	.loc	5 225 26 is_stmt 0      @ ../Drivers/STM32F7xx_HAL_Driver/Src/stm32f7xx_hal_rcc_ex.c:225:26
	ands	r0, r0, #768
.Ltmp28:
	@DEBUG_VALUE: HAL_RCCEx_PeriphCLKConfig:tmpreg0 <- $r0
	.loc	5 227 33 is_stmt 1      @ ../Drivers/STM32F7xx_HAL_Driver/Src/stm32f7xx_hal_rcc_ex.c:227:33
	beq	.LBB0_22
.Ltmp29:
@ %bb.17:
	@DEBUG_VALUE: HAL_RCCEx_PeriphCLKConfig:tmpreg0 <- $r0
	@DEBUG_VALUE: HAL_RCCEx_PeriphCLKConfig:tickstart <- $r5
	@DEBUG_VALUE: HAL_RCCEx_PeriphCLKConfig:PeriphClkInit <- $r4
	.loc	5 227 64 is_stmt 0      @ ../Drivers/STM32F7xx_HAL_Driver/Src/stm32f7xx_hal_rcc_ex.c:227:64
	ldr	r1, [r4, #48]
	.loc	5 227 82                @ ../Drivers/STM32F7xx_HAL_Driver/Src/stm32f7xx_hal_rcc_ex.c:227:82
	and	r1, r1, #768
.Ltmp30:
	.loc	5 227 8                 @ ../Drivers/STM32F7xx_HAL_Driver/Src/stm32f7xx_hal_rcc_ex.c:227:8
	cmp	r0, r1
	beq	.LBB0_22
.Ltmp31:
@ %bb.18:
	@DEBUG_VALUE: HAL_RCCEx_PeriphCLKConfig:tmpreg0 <- $r0
	@DEBUG_VALUE: HAL_RCCEx_PeriphCLKConfig:tickstart <- $r5
	@DEBUG_VALUE: HAL_RCCEx_PeriphCLKConfig:PeriphClkInit <- $r4
	.loc	5 230 23 is_stmt 1      @ ../Drivers/STM32F7xx_HAL_Driver/Src/stm32f7xx_hal_rcc_ex.c:230:23
	ldr.w	r0, [r11, #104]
.Ltmp32:
	.loc	5 233 7                 @ ../Drivers/STM32F7xx_HAL_Driver/Src/stm32f7xx_hal_rcc_ex.c:233:7
	ldr.w	r1, [r11, #104]
	mov	r2, r11
	orr	r1, r1, #65536
	.loc	5 230 28                @ ../Drivers/STM32F7xx_HAL_Driver/Src/stm32f7xx_hal_rcc_ex.c:230:28
	bic	r0, r0, #768
.Ltmp33:
	@DEBUG_VALUE: HAL_RCCEx_PeriphCLKConfig:tmpreg0 <- $r0
	.loc	5 233 7                 @ ../Drivers/STM32F7xx_HAL_Driver/Src/stm32f7xx_hal_rcc_ex.c:233:7
	str.w	r1, [r11, #104]
	.loc	5 234 7                 @ ../Drivers/STM32F7xx_HAL_Driver/Src/stm32f7xx_hal_rcc_ex.c:234:7
	ldr.w	r1, [r11, #104]
	bic	r1, r1, #65536
	str.w	r1, [r11, #104]
	.loc	5 237 17                @ ../Drivers/STM32F7xx_HAL_Driver/Src/stm32f7xx_hal_rcc_ex.c:237:17
	str.w	r0, [r11, #104]
.Ltmp34:
	.loc	5 240 11                @ ../Drivers/STM32F7xx_HAL_Driver/Src/stm32f7xx_hal_rcc_ex.c:240:11
	ldr.w	r0, [r11, #104]
.Ltmp35:
	.loc	5 240 11 is_stmt 0      @ ../Drivers/STM32F7xx_HAL_Driver/Src/stm32f7xx_hal_rcc_ex.c:240:11
	tst.w	r0, #1
	beq	.LBB0_22
.Ltmp36:
@ %bb.19:
	@DEBUG_VALUE: HAL_RCCEx_PeriphCLKConfig:tickstart <- $r5
	@DEBUG_VALUE: HAL_RCCEx_PeriphCLKConfig:PeriphClkInit <- $r4
	.loc	5 243 21 is_stmt 1      @ ../Drivers/STM32F7xx_HAL_Driver/Src/stm32f7xx_hal_rcc_ex.c:243:21
	bl	HAL_GetTick
	mov	r5, r0
.Ltmp37:
	@DEBUG_VALUE: HAL_RCCEx_PeriphCLKConfig:tickstart <- $r5
	.loc	5 0 21 is_stmt 0        @ ../Drivers/STM32F7xx_HAL_Driver/Src/stm32f7xx_hal_rcc_ex.c:0:21
	movw	r6, #5000
.Ltmp38:
.LBB0_20:                               @ =>This Inner Loop Header: Depth=1
	@DEBUG_VALUE: HAL_RCCEx_PeriphCLKConfig:tickstart <- $r5
	@DEBUG_VALUE: HAL_RCCEx_PeriphCLKConfig:PeriphClkInit <- $r4
	mov	r0, r11
	.loc	5 246 15 is_stmt 1      @ ../Drivers/STM32F7xx_HAL_Driver/Src/stm32f7xx_hal_rcc_ex.c:246:15
	ldr.w	r0, [r11, #104]
	.loc	5 246 9 is_stmt 0       @ ../Drivers/STM32F7xx_HAL_Driver/Src/stm32f7xx_hal_rcc_ex.c:246:9
	tst.w	r0, #2
	bne	.LBB0_22
.Ltmp39:
@ %bb.21:                               @   in Loop: Header=BB0_20 Depth=1
	@DEBUG_VALUE: HAL_RCCEx_PeriphCLKConfig:tickstart <- $r5
	@DEBUG_VALUE: HAL_RCCEx_PeriphCLKConfig:PeriphClkInit <- $r4
	.loc	5 248 15 is_stmt 1      @ ../Drivers/STM32F7xx_HAL_Driver/Src/stm32f7xx_hal_rcc_ex.c:248:15
	bl	HAL_GetTick
	.loc	5 248 29 is_stmt 0      @ ../Drivers/STM32F7xx_HAL_Driver/Src/stm32f7xx_hal_rcc_ex.c:248:29
	subs	r1, r0, r5
	movs	r0, #3
.Ltmp40:
	.loc	5 248 14                @ ../Drivers/STM32F7xx_HAL_Driver/Src/stm32f7xx_hal_rcc_ex.c:248:14
	cmp	r1, r6
	bls	.LBB0_20
	b	.LBB0_101
.Ltmp41:
.LBB0_22:
	@DEBUG_VALUE: HAL_RCCEx_PeriphCLKConfig:tickstart <- $r5
	@DEBUG_VALUE: HAL_RCCEx_PeriphCLKConfig:PeriphClkInit <- $r4
	.loc	5 255 5 is_stmt 1       @ ../Drivers/STM32F7xx_HAL_Driver/Src/stm32f7xx_hal_rcc_ex.c:255:5
	ldr	r0, [r4, #48]
	ldr	r1, __arm_cp.0_7
	ldr.w	r2, [r11]
	mov	r5, r11
.Ltmp42:
	and	r3, r0, #768
	ands	r1, r0
	bic	r2, r2, #2031616
	bfc	r0, #12, #20
	cmp.w	r3, #768
	it	eq
	orreq	r2, r1
	str.w	r2, [r11]
	ldr.w	r1, [r11, #104]
	orrs	r0, r1
	str.w	r0, [r11, #104]
.Ltmp43:
	.loc	5 259 23                @ ../Drivers/STM32F7xx_HAL_Driver/Src/stm32f7xx_hal_rcc_ex.c:259:23
	ldr	r6, [r4]
.Ltmp44:
.LBB0_23:
	@DEBUG_VALUE: HAL_RCCEx_PeriphCLKConfig:PeriphClkInit <- $r4
	.loc	5 259 6 is_stmt 0       @ ../Drivers/STM32F7xx_HAL_Driver/Src/stm32f7xx_hal_rcc_ex.c:259:6
	lsls	r0, r6, #27
	bpl	.LBB0_25
.Ltmp45:
@ %bb.24:
	@DEBUG_VALUE: HAL_RCCEx_PeriphCLKConfig:PeriphClkInit <- $r4
	.loc	5 265 5 is_stmt 1       @ ../Drivers/STM32F7xx_HAL_Driver/Src/stm32f7xx_hal_rcc_ex.c:265:5
	ldr.w	r0, [r5, #132]
	bic	r0, r0, #16777216
	str.w	r0, [r5, #132]
	ldr	r0, [r4, #56]
	ldr.w	r1, [r5, #132]
	orrs	r0, r1
	str.w	r0, [r5, #132]
.Ltmp46:
.LBB0_25:
	@DEBUG_VALUE: HAL_RCCEx_PeriphCLKConfig:PeriphClkInit <- $r4
	.loc	5 269 6                 @ ../Drivers/STM32F7xx_HAL_Driver/Src/stm32f7xx_hal_rcc_ex.c:269:6
	lsls	r0, r6, #17
	bpl	.LBB0_27
.Ltmp47:
@ %bb.26:
	@DEBUG_VALUE: HAL_RCCEx_PeriphCLKConfig:PeriphClkInit <- $r4
	.loc	5 275 5                 @ ../Drivers/STM32F7xx_HAL_Driver/Src/stm32f7xx_hal_rcc_ex.c:275:5
	ldr.w	r0, [r5, #136]
	ldr	r1, [r4, #100]
	bic	r0, r0, #196608
	orrs	r0, r1
	str.w	r0, [r5, #136]
.Ltmp48:
.LBB0_27:
	@DEBUG_VALUE: HAL_RCCEx_PeriphCLKConfig:PeriphClkInit <- $r4
	.loc	5 279 6                 @ ../Drivers/STM32F7xx_HAL_Driver/Src/stm32f7xx_hal_rcc_ex.c:279:6
	lsls	r0, r6, #16
	bpl	.LBB0_29
.Ltmp49:
@ %bb.28:
	@DEBUG_VALUE: HAL_RCCEx_PeriphCLKConfig:PeriphClkInit <- $r4
	.loc	5 285 5                 @ ../Drivers/STM32F7xx_HAL_Driver/Src/stm32f7xx_hal_rcc_ex.c:285:5
	ldr.w	r0, [r5, #136]
	ldr	r1, [r4, #104]
	bic	r0, r0, #786432
	orrs	r0, r1
	str.w	r0, [r5, #136]
.Ltmp50:
.LBB0_29:
	@DEBUG_VALUE: HAL_RCCEx_PeriphCLKConfig:PeriphClkInit <- $r4
	.loc	5 289 6                 @ ../Drivers/STM32F7xx_HAL_Driver/Src/stm32f7xx_hal_rcc_ex.c:289:6
	lsls	r0, r6, #15
	bpl	.LBB0_31
.Ltmp51:
@ %bb.30:
	@DEBUG_VALUE: HAL_RCCEx_PeriphCLKConfig:PeriphClkInit <- $r4
	.loc	5 295 5                 @ ../Drivers/STM32F7xx_HAL_Driver/Src/stm32f7xx_hal_rcc_ex.c:295:5
	ldr.w	r0, [r5, #136]
	ldr	r1, [r4, #108]
	bic	r0, r0, #3145728
	orrs	r0, r1
	str.w	r0, [r5, #136]
.Ltmp52:
.LBB0_31:
	@DEBUG_VALUE: HAL_RCCEx_PeriphCLKConfig:PeriphClkInit <- $r4
	.loc	5 299 6                 @ ../Drivers/STM32F7xx_HAL_Driver/Src/stm32f7xx_hal_rcc_ex.c:299:6
	lsls	r0, r6, #14
	bpl	.LBB0_33
.Ltmp53:
@ %bb.32:
	@DEBUG_VALUE: HAL_RCCEx_PeriphCLKConfig:PeriphClkInit <- $r4
	.loc	5 305 5                 @ ../Drivers/STM32F7xx_HAL_Driver/Src/stm32f7xx_hal_rcc_ex.c:305:5
	ldr.w	r0, [r5, #136]
	ldr	r1, [r4, #112]
	bic	r0, r0, #12582912
	orrs	r0, r1
	str.w	r0, [r5, #136]
.Ltmp54:
.LBB0_33:
	@DEBUG_VALUE: HAL_RCCEx_PeriphCLKConfig:PeriphClkInit <- $r4
	.loc	5 309 6                 @ ../Drivers/STM32F7xx_HAL_Driver/Src/stm32f7xx_hal_rcc_ex.c:309:6
	lsls	r0, r6, #25
	bpl	.LBB0_35
.Ltmp55:
@ %bb.34:
	@DEBUG_VALUE: HAL_RCCEx_PeriphCLKConfig:PeriphClkInit <- $r4
	.loc	5 315 5                 @ ../Drivers/STM32F7xx_HAL_Driver/Src/stm32f7xx_hal_rcc_ex.c:315:5
	ldr.w	r0, [r5, #136]
	ldr	r1, [r4, #68]
	bic	r0, r0, #3
	orrs	r0, r1
	str.w	r0, [r5, #136]
.Ltmp56:
.LBB0_35:
	@DEBUG_VALUE: HAL_RCCEx_PeriphCLKConfig:PeriphClkInit <- $r4
	.loc	5 319 6                 @ ../Drivers/STM32F7xx_HAL_Driver/Src/stm32f7xx_hal_rcc_ex.c:319:6
	lsls	r0, r6, #24
	bpl	.LBB0_37
.Ltmp57:
@ %bb.36:
	@DEBUG_VALUE: HAL_RCCEx_PeriphCLKConfig:PeriphClkInit <- $r4
	.loc	5 325 5                 @ ../Drivers/STM32F7xx_HAL_Driver/Src/stm32f7xx_hal_rcc_ex.c:325:5
	ldr.w	r0, [r5, #136]
	ldr	r1, [r4, #72]
	bic	r0, r0, #12
	orrs	r0, r1
	str.w	r0, [r5, #136]
.Ltmp58:
.LBB0_37:
	@DEBUG_VALUE: HAL_RCCEx_PeriphCLKConfig:PeriphClkInit <- $r4
	.loc	5 329 6                 @ ../Drivers/STM32F7xx_HAL_Driver/Src/stm32f7xx_hal_rcc_ex.c:329:6
	lsls	r0, r6, #23
	bpl	.LBB0_39
.Ltmp59:
@ %bb.38:
	@DEBUG_VALUE: HAL_RCCEx_PeriphCLKConfig:PeriphClkInit <- $r4
	.loc	5 335 5                 @ ../Drivers/STM32F7xx_HAL_Driver/Src/stm32f7xx_hal_rcc_ex.c:335:5
	ldr.w	r0, [r5, #136]
	ldr	r1, [r4, #76]
	bic	r0, r0, #48
	orrs	r0, r1
	str.w	r0, [r5, #136]
.Ltmp60:
.LBB0_39:
	@DEBUG_VALUE: HAL_RCCEx_PeriphCLKConfig:PeriphClkInit <- $r4
	.loc	5 339 6                 @ ../Drivers/STM32F7xx_HAL_Driver/Src/stm32f7xx_hal_rcc_ex.c:339:6
	lsls	r0, r6, #22
	bpl	.LBB0_41
.Ltmp61:
@ %bb.40:
	@DEBUG_VALUE: HAL_RCCEx_PeriphCLKConfig:PeriphClkInit <- $r4
	.loc	5 345 5                 @ ../Drivers/STM32F7xx_HAL_Driver/Src/stm32f7xx_hal_rcc_ex.c:345:5
	ldr.w	r0, [r5, #136]
	ldr	r1, [r4, #80]
	bic	r0, r0, #192
	orrs	r0, r1
	str.w	r0, [r5, #136]
.Ltmp62:
.LBB0_41:
	@DEBUG_VALUE: HAL_RCCEx_PeriphCLKConfig:PeriphClkInit <- $r4
	.loc	5 349 6                 @ ../Drivers/STM32F7xx_HAL_Driver/Src/stm32f7xx_hal_rcc_ex.c:349:6
	lsls	r0, r6, #21
	bpl	.LBB0_43
.Ltmp63:
@ %bb.42:
	@DEBUG_VALUE: HAL_RCCEx_PeriphCLKConfig:PeriphClkInit <- $r4
	.loc	5 355 5                 @ ../Drivers/STM32F7xx_HAL_Driver/Src/stm32f7xx_hal_rcc_ex.c:355:5
	ldr.w	r0, [r5, #136]
	ldr	r1, [r4, #84]
	bic	r0, r0, #768
	orrs	r0, r1
	str.w	r0, [r5, #136]
.Ltmp64:
.LBB0_43:
	@DEBUG_VALUE: HAL_RCCEx_PeriphCLKConfig:PeriphClkInit <- $r4
	.loc	5 359 6                 @ ../Drivers/STM32F7xx_HAL_Driver/Src/stm32f7xx_hal_rcc_ex.c:359:6
	lsls	r0, r6, #20
	bpl	.LBB0_45
.Ltmp65:
@ %bb.44:
	@DEBUG_VALUE: HAL_RCCEx_PeriphCLKConfig:PeriphClkInit <- $r4
	.loc	5 365 5                 @ ../Drivers/STM32F7xx_HAL_Driver/Src/stm32f7xx_hal_rcc_ex.c:365:5
	ldr.w	r0, [r5, #136]
	ldr	r1, [r4, #88]
	bic	r0, r0, #3072
	orrs	r0, r1
	str.w	r0, [r5, #136]
.Ltmp66:
.LBB0_45:
	@DEBUG_VALUE: HAL_RCCEx_PeriphCLKConfig:PeriphClkInit <- $r4
	.loc	5 369 6                 @ ../Drivers/STM32F7xx_HAL_Driver/Src/stm32f7xx_hal_rcc_ex.c:369:6
	lsls	r0, r6, #19
	bpl	.LBB0_47
.Ltmp67:
@ %bb.46:
	@DEBUG_VALUE: HAL_RCCEx_PeriphCLKConfig:PeriphClkInit <- $r4
	.loc	5 375 5                 @ ../Drivers/STM32F7xx_HAL_Driver/Src/stm32f7xx_hal_rcc_ex.c:375:5
	ldr.w	r0, [r5, #136]
	ldr	r1, [r4, #92]
	bic	r0, r0, #12288
	orrs	r0, r1
	str.w	r0, [r5, #136]
.Ltmp68:
.LBB0_47:
	@DEBUG_VALUE: HAL_RCCEx_PeriphCLKConfig:PeriphClkInit <- $r4
	.loc	5 379 6                 @ ../Drivers/STM32F7xx_HAL_Driver/Src/stm32f7xx_hal_rcc_ex.c:379:6
	lsls	r0, r6, #18
	bpl	.LBB0_49
.Ltmp69:
@ %bb.48:
	@DEBUG_VALUE: HAL_RCCEx_PeriphCLKConfig:PeriphClkInit <- $r4
	.loc	5 385 5                 @ ../Drivers/STM32F7xx_HAL_Driver/Src/stm32f7xx_hal_rcc_ex.c:385:5
	ldr.w	r0, [r5, #136]
	ldr	r1, [r4, #96]
	bic	r0, r0, #49152
	orrs	r0, r1
	str.w	r0, [r5, #136]
.Ltmp70:
.LBB0_49:
	@DEBUG_VALUE: HAL_RCCEx_PeriphCLKConfig:PeriphClkInit <- $r4
	.loc	5 389 6                 @ ../Drivers/STM32F7xx_HAL_Driver/Src/stm32f7xx_hal_rcc_ex.c:389:6
	lsls	r0, r6, #9
	bpl	.LBB0_51
.Ltmp71:
@ %bb.50:
	@DEBUG_VALUE: HAL_RCCEx_PeriphCLKConfig:PeriphClkInit <- $r4
	.loc	5 395 5                 @ ../Drivers/STM32F7xx_HAL_Driver/Src/stm32f7xx_hal_rcc_ex.c:395:5
	ldr.w	r0, [r5, #136]
	ldr	r1, [r4, #120]
	bic	r0, r0, #67108864
	orrs	r0, r1
	str.w	r0, [r5, #136]
.Ltmp72:
.LBB0_51:
	@DEBUG_VALUE: HAL_RCCEx_PeriphCLKConfig:PeriphClkInit <- $r4
	.loc	5 399 6                 @ ../Drivers/STM32F7xx_HAL_Driver/Src/stm32f7xx_hal_rcc_ex.c:399:6
	lsls	r0, r6, #10
	bpl	.LBB0_53
.Ltmp73:
@ %bb.52:
	@DEBUG_VALUE: HAL_RCCEx_PeriphCLKConfig:PeriphClkInit <- $r4
	@DEBUG_VALUE: HAL_RCCEx_PeriphCLKConfig:pllsaiused <- $r8
	.loc	5 405 5                 @ ../Drivers/STM32F7xx_HAL_Driver/Src/stm32f7xx_hal_rcc_ex.c:405:5
	ldr.w	r0, [r5, #136]
	ldr	r1, [r4, #124]
	bic	r0, r0, #134217728
	.loc	5 408 8                 @ ../Drivers/STM32F7xx_HAL_Driver/Src/stm32f7xx_hal_rcc_ex.c:408:8
	cmp.w	r1, #134217728
	.loc	5 405 5                 @ ../Drivers/STM32F7xx_HAL_Driver/Src/stm32f7xx_hal_rcc_ex.c:405:5
	orr.w	r0, r0, r1
	str.w	r0, [r5, #136]
	.loc	5 408 8                 @ ../Drivers/STM32F7xx_HAL_Driver/Src/stm32f7xx_hal_rcc_ex.c:408:8
	it	eq
	moveq.w	r8, #1
.Ltmp74:
.LBB0_53:
	@DEBUG_VALUE: HAL_RCCEx_PeriphCLKConfig:PeriphClkInit <- $r4
	.loc	5 423 6                 @ ../Drivers/STM32F7xx_HAL_Driver/Src/stm32f7xx_hal_rcc_ex.c:423:6
	tst.w	r6, #262144
	beq	.LBB0_55
.Ltmp75:
@ %bb.54:
	@DEBUG_VALUE: HAL_RCCEx_PeriphCLKConfig:PeriphClkInit <- $r4
	.loc	5 429 5                 @ ../Drivers/STM32F7xx_HAL_Driver/Src/stm32f7xx_hal_rcc_ex.c:429:5
	ldr.w	r0, [r5, #136]
	ldr	r1, [r4, #116]
	bic	r0, r0, #50331648
	orrs	r0, r1
	str.w	r0, [r5, #136]
.Ltmp76:
.LBB0_55:
	@DEBUG_VALUE: HAL_RCCEx_PeriphCLKConfig:PeriphClkInit <- $r4
	.loc	5 0 5 is_stmt 0         @ ../Drivers/STM32F7xx_HAL_Driver/Src/stm32f7xx_hal_rcc_ex.c:0:5
	and	r0, r9, #16777216
	.loc	5 433 6 is_stmt 1       @ ../Drivers/STM32F7xx_HAL_Driver/Src/stm32f7xx_hal_rcc_ex.c:433:6
	lsls	r1, r6, #8
	bpl	.LBB0_57
.Ltmp77:
@ %bb.56:
	@DEBUG_VALUE: HAL_RCCEx_PeriphCLKConfig:PeriphClkInit <- $r4
	.loc	5 439 5                 @ ../Drivers/STM32F7xx_HAL_Driver/Src/stm32f7xx_hal_rcc_ex.c:439:5
	ldr.w	r1, [r5, #136]
	ldr.w	r2, [r4, #128]
	bic	r1, r1, #268435456
	orrs	r1, r2
	str.w	r1, [r5, #136]
.Ltmp78:
.LBB0_57:
	@DEBUG_VALUE: HAL_RCCEx_PeriphCLKConfig:PeriphClkInit <- $r4
	.loc	5 476 24                @ ../Drivers/STM32F7xx_HAL_Driver/Src/stm32f7xx_hal_rcc_ex.c:476:24
	cbnz	r0, .LBB0_60
.Ltmp79:
@ %bb.58:
	@DEBUG_VALUE: HAL_RCCEx_PeriphCLKConfig:PeriphClkInit <- $r4
	cmp.w	r10, #0
	bne	.LBB0_60
.Ltmp80:
@ %bb.59:
	@DEBUG_VALUE: HAL_RCCEx_PeriphCLKConfig:PeriphClkInit <- $r4
	cmp.w	r6, #33554432
	bne	.LBB0_82
.Ltmp81:
.LBB0_60:
	@DEBUG_VALUE: HAL_RCCEx_PeriphCLKConfig:PeriphClkInit <- $r4
	.loc	5 479 5                 @ ../Drivers/STM32F7xx_HAL_Driver/Src/stm32f7xx_hal_rcc_ex.c:479:5
	ldr	r0, [r7]
	bic	r0, r0, #67108864
	str	r0, [r7]
	.loc	5 482 17                @ ../Drivers/STM32F7xx_HAL_Driver/Src/stm32f7xx_hal_rcc_ex.c:482:17
	bl	HAL_GetTick
	mov	r5, r0
.Ltmp82:
	@DEBUG_VALUE: HAL_RCCEx_PeriphCLKConfig:tickstart <- $r5
.LBB0_61:                               @ =>This Inner Loop Header: Depth=1
	@DEBUG_VALUE: HAL_RCCEx_PeriphCLKConfig:tickstart <- $r5
	@DEBUG_VALUE: HAL_RCCEx_PeriphCLKConfig:PeriphClkInit <- $r4
	.loc	5 485 11                @ ../Drivers/STM32F7xx_HAL_Driver/Src/stm32f7xx_hal_rcc_ex.c:485:11
	ldr	r0, [r7]
	.loc	5 485 5 is_stmt 0       @ ../Drivers/STM32F7xx_HAL_Driver/Src/stm32f7xx_hal_rcc_ex.c:485:5
	tst.w	r0, #134217728
	beq	.LBB0_67
.Ltmp83:
@ %bb.62:                               @   in Loop: Header=BB0_61 Depth=1
	@DEBUG_VALUE: HAL_RCCEx_PeriphCLKConfig:tickstart <- $r5
	@DEBUG_VALUE: HAL_RCCEx_PeriphCLKConfig:PeriphClkInit <- $r4
	.loc	5 487 11 is_stmt 1      @ ../Drivers/STM32F7xx_HAL_Driver/Src/stm32f7xx_hal_rcc_ex.c:487:11
	bl	HAL_GetTick
	.loc	5 487 25 is_stmt 0      @ ../Drivers/STM32F7xx_HAL_Driver/Src/stm32f7xx_hal_rcc_ex.c:487:25
	subs	r0, r0, r5
.Ltmp84:
	.loc	5 487 10                @ ../Drivers/STM32F7xx_HAL_Driver/Src/stm32f7xx_hal_rcc_ex.c:487:10
	cmp	r0, #100
	bls	.LBB0_61
	b	.LBB0_99
.Ltmp85:
	.p2align	2
@ %bb.63:
	.loc	5 0 10                  @ ../Drivers/STM32F7xx_HAL_Driver/Src/stm32f7xx_hal_rcc_ex.c:0:10
__arm_cp.0_4:
	.long	1073887240              @ 0x40023808
.Lcpi_end0:
	.size	__arm_cp.0_4, .Lcpi_end0-__arm_cp.0_4
	.p2align	2
@ %bb.64:
__arm_cp.0_5:
	.long	1073887232              @ 0x40023800
.Lcpi_end1:
	.size	__arm_cp.0_5, .Lcpi_end1-__arm_cp.0_5
	.p2align	2
@ %bb.65:
__arm_cp.0_6:
	.long	4294850560              @ 0xfffe3800
.Lcpi_end2:
	.size	__arm_cp.0_6, .Lcpi_end2-__arm_cp.0_6
	.p2align	2
@ %bb.66:
__arm_cp.0_7:
	.long	268434687               @ 0xffffcff
.Lcpi_end3:
	.size	__arm_cp.0_7, .Lcpi_end3-__arm_cp.0_7
	.p2align	1
.LBB0_67:
.Ltmp86:
	@DEBUG_VALUE: HAL_RCCEx_PeriphCLKConfig:tickstart <- $r5
	@DEBUG_VALUE: HAL_RCCEx_PeriphCLKConfig:PeriphClkInit <- $r4
	.loc	5 498 27 is_stmt 1      @ ../Drivers/STM32F7xx_HAL_Driver/Src/stm32f7xx_hal_rcc_ex.c:498:27
	ldr	r0, [r4]
	mov	r5, r11
.Ltmp87:
	.loc	5 498 92 is_stmt 0      @ ../Drivers/STM32F7xx_HAL_Driver/Src/stm32f7xx_hal_rcc_ex.c:498:92
	tst.w	r0, #1
	beq	.LBB0_70
.Ltmp88:
@ %bb.68:
	@DEBUG_VALUE: HAL_RCCEx_PeriphCLKConfig:PeriphClkInit <- $r4
	.loc	5 498 111               @ ../Drivers/STM32F7xx_HAL_Driver/Src/stm32f7xx_hal_rcc_ex.c:498:111
	ldr	r1, [r4, #52]
.Ltmp89:
	.loc	5 498 8                 @ ../Drivers/STM32F7xx_HAL_Driver/Src/stm32f7xx_hal_rcc_ex.c:498:8
	cbnz	r1, .LBB0_70
.Ltmp90:
@ %bb.69:
	@DEBUG_VALUE: HAL_RCCEx_PeriphCLKConfig:PeriphClkInit <- $r4
	.loc	5 504 24 is_stmt 1      @ ../Drivers/STM32F7xx_HAL_Driver/Src/stm32f7xx_hal_rcc_ex.c:504:24
	ldr	r1, [r5, #124]
	.loc	5 505 24                @ ../Drivers/STM32F7xx_HAL_Driver/Src/stm32f7xx_hal_rcc_ex.c:505:24
	ldr	r2, [r5, #124]
	.loc	5 504 61                @ ../Drivers/STM32F7xx_HAL_Driver/Src/stm32f7xx_hal_rcc_ex.c:504:61
	and	r1, r1, #196608
.Ltmp91:
	@DEBUG_VALUE: HAL_RCCEx_PeriphCLKConfig:tmpreg0 <- $r1
	.loc	5 505 61                @ ../Drivers/STM32F7xx_HAL_Driver/Src/stm32f7xx_hal_rcc_ex.c:505:61
	and	r2, r2, #251658240
.Ltmp92:
	@DEBUG_VALUE: HAL_RCCEx_PeriphCLKConfig:tmpreg1 <- $r2
	.loc	5 509 7                 @ ../Drivers/STM32F7xx_HAL_Driver/Src/stm32f7xx_hal_rcc_ex.c:509:7
	orrs	r1, r2
.Ltmp93:
	ldrd	r2, r3, [r4, #4]
.Ltmp94:
	orr.w	r1, r1, r2, lsl #6
	orr.w	r1, r1, r3, lsl #28
	str	r1, [r5, #124]
.Ltmp95:
.LBB0_70:
	@DEBUG_VALUE: HAL_RCCEx_PeriphCLKConfig:PeriphClkInit <- $r4
	.loc	5 513 94                @ ../Drivers/STM32F7xx_HAL_Driver/Src/stm32f7xx_hal_rcc_ex.c:513:94
	lsls	r1, r0, #12
	bpl	.LBB0_72
.Ltmp96:
@ %bb.71:
	@DEBUG_VALUE: HAL_RCCEx_PeriphCLKConfig:PeriphClkInit <- $r4
	.loc	5 513 113 is_stmt 0     @ ../Drivers/STM32F7xx_HAL_Driver/Src/stm32f7xx_hal_rcc_ex.c:513:113
	ldr	r1, [r4, #60]
	.loc	5 513 162               @ ../Drivers/STM32F7xx_HAL_Driver/Src/stm32f7xx_hal_rcc_ex.c:513:162
	cmp.w	r1, #1048576
	beq	.LBB0_74
.Ltmp97:
.LBB0_72:
	@DEBUG_VALUE: HAL_RCCEx_PeriphCLKConfig:PeriphClkInit <- $r4
	.loc	5 514 94 is_stmt 1      @ ../Drivers/STM32F7xx_HAL_Driver/Src/stm32f7xx_hal_rcc_ex.c:514:94
	lsls	r1, r0, #11
	bpl	.LBB0_75
.Ltmp98:
@ %bb.73:
	@DEBUG_VALUE: HAL_RCCEx_PeriphCLKConfig:PeriphClkInit <- $r4
	.loc	5 514 113 is_stmt 0     @ ../Drivers/STM32F7xx_HAL_Driver/Src/stm32f7xx_hal_rcc_ex.c:514:113
	ldr	r1, [r4, #64]
.Ltmp99:
	.loc	5 513 8 is_stmt 1       @ ../Drivers/STM32F7xx_HAL_Driver/Src/stm32f7xx_hal_rcc_ex.c:513:8
	cmp.w	r1, #4194304
	bne	.LBB0_75
.Ltmp100:
.LBB0_74:
	@DEBUG_VALUE: HAL_RCCEx_PeriphCLKConfig:PeriphClkInit <- $r4
	.loc	5 522 24                @ ../Drivers/STM32F7xx_HAL_Driver/Src/stm32f7xx_hal_rcc_ex.c:522:24
	ldr	r1, [r5, #124]
	.loc	5 523 24                @ ../Drivers/STM32F7xx_HAL_Driver/Src/stm32f7xx_hal_rcc_ex.c:523:24
	ldr	r2, [r5, #124]
	.loc	5 528 7                 @ ../Drivers/STM32F7xx_HAL_Driver/Src/stm32f7xx_hal_rcc_ex.c:528:7
	ldr	r3, [r4, #12]
	.loc	5 522 61                @ ../Drivers/STM32F7xx_HAL_Driver/Src/stm32f7xx_hal_rcc_ex.c:522:61
	and	r1, r1, #196608
.Ltmp101:
	@DEBUG_VALUE: HAL_RCCEx_PeriphCLKConfig:tmpreg0 <- $r1
	.loc	5 523 61                @ ../Drivers/STM32F7xx_HAL_Driver/Src/stm32f7xx_hal_rcc_ex.c:523:61
	and	r2, r2, #1879048192
.Ltmp102:
	@DEBUG_VALUE: HAL_RCCEx_PeriphCLKConfig:tmpreg1 <- $r2
	.loc	5 528 7                 @ ../Drivers/STM32F7xx_HAL_Driver/Src/stm32f7xx_hal_rcc_ex.c:528:7
	orrs	r1, r2
.Ltmp103:
	ldr	r2, [r4, #4]
.Ltmp104:
	orr.w	r1, r1, r2, lsl #6
	orr.w	r1, r1, r3, lsl #24
	str	r1, [r5, #124]
	.loc	5 531 7                 @ ../Drivers/STM32F7xx_HAL_Driver/Src/stm32f7xx_hal_rcc_ex.c:531:7
	ldr.w	r1, [r5, #132]
	ldr	r2, [r4, #36]
	bic	r1, r1, #31
	subs	r2, #1
	orrs	r1, r2
	str.w	r1, [r5, #132]
.Ltmp105:
.LBB0_75:
	@DEBUG_VALUE: HAL_RCCEx_PeriphCLKConfig:PeriphClkInit <- $r4
	.loc	5 535 8                 @ ../Drivers/STM32F7xx_HAL_Driver/Src/stm32f7xx_hal_rcc_ex.c:535:8
	lsls	r1, r0, #7
	bpl	.LBB0_77
.Ltmp106:
@ %bb.76:
	@DEBUG_VALUE: HAL_RCCEx_PeriphCLKConfig:PeriphClkInit <- $r4
	.loc	5 541 24                @ ../Drivers/STM32F7xx_HAL_Driver/Src/stm32f7xx_hal_rcc_ex.c:541:24
	ldr	r1, [r5, #124]
	.loc	5 542 24                @ ../Drivers/STM32F7xx_HAL_Driver/Src/stm32f7xx_hal_rcc_ex.c:542:24
	ldr	r2, [r5, #124]
	.loc	5 546 7                 @ ../Drivers/STM32F7xx_HAL_Driver/Src/stm32f7xx_hal_rcc_ex.c:546:7
	ldr	r3, [r4, #16]
	.loc	5 541 61                @ ../Drivers/STM32F7xx_HAL_Driver/Src/stm32f7xx_hal_rcc_ex.c:541:61
	and	r1, r1, #251658240
.Ltmp107:
	@DEBUG_VALUE: HAL_RCCEx_PeriphCLKConfig:tmpreg0 <- $r1
	.loc	5 542 61                @ ../Drivers/STM32F7xx_HAL_Driver/Src/stm32f7xx_hal_rcc_ex.c:542:61
	and	r2, r2, #1879048192
.Ltmp108:
	@DEBUG_VALUE: HAL_RCCEx_PeriphCLKConfig:tmpreg1 <- $r2
	.loc	5 546 7                 @ ../Drivers/STM32F7xx_HAL_Driver/Src/stm32f7xx_hal_rcc_ex.c:546:7
	orrs	r1, r2
.Ltmp109:
	ldr	r2, [r4, #4]
.Ltmp110:
	orr.w	r1, r1, r2, lsl #6
	orr.w	r1, r1, r3, lsl #16
	str	r1, [r5, #124]
.Ltmp111:
.LBB0_77:
	@DEBUG_VALUE: HAL_RCCEx_PeriphCLKConfig:PeriphClkInit <- $r4
	.loc	5 550 8                 @ ../Drivers/STM32F7xx_HAL_Driver/Src/stm32f7xx_hal_rcc_ex.c:550:8
	lsls	r0, r0, #6
	bpl	.LBB0_79
.Ltmp112:
@ %bb.78:
	@DEBUG_VALUE: HAL_RCCEx_PeriphCLKConfig:PeriphClkInit <- $r4
	.loc	5 560 7                 @ ../Drivers/STM32F7xx_HAL_Driver/Src/stm32f7xx_hal_rcc_ex.c:560:7
	adds	r3, r4, #4
	ldm	r3, {r0, r1, r2, r3}
	lsls	r3, r3, #16
	orr.w	r0, r3, r0, lsl #6
	orr.w	r0, r0, r2, lsl #24
	orr.w	r0, r0, r1, lsl #28
	str	r0, [r5, #124]
.Ltmp113:
.LBB0_79:
	@DEBUG_VALUE: HAL_RCCEx_PeriphCLKConfig:PeriphClkInit <- $r4
	.loc	5 564 5                 @ ../Drivers/STM32F7xx_HAL_Driver/Src/stm32f7xx_hal_rcc_ex.c:564:5
	ldr	r0, [r7]
	orr	r0, r0, #67108864
	str	r0, [r7]
	.loc	5 567 17                @ ../Drivers/STM32F7xx_HAL_Driver/Src/stm32f7xx_hal_rcc_ex.c:567:17
	bl	HAL_GetTick
	mov	r5, r0
.Ltmp114:
	@DEBUG_VALUE: HAL_RCCEx_PeriphCLKConfig:tickstart <- $r5
.LBB0_80:                               @ =>This Inner Loop Header: Depth=1
	@DEBUG_VALUE: HAL_RCCEx_PeriphCLKConfig:tickstart <- $r5
	@DEBUG_VALUE: HAL_RCCEx_PeriphCLKConfig:PeriphClkInit <- $r4
	.loc	5 570 11                @ ../Drivers/STM32F7xx_HAL_Driver/Src/stm32f7xx_hal_rcc_ex.c:570:11
	ldr	r0, [r7]
	.loc	5 570 5 is_stmt 0       @ ../Drivers/STM32F7xx_HAL_Driver/Src/stm32f7xx_hal_rcc_ex.c:570:5
	tst.w	r0, #134217728
	bne	.LBB0_82
.Ltmp115:
@ %bb.81:                               @   in Loop: Header=BB0_80 Depth=1
	@DEBUG_VALUE: HAL_RCCEx_PeriphCLKConfig:tickstart <- $r5
	@DEBUG_VALUE: HAL_RCCEx_PeriphCLKConfig:PeriphClkInit <- $r4
	.loc	5 572 11 is_stmt 1      @ ../Drivers/STM32F7xx_HAL_Driver/Src/stm32f7xx_hal_rcc_ex.c:572:11
	bl	HAL_GetTick
	.loc	5 572 25 is_stmt 0      @ ../Drivers/STM32F7xx_HAL_Driver/Src/stm32f7xx_hal_rcc_ex.c:572:25
	subs	r0, r0, r5
.Ltmp116:
	.loc	5 572 10                @ ../Drivers/STM32F7xx_HAL_Driver/Src/stm32f7xx_hal_rcc_ex.c:572:10
	cmp	r0, #100
	bls	.LBB0_80
	b	.LBB0_99
.Ltmp117:
.LBB0_82:
	@DEBUG_VALUE: HAL_RCCEx_PeriphCLKConfig:PeriphClkInit <- $r4
	.loc	5 0 10                  @ ../Drivers/STM32F7xx_HAL_Driver/Src/stm32f7xx_hal_rcc_ex.c:0:10
	ands	r0, r6, #8
	.loc	5 582 6 is_stmt 1       @ ../Drivers/STM32F7xx_HAL_Driver/Src/stm32f7xx_hal_rcc_ex.c:582:6
	it	eq
	cmpeq.w	r8, #0
	beq	.LBB0_100
.Ltmp118:
@ %bb.83:
	@DEBUG_VALUE: HAL_RCCEx_PeriphCLKConfig:PeriphClkInit <- $r4
	.loc	5 585 5                 @ ../Drivers/STM32F7xx_HAL_Driver/Src/stm32f7xx_hal_rcc_ex.c:585:5
	ldr	r0, [r7]
	bic	r0, r0, #268435456
	str	r0, [r7]
	.loc	5 588 17                @ ../Drivers/STM32F7xx_HAL_Driver/Src/stm32f7xx_hal_rcc_ex.c:588:17
	bl	HAL_GetTick
	mov	r5, r0
.Ltmp119:
	@DEBUG_VALUE: HAL_RCCEx_PeriphCLKConfig:tickstart <- $r5
.LBB0_84:                               @ =>This Inner Loop Header: Depth=1
	@DEBUG_VALUE: HAL_RCCEx_PeriphCLKConfig:tickstart <- $r5
	@DEBUG_VALUE: HAL_RCCEx_PeriphCLKConfig:PeriphClkInit <- $r4
	.loc	5 591 11                @ ../Drivers/STM32F7xx_HAL_Driver/Src/stm32f7xx_hal_rcc_ex.c:591:11
	ldr	r0, [r7]
	.loc	5 591 5 is_stmt 0       @ ../Drivers/STM32F7xx_HAL_Driver/Src/stm32f7xx_hal_rcc_ex.c:591:5
	tst.w	r0, #536870912
	beq	.LBB0_86
.Ltmp120:
@ %bb.85:                               @   in Loop: Header=BB0_84 Depth=1
	@DEBUG_VALUE: HAL_RCCEx_PeriphCLKConfig:tickstart <- $r5
	@DEBUG_VALUE: HAL_RCCEx_PeriphCLKConfig:PeriphClkInit <- $r4
	.loc	5 593 11 is_stmt 1      @ ../Drivers/STM32F7xx_HAL_Driver/Src/stm32f7xx_hal_rcc_ex.c:593:11
	bl	HAL_GetTick
	.loc	5 593 25 is_stmt 0      @ ../Drivers/STM32F7xx_HAL_Driver/Src/stm32f7xx_hal_rcc_ex.c:593:25
	subs	r0, r0, r5
.Ltmp121:
	.loc	5 593 10                @ ../Drivers/STM32F7xx_HAL_Driver/Src/stm32f7xx_hal_rcc_ex.c:593:10
	cmp	r0, #100
	bls	.LBB0_84
	b	.LBB0_99
.Ltmp122:
.LBB0_86:
	@DEBUG_VALUE: HAL_RCCEx_PeriphCLKConfig:tickstart <- $r5
	@DEBUG_VALUE: HAL_RCCEx_PeriphCLKConfig:PeriphClkInit <- $r4
	.loc	5 604 27 is_stmt 1      @ ../Drivers/STM32F7xx_HAL_Driver/Src/stm32f7xx_hal_rcc_ex.c:604:27
	ldr	r0, [r4]
	.loc	5 604 94 is_stmt 0      @ ../Drivers/STM32F7xx_HAL_Driver/Src/stm32f7xx_hal_rcc_ex.c:604:94
	tst.w	r0, #524288
	beq	.LBB0_88
.Ltmp123:
@ %bb.87:
	@DEBUG_VALUE: HAL_RCCEx_PeriphCLKConfig:tickstart <- $r5
	@DEBUG_VALUE: HAL_RCCEx_PeriphCLKConfig:PeriphClkInit <- $r4
	.loc	5 604 113               @ ../Drivers/STM32F7xx_HAL_Driver/Src/stm32f7xx_hal_rcc_ex.c:604:113
	ldr	r1, [r4, #60]
	.loc	5 604 162               @ ../Drivers/STM32F7xx_HAL_Driver/Src/stm32f7xx_hal_rcc_ex.c:604:162
	cbz	r1, .LBB0_90
.Ltmp124:
.LBB0_88:
	@DEBUG_VALUE: HAL_RCCEx_PeriphCLKConfig:tickstart <- $r5
	@DEBUG_VALUE: HAL_RCCEx_PeriphCLKConfig:PeriphClkInit <- $r4
	.loc	5 605 94 is_stmt 1      @ ../Drivers/STM32F7xx_HAL_Driver/Src/stm32f7xx_hal_rcc_ex.c:605:94
	lsls	r1, r0, #11
	bpl	.LBB0_91
.Ltmp125:
@ %bb.89:
	@DEBUG_VALUE: HAL_RCCEx_PeriphCLKConfig:tickstart <- $r5
	@DEBUG_VALUE: HAL_RCCEx_PeriphCLKConfig:PeriphClkInit <- $r4
	.loc	5 605 113 is_stmt 0     @ ../Drivers/STM32F7xx_HAL_Driver/Src/stm32f7xx_hal_rcc_ex.c:605:113
	ldr	r1, [r4, #64]
.Ltmp126:
	.loc	5 604 8 is_stmt 1       @ ../Drivers/STM32F7xx_HAL_Driver/Src/stm32f7xx_hal_rcc_ex.c:604:8
	cbnz	r1, .LBB0_91
.Ltmp127:
.LBB0_90:
	@DEBUG_VALUE: HAL_RCCEx_PeriphCLKConfig:tickstart <- $r5
	@DEBUG_VALUE: HAL_RCCEx_PeriphCLKConfig:PeriphClkInit <- $r4
	.loc	5 613 24                @ ../Drivers/STM32F7xx_HAL_Driver/Src/stm32f7xx_hal_rcc_ex.c:613:24
	ldr.w	r1, [r11, #128]
	.loc	5 614 24                @ ../Drivers/STM32F7xx_HAL_Driver/Src/stm32f7xx_hal_rcc_ex.c:614:24
	ldr.w	r2, [r11, #128]
	.loc	5 613 61                @ ../Drivers/STM32F7xx_HAL_Driver/Src/stm32f7xx_hal_rcc_ex.c:613:61
	and	r1, r1, #196608
.Ltmp128:
	@DEBUG_VALUE: HAL_RCCEx_PeriphCLKConfig:tmpreg0 <- $r1
	.loc	5 614 61                @ ../Drivers/STM32F7xx_HAL_Driver/Src/stm32f7xx_hal_rcc_ex.c:614:61
	and	r2, r2, #1879048192
.Ltmp129:
	@DEBUG_VALUE: HAL_RCCEx_PeriphCLKConfig:tmpreg1 <- $r2
	.loc	5 618 7                 @ ../Drivers/STM32F7xx_HAL_Driver/Src/stm32f7xx_hal_rcc_ex.c:618:7
	orrs	r1, r2
.Ltmp130:
	ldrd	r2, r3, [r4, #20]
.Ltmp131:
	orr.w	r1, r1, r2, lsl #6
	orr.w	r1, r1, r3, lsl #24
	.loc	5 621 7                 @ ../Drivers/STM32F7xx_HAL_Driver/Src/stm32f7xx_hal_rcc_ex.c:621:7
	mvn	r3, #255
	.loc	5 618 7                 @ ../Drivers/STM32F7xx_HAL_Driver/Src/stm32f7xx_hal_rcc_ex.c:618:7
	str.w	r1, [r11, #128]
	.loc	5 621 7                 @ ../Drivers/STM32F7xx_HAL_Driver/Src/stm32f7xx_hal_rcc_ex.c:621:7
	ldr.w	r1, [r11, #132]
	ldr	r2, [r4, #40]
	add.w	r2, r3, r2, lsl #8
	bic	r1, r1, #7936
	orrs	r1, r2
	str.w	r1, [r11, #132]
.Ltmp132:
.LBB0_91:
	@DEBUG_VALUE: HAL_RCCEx_PeriphCLKConfig:tickstart <- $r5
	@DEBUG_VALUE: HAL_RCCEx_PeriphCLKConfig:PeriphClkInit <- $r4
	.loc	5 626 95                @ ../Drivers/STM32F7xx_HAL_Driver/Src/stm32f7xx_hal_rcc_ex.c:626:95
	lsls	r1, r0, #10
	bpl	.LBB0_94
.Ltmp133:
@ %bb.92:
	@DEBUG_VALUE: HAL_RCCEx_PeriphCLKConfig:tickstart <- $r5
	@DEBUG_VALUE: HAL_RCCEx_PeriphCLKConfig:PeriphClkInit <- $r4
	.loc	5 626 114 is_stmt 0     @ ../Drivers/STM32F7xx_HAL_Driver/Src/stm32f7xx_hal_rcc_ex.c:626:114
	ldr	r1, [r4, #124]
.Ltmp134:
	.loc	5 626 8                 @ ../Drivers/STM32F7xx_HAL_Driver/Src/stm32f7xx_hal_rcc_ex.c:626:8
	cmp.w	r1, #134217728
	bne	.LBB0_94
.Ltmp135:
@ %bb.93:
	@DEBUG_VALUE: HAL_RCCEx_PeriphCLKConfig:tickstart <- $r5
	@DEBUG_VALUE: HAL_RCCEx_PeriphCLKConfig:PeriphClkInit <- $r4
	.loc	5 631 24 is_stmt 1      @ ../Drivers/STM32F7xx_HAL_Driver/Src/stm32f7xx_hal_rcc_ex.c:631:24
	ldr.w	r1, [r11, #128]
	.loc	5 632 24                @ ../Drivers/STM32F7xx_HAL_Driver/Src/stm32f7xx_hal_rcc_ex.c:632:24
	ldr.w	r2, [r11, #128]
	.loc	5 637 7                 @ ../Drivers/STM32F7xx_HAL_Driver/Src/stm32f7xx_hal_rcc_ex.c:637:7
	ldr	r3, [r4, #32]
	.loc	5 631 61                @ ../Drivers/STM32F7xx_HAL_Driver/Src/stm32f7xx_hal_rcc_ex.c:631:61
	and	r1, r1, #251658240
.Ltmp136:
	@DEBUG_VALUE: HAL_RCCEx_PeriphCLKConfig:tmpreg0 <- $r1
	.loc	5 632 61                @ ../Drivers/STM32F7xx_HAL_Driver/Src/stm32f7xx_hal_rcc_ex.c:632:61
	and	r2, r2, #1879048192
.Ltmp137:
	@DEBUG_VALUE: HAL_RCCEx_PeriphCLKConfig:tmpreg1 <- $r2
	.loc	5 637 7                 @ ../Drivers/STM32F7xx_HAL_Driver/Src/stm32f7xx_hal_rcc_ex.c:637:7
	orrs	r1, r2
.Ltmp138:
	ldr	r2, [r4, #20]
.Ltmp139:
	orr.w	r1, r1, r2, lsl #6
	orr.w	r1, r1, r3, lsl #16
	str.w	r1, [r11, #128]
.Ltmp140:
.LBB0_94:
	@DEBUG_VALUE: HAL_RCCEx_PeriphCLKConfig:tickstart <- $r5
	@DEBUG_VALUE: HAL_RCCEx_PeriphCLKConfig:PeriphClkInit <- $r4
	.loc	5 642 8                 @ ../Drivers/STM32F7xx_HAL_Driver/Src/stm32f7xx_hal_rcc_ex.c:642:8
	lsls	r0, r0, #28
	bpl	.LBB0_96
.Ltmp141:
@ %bb.95:
	@DEBUG_VALUE: HAL_RCCEx_PeriphCLKConfig:tickstart <- $r5
	@DEBUG_VALUE: HAL_RCCEx_PeriphCLKConfig:PeriphClkInit <- $r4
	.loc	5 648 24                @ ../Drivers/STM32F7xx_HAL_Driver/Src/stm32f7xx_hal_rcc_ex.c:648:24
	ldr.w	r0, [r11, #128]
	.loc	5 649 24                @ ../Drivers/STM32F7xx_HAL_Driver/Src/stm32f7xx_hal_rcc_ex.c:649:24
	ldr.w	r1, [r11, #128]
	.loc	5 654 7                 @ ../Drivers/STM32F7xx_HAL_Driver/Src/stm32f7xx_hal_rcc_ex.c:654:7
	ldr	r2, [r4, #28]
	.loc	5 648 61                @ ../Drivers/STM32F7xx_HAL_Driver/Src/stm32f7xx_hal_rcc_ex.c:648:61
	and	r0, r0, #251658240
.Ltmp142:
	@DEBUG_VALUE: HAL_RCCEx_PeriphCLKConfig:tmpreg0 <- $r0
	.loc	5 649 61                @ ../Drivers/STM32F7xx_HAL_Driver/Src/stm32f7xx_hal_rcc_ex.c:649:61
	and	r1, r1, #196608
.Ltmp143:
	@DEBUG_VALUE: HAL_RCCEx_PeriphCLKConfig:tmpreg1 <- $r1
	.loc	5 654 7                 @ ../Drivers/STM32F7xx_HAL_Driver/Src/stm32f7xx_hal_rcc_ex.c:654:7
	orrs	r0, r1
.Ltmp144:
	ldr	r1, [r4, #20]
.Ltmp145:
	orr.w	r0, r0, r1, lsl #6
	orr.w	r0, r0, r2, lsl #28
	str.w	r0, [r11, #128]
	.loc	5 657 7                 @ ../Drivers/STM32F7xx_HAL_Driver/Src/stm32f7xx_hal_rcc_ex.c:657:7
	ldr.w	r0, [r11, #132]
	ldr	r1, [r4, #44]
	bic	r0, r0, #196608
	orrs	r0, r1
	str.w	r0, [r11, #132]
.Ltmp146:
.LBB0_96:
	@DEBUG_VALUE: HAL_RCCEx_PeriphCLKConfig:tickstart <- $r5
	@DEBUG_VALUE: HAL_RCCEx_PeriphCLKConfig:PeriphClkInit <- $r4
	.loc	5 662 5                 @ ../Drivers/STM32F7xx_HAL_Driver/Src/stm32f7xx_hal_rcc_ex.c:662:5
	ldr	r0, [r7]
	orr	r0, r0, #268435456
	str	r0, [r7]
	.loc	5 665 17                @ ../Drivers/STM32F7xx_HAL_Driver/Src/stm32f7xx_hal_rcc_ex.c:665:17
	bl	HAL_GetTick
	mov	r4, r0
.Ltmp147:
	@DEBUG_VALUE: HAL_RCCEx_PeriphCLKConfig:tickstart <- $r4
.LBB0_97:                               @ =>This Inner Loop Header: Depth=1
	@DEBUG_VALUE: HAL_RCCEx_PeriphCLKConfig:tickstart <- $r4
	.loc	5 668 11                @ ../Drivers/STM32F7xx_HAL_Driver/Src/stm32f7xx_hal_rcc_ex.c:668:11
	ldr	r0, [r7]
	.loc	5 668 5 is_stmt 0       @ ../Drivers/STM32F7xx_HAL_Driver/Src/stm32f7xx_hal_rcc_ex.c:668:5
	tst.w	r0, #536870912
	bne	.LBB0_100
.Ltmp148:
@ %bb.98:                               @   in Loop: Header=BB0_97 Depth=1
	@DEBUG_VALUE: HAL_RCCEx_PeriphCLKConfig:tickstart <- $r4
	.loc	5 670 11 is_stmt 1      @ ../Drivers/STM32F7xx_HAL_Driver/Src/stm32f7xx_hal_rcc_ex.c:670:11
	bl	HAL_GetTick
	.loc	5 670 25 is_stmt 0      @ ../Drivers/STM32F7xx_HAL_Driver/Src/stm32f7xx_hal_rcc_ex.c:670:25
	subs	r0, r0, r4
.Ltmp149:
	.loc	5 670 10                @ ../Drivers/STM32F7xx_HAL_Driver/Src/stm32f7xx_hal_rcc_ex.c:670:10
	cmp	r0, #101
	blo	.LBB0_97
.Ltmp150:
.LBB0_99:
	.loc	5 0 10                  @ ../Drivers/STM32F7xx_HAL_Driver/Src/stm32f7xx_hal_rcc_ex.c:0:10
	movs	r0, #3
	b	.LBB0_101
.LBB0_100:
	movs	r0, #0
.LBB0_101:
	.loc	5 678 1 is_stmt 1       @ ../Drivers/STM32F7xx_HAL_Driver/Src/stm32f7xx_hal_rcc_ex.c:678:1
	uxtb	r0, r0
	add	sp, #4
	pop.w	{r4, r5, r6, r7, r8, r9, r10, r11, pc}
.Ltmp151:
@ %bb.102:
.Lfunc_end0:
	.size	HAL_RCCEx_PeriphCLKConfig, .Lfunc_end0-HAL_RCCEx_PeriphCLKConfig
	.cfi_endproc
	.cantunwind
	.fnend
                                        @ -- End function
	.section	.text.HAL_RCCEx_GetPeriphCLKConfig,"ax",%progbits
	.hidden	HAL_RCCEx_GetPeriphCLKConfig @ -- Begin function HAL_RCCEx_GetPeriphCLKConfig
	.globl	HAL_RCCEx_GetPeriphCLKConfig
	.p2align	2
	.type	HAL_RCCEx_GetPeriphCLKConfig,%function
	.code	16                      @ @HAL_RCCEx_GetPeriphCLKConfig
	.thumb_func
HAL_RCCEx_GetPeriphCLKConfig:
.Lfunc_begin1:
	.loc	5 687 0                 @ ../Drivers/STM32F7xx_HAL_Driver/Src/stm32f7xx_hal_rcc_ex.c:687:0
	.fnstart
	.cfi_startproc
@ %bb.0:
	@DEBUG_VALUE: HAL_RCCEx_GetPeriphCLKConfig:PeriphClkInit <- $r0
	@DEBUG_VALUE: HAL_RCCEx_GetPeriphCLKConfig:PeriphClkInit <- $r0
	.loc	5 705 39 prologue_end   @ ../Drivers/STM32F7xx_HAL_Driver/Src/stm32f7xx_hal_rcc_ex.c:705:39
	ldr	r1, __arm_cp.1_0
.Ltmp152:
	@DEBUG_VALUE: HAL_RCCEx_GetPeriphCLKConfig:tempreg <- 0
	str	r1, [r0]
	ldr	r1, __arm_cp.1_1
	.loc	5 719 52                @ ../Drivers/STM32F7xx_HAL_Driver/Src/stm32f7xx_hal_rcc_ex.c:719:52
	ldr	r2, [r1, #124]
	.loc	5 719 89 is_stmt 0      @ ../Drivers/STM32F7xx_HAL_Driver/Src/stm32f7xx_hal_rcc_ex.c:719:89
	ubfx	r2, r2, #6, #9
	.loc	5 719 33                @ ../Drivers/STM32F7xx_HAL_Driver/Src/stm32f7xx_hal_rcc_ex.c:719:33
	str	r2, [r0, #4]
	.loc	5 720 52 is_stmt 1      @ ../Drivers/STM32F7xx_HAL_Driver/Src/stm32f7xx_hal_rcc_ex.c:720:52
	ldr	r2, [r1, #124]
	.loc	5 720 89 is_stmt 0      @ ../Drivers/STM32F7xx_HAL_Driver/Src/stm32f7xx_hal_rcc_ex.c:720:89
	ubfx	r2, r2, #16, #2
	.loc	5 720 33                @ ../Drivers/STM32F7xx_HAL_Driver/Src/stm32f7xx_hal_rcc_ex.c:720:33
	str	r2, [r0, #16]
	.loc	5 721 52 is_stmt 1      @ ../Drivers/STM32F7xx_HAL_Driver/Src/stm32f7xx_hal_rcc_ex.c:721:52
	ldr	r2, [r1, #124]
	.loc	5 721 89 is_stmt 0      @ ../Drivers/STM32F7xx_HAL_Driver/Src/stm32f7xx_hal_rcc_ex.c:721:89
	ubfx	r2, r2, #24, #4
	.loc	5 721 33                @ ../Drivers/STM32F7xx_HAL_Driver/Src/stm32f7xx_hal_rcc_ex.c:721:33
	str	r2, [r0, #12]
	.loc	5 722 52 is_stmt 1      @ ../Drivers/STM32F7xx_HAL_Driver/Src/stm32f7xx_hal_rcc_ex.c:722:52
	ldr	r2, [r1, #124]
	.loc	5 722 89 is_stmt 0      @ ../Drivers/STM32F7xx_HAL_Driver/Src/stm32f7xx_hal_rcc_ex.c:722:89
	ubfx	r2, r2, #28, #3
	.loc	5 722 33                @ ../Drivers/STM32F7xx_HAL_Driver/Src/stm32f7xx_hal_rcc_ex.c:722:33
	str	r2, [r0, #8]
	.loc	5 725 52 is_stmt 1      @ ../Drivers/STM32F7xx_HAL_Driver/Src/stm32f7xx_hal_rcc_ex.c:725:52
	ldr.w	r2, [r1, #128]
	.loc	5 725 89 is_stmt 0      @ ../Drivers/STM32F7xx_HAL_Driver/Src/stm32f7xx_hal_rcc_ex.c:725:89
	ubfx	r2, r2, #6, #9
	.loc	5 725 33                @ ../Drivers/STM32F7xx_HAL_Driver/Src/stm32f7xx_hal_rcc_ex.c:725:33
	str	r2, [r0, #20]
	.loc	5 726 52 is_stmt 1      @ ../Drivers/STM32F7xx_HAL_Driver/Src/stm32f7xx_hal_rcc_ex.c:726:52
	ldr.w	r2, [r1, #128]
	.loc	5 726 89 is_stmt 0      @ ../Drivers/STM32F7xx_HAL_Driver/Src/stm32f7xx_hal_rcc_ex.c:726:89
	ubfx	r2, r2, #16, #2
	.loc	5 726 33                @ ../Drivers/STM32F7xx_HAL_Driver/Src/stm32f7xx_hal_rcc_ex.c:726:33
	str	r2, [r0, #32]
	.loc	5 727 52 is_stmt 1      @ ../Drivers/STM32F7xx_HAL_Driver/Src/stm32f7xx_hal_rcc_ex.c:727:52
	ldr.w	r2, [r1, #128]
	.loc	5 727 89 is_stmt 0      @ ../Drivers/STM32F7xx_HAL_Driver/Src/stm32f7xx_hal_rcc_ex.c:727:89
	ubfx	r2, r2, #24, #4
	.loc	5 727 33                @ ../Drivers/STM32F7xx_HAL_Driver/Src/stm32f7xx_hal_rcc_ex.c:727:33
	str	r2, [r0, #24]
	.loc	5 728 52 is_stmt 1      @ ../Drivers/STM32F7xx_HAL_Driver/Src/stm32f7xx_hal_rcc_ex.c:728:52
	ldr.w	r2, [r1, #128]
	.loc	5 728 89 is_stmt 0      @ ../Drivers/STM32F7xx_HAL_Driver/Src/stm32f7xx_hal_rcc_ex.c:728:89
	ubfx	r2, r2, #28, #3
	.loc	5 728 33                @ ../Drivers/STM32F7xx_HAL_Driver/Src/stm32f7xx_hal_rcc_ex.c:728:33
	str	r2, [r0, #28]
	.loc	5 731 48 is_stmt 1      @ ../Drivers/STM32F7xx_HAL_Driver/Src/stm32f7xx_hal_rcc_ex.c:731:48
	ldr.w	r2, [r1, #132]
	.loc	5 731 57 is_stmt 0      @ ../Drivers/STM32F7xx_HAL_Driver/Src/stm32f7xx_hal_rcc_ex.c:731:57
	and	r2, r2, #31
	.loc	5 731 29                @ ../Drivers/STM32F7xx_HAL_Driver/Src/stm32f7xx_hal_rcc_ex.c:731:29
	str	r2, [r0, #36]
	.loc	5 732 48 is_stmt 1      @ ../Drivers/STM32F7xx_HAL_Driver/Src/stm32f7xx_hal_rcc_ex.c:732:48
	ldr.w	r2, [r1, #132]
	.loc	5 732 84 is_stmt 0      @ ../Drivers/STM32F7xx_HAL_Driver/Src/stm32f7xx_hal_rcc_ex.c:732:84
	ubfx	r2, r2, #8, #5
	.loc	5 732 29                @ ../Drivers/STM32F7xx_HAL_Driver/Src/stm32f7xx_hal_rcc_ex.c:732:29
	str	r2, [r0, #40]
	.loc	5 733 48 is_stmt 1      @ ../Drivers/STM32F7xx_HAL_Driver/Src/stm32f7xx_hal_rcc_ex.c:733:48
	ldr.w	r2, [r1, #132]
	.loc	5 733 84 is_stmt 0      @ ../Drivers/STM32F7xx_HAL_Driver/Src/stm32f7xx_hal_rcc_ex.c:733:84
	ubfx	r2, r2, #16, #2
	.loc	5 733 29                @ ../Drivers/STM32F7xx_HAL_Driver/Src/stm32f7xx_hal_rcc_ex.c:733:29
	str	r2, [r0, #44]
	.loc	5 736 39 is_stmt 1      @ ../Drivers/STM32F7xx_HAL_Driver/Src/stm32f7xx_hal_rcc_ex.c:736:39
	ldr.w	r2, [r1, #132]
	and	r2, r2, #3145728
	.loc	5 736 37 is_stmt 0      @ ../Drivers/STM32F7xx_HAL_Driver/Src/stm32f7xx_hal_rcc_ex.c:736:37
	str	r2, [r0, #60]
	.loc	5 739 39 is_stmt 1      @ ../Drivers/STM32F7xx_HAL_Driver/Src/stm32f7xx_hal_rcc_ex.c:739:39
	ldr.w	r2, [r1, #132]
	and	r2, r2, #12582912
	.loc	5 739 37 is_stmt 0      @ ../Drivers/STM32F7xx_HAL_Driver/Src/stm32f7xx_hal_rcc_ex.c:739:37
	str	r2, [r0, #64]
	.loc	5 742 38 is_stmt 1      @ ../Drivers/STM32F7xx_HAL_Driver/Src/stm32f7xx_hal_rcc_ex.c:742:38
	ldr	r2, [r1]
	and	r2, r2, #8388608
	.loc	5 742 36 is_stmt 0      @ ../Drivers/STM32F7xx_HAL_Driver/Src/stm32f7xx_hal_rcc_ex.c:742:36
	str	r2, [r0, #52]
	.loc	5 745 39 is_stmt 1      @ ../Drivers/STM32F7xx_HAL_Driver/Src/stm32f7xx_hal_rcc_ex.c:745:39
	ldr.w	r2, [r1, #136]
	and	r2, r2, #196608
	.loc	5 745 37 is_stmt 0      @ ../Drivers/STM32F7xx_HAL_Driver/Src/stm32f7xx_hal_rcc_ex.c:745:37
	str	r2, [r0, #100]
	.loc	5 748 39 is_stmt 1      @ ../Drivers/STM32F7xx_HAL_Driver/Src/stm32f7xx_hal_rcc_ex.c:748:39
	ldr.w	r2, [r1, #136]
	and	r2, r2, #786432
	.loc	5 748 37 is_stmt 0      @ ../Drivers/STM32F7xx_HAL_Driver/Src/stm32f7xx_hal_rcc_ex.c:748:37
	str	r2, [r0, #104]
	.loc	5 751 39 is_stmt 1      @ ../Drivers/STM32F7xx_HAL_Driver/Src/stm32f7xx_hal_rcc_ex.c:751:39
	ldr.w	r2, [r1, #136]
	and	r2, r2, #3145728
	.loc	5 751 37 is_stmt 0      @ ../Drivers/STM32F7xx_HAL_Driver/Src/stm32f7xx_hal_rcc_ex.c:751:37
	str	r2, [r0, #108]
	.loc	5 754 39 is_stmt 1      @ ../Drivers/STM32F7xx_HAL_Driver/Src/stm32f7xx_hal_rcc_ex.c:754:39
	ldr.w	r2, [r1, #136]
	and	r2, r2, #12582912
	.loc	5 754 37 is_stmt 0      @ ../Drivers/STM32F7xx_HAL_Driver/Src/stm32f7xx_hal_rcc_ex.c:754:37
	str	r2, [r0, #112]
	.loc	5 757 41 is_stmt 1      @ ../Drivers/STM32F7xx_HAL_Driver/Src/stm32f7xx_hal_rcc_ex.c:757:41
	ldr.w	r2, [r1, #136]
	and	r2, r2, #3
	.loc	5 757 39 is_stmt 0      @ ../Drivers/STM32F7xx_HAL_Driver/Src/stm32f7xx_hal_rcc_ex.c:757:39
	str	r2, [r0, #68]
	.loc	5 760 41 is_stmt 1      @ ../Drivers/STM32F7xx_HAL_Driver/Src/stm32f7xx_hal_rcc_ex.c:760:41
	ldr.w	r2, [r1, #136]
	and	r2, r2, #12
	.loc	5 760 39 is_stmt 0      @ ../Drivers/STM32F7xx_HAL_Driver/Src/stm32f7xx_hal_rcc_ex.c:760:39
	str	r2, [r0, #72]
	.loc	5 763 41 is_stmt 1      @ ../Drivers/STM32F7xx_HAL_Driver/Src/stm32f7xx_hal_rcc_ex.c:763:41
	ldr.w	r2, [r1, #136]
	and	r2, r2, #48
	.loc	5 763 39 is_stmt 0      @ ../Drivers/STM32F7xx_HAL_Driver/Src/stm32f7xx_hal_rcc_ex.c:763:39
	str	r2, [r0, #76]
	.loc	5 766 40 is_stmt 1      @ ../Drivers/STM32F7xx_HAL_Driver/Src/stm32f7xx_hal_rcc_ex.c:766:40
	ldr.w	r2, [r1, #136]
	and	r2, r2, #192
	.loc	5 766 38 is_stmt 0      @ ../Drivers/STM32F7xx_HAL_Driver/Src/stm32f7xx_hal_rcc_ex.c:766:38
	str	r2, [r0, #80]
	.loc	5 769 40 is_stmt 1      @ ../Drivers/STM32F7xx_HAL_Driver/Src/stm32f7xx_hal_rcc_ex.c:769:40
	ldr.w	r2, [r1, #136]
	and	r2, r2, #768
	.loc	5 769 38 is_stmt 0      @ ../Drivers/STM32F7xx_HAL_Driver/Src/stm32f7xx_hal_rcc_ex.c:769:38
	str	r2, [r0, #84]
	.loc	5 772 41 is_stmt 1      @ ../Drivers/STM32F7xx_HAL_Driver/Src/stm32f7xx_hal_rcc_ex.c:772:41
	ldr.w	r2, [r1, #136]
	and	r2, r2, #3072
	.loc	5 772 39 is_stmt 0      @ ../Drivers/STM32F7xx_HAL_Driver/Src/stm32f7xx_hal_rcc_ex.c:772:39
	str	r2, [r0, #88]
	.loc	5 775 40 is_stmt 1      @ ../Drivers/STM32F7xx_HAL_Driver/Src/stm32f7xx_hal_rcc_ex.c:775:40
	ldr.w	r2, [r1, #136]
	and	r2, r2, #12288
	.loc	5 775 38 is_stmt 0      @ ../Drivers/STM32F7xx_HAL_Driver/Src/stm32f7xx_hal_rcc_ex.c:775:38
	str	r2, [r0, #92]
	.loc	5 778 40 is_stmt 1      @ ../Drivers/STM32F7xx_HAL_Driver/Src/stm32f7xx_hal_rcc_ex.c:778:40
	ldr.w	r2, [r1, #136]
	and	r2, r2, #49152
	.loc	5 778 38 is_stmt 0      @ ../Drivers/STM32F7xx_HAL_Driver/Src/stm32f7xx_hal_rcc_ex.c:778:38
	str	r2, [r0, #96]
	.loc	5 781 41 is_stmt 1      @ ../Drivers/STM32F7xx_HAL_Driver/Src/stm32f7xx_hal_rcc_ex.c:781:41
	ldr.w	r2, [r1, #136]
	and	r2, r2, #50331648
	.loc	5 781 39 is_stmt 0      @ ../Drivers/STM32F7xx_HAL_Driver/Src/stm32f7xx_hal_rcc_ex.c:781:39
	str	r2, [r0, #116]
	.loc	5 784 38 is_stmt 1      @ ../Drivers/STM32F7xx_HAL_Driver/Src/stm32f7xx_hal_rcc_ex.c:784:38
	ldr.w	r2, [r1, #136]
	and	r2, r2, #67108864
	.loc	5 784 36 is_stmt 0      @ ../Drivers/STM32F7xx_HAL_Driver/Src/stm32f7xx_hal_rcc_ex.c:784:36
	str	r2, [r0, #120]
	.loc	5 787 40 is_stmt 1      @ ../Drivers/STM32F7xx_HAL_Driver/Src/stm32f7xx_hal_rcc_ex.c:787:40
	ldr.w	r2, [r1, #136]
	and	r2, r2, #134217728
	.loc	5 787 38 is_stmt 0      @ ../Drivers/STM32F7xx_HAL_Driver/Src/stm32f7xx_hal_rcc_ex.c:787:38
	str	r2, [r0, #124]
	.loc	5 790 41 is_stmt 1      @ ../Drivers/STM32F7xx_HAL_Driver/Src/stm32f7xx_hal_rcc_ex.c:790:41
	ldr.w	r2, [r1, #136]
	and	r2, r2, #268435456
	.loc	5 790 39 is_stmt 0      @ ../Drivers/STM32F7xx_HAL_Driver/Src/stm32f7xx_hal_rcc_ex.c:790:39
	str.w	r2, [r0, #128]
	.loc	5 804 19 is_stmt 1      @ ../Drivers/STM32F7xx_HAL_Driver/Src/stm32f7xx_hal_rcc_ex.c:804:19
	ldr	r2, [r1]
	.loc	5 805 67                @ ../Drivers/STM32F7xx_HAL_Driver/Src/stm32f7xx_hal_rcc_ex.c:805:67
	ldr	r3, [r1, #104]
	.loc	5 804 24                @ ../Drivers/STM32F7xx_HAL_Driver/Src/stm32f7xx_hal_rcc_ex.c:804:24
	and	r2, r2, #2031616
.Ltmp153:
	@DEBUG_VALUE: HAL_RCCEx_GetPeriphCLKConfig:tempreg <- $r2
	.loc	5 805 72                @ ../Drivers/STM32F7xx_HAL_Driver/Src/stm32f7xx_hal_rcc_ex.c:805:72
	and	r3, r3, #768
	.loc	5 805 59 is_stmt 0      @ ../Drivers/STM32F7xx_HAL_Driver/Src/stm32f7xx_hal_rcc_ex.c:805:59
	orrs	r2, r3
.Ltmp154:
	.loc	5 805 36                @ ../Drivers/STM32F7xx_HAL_Driver/Src/stm32f7xx_hal_rcc_ex.c:805:36
	str	r2, [r0, #48]
.Ltmp155:
	.loc	5 808 13 is_stmt 1      @ ../Drivers/STM32F7xx_HAL_Driver/Src/stm32f7xx_hal_rcc_ex.c:808:13
	ldr.w	r1, [r1, #132]
	.loc	5 808 22 is_stmt 0      @ ../Drivers/STM32F7xx_HAL_Driver/Src/stm32f7xx_hal_rcc_ex.c:808:22
	and	r1, r1, #16777216
	str	r1, [r0, #56]
.Ltmp156:
	.loc	5 816 1 is_stmt 1       @ ../Drivers/STM32F7xx_HAL_Driver/Src/stm32f7xx_hal_rcc_ex.c:816:1
	bx	lr
.Ltmp157:
	.p2align	2
@ %bb.1:
	.loc	5 0 1 is_stmt 0         @ ../Drivers/STM32F7xx_HAL_Driver/Src/stm32f7xx_hal_rcc_ex.c:0:1
__arm_cp.1_0:
	.long	16777201                @ 0xfffff1
.Lcpi_end4:
	.size	__arm_cp.1_0, .Lcpi_end4-__arm_cp.1_0
__arm_cp.1_1:
	.long	1073887240              @ 0x40023808
.Lcpi_end5:
	.size	__arm_cp.1_1, .Lcpi_end5-__arm_cp.1_1
.Lfunc_end1:
	.size	HAL_RCCEx_GetPeriphCLKConfig, .Lfunc_end1-HAL_RCCEx_GetPeriphCLKConfig
	.cfi_endproc
	.cantunwind
	.fnend
                                        @ -- End function
	.section	.text.HAL_RCCEx_GetPeriphCLKFreq,"ax",%progbits
	.hidden	HAL_RCCEx_GetPeriphCLKFreq @ -- Begin function HAL_RCCEx_GetPeriphCLKFreq
	.globl	HAL_RCCEx_GetPeriphCLKFreq
	.p2align	2
	.type	HAL_RCCEx_GetPeriphCLKFreq,%function
	.code	16                      @ @HAL_RCCEx_GetPeriphCLKFreq
	.thumb_func
HAL_RCCEx_GetPeriphCLKFreq:
.Lfunc_begin2:
	.loc	5 1405 0 is_stmt 1      @ ../Drivers/STM32F7xx_HAL_Driver/Src/stm32f7xx_hal_rcc_ex.c:1405:0
	.fnstart
	.cfi_startproc
@ %bb.0:
	@DEBUG_VALUE: HAL_RCCEx_GetPeriphCLKFreq:PeriphClk <- $r0
	@DEBUG_VALUE: HAL_RCCEx_GetPeriphCLKFreq:PeriphClk <- $r0
	@DEBUG_VALUE: HAL_RCCEx_GetPeriphCLKFreq:tmpreg <- 0
	@DEBUG_VALUE: HAL_RCCEx_GetPeriphCLKFreq:frequency <- 0
	@DEBUG_VALUE: HAL_RCCEx_GetPeriphCLKFreq:vcoinput <- 0
	@DEBUG_VALUE: HAL_RCCEx_GetPeriphCLKFreq:saiclocksource <- 0
	.loc	5 1414 7 prologue_end   @ ../Drivers/STM32F7xx_HAL_Driver/Src/stm32f7xx_hal_rcc_ex.c:1414:7
	cmp.w	r0, #1048576
	beq	.LBB2_5
.Ltmp158:
@ %bb.1:
	@DEBUG_VALUE: HAL_RCCEx_GetPeriphCLKFreq:PeriphClk <- $r0
	cmp.w	r0, #524288
	bne	.LBB2_10
.Ltmp159:
@ %bb.2:
	@DEBUG_VALUE: HAL_RCCEx_GetPeriphCLKFreq:PeriphClk <- $r0
	.loc	5 0 7 is_stmt 0         @ ../Drivers/STM32F7xx_HAL_Driver/Src/stm32f7xx_hal_rcc_ex.c:0:7
	ldr	r0, __arm_cp.2_0
.Ltmp160:
	.loc	5 1416 27 is_stmt 1     @ ../Drivers/STM32F7xx_HAL_Driver/Src/stm32f7xx_hal_rcc_ex.c:1416:27
	ldr.w	r1, [r0, #136]
.Ltmp161:
	@DEBUG_VALUE: HAL_RCCEx_GetPeriphCLKFreq:saiclocksource <- $r1
	.loc	5 1417 20               @ ../Drivers/STM32F7xx_HAL_Driver/Src/stm32f7xx_hal_rcc_ex.c:1417:20
	and	r1, r1, #3145728
.Ltmp162:
	@DEBUG_VALUE: HAL_RCCEx_GetPeriphCLKFreq:saiclocksource <- $r1
	.loc	5 1418 5                @ ../Drivers/STM32F7xx_HAL_Driver/Src/stm32f7xx_hal_rcc_ex.c:1418:5
	cmp.w	r1, #2097152
	beq	.LBB2_11
.Ltmp163:
@ %bb.3:
	@DEBUG_VALUE: HAL_RCCEx_GetPeriphCLKFreq:saiclocksource <- $r1
	cmp.w	r1, #1048576
	bne	.LBB2_7
.Ltmp164:
.LBB2_4:
	@DEBUG_VALUE: HAL_RCCEx_GetPeriphCLKFreq:saiclocksource <- $r1
	.loc	5 0 5 is_stmt 0         @ ../Drivers/STM32F7xx_HAL_Driver/Src/stm32f7xx_hal_rcc_ex.c:0:5
	ldr	r1, [r0]
.Ltmp165:
	ldr	r2, __arm_cp.2_2
	tst.w	r1, #4194304
	itt	eq
	movweq	r2, #9216
	movteq	r2, #244
	ldr	r1, [r0]
	and	r1, r1, #63
	udiv	r1, r2, r1
.Ltmp166:
	@DEBUG_VALUE: HAL_RCCEx_GetPeriphCLKFreq:vcoinput <- $r1
	ldr.w	r2, [r0, #128]
	ldr.w	r3, [r0, #128]
	ubfx	r3, r3, #6, #9
	ubfx	r2, r2, #24, #4
.Ltmp167:
	@DEBUG_VALUE: HAL_RCCEx_GetPeriphCLKFreq:tmpreg <- $r2
	ldr.w	r0, [r0, #136]
	muls	r1, r3, r1
.Ltmp168:
	udiv	r1, r1, r2
.Ltmp169:
	@DEBUG_VALUE: HAL_RCCEx_GetPeriphCLKFreq:frequency <- $r1
	and	r0, r0, #31
	b	.LBB2_9
.Ltmp170:
.LBB2_5:
	@DEBUG_VALUE: HAL_RCCEx_GetPeriphCLKFreq:PeriphClk <- $r0
	ldr	r0, __arm_cp.2_0
.Ltmp171:
	.loc	5 1499 27 is_stmt 1     @ ../Drivers/STM32F7xx_HAL_Driver/Src/stm32f7xx_hal_rcc_ex.c:1499:27
	ldr.w	r1, [r0, #136]
.Ltmp172:
	@DEBUG_VALUE: HAL_RCCEx_GetPeriphCLKFreq:saiclocksource <- $r1
	.loc	5 1500 20               @ ../Drivers/STM32F7xx_HAL_Driver/Src/stm32f7xx_hal_rcc_ex.c:1500:20
	and	r1, r1, #12582912
.Ltmp173:
	@DEBUG_VALUE: HAL_RCCEx_GetPeriphCLKFreq:saiclocksource <- $r1
	.loc	5 1501 5                @ ../Drivers/STM32F7xx_HAL_Driver/Src/stm32f7xx_hal_rcc_ex.c:1501:5
	cmp.w	r1, #8388608
	beq	.LBB2_11
.Ltmp174:
@ %bb.6:
	@DEBUG_VALUE: HAL_RCCEx_GetPeriphCLKFreq:saiclocksource <- $r1
	cmp.w	r1, #4194304
	beq	.LBB2_4
.Ltmp175:
.LBB2_7:
	@DEBUG_VALUE: HAL_RCCEx_GetPeriphCLKFreq:saiclocksource <- $r1
	.loc	5 0 5 is_stmt 0         @ ../Drivers/STM32F7xx_HAL_Driver/Src/stm32f7xx_hal_rcc_ex.c:0:5
	cbnz	r1, .LBB2_10
.Ltmp176:
@ %bb.8:
	@DEBUG_VALUE: HAL_RCCEx_GetPeriphCLKFreq:saiclocksource <- $r1
	ldr	r1, [r0]
.Ltmp177:
	ldr	r2, __arm_cp.2_2
	tst.w	r1, #4194304
	itt	eq
	movweq	r2, #9216
	movteq	r2, #244
	ldr	r1, [r0]
	and	r1, r1, #63
	udiv	r1, r2, r1
.Ltmp178:
	@DEBUG_VALUE: HAL_RCCEx_GetPeriphCLKFreq:vcoinput <- $r1
	ldr.w	r2, [r0, #132]
	ldr.w	r3, [r0, #132]
	ubfx	r3, r3, #6, #9
	ubfx	r2, r2, #24, #4
.Ltmp179:
	@DEBUG_VALUE: HAL_RCCEx_GetPeriphCLKFreq:tmpreg <- $r2
	ldr.w	r0, [r0, #136]
	muls	r1, r3, r1
.Ltmp180:
	udiv	r1, r1, r2
.Ltmp181:
	@DEBUG_VALUE: HAL_RCCEx_GetPeriphCLKFreq:frequency <- $r1
	ubfx	r0, r0, #8, #5
.Ltmp182:
.LBB2_9:
	@DEBUG_VALUE: HAL_RCCEx_GetPeriphCLKFreq:frequency <- $r1
	@DEBUG_VALUE: HAL_RCCEx_GetPeriphCLKFreq:tmpreg <- $r2
	adds	r0, #1
.Ltmp183:
	@DEBUG_VALUE: HAL_RCCEx_GetPeriphCLKFreq:tmpreg <- $r0
	udiv	r0, r1, r0
.Ltmp184:
	@DEBUG_VALUE: HAL_RCCEx_GetPeriphCLKFreq:frequency <- $r0
	@DEBUG_VALUE: HAL_RCCEx_GetPeriphCLKFreq:frequency <- $r0
	.loc	5 1580 3 is_stmt 1      @ ../Drivers/STM32F7xx_HAL_Driver/Src/stm32f7xx_hal_rcc_ex.c:1580:3
	bx	lr
.Ltmp185:
.LBB2_10:
	.loc	5 0 3 is_stmt 0         @ ../Drivers/STM32F7xx_HAL_Driver/Src/stm32f7xx_hal_rcc_ex.c:0:3
	movs	r0, #0
.Ltmp186:
	@DEBUG_VALUE: HAL_RCCEx_GetPeriphCLKFreq:frequency <- $r0
	.loc	5 1580 3                @ ../Drivers/STM32F7xx_HAL_Driver/Src/stm32f7xx_hal_rcc_ex.c:1580:3
	bx	lr
.Ltmp187:
.LBB2_11:
	@DEBUG_VALUE: HAL_RCCEx_GetPeriphCLKFreq:saiclocksource <- $r1
	.loc	5 0 3                   @ ../Drivers/STM32F7xx_HAL_Driver/Src/stm32f7xx_hal_rcc_ex.c:0:3
	ldr	r0, __arm_cp.2_1
.Ltmp188:
	@DEBUG_VALUE: HAL_RCCEx_GetPeriphCLKFreq:frequency <- 12288000
	@DEBUG_VALUE: HAL_RCCEx_GetPeriphCLKFreq:frequency <- $r0
	.loc	5 1580 3                @ ../Drivers/STM32F7xx_HAL_Driver/Src/stm32f7xx_hal_rcc_ex.c:1580:3
	bx	lr
.Ltmp189:
	.p2align	2
@ %bb.12:
	.loc	5 0 3                   @ ../Drivers/STM32F7xx_HAL_Driver/Src/stm32f7xx_hal_rcc_ex.c:0:3
__arm_cp.2_0:
	.long	1073887236              @ 0x40023804
.Lcpi_end6:
	.size	__arm_cp.2_0, .Lcpi_end6-__arm_cp.2_0
__arm_cp.2_1:
	.long	12288000                @ 0xbb8000
.Lcpi_end7:
	.size	__arm_cp.2_1, .Lcpi_end7-__arm_cp.2_1
__arm_cp.2_2:
	.long	8000000                 @ 0x7a1200
.Lcpi_end8:
	.size	__arm_cp.2_2, .Lcpi_end8-__arm_cp.2_2
.Lfunc_end2:
	.size	HAL_RCCEx_GetPeriphCLKFreq, .Lfunc_end2-HAL_RCCEx_GetPeriphCLKFreq
	.cfi_endproc
	.cantunwind
	.fnend
                                        @ -- End function
	.file	6 "../Drivers/STM32F7xx_HAL_Driver/Inc" "stm32f7xx_hal_rcc_ex.h"
	.section	".note.GNU-stack","",%progbits
	.eabi_attribute	30, 4	@ Tag_ABI_optimization_goals
	.ARM_attribute	16, 1	@ Tag_AV_eba