	.text
	.syntax unified
	.eabi_attribute	67, "2.09"	@ Tag_conformance
	.cpu	cortex-m7
	.eabi_attribute	6, 13	@ Tag_CPU_arch
	.eabi_attribute	7, 77	@ Tag_CPU_arch_profile
	.eabi_attribute	8, 0	@ Tag_ARM_ISA_use
	.eabi_attribute	9, 2	@ Tag_THUMB_ISA_use
	.fpu	fpv5-sp-d16
	.eabi_attribute	27, 1	@ Tag_ABI_HardFP_use
	.eabi_attribute	36, 1	@ Tag_FP_HP_extension
	.eabi_attribute	34, 1	@ Tag_CPU_unaligned_access
	.eabi_attribute	17, 1	@ Tag_ABI_PCS_GOT_use
	.eabi_attribute	20, 2	@ Tag_ABI_FP_denormal
	.eabi_attribute	21, 0	@ Tag_ABI_FP_exceptions
	.eabi_attribute	23, 1	@ Tag_ABI_FP_number_model
	.eabi_attribute	24, 1	@ Tag_ABI_align_needed
	.eabi_attribute	25, 1	@ Tag_ABI_align_preserved
	.eabi_attribute	28, 1	@ Tag_ABI_VFP_args
	.eabi_attribute	38, 1	@ Tag_ABI_FP_16bit_format
	.eabi_attribute	18, 2	@ Tag_ABI_PCS_wchar_t
	.eabi_attribute	26, 1	@ Tag_ABI_enum_size
	.eabi_attribute	14, 0	@ Tag_ABI_PCS_R9_use
	.file	"stm32f7xx_hal_flash_ex.c"
	.file	1 "../Drivers/STM32F7xx_HAL_Driver/Inc" "stm32f7xx_hal_def.h"
	.file	2 "../Drivers/STM32F7xx_HAL_Driver/Inc" "stm32f7xx_hal_flash.h"
	.file	3 "C:\\Keil\\ARM\\ARMCLANG\\Bin\\..\\include" "stdint.h"
	.file	4 "../Drivers/CMSIS/Device/ST/STM32F7xx/Include" "stm32f746xx.h"
	.section	.text.HAL_FLASHEx_Erase,"ax",%progbits
	.hidden	HAL_FLASHEx_Erase       @ -- Begin function HAL_FLASHEx_Erase
	.globl	HAL_FLASHEx_Erase
	.p2align	2
	.type	HAL_FLASHEx_Erase,%function
	.code	16                      @ @HAL_FLASHEx_Erase
	.thumb_func
HAL_FLASHEx_Erase:
.Lfunc_begin0:
	.file	5 "../Drivers/STM32F7xx_HAL_Driver/Src" "stm32f7xx_hal_flash_ex.c"
	.loc	5 175 0                 @ ../Drivers/STM32F7xx_HAL_Driver/Src/stm32f7xx_hal_flash_ex.c:175:0
	.fnstart
	.cfi_sections .debug_frame
	.cfi_startproc
@ %bb.0:
	.save	{r4, r5, r6, r7, r8, lr}
	push.w	{r4, r5, r6, r7, r8, lr}
	.cfi_def_cfa_offset 24
	.cfi_offset lr, -4
	.cfi_offset r8, -8
	.cfi_offset r7, -12
	.cfi_offset r6, -16
	.cfi_offset r5, -20
	.cfi_offset r4, -24
	@DEBUG_VALUE: HAL_FLASHEx_Erase:pEraseInit <- $r0
	@DEBUG_VALUE: HAL_FLASHEx_Erase:SectorError <- $r1
.Ltmp0:
	.loc	5 180 3 prologue_end    @ ../Drivers/STM32F7xx_HAL_Driver/Src/stm32f7xx_hal_flash_ex.c:180:3
	ldr.w	r8, __arm_cp.0_0
	mov	r5, r0
.Ltmp1:
	@DEBUG_VALUE: HAL_FLASHEx_Erase:index <- 0
	@DEBUG_VALUE: HAL_FLASHEx_Erase:status <- 1
	@DEBUG_VALUE: HAL_FLASHEx_Erase:SectorError <- $r4
	@DEBUG_VALUE: HAL_FLASHEx_Erase:pEraseInit <- $r5
	.loc	5 0 3 is_stmt 0         @ ../Drivers/STM32F7xx_HAL_Driver/Src/stm32f7xx_hal_flash_ex.c:0:3
	mov	r4, r1
.Ltmp2:
	.loc	5 180 3                 @ ../Drivers/STM32F7xx_HAL_Driver/Src/stm32f7xx_hal_flash_ex.c:180:3
	ldrb.w	r0, [r8, #20]
.Ltmp3:
	.loc	5 180 3                 @ ../Drivers/STM32F7xx_HAL_Driver/Src/stm32f7xx_hal_flash_ex.c:180:3
	cmp	r0, #1
	itt	eq
	moveq	r0, #2
.Ltmp4:
	.loc	5 238 1 is_stmt 1       @ ../Drivers/STM32F7xx_HAL_Driver/Src/stm32f7xx_hal_flash_ex.c:238:1
	popeq.w	{r4, r5, r6, r7, r8, pc}
.Ltmp5:
	.loc	5 0 1 is_stmt 0         @ ../Drivers/STM32F7xx_HAL_Driver/Src/stm32f7xx_hal_flash_ex.c:0:1
	movs	r0, #1
.Ltmp6:
	.loc	5 180 3 is_stmt 1       @ ../Drivers/STM32F7xx_HAL_Driver/Src/stm32f7xx_hal_flash_ex.c:180:3
	strb.w	r0, [r8, #20]
.Ltmp7:
	.loc	5 186 12                @ ../Drivers/STM32F7xx_HAL_Driver/Src/stm32f7xx_hal_flash_ex.c:186:12
	movw	r0, #50000
	bl	FLASH_WaitForLastOperation
	.loc	5 188 6                 @ ../Drivers/STM32F7xx_HAL_Driver/Src/stm32f7xx_hal_flash_ex.c:188:6
	cbnz	r0, .LBB0_9
@ %bb.1:
.Ltmp8:
	.loc	5 191 18                @ ../Drivers/STM32F7xx_HAL_Driver/Src/stm32f7xx_hal_flash_ex.c:191:18
	mov.w	r0, #-1
	ldr	r7, __arm_cp.0_1
	str	r0, [r4]
.Ltmp9:
	.loc	5 193 20                @ ../Drivers/STM32F7xx_HAL_Driver/Src/stm32f7xx_hal_flash_ex.c:193:20
	ldr	r0, [r5]
.Ltmp10:
	.loc	5 193 8 is_stmt 0       @ ../Drivers/STM32F7xx_HAL_Driver/Src/stm32f7xx_hal_flash_ex.c:193:8
	cmp	r0, #1
	bne	.LBB0_3
@ %bb.2:
.Ltmp11:
	.loc	5 199 7 is_stmt 1       @ ../Drivers/STM32F7xx_HAL_Driver/Src/stm32f7xx_hal_flash_ex.c:199:7
	ldrb	r0, [r5, #12]
	bl	FLASH_MassErase
	.loc	5 203 16                @ ../Drivers/STM32F7xx_HAL_Driver/Src/stm32f7xx_hal_flash_ex.c:203:16
	movw	r0, #50000
	bl	FLASH_WaitForLastOperation
	.loc	5 206 17                @ ../Drivers/STM32F7xx_HAL_Driver/Src/stm32f7xx_hal_flash_ex.c:206:17
	ldr	r1, [r7]
	bic	r1, r1, #4
	str	r1, [r7]
	b	.LBB0_9
.Ltmp12:
.LBB0_3:
	.loc	5 214 31                @ ../Drivers/STM32F7xx_HAL_Driver/Src/stm32f7xx_hal_flash_ex.c:214:31
	ldr	r0, [r5, #4]
.Ltmp13:
	@DEBUG_VALUE: HAL_FLASHEx_Erase:index <- $r0
	.loc	5 0 31 is_stmt 0        @ ../Drivers/STM32F7xx_HAL_Driver/Src/stm32f7xx_hal_flash_ex.c:0:31
	mov	r6, r0
	b	.LBB0_6
.Ltmp14:
.LBB0_4:                                @   in Loop: Header=BB0_6 Depth=1
	@DEBUG_VALUE: HAL_FLASHEx_Erase:index <- $r6
	.loc	5 216 9 is_stmt 1       @ ../Drivers/STM32F7xx_HAL_Driver/Src/stm32f7xx_hal_flash_ex.c:216:9
	ldrb	r1, [r5, #12]
	mov	r0, r6
	bl	FLASH_Erase_Sector
	.loc	5 219 18                @ ../Drivers/STM32F7xx_HAL_Driver/Src/stm32f7xx_hal_flash_ex.c:219:18
	movw	r0, #50000
	bl	FLASH_WaitForLastOperation
	.loc	5 222 9                 @ ../Drivers/STM32F7xx_HAL_Driver/Src/stm32f7xx_hal_flash_ex.c:222:9
	ldr	r1, [r7]
	.loc	5 224 12                @ ../Drivers/STM32F7xx_HAL_Driver/Src/stm32f7xx_hal_flash_ex.c:224:12
	cmp	r0, #0
	.loc	5 222 9                 @ ../Drivers/STM32F7xx_HAL_Driver/Src/stm32f7xx_hal_flash_ex.c:222:9
	bic	r1, r1, #122
	str	r1, [r7]
	.loc	5 224 12                @ ../Drivers/STM32F7xx_HAL_Driver/Src/stm32f7xx_hal_flash_ex.c:224:12
	bne	.LBB0_8
.Ltmp15:
@ %bb.5:                                @   in Loop: Header=BB0_6 Depth=1
	@DEBUG_VALUE: HAL_FLASHEx_Erase:index <- $r6
	.loc	5 214 84                @ ../Drivers/STM32F7xx_HAL_Driver/Src/stm32f7xx_hal_flash_ex.c:214:84
	ldr	r0, [r5, #4]
	.loc	5 214 98 is_stmt 0      @ ../Drivers/STM32F7xx_HAL_Driver/Src/stm32f7xx_hal_flash_ex.c:214:98
	adds	r6, #1
.Ltmp16:
	@DEBUG_VALUE: HAL_FLASHEx_Erase:index <- $r6
.LBB0_6:                                @ =>This Inner Loop Header: Depth=1
	@DEBUG_VALUE: HAL_FLASHEx_Erase:index <- $r0
	@DEBUG_VALUE: HAL_FLASHEx_Erase:status <- 0
	.loc	5 214 60                @ ../Drivers/STM32F7xx_HAL_Driver/Src/stm32f7xx_hal_flash_ex.c:214:60
	ldr	r1, [r5, #8]
	.loc	5 214 70                @ ../Drivers/STM32F7xx_HAL_Driver/Src/stm32f7xx_hal_flash_ex.c:214:70
	add	r0, r1
.Ltmp17:
	@DEBUG_VALUE: HAL_FLASHEx_Erase:index <- $r6
	.loc	5 214 7                 @ ../Drivers/STM32F7xx_HAL_Driver/Src/stm32f7xx_hal_flash_ex.c:214:7
	cmp	r6, r0
	blo	.LBB0_4
.Ltmp18:
@ %bb.7:
	@DEBUG_VALUE: HAL_FLASHEx_Erase:index <- $r6
	.loc	5 0 7                   @ ../Drivers/STM32F7xx_HAL_Driver/Src/stm32f7xx_hal_flash_ex.c:0:7
	movs	r0, #0
	b	.LBB0_9
.Ltmp19:
.LBB0_8:
	@DEBUG_VALUE: HAL_FLASHEx_Erase:index <- $r6
	.loc	5 227 24 is_stmt 1      @ ../Drivers/STM32F7xx_HAL_Driver/Src/stm32f7xx_hal_flash_ex.c:227:24
	str	r6, [r4]
.Ltmp20:
.LBB0_9:
	.loc	5 235 3                 @ ../Drivers/STM32F7xx_HAL_Driver/Src/stm32f7xx_hal_flash_ex.c:235:3
	movs	r1, #0
	strb.w	r1, [r8, #20]
.Ltmp21:
	.loc	5 238 1                 @ ../Drivers/STM32F7xx_HAL_Driver/Src/stm32f7xx_hal_flash_ex.c:238:1
	pop.w	{r4, r5, r6, r7, r8, pc}
.Ltmp22:
	.p2align	2
@ %bb.10:
	.loc	5 0 1 is_stmt 0         @ ../Drivers/STM32F7xx_HAL_Driver/Src/stm32f7xx_hal_flash_ex.c:0:1
__arm_cp.0_0:
	.long	pFlash
.Lcpi_end0:
	.size	__arm_cp.0_0, .Lcpi_end0-__arm_cp.0_0
__arm_cp.0_1:
	.long	1073888272              @ 0x40023c10
.Lcpi_end1:
	.size	__arm_cp.0_1, .Lcpi_end1-__arm_cp.0_1
.Lfunc_end0:
	.size	HAL_FLASHEx_Erase, .Lfunc_end0-HAL_FLASHEx_Erase
	.cfi_endproc
	.cantunwind
	.fnend
                                        @ -- End function
	.section	.text.FLASH_MassErase,"ax",%progbits
	.p2align	2               @ -- Begin function FLASH_MassErase
	.type	FLASH_MassErase,%function
	.code	16                      @ @FLASH_MassErase
	.thumb_func
FLASH_MassErase:
.Lfunc_begin1:
	.loc	5 658 0 is_stmt 1       @ ../Drivers/STM32F7xx_HAL_Driver/Src/stm32f7xx_hal_flash_ex.c:658:0
	.fnstart
	.cfi_startproc
@ %bb.0:
	@DEBUG_VALUE: FLASH_MassErase:VoltageRange <- $r0
	ldr	r1, __arm_cp.1_0
	@DEBUG_VALUE: FLASH_MassErase:VoltageRange <- $r0
.Ltmp23:
	.loc	5 663 13 prologue_end   @ ../Drivers/STM32F7xx_HAL_Driver/Src/stm32f7xx_hal_flash_ex.c:663:13
	ldr	r2, [r1]
	bic	r2, r2, #768
	str	r2, [r1]
	.loc	5 664 13                @ ../Drivers/STM32F7xx_HAL_Driver/Src/stm32f7xx_hal_flash_ex.c:664:13
	ldr	r2, [r1]
	orr	r2, r2, #4
	str	r2, [r1]
	.loc	5 665 13                @ ../Drivers/STM32F7xx_HAL_Driver/Src/stm32f7xx_hal_flash_ex.c:665:13
	ldr	r2, [r1]
	orr.w	r0, r2, r0, lsl #8
.Ltmp24:
	orr	r0, r0, #65536
	str	r0, [r1]
	.loc	5 668 3                 @ ../Drivers/STM32F7xx_HAL_Driver/Src/stm32f7xx_hal_flash_ex.c:668:3
	dsb	sy
	.loc	5 669 1                 @ ../Drivers/STM32F7xx_HAL_Driver/Src/stm32f7xx_hal_flash_ex.c:669:1
	bx	lr
.Ltmp25:
	.p2align	2
@ %bb.1:
	.loc	5 0 1 is_stmt 0         @ ../Drivers/STM32F7xx_HAL_Driver/Src/stm32f7xx_hal_flash_ex.c:0:1
__arm_cp.1_0:
	.long	1073888272              @ 0x40023c10
.Lcpi_end2:
	.size	__arm_cp.1_0, .Lcpi_end2-__arm_cp.1_0
.Lfunc_end1:
	.size	FLASH_MassErase, .Lfunc_end1-FLASH_MassErase
	.cfi_endproc
	.cantunwind
	.fnend
                                        @ -- End function
	.section	.text.FLASH_Erase_Sector,"ax",%progbits
	.hidden	FLASH_Erase_Sector      @ -- Begin function FLASH_Erase_Sector
	.globl	FLASH_Erase_Sector
	.p2align	2
	.type	FLASH_Erase_Sector,%function
	.code	16                      @ @FLASH_Erase_Sector
	.thumb_func
FLASH_Erase_Sector:
.Lfunc_begin2:
	.loc	5 689 0 is_stmt 1       @ ../Drivers/STM32F7xx_HAL_Driver/Src/stm32f7xx_hal_flash_ex.c:689:0
	.fnstart
	.cfi_startproc
@ %bb.0:
	@DEBUG_VALUE: FLASH_Erase_Sector:Sector <- $r0
	@DEBUG_VALUE: FLASH_Erase_Sector:VoltageRange <- $r1
	ldr	r2, __arm_cp.2_0
	@DEBUG_VALUE: FLASH_Erase_Sector:VoltageRange <- $r1
	@DEBUG_VALUE: FLASH_Erase_Sector:Sector <- $r0
.Ltmp26:
	.loc	5 696 6 prologue_end    @ ../Drivers/STM32F7xx_HAL_Driver/Src/stm32f7xx_hal_flash_ex.c:696:6
	cmp	r1, #3
	.loc	5 714 13                @ ../Drivers/STM32F7xx_HAL_Driver/Src/stm32f7xx_hal_flash_ex.c:714:13
	ldr	r3, [r2]
	bic	r3, r3, #768
	str	r3, [r2]
	.loc	5 696 6                 @ ../Drivers/STM32F7xx_HAL_Driver/Src/stm32f7xx_hal_flash_ex.c:696:6
	mov.w	r3, #768
.Ltmp27:
	@DEBUG_VALUE: FLASH_Erase_Sector:tmp_psize <- 0
	it	lo
	lsllo	r3, r1, #8
.Ltmp28:
	@DEBUG_VALUE: FLASH_Erase_Sector:tmp_psize <- $r3
	.loc	5 715 13                @ ../Drivers/STM32F7xx_HAL_Driver/Src/stm32f7xx_hal_flash_ex.c:715:13
	ldr	r1, [r2]
.Ltmp29:
	orrs	r1, r3
	str	r1, [r2]
	.loc	5 716 13                @ ../Drivers/STM32F7xx_HAL_Driver/Src/stm32f7xx_hal_flash_ex.c:716:13
	ldr	r1, [r2]
	bic	r1, r1, #248
	str	r1, [r2]
	.loc	5 717 13                @ ../Drivers/STM32F7xx_HAL_Driver/Src/stm32f7xx_hal_flash_ex.c:717:13
	ldr	r1, [r2]
	orr.w	r0, r1, r0, lsl #3
.Ltmp30:
	orr	r0, r0, #2
	str	r0, [r2]
	.loc	5 718 13                @ ../Drivers/STM32F7xx_HAL_Driver/Src/stm32f7xx_hal_flash_ex.c:718:13
	ldr	r0, [r2]
	orr	r0, r0, #65536
	str	r0, [r2]
	.loc	5 722 3                 @ ../Drivers/STM32F7xx_HAL_Driver/Src/stm32f7xx_hal_flash_ex.c:722:3
	dsb	sy
	.loc	5 723 1                 @ ../Drivers/STM32F7xx_HAL_Driver/Src/stm32f7xx_hal_flash_ex.c:723:1
	bx	lr
.Ltmp31:
	.p2align	2
@ %bb.1:
	.loc	5 0 1 is_stmt 0         @ ../Drivers/STM32F7xx_HAL_Driver/Src/stm32f7xx_hal_flash_ex.c:0:1
__arm_cp.2_0:
	.long	1073888272              @ 0x40023c10
.Lcpi_end3:
	.size	__arm_cp.2_0, .Lcpi_end3-__arm_cp.2_0
.Lfunc_end2:
	.size	FLASH_Erase_Sector, .Lfunc_end2-FLASH_Erase_Sector
	.cfi_endproc
	.cantunwind
	.fnend
                                        @ -- End function
	.section	.text.HAL_FLASHEx_Erase_IT,"ax",%progbits
	.hidden	HAL_FLASHEx_Erase_IT    @ -- Begin function HAL_FLASHEx_Erase_IT
	.globl	HAL_FLASHEx_Erase_IT
	.p2align	2
	.type	HAL_FLASHEx_Erase_IT,%function
	.code	16                      @ @HAL_FLASHEx_Erase_IT
	.thumb_func
HAL_FLASHEx_Erase_IT:
.Lfunc_begin3:
	.loc	5 248 0 is_stmt 1       @ ../Drivers/STM32F7xx_HAL_Driver/Src/stm32f7xx_hal_flash_ex.c:248:0
	.fnstart
	.cfi_startproc
@ %bb.0:
	.save	{r7, lr}
	push	{r7, lr}
	.cfi_def_cfa_offset 8
	.cfi_offset lr, -4
	.cfi_offset r7, -8
	@DEBUG_VALUE: HAL_FLASHEx_Erase_IT:pEraseInit <- $r0
	@DEBUG_VALUE: HAL_FLASHEx_Erase_IT:pEraseInit <- $r0
.Ltmp32:
	@DEBUG_VALUE: HAL_FLASHEx_Erase_IT:status <- 0
	.loc	5 252 3 prologue_end    @ ../Drivers/STM32F7xx_HAL_Driver/Src/stm32f7xx_hal_flash_ex.c:252:3
	ldr	r3, __arm_cp.3_0
	ldrb	r1, [r3, #20]
.Ltmp33:
	.loc	5 252 3 is_stmt 0       @ ../Drivers/STM32F7xx_HAL_Driver/Src/stm32f7xx_hal_flash_ex.c:252:3
	cmp	r1, #1
	bne	.LBB3_2
.Ltmp34:
@ %bb.1:
	@DEBUG_VALUE: HAL_FLASHEx_Erase_IT:pEraseInit <- $r0
	.loc	5 0 3                   @ ../Drivers/STM32F7xx_HAL_Driver/Src/stm32f7xx_hal_flash_ex.c:0:3
	movs	r0, #2
.Ltmp35:
	b	.LBB3_6
.LBB3_2:
.Ltmp36:
	@DEBUG_VALUE: HAL_FLASHEx_Erase_IT:pEraseInit <- $r0
	ldr	r2, __arm_cp.3_1
	mov.w	r12, #1
.Ltmp37:
	.loc	5 252 3                 @ ../Drivers/STM32F7xx_HAL_Driver/Src/stm32f7xx_hal_flash_ex.c:252:3
	strb.w	r12, [r3, #20]
.Ltmp38:
	.loc	5 258 3 is_stmt 1       @ ../Drivers/STM32F7xx_HAL_Driver/Src/stm32f7xx_hal_flash_ex.c:258:3
	ldr	r1, [r2]
	orr	r1, r1, #16777216
	str	r1, [r2]
	.loc	5 261 3                 @ ../Drivers/STM32F7xx_HAL_Driver/Src/stm32f7xx_hal_flash_ex.c:261:3
	ldr	r1, [r2]
	orr	r1, r1, #33554432
	str	r1, [r2]
	.loc	5 264 3                 @ ../Drivers/STM32F7xx_HAL_Driver/Src/stm32f7xx_hal_flash_ex.c:264:3
	movs	r1, #243
	str	r1, [r2, #-4]
.Ltmp39:
	.loc	5 267 18                @ ../Drivers/STM32F7xx_HAL_Driver/Src/stm32f7xx_hal_flash_ex.c:267:18
	ldr	r1, [r0]
.Ltmp40:
	.loc	5 267 6 is_stmt 0       @ ../Drivers/STM32F7xx_HAL_Driver/Src/stm32f7xx_hal_flash_ex.c:267:6
	cmp	r1, #1
	bne	.LBB3_4
.Ltmp41:
@ %bb.3:
	@DEBUG_VALUE: HAL_FLASHEx_Erase_IT:pEraseInit <- $r0
	.loc	5 270 29 is_stmt 1      @ ../Drivers/STM32F7xx_HAL_Driver/Src/stm32f7xx_hal_flash_ex.c:270:29
	movs	r1, #2
	strb	r1, [r3]
	.loc	5 274 5                 @ ../Drivers/STM32F7xx_HAL_Driver/Src/stm32f7xx_hal_flash_ex.c:274:5
	ldrb	r0, [r0, #12]
.Ltmp42:
	bl	FLASH_MassErase
	b	.LBB3_5
.Ltmp43:
.LBB3_4:
	@DEBUG_VALUE: HAL_FLASHEx_Erase_IT:pEraseInit <- $r0
	.loc	5 284 29                @ ../Drivers/STM32F7xx_HAL_Driver/Src/stm32f7xx_hal_flash_ex.c:284:29
	strb.w	r12, [r3]
	.loc	5 285 43                @ ../Drivers/STM32F7xx_HAL_Driver/Src/stm32f7xx_hal_flash_ex.c:285:43
	ldr	r1, [r0, #8]
	.loc	5 285 29 is_stmt 0      @ ../Drivers/STM32F7xx_HAL_Driver/Src/stm32f7xx_hal_flash_ex.c:285:29
	str	r1, [r3, #4]
	.loc	5 286 33 is_stmt 1      @ ../Drivers/STM32F7xx_HAL_Driver/Src/stm32f7xx_hal_flash_ex.c:286:33
	ldr	r2, [r0, #4]
	.loc	5 286 19 is_stmt 0      @ ../Drivers/STM32F7xx_HAL_Driver/Src/stm32f7xx_hal_flash_ex.c:286:19
	str	r2, [r3, #12]
	.loc	5 287 51 is_stmt 1      @ ../Drivers/STM32F7xx_HAL_Driver/Src/stm32f7xx_hal_flash_ex.c:287:51
	ldrb	r1, [r0, #12]
	.loc	5 290 5                 @ ../Drivers/STM32F7xx_HAL_Driver/Src/stm32f7xx_hal_flash_ex.c:290:5
	mov	r0, r2
.Ltmp44:
	.loc	5 287 28                @ ../Drivers/STM32F7xx_HAL_Driver/Src/stm32f7xx_hal_flash_ex.c:287:28
	strb	r1, [r3, #8]
	.loc	5 290 5                 @ ../Drivers/STM32F7xx_HAL_Driver/Src/stm32f7xx_hal_flash_ex.c:290:5
	bl	FLASH_Erase_Sector
.Ltmp45:
.LBB3_5:
	.loc	5 0 5 is_stmt 0         @ ../Drivers/STM32F7xx_HAL_Driver/Src/stm32f7xx_hal_flash_ex.c:0:5
	movs	r0, #0
.LBB3_6:
	.loc	5 294 1 is_stmt 1       @ ../Drivers/STM32F7xx_HAL_Driver/Src/stm32f7xx_hal_flash_ex.c:294:1
	uxtb	r0, r0
	pop	{r7, pc}
.Ltmp46:
	.p2align	2
@ %bb.7:
	.loc	5 0 1 is_stmt 0         @ ../Drivers/STM32F7xx_HAL_Driver/Src/stm32f7xx_hal_flash_ex.c:0:1
__arm_cp.3_0:
	.long	pFlash
.Lcpi_end4:
	.size	__arm_cp.3_0, .Lcpi_end4-__arm_cp.3_0
__arm_cp.3_1:
	.long	1073888272              @ 0x40023c10
.Lcpi_end5:
	.size	__arm_cp.3_1, .Lcpi_end5-__arm_cp.3_1
.Lfunc_end3:
	.size	HAL_FLASHEx_Erase_IT, .Lfunc_end3-HAL_FLASHEx_Erase_IT
	.cfi_endproc
	.cantunwind
	.fnend
                                        @ -- End function
	.section	.text.HAL_FLASHEx_OBProgram,"ax",%progbits
	.hidden	HAL_FLASHEx_OBProgram   @ -- Begin function HAL_FLASHEx_OBProgram
	.globl	HAL_FLASHEx_OBProgram
	.p2align	2
	.type	HAL_FLASHEx_OBProgram,%function
	.code	16                      @ @HAL_FLASHEx_OBProgram
	.thumb_func
HAL_FLASHEx_OBProgram:
.Lfunc_begin4:
	.loc	5 304 0 is_stmt 1       @ ../Drivers/STM32F7xx_HAL_Driver/Src/stm32f7xx_hal_flash_ex.c:304:0
	.fnstart
	.cfi_startproc
@ %bb.0:
	.save	{r4, r5, r6, r7, r8, lr}
	push.w	{r4, r5, r6, r7, r8, lr}
	.cfi_def_cfa_offset 24
	.cfi_offset lr, -4
	.cfi_offset r8, -8
	.cfi_offset r7, -12
	.cfi_offset r6, -16
	.cfi_offset r5, -20
	.cfi_offset r4, -24
	@DEBUG_VALUE: HAL_FLASHEx_OBProgram:pOBInit <- $r0
.Ltmp47:
	.loc	5 308 3 prologue_end    @ ../Drivers/STM32F7xx_HAL_Driver/Src/stm32f7xx_hal_flash_ex.c:308:3
	ldr	r5, __arm_cp.4_0
	mov	r4, r0
.Ltmp48:
	@DEBUG_VALUE: HAL_FLASHEx_OBProgram:status <- 1
	@DEBUG_VALUE: HAL_FLASHEx_OBProgram:pOBInit <- $r4
	ldrb	r0, [r5, #20]
.Ltmp49:
	.loc	5 308 3 is_stmt 0       @ ../Drivers/STM32F7xx_HAL_Driver/Src/stm32f7xx_hal_flash_ex.c:308:3
	cmp	r0, #1
	itt	eq
	moveq	r0, #2
.Ltmp50:
	.loc	5 393 1 is_stmt 1       @ ../Drivers/STM32F7xx_HAL_Driver/Src/stm32f7xx_hal_flash_ex.c:393:1
	popeq.w	{r4, r5, r6, r7, r8, pc}
.Ltmp51:
	.loc	5 0 1 is_stmt 0         @ ../Drivers/STM32F7xx_HAL_Driver/Src/stm32f7xx_hal_flash_ex.c:0:1
	movs	r0, #1
	ldr	r6, __arm_cp.4_1
.Ltmp52:
	.loc	5 308 3 is_stmt 1       @ ../Drivers/STM32F7xx_HAL_Driver/Src/stm32f7xx_hal_flash_ex.c:308:3
	strb	r0, [r5, #20]
.Ltmp53:
	.loc	5 314 6                 @ ../Drivers/STM32F7xx_HAL_Driver/Src/stm32f7xx_hal_flash_ex.c:314:6
	ldrb	r1, [r4]
	lsls	r1, r1, #31
	beq	.LBB4_7
@ %bb.1:
.Ltmp54:
	@DEBUG_VALUE: FLASH_OB_DisableWRP:WRPSector <- $r7
	@DEBUG_VALUE: FLASH_OB_EnableWRP:WRPSector <- $r7
	.loc	5 0 6 is_stmt 0         @ ../Drivers/STM32F7xx_HAL_Driver/Src/stm32f7xx_hal_flash_ex.c:0:6
	mov	r8, r6
.Ltmp55:
	.loc	5 317 17 is_stmt 1      @ ../Drivers/STM32F7xx_HAL_Driver/Src/stm32f7xx_hal_flash_ex.c:317:17
	ldrd	r6, r7, [r4, #4]
.Ltmp56:
	@DEBUG_VALUE: FLASH_OB_EnableWRP:WRPSector <- $r7
	@DEBUG_VALUE: FLASH_OB_DisableWRP:WRPSector <- $r7
	.loc	5 0 0 is_stmt 0         @ ../Drivers/STM32F7xx_HAL_Driver/Src/stm32f7xx_hal_flash_ex.c:0:0
	movw	r0, #50000
	bl	FLASH_WaitForLastOperation
.Ltmp57:
	.loc	5 317 8                 @ ../Drivers/STM32F7xx_HAL_Driver/Src/stm32f7xx_hal_flash_ex.c:317:8
	cmp	r6, #1
	bne	.LBB4_4
.Ltmp58:
@ %bb.2:
	@DEBUG_VALUE: FLASH_OB_EnableWRP:WRPSector <- $r7
	@DEBUG_VALUE: FLASH_OB_EnableWRP:status <- 0
	.loc	5 834 6 is_stmt 1       @ ../Drivers/STM32F7xx_HAL_Driver/Src/stm32f7xx_hal_flash_ex.c:834:6
	cmp	r0, #0
	mov	r6, r8
	bne	.LBB4_7
.Ltmp59:
@ %bb.3:
	@DEBUG_VALUE: FLASH_OB_EnableWRP:WRPSector <- $r7
	.loc	5 837 18                @ ../Drivers/STM32F7xx_HAL_Driver/Src/stm32f7xx_hal_flash_ex.c:837:18
	ldr	r0, [r6]
	bics	r0, r7
	b	.LBB4_6
.Ltmp60:
.LBB4_4:
	@DEBUG_VALUE: FLASH_OB_DisableWRP:WRPSector <- $r7
	@DEBUG_VALUE: FLASH_OB_DisableWRP:status <- 0
	.loc	5 870 6                 @ ../Drivers/STM32F7xx_HAL_Driver/Src/stm32f7xx_hal_flash_ex.c:870:6
	cmp	r0, #0
	mov	r6, r8
	bne	.LBB4_7
.Ltmp61:
@ %bb.5:
	@DEBUG_VALUE: FLASH_OB_DisableWRP:WRPSector <- $r7
	.loc	5 873 18                @ ../Drivers/STM32F7xx_HAL_Driver/Src/stm32f7xx_hal_flash_ex.c:873:18
	ldr	r0, [r6]
	orrs	r0, r7
.Ltmp62:
.LBB4_6:
	.loc	5 0 18 is_stmt 0        @ ../Drivers/STM32F7xx_HAL_Driver/Src/stm32f7xx_hal_flash_ex.c:0:18
	str	r0, [r6]
	movs	r0, #0
.LBB4_7:
	.loc	5 330 6 is_stmt 1       @ ../Drivers/STM32F7xx_HAL_Driver/Src/stm32f7xx_hal_flash_ex.c:330:6
	ldrb	r1, [r4]
	lsls	r1, r1, #30
	bpl	.LBB4_10
@ %bb.8:
.Ltmp63:
	.loc	5 332 48                @ ../Drivers/STM32F7xx_HAL_Driver/Src/stm32f7xx_hal_flash_ex.c:332:48
	ldr	r7, [r4, #12]
.Ltmp64:
	@DEBUG_VALUE: FLASH_OB_RDP_LevelConfig:status <- 0
	.loc	5 899 12                @ ../Drivers/STM32F7xx_HAL_Driver/Src/stm32f7xx_hal_flash_ex.c:899:12
	movw	r0, #50000
	bl	FLASH_WaitForLastOperation
	.loc	5 901 6                 @ ../Drivers/STM32F7xx_HAL_Driver/Src/stm32f7xx_hal_flash_ex.c:901:6
	cbnz	r0, .LBB4_10
@ %bb.9:
	.loc	5 0 6 is_stmt 0         @ ../Drivers/STM32F7xx_HAL_Driver/Src/stm32f7xx_hal_flash_ex.c:0:6
	movs	r0, #0
.Ltmp65:
	.loc	5 903 41 is_stmt 1      @ ../Drivers/STM32F7xx_HAL_Driver/Src/stm32f7xx_hal_flash_ex.c:903:41
	strb	r7, [r6, #1]
.Ltmp66:
.LBB4_10:
	.loc	5 336 6                 @ ../Drivers/STM32F7xx_HAL_Driver/Src/stm32f7xx_hal_flash_ex.c:336:6
	ldrb	r1, [r4]
	lsls	r1, r1, #29
	bpl	.LBB4_13
@ %bb.11:
.Ltmp67:
	.loc	5 348 43                @ ../Drivers/STM32F7xx_HAL_Driver/Src/stm32f7xx_hal_flash_ex.c:348:43
	ldr	r7, [r4, #20]
.Ltmp68:
	@DEBUG_VALUE: FLASH_OB_UserConfig:status <- 0
	@DEBUG_VALUE: FLASH_OB_UserConfig:useroptionvalue <- 0
	@DEBUG_VALUE: FLASH_OB_UserConfig:useroptionmask <- 0
	.loc	5 779 12                @ ../Drivers/STM32F7xx_HAL_Driver/Src/stm32f7xx_hal_flash_ex.c:779:12
	movw	r0, #50000
	bl	FLASH_WaitForLastOperation
	.loc	5 781 6                 @ ../Drivers/STM32F7xx_HAL_Driver/Src/stm32f7xx_hal_flash_ex.c:781:6
	cbnz	r0, .LBB4_13
@ %bb.12:
.Ltmp69:
	@DEBUG_VALUE: FLASH_OB_UserConfig:useroptionmask <- -1073741584
	.loc	5 786 62                @ ../Drivers/STM32F7xx_HAL_Driver/Src/stm32f7xx_hal_flash_ex.c:786:62
	ldr	r0, __arm_cp.4_2
	.loc	5 789 5                 @ ../Drivers/STM32F7xx_HAL_Driver/Src/stm32f7xx_hal_flash_ex.c:789:5
	ldr	r1, [r6]
	ldr	r2, __arm_cp.4_3
	.loc	5 786 62                @ ../Drivers/STM32F7xx_HAL_Driver/Src/stm32f7xx_hal_flash_ex.c:786:62
	ands	r0, r7
.Ltmp70:
	@DEBUG_VALUE: FLASH_OB_UserConfig:useroptionvalue <- $r0
	.loc	5 789 5                 @ ../Drivers/STM32F7xx_HAL_Driver/Src/stm32f7xx_hal_flash_ex.c:789:5
	ands	r1, r2
	orrs	r0, r1
.Ltmp71:
	str	r0, [r6]
	movs	r0, #0
.Ltmp72:
.LBB4_13:
	.loc	5 358 16                @ ../Drivers/STM32F7xx_HAL_Driver/Src/stm32f7xx_hal_flash_ex.c:358:16
	ldr	r1, [r4]
.Ltmp73:
	.loc	5 358 6 is_stmt 0       @ ../Drivers/STM32F7xx_HAL_Driver/Src/stm32f7xx_hal_flash_ex.c:358:6
	tst.w	r1, #8
	beq	.LBB4_15
@ %bb.14:
.Ltmp74:
	.loc	5 360 48 is_stmt 1      @ ../Drivers/STM32F7xx_HAL_Driver/Src/stm32f7xx_hal_flash_ex.c:360:48
	ldrb	r0, [r4, #16]
.Ltmp75:
	.loc	5 925 3                 @ ../Drivers/STM32F7xx_HAL_Driver/Src/stm32f7xx_hal_flash_ex.c:925:3
	ldr	r2, [r6]
	bic	r2, r2, #12
	orrs	r0, r2
	str	r0, [r6]
	movs	r0, #0
.Ltmp76:
	@DEBUG_VALUE: HAL_FLASHEx_OBProgram:status <- 0
.LBB4_15:
	.loc	5 364 6                 @ ../Drivers/STM32F7xx_HAL_Driver/Src/stm32f7xx_hal_flash_ex.c:364:6
	lsls	r2, r1, #27
	bpl	.LBB4_17
@ %bb.16:
.Ltmp77:
	.loc	5 366 73                @ ../Drivers/STM32F7xx_HAL_Driver/Src/stm32f7xx_hal_flash_ex.c:366:73
	ldr	r1, [r4, #24]
	.loc	5 366 14 is_stmt 0      @ ../Drivers/STM32F7xx_HAL_Driver/Src/stm32f7xx_hal_flash_ex.c:366:14
	movs	r0, #16
	bl	FLASH_OB_BootAddressConfig
.Ltmp78:
	.loc	5 370 16 is_stmt 1      @ ../Drivers/STM32F7xx_HAL_Driver/Src/stm32f7xx_hal_flash_ex.c:370:16
	ldr	r1, [r4]
.Ltmp79:
.LBB4_17:
	.loc	5 370 6 is_stmt 0       @ ../Drivers/STM32F7xx_HAL_Driver/Src/stm32f7xx_hal_flash_ex.c:370:6
	lsls	r1, r1, #26
	bpl	.LBB4_19
@ %bb.18:
.Ltmp80:
	.loc	5 372 73 is_stmt 1      @ ../Drivers/STM32F7xx_HAL_Driver/Src/stm32f7xx_hal_flash_ex.c:372:73
	ldr	r1, [r4, #28]
	.loc	5 372 14 is_stmt 0      @ ../Drivers/STM32F7xx_HAL_Driver/Src/stm32f7xx_hal_flash_ex.c:372:14
	movs	r0, #32
	bl	FLASH_OB_BootAddressConfig
.Ltmp81:
.LBB4_19:
	.loc	5 390 3 is_stmt 1       @ ../Drivers/STM32F7xx_HAL_Driver/Src/stm32f7xx_hal_flash_ex.c:390:3
	movs	r1, #0
	strb	r1, [r5, #20]
.Ltmp82:
	.loc	5 393 1                 @ ../Drivers/STM32F7xx_HAL_Driver/Src/stm32f7xx_hal_flash_ex.c:393:1
	pop.w	{r4, r5, r6, r7, r8, pc}
.Ltmp83:
	.p2align	2
@ %bb.20:
	.loc	5 0 1 is_stmt 0         @ ../Drivers/STM32F7xx_HAL_Driver/Src/stm32f7xx_hal_flash_ex.c:0:1
__arm_cp.4_0:
	.long	pFlash
.Lcpi_end6:
	.size	__arm_cp.4_0, .Lcpi_end6-__arm_cp.4_0
__arm_cp.4_1:
	.long	1073888276              @ 0x40023c14
.Lcpi_end7:
	.size	__arm_cp.4_1, .Lcpi_end7-__arm_cp.4_1
__arm_cp.4_2:
	.long	3221225712              @ 0xc00000f0
.Lcpi_end8:
	.size	__arm_cp.4_2, .Lcpi_end8-__arm_cp.4_2
__arm_cp.4_3:
	.long	1073741583              @ 0x3fffff0f
.Lcpi_end9:
	.size	__arm_cp.4_3, .Lcpi_end9-__arm_cp.4_3
.Lfunc_end4:
	.size	HAL_FLASHEx_OBProgram, .Lfunc_end4-HAL_FLASHEx_OBProgram
	.cfi_endproc
	.cantunwind
	.fnend
                                        @ -- End function
	.section	.text.FLASH_OB_BootAddressConfig,"ax",%progbits
	.p2align	2               @ -- Begin function FLASH_OB_BootAddressConfig
	.type	FLASH_OB_BootAddressConfig,%function
	.code	16                      @ @FLASH_OB_BootAddressConfig
	.thumb_func
FLASH_OB_BootAddressConfig:
.Lfunc_begin5:
	.loc	5 951 0 is_stmt 1       @ ../Drivers/STM32F7xx_HAL_Driver/Src/stm32f7xx_hal_flash_ex.c:951:0
	.fnstart
	.cfi_startproc
@ %bb.0:
	.save	{r4, r5, r7, lr}
	push	{r4, r5, r7, lr}
	.cfi_def_cfa_offset 16
	.cfi_offset lr, -4
	.cfi_offset r7, -8
	.cfi_offset r5, -12
	.cfi_offset r4, -16
	@DEBUG_VALUE: FLASH_OB_BootAddressConfig:BootOption <- $r0
	@DEBUG_VALUE: FLASH_OB_BootAddressConfig:Address <- $r1
	mov	r5, r0
.Ltmp84:
	@DEBUG_VALUE: FLASH_OB_BootAddressConfig:status <- 0
	@DEBUG_VALUE: FLASH_OB_BootAddressConfig:Address <- $r4
	@DEBUG_VALUE: FLASH_OB_BootAddressConfig:BootOption <- $r5
	.loc	5 958 12 prologue_end   @ ../Drivers/STM32F7xx_HAL_Driver/Src/stm32f7xx_hal_flash_ex.c:958:12
	movw	r0, #50000
	mov	r4, r1
.Ltmp85:
	bl	FLASH_WaitForLastOperation
	.loc	5 960 6                 @ ../Drivers/STM32F7xx_HAL_Driver/Src/stm32f7xx_hal_flash_ex.c:960:6
	cbz	r0, .LBB5_2
.Ltmp86:
@ %bb.1:
	@DEBUG_VALUE: FLASH_OB_BootAddressConfig:BootOption <- $r5
	.loc	5 972 3                 @ ../Drivers/STM32F7xx_HAL_Driver/Src/stm32f7xx_hal_flash_ex.c:972:3
	pop	{r4, r5, r7, pc}
.Ltmp87:
.LBB5_2:
	@DEBUG_VALUE: FLASH_OB_BootAddressConfig:BootOption <- $r5
	.loc	5 0 3 is_stmt 0         @ ../Drivers/STM32F7xx_HAL_Driver/Src/stm32f7xx_hal_flash_ex.c:0:3
	ldr	r1, __arm_cp.5_0
.Ltmp88:
	.loc	5 962 8 is_stmt 1       @ ../Drivers/STM32F7xx_HAL_Driver/Src/stm32f7xx_hal_flash_ex.c:962:8
	cmp	r5, #16
	ldr	r2, [r1]
	bne	.LBB5_4
.Ltmp89:
@ %bb.3:
	@DEBUG_VALUE: FLASH_OB_BootAddressConfig:BootOption <- $r5
	.loc	5 964 7                 @ ../Drivers/STM32F7xx_HAL_Driver/Src/stm32f7xx_hal_flash_ex.c:964:7
	movw	r3, #65535
	bics	r2, r3
	orrs	r2, r4
	b	.LBB5_5
.Ltmp90:
.LBB5_4:
	@DEBUG_VALUE: FLASH_OB_BootAddressConfig:BootOption <- $r5
	.loc	5 968 7                 @ ../Drivers/STM32F7xx_HAL_Driver/Src/stm32f7xx_hal_flash_ex.c:968:7
	pkhbt	r2, r2, r4, lsl #16
.Ltmp91:
.LBB5_5:
	@DEBUG_VALUE: FLASH_OB_BootAddressConfig:BootOption <- $r5
	.loc	5 0 7 is_stmt 0         @ ../Drivers/STM32F7xx_HAL_Driver/Src/stm32f7xx_hal_flash_ex.c:0:7
	str	r2, [r1]
	.loc	5 972 3 is_stmt 1       @ ../Drivers/STM32F7xx_HAL_Driver/Src/stm32f7xx_hal_flash_ex.c:972:3
	pop	{r4, r5, r7, pc}
.Ltmp92:
	.p2align	2
@ %bb.6:
	.loc	5 0 3 is_stmt 0         @ ../Drivers/STM32F7xx_HAL_Driver/Src/stm32f7xx_hal_flash_ex.c:0:3
__arm_cp.5_0:
	.long	1073888280              @ 0x40023c18
.Lcpi_end10:
	.size	__arm_cp.5_0, .Lcpi_end10-__arm_cp.5_0
.Lfunc_end5:
	.size	FLASH_OB_BootAddressConfig, .Lfunc_end5-FLASH_OB_BootAddressConfig
	.cfi_endproc
	.cantunwind
	.fnend
                                        @ -- End function
	.section	.text.HAL_FLASHEx_OBGetConfig,"ax",%progbits
	.hidden	HAL_FLASHEx_OBGetConfig @ -- Begin function HAL_FLASHEx_OBGetConfig
	.globl	HAL_FLASHEx_OBGetConfig
	.p2align	2
	.type	HAL_FLASHEx_OBGetConfig,%function
	.code	16                      @ @HAL_FLASHEx_OBGetConfig
	.thumb_func
HAL_FLASHEx_OBGetConfig:
.Lfunc_begin6:
	.loc	5 403 0 is_stmt 1       @ ../Drivers/STM32F7xx_HAL_Driver/Src/stm32f7xx_hal_flash_ex.c:403:0
	.fnstart
	.cfi_startproc
@ %bb.0:
	@DEBUG_VALUE: HAL_FLASHEx_OBGetConfig:pOBInit <- $r0
	@DEBUG_VALUE: HAL_FLASHEx_OBGetConfig:pOBInit <- $r0
	.loc	5 404 23 prologue_end   @ ../Drivers/STM32F7xx_HAL_Driver/Src/stm32f7xx_hal_flash_ex.c:404:23
	movs	r1, #63
	str	r1, [r0]
	ldr	r1, __arm_cp.6_0
.Ltmp93:
	.loc	5 732 29                @ ../Drivers/STM32F7xx_HAL_Driver/Src/stm32f7xx_hal_flash_ex.c:732:29
	ldr	r2, [r1]
	.loc	5 732 35 is_stmt 0      @ ../Drivers/STM32F7xx_HAL_Driver/Src/stm32f7xx_hal_flash_ex.c:732:35
	and	r2, r2, #16711680
.Ltmp94:
	.loc	5 408 22 is_stmt 1      @ ../Drivers/STM32F7xx_HAL_Driver/Src/stm32f7xx_hal_flash_ex.c:408:22
	str	r2, [r0, #8]
.Ltmp95:
	@DEBUG_VALUE: FLASH_OB_GetRDP:readstatus <- -86
	.loc	5 987 8                 @ ../Drivers/STM32F7xx_HAL_Driver/Src/stm32f7xx_hal_flash_ex.c:987:8
	ldrb	r2, [r1, #1]
.Ltmp96:
	.loc	5 987 7 is_stmt 0       @ ../Drivers/STM32F7xx_HAL_Driver/Src/stm32f7xx_hal_flash_ex.c:987:7
	cmp	r2, #170
	bne	.LBB6_2
@ %bb.1:
	@DEBUG_VALUE: HAL_FLASHEx_OBGetConfig:pOBInit <- $r0
	.loc	5 0 7                   @ ../Drivers/STM32F7xx_HAL_Driver/Src/stm32f7xx_hal_flash_ex.c:0:7
	movs	r2, #170
	b	.LBB6_3
.LBB6_2:
	@DEBUG_VALUE: HAL_FLASHEx_OBGetConfig:pOBInit <- $r0
.Ltmp97:
	.loc	5 991 13 is_stmt 1      @ ../Drivers/STM32F7xx_HAL_Driver/Src/stm32f7xx_hal_flash_ex.c:991:13
	ldrb	r2, [r1, #1]
.Ltmp98:
	.loc	5 991 12 is_stmt 0      @ ../Drivers/STM32F7xx_HAL_Driver/Src/stm32f7xx_hal_flash_ex.c:991:12
	cmp	r2, #204
	it	ne
	movne	r2, #85
.Ltmp99:
.LBB6_3:
	@DEBUG_VALUE: HAL_FLASHEx_OBGetConfig:pOBInit <- $r0
	.loc	5 411 21 is_stmt 1      @ ../Drivers/STM32F7xx_HAL_Driver/Src/stm32f7xx_hal_flash_ex.c:411:21
	str	r2, [r0, #12]
.Ltmp100:
	.loc	5 804 35                @ ../Drivers/STM32F7xx_HAL_Driver/Src/stm32f7xx_hal_flash_ex.c:804:35
	ldr	r3, __arm_cp.6_1
	.loc	5 804 29 is_stmt 0      @ ../Drivers/STM32F7xx_HAL_Driver/Src/stm32f7xx_hal_flash_ex.c:804:29
	ldr	r2, [r1]
	.loc	5 804 35                @ ../Drivers/STM32F7xx_HAL_Driver/Src/stm32f7xx_hal_flash_ex.c:804:35
	ands	r2, r3
.Ltmp101:
	.loc	5 414 23 is_stmt 1      @ ../Drivers/STM32F7xx_HAL_Driver/Src/stm32f7xx_hal_flash_ex.c:414:23
	str	r2, [r0, #20]
.Ltmp102:
	.loc	5 1014 29               @ ../Drivers/STM32F7xx_HAL_Driver/Src/stm32f7xx_hal_flash_ex.c:1014:29
	ldr	r2, [r1]
	.loc	5 1014 35 is_stmt 0     @ ../Drivers/STM32F7xx_HAL_Driver/Src/stm32f7xx_hal_flash_ex.c:1014:35
	and	r2, r2, #12
.Ltmp103:
	.loc	5 417 21 is_stmt 1      @ ../Drivers/STM32F7xx_HAL_Driver/Src/stm32f7xx_hal_flash_ex.c:417:21
	str	r2, [r0, #16]
	ldr	r2, [r1, #4]
.Ltmp104:
	@DEBUG_VALUE: FLASH_OB_GetBootAddress:Address <- 0
	@DEBUG_VALUE: FLASH_OB_GetBootAddress:BootOption <- 16
	.loc	5 1041 29               @ ../Drivers/STM32F7xx_HAL_Driver/Src/stm32f7xx_hal_flash_ex.c:1041:29
	uxth	r2, r2
.Ltmp105:
	@DEBUG_VALUE: FLASH_OB_GetBootAddress:Address <- $r2
	.loc	5 420 22                @ ../Drivers/STM32F7xx_HAL_Driver/Src/stm32f7xx_hal_flash_ex.c:420:22
	str	r2, [r0, #24]
	ldr	r1, [r1, #4]
.Ltmp106:
	@DEBUG_VALUE: FLASH_OB_GetBootAddress:Address <- 0
	@DEBUG_VALUE: FLASH_OB_GetBootAddress:BootOption <- 32
	.loc	5 1045 55               @ ../Drivers/STM32F7xx_HAL_Driver/Src/stm32f7xx_hal_flash_ex.c:1045:55
	lsrs	r1, r1, #16
.Ltmp107:
	@DEBUG_VALUE: FLASH_OB_GetBootAddress:Address <- $r1
	.loc	5 423 22                @ ../Drivers/STM32F7xx_HAL_Driver/Src/stm32f7xx_hal_flash_ex.c:423:22
	str	r1, [r0, #28]
	.loc	5 432 1                 @ ../Drivers/STM32F7xx_HAL_Driver/Src/stm32f7xx_hal_flash_ex.c:432:1
	bx	lr
.Ltmp108:
	.p2align	2
@ %bb.4:
	.loc	5 0 1 is_stmt 0         @ ../Drivers/STM32F7xx_HAL_Driver/Src/stm32f7xx_hal_flash_ex.c:0:1
__arm_cp.6_0:
	.long	1073888276              @ 0x40023c14
.Lcpi_end11:
	.size	__arm_cp.6_0, .Lcpi_end11-__arm_cp.6_0
__arm_cp.6_1:
	.long	3221225712              @ 0xc00000f0
.Lcpi_end12:
	.size	__arm_cp.6_1, .Lcpi_end12-__arm_cp.6_1
.Lfunc_end6:
	.size	HAL_FLASHEx_OBGetConfig, .Lfunc_end6-HAL_FLASHEx_OBGetConfig
	.cfi_endproc
	.cantunwind
	.fnend
                                        @ -- End function
	.file	6 "../Drivers/STM32F7xx_HAL_Driver/Inc" "stm32f7xx_hal_flash_ex.h"
	.section	".note.GNU-stack","",%progbits
	.eabi_attribute	30, 4	@ Tag_ABI_optimization_goals
	.ARM_attribute	16, 1	@ Tag_AV_eba