	.text
	.syntax unified
	.eabi_attribute	67, "2.09"	@ Tag_conformance
	.cpu	cortex-m7
	.eabi_attribute	6, 13	@ Tag_CPU_arch
	.eabi_attribute	7, 77	@ Tag_CPU_arch_profile
	.eabi_attribute	8, 0	@ Tag_ARM_ISA_use
	.eabi_attribute	9, 2	@ Tag_THUMB_ISA_use
	.fpu	fpv5-sp-d16
	.eabi_attribute	27, 1	@ Tag_ABI_HardFP_use
	.eabi_attribute	36, 1	@ Tag_FP_HP_extension
	.eabi_attribute	34, 1	@ Tag_CPU_unaligned_access
	.eabi_attribute	17, 1	@ Tag_ABI_PCS_GOT_use
	.eabi_attribute	20, 2	@ Tag_ABI_FP_denormal
	.eabi_attribute	21, 0	@ Tag_ABI_FP_exceptions
	.eabi_attribute	23, 1	@ Tag_ABI_FP_number_model
	.eabi_attribute	24, 1	@ Tag_ABI_align_needed
	.eabi_attribute	25, 1	@ Tag_ABI_align_preserved
	.eabi_attribute	28, 1	@ Tag_ABI_VFP_args
	.eabi_attribute	38, 1	@ Tag_ABI_FP_16bit_format
	.eabi_attribute	18, 2	@ Tag_ABI_PCS_wchar_t
	.eabi_attribute	26, 1	@ Tag_ABI_enum_size
	.eabi_attribute	14, 0	@ Tag_ABI_PCS_R9_use
	.file	"stm32f7xx_hal_usart.c"
	.file	1 "../Drivers/STM32F7xx_HAL_Driver/Inc" "stm32f7xx_hal_def.h"
	.file	2 "../Drivers/STM32F7xx_HAL_Driver/Inc" "stm32f7xx_hal_dma.h"
	.file	3 "../Drivers/STM32F7xx_HAL_Driver/Inc" "stm32f7xx_hal_usart.h"
	.file	4 "../Drivers/CMSIS/Device/ST/STM32F7xx/Include" "stm32f7xx.h"
	.file	5 "C:\\Keil\\ARM\\ARMCLANG\\Bin\\..\\include" "stdint.h"
	.file	6 "../Drivers/CMSIS/Device/ST/STM32F7xx/Include" "stm32f746xx.h"
	.section	.text.HAL_USART_Init,"ax",%progbits
	.hidden	HAL_USART_Init          @ -- Begin function HAL_USART_Init
	.globl	HAL_USART_Init
	.p2align	2
	.type	HAL_USART_Init,%function
	.code	16                      @ @HAL_USART_Init
	.thumb_func
HAL_USART_Init:
.Lfunc_begin0:
	.file	7 "../Drivers/STM32F7xx_HAL_Driver/Src" "stm32f7xx_hal_usart.c"
	.loc	7 190 0                 @ ../Drivers/STM32F7xx_HAL_Driver/Src/stm32f7xx_hal_usart.c:190:0
	.fnstart
	.cfi_sections .debug_frame
	.cfi_startproc
@ %bb.0:
	.save	{r4, r5, r7, lr}
	push	{r4, r5, r7, lr}
	.cfi_def_cfa_offset 16
	.cfi_offset lr, -4
	.cfi_offset r7, -8
	.cfi_offset r5, -12
	.cfi_offset r4, -16
	@DEBUG_VALUE: HAL_USART_Init:husart <- $r0
.Ltmp0:
	@DEBUG_VALUE: USART_SetConfig:husart <- $r0
	@DEBUG_VALUE: USART_CheckIdleState:husart <- $r0
	mov	r4, r0
.Ltmp1:
	@DEBUG_VALUE: USART_CheckIdleState:husart <- $r4
	@DEBUG_VALUE: USART_SetConfig:husart <- $r4
	@DEBUG_VALUE: HAL_USART_Init:husart <- $r4
	.loc	7 192 6 prologue_end    @ ../Drivers/STM32F7xx_HAL_Driver/Src/stm32f7xx_hal_usart.c:192:6
	cmp	r0, #0
	beq	.LBB0_26
.Ltmp2:
@ %bb.1:
	@DEBUG_VALUE: HAL_USART_Init:husart <- $r4
	.loc	7 200 14                @ ../Drivers/STM32F7xx_HAL_Driver/Src/stm32f7xx_hal_usart.c:200:14
	ldrb.w	r0, [r4, #69]
.Ltmp3:
	.loc	7 200 6 is_stmt 0       @ ../Drivers/STM32F7xx_HAL_Driver/Src/stm32f7xx_hal_usart.c:200:6
	cbnz	r0, .LBB0_3
.Ltmp4:
@ %bb.2:
	@DEBUG_VALUE: HAL_USART_Init:husart <- $r4
	.loc	7 203 18 is_stmt 1      @ ../Drivers/STM32F7xx_HAL_Driver/Src/stm32f7xx_hal_usart.c:203:18
	movs	r0, #0
	strb.w	r0, [r4, #68]
	.loc	7 205 5                 @ ../Drivers/STM32F7xx_HAL_Driver/Src/stm32f7xx_hal_usart.c:205:5
	mov	r0, r4
	bl	HAL_USART_MspInit
.Ltmp5:
.LBB0_3:
	@DEBUG_VALUE: HAL_USART_Init:husart <- $r4
	.loc	7 208 17                @ ../Drivers/STM32F7xx_HAL_Driver/Src/stm32f7xx_hal_usart.c:208:17
	movs	r0, #2
.Ltmp6:
	.loc	7 1887 3                @ ../Drivers/STM32F7xx_HAL_Driver/Src/stm32f7xx_hal_usart.c:1887:3
	ldr	r5, __arm_cp.0_0
.Ltmp7:
	.loc	7 208 17                @ ../Drivers/STM32F7xx_HAL_Driver/Src/stm32f7xx_hal_usart.c:208:17
	strb.w	r0, [r4, #69]
	.loc	7 211 3                 @ ../Drivers/STM32F7xx_HAL_Driver/Src/stm32f7xx_hal_usart.c:211:3
	ldr	r0, [r4]
	ldr	r1, [r0]
	bic	r1, r1, #1
	str	r1, [r0]
.Ltmp8:
	@DEBUG_VALUE: USART_SetConfig:usartdiv <- 0
	@DEBUG_VALUE: USART_SetConfig:brrtemp <- 0
	@DEBUG_VALUE: USART_SetConfig:ret <- 0
	@DEBUG_VALUE: USART_SetConfig:clocksource <- 16
	@DEBUG_VALUE: USART_SetConfig:tmpreg <- 0
	.loc	7 1886 35               @ ../Drivers/STM32F7xx_HAL_Driver/Src/stm32f7xx_hal_usart.c:1886:35
	ldr.w	r12, [r4, #8]
	.loc	7 1886 61 is_stmt 0     @ ../Drivers/STM32F7xx_HAL_Driver/Src/stm32f7xx_hal_usart.c:1886:61
	ldrd	r2, r3, [r4, #16]
	.loc	7 1887 3 is_stmt 1      @ ../Drivers/STM32F7xx_HAL_Driver/Src/stm32f7xx_hal_usart.c:1887:3
	ldr	r1, [r0]
	.loc	7 1886 88               @ ../Drivers/STM32F7xx_HAL_Driver/Src/stm32f7xx_hal_usart.c:1886:88
	orr.w	r2, r2, r12
	.loc	7 1887 3                @ ../Drivers/STM32F7xx_HAL_Driver/Src/stm32f7xx_hal_usart.c:1887:3
	ands	r1, r5
	.loc	7 1896 37               @ ../Drivers/STM32F7xx_HAL_Driver/Src/stm32f7xx_hal_usart.c:1896:37
	add.w	r5, r4, #28
	.loc	7 1887 3                @ ../Drivers/STM32F7xx_HAL_Driver/Src/stm32f7xx_hal_usart.c:1887:3
	orrs	r2, r3
	orrs	r1, r2
	orr	r1, r1, #32768
	str	r1, [r0]
	.loc	7 1897 73               @ ../Drivers/STM32F7xx_HAL_Driver/Src/stm32f7xx_hal_usart.c:1897:73
	ldr	r1, [r4, #12]
.Ltmp9:
	@DEBUG_VALUE: USART_SetConfig:tmpreg <- 2048
	.loc	7 1896 37               @ ../Drivers/STM32F7xx_HAL_Driver/Src/stm32f7xx_hal_usart.c:1896:37
	ldm	r5, {r2, r3, r5}
	.loc	7 1897 10               @ ../Drivers/STM32F7xx_HAL_Driver/Src/stm32f7xx_hal_usart.c:1897:10
	orrs	r2, r3
	orrs	r2, r5
	.loc	7 1898 3                @ ../Drivers/STM32F7xx_HAL_Driver/Src/stm32f7xx_hal_usart.c:1898:3
	orrs	r1, r2
	ldr	r2, [r0, #4]
	bic	r2, r2, #16128
	orrs	r1, r2
	orr	r1, r1, #2048
	str	r1, [r0, #4]
.Ltmp10:
	.loc	7 1905 3                @ ../Drivers/STM32F7xx_HAL_Driver/Src/stm32f7xx_hal_usart.c:1905:3
	ldr	r1, __arm_cp.0_1
	cmp	r0, r1
	beq	.LBB0_8
.Ltmp11:
@ %bb.4:
	@DEBUG_VALUE: HAL_USART_Init:husart <- $r4
	.loc	7 0 3 is_stmt 0         @ ../Drivers/STM32F7xx_HAL_Driver/Src/stm32f7xx_hal_usart.c:0:3
	ldr	r1, __arm_cp.0_2
	.loc	7 1905 3                @ ../Drivers/STM32F7xx_HAL_Driver/Src/stm32f7xx_hal_usart.c:1905:3
	cmp	r0, r1
	beq	.LBB0_9
.Ltmp12:
@ %bb.5:
	@DEBUG_VALUE: HAL_USART_Init:husart <- $r4
	.loc	7 0 3                   @ ../Drivers/STM32F7xx_HAL_Driver/Src/stm32f7xx_hal_usart.c:0:3
	ldr	r1, __arm_cp.0_3
	.loc	7 1905 3                @ ../Drivers/STM32F7xx_HAL_Driver/Src/stm32f7xx_hal_usart.c:1905:3
	cmp	r0, r1
	beq	.LBB0_14
.Ltmp13:
@ %bb.6:
	@DEBUG_VALUE: HAL_USART_Init:husart <- $r4
	.loc	7 0 3                   @ ../Drivers/STM32F7xx_HAL_Driver/Src/stm32f7xx_hal_usart.c:0:3
	ldr	r1, __arm_cp.0_4
	.loc	7 1905 3                @ ../Drivers/STM32F7xx_HAL_Driver/Src/stm32f7xx_hal_usart.c:1905:3
	cmp	r0, r1
	bne	.LBB0_19
.Ltmp14:
@ %bb.7:
	@DEBUG_VALUE: HAL_USART_Init:husart <- $r4
	.loc	7 0 3                   @ ../Drivers/STM32F7xx_HAL_Driver/Src/stm32f7xx_hal_usart.c:0:3
	ldr	r0, __arm_cp.0_5
.Ltmp15:
	.loc	7 1905 3                @ ../Drivers/STM32F7xx_HAL_Driver/Src/stm32f7xx_hal_usart.c:1905:3
	ldr	r0, [r0]
	and	r0, r0, #3
	b	.LBB0_15
.Ltmp16:
.LBB0_8:
	@DEBUG_VALUE: HAL_USART_Init:husart <- $r4
	.loc	7 0 3                   @ ../Drivers/STM32F7xx_HAL_Driver/Src/stm32f7xx_hal_usart.c:0:3
	ldr	r0, __arm_cp.0_5
.Ltmp17:
	.loc	7 1905 3                @ ../Drivers/STM32F7xx_HAL_Driver/Src/stm32f7xx_hal_usart.c:1905:3
	ldr	r0, [r0]
	ubfx	r0, r0, #2, #2
	b	.LBB0_10
.Ltmp18:
.LBB0_9:
	@DEBUG_VALUE: HAL_USART_Init:husart <- $r4
	.loc	7 0 3                   @ ../Drivers/STM32F7xx_HAL_Driver/Src/stm32f7xx_hal_usart.c:0:3
	ldr	r0, __arm_cp.0_5
.Ltmp19:
	.loc	7 1905 3                @ ../Drivers/STM32F7xx_HAL_Driver/Src/stm32f7xx_hal_usart.c:1905:3
	ldr	r0, [r0]
	ubfx	r0, r0, #4, #2
.Ltmp20:
.LBB0_10:
	@DEBUG_VALUE: HAL_USART_Init:husart <- $r4
	.loc	7 1905 3                @ ../Drivers/STM32F7xx_HAL_Driver/Src/stm32f7xx_hal_usart.c:1905:3
	cmp	r0, #1
	beq	.LBB0_20
.Ltmp21:
@ %bb.11:
	@DEBUG_VALUE: HAL_USART_Init:husart <- $r4
	cmp	r0, #2
	beq	.LBB0_21
.Ltmp22:
@ %bb.12:
	@DEBUG_VALUE: HAL_USART_Init:husart <- $r4
	cmp	r0, #3
	beq	.LBB0_18
.Ltmp23:
@ %bb.13:
	@DEBUG_VALUE: HAL_USART_Init:husart <- $r4
	.loc	7 1909 33 is_stmt 1     @ ../Drivers/STM32F7xx_HAL_Driver/Src/stm32f7xx_hal_usart.c:1909:33
	bl	HAL_RCC_GetPCLK1Freq
	b	.LBB0_23
.Ltmp24:
.LBB0_14:
	@DEBUG_VALUE: HAL_USART_Init:husart <- $r4
	.loc	7 0 33 is_stmt 0        @ ../Drivers/STM32F7xx_HAL_Driver/Src/stm32f7xx_hal_usart.c:0:33
	ldr	r0, __arm_cp.0_5
.Ltmp25:
	.loc	7 1905 3 is_stmt 1      @ ../Drivers/STM32F7xx_HAL_Driver/Src/stm32f7xx_hal_usart.c:1905:3
	ldr	r0, [r0]
	ubfx	r0, r0, #10, #2
.Ltmp26:
.LBB0_15:
	@DEBUG_VALUE: HAL_USART_Init:husart <- $r4
	.loc	7 1905 3 is_stmt 0      @ ../Drivers/STM32F7xx_HAL_Driver/Src/stm32f7xx_hal_usart.c:1905:3
	cmp	r0, #1
	beq	.LBB0_20
.Ltmp27:
@ %bb.16:
	@DEBUG_VALUE: HAL_USART_Init:husart <- $r4
	cmp	r0, #2
	beq	.LBB0_21
.Ltmp28:
@ %bb.17:
	@DEBUG_VALUE: HAL_USART_Init:husart <- $r4
	cmp	r0, #3
	bne	.LBB0_22
.Ltmp29:
.LBB0_18:
	@DEBUG_VALUE: HAL_USART_Init:husart <- $r4
	.loc	7 0 3                   @ ../Drivers/STM32F7xx_HAL_Driver/Src/stm32f7xx_hal_usart.c:0:3
	mov.w	r0, #65536
	b	.LBB0_24
.Ltmp30:
.LBB0_19:
	@DEBUG_VALUE: HAL_USART_Init:husart <- $r4
	movs	r1, #0
	movs	r0, #1
	b	.LBB0_25
.Ltmp31:
.LBB0_20:
	@DEBUG_VALUE: HAL_USART_Init:husart <- $r4
	.loc	7 1918 33 is_stmt 1     @ ../Drivers/STM32F7xx_HAL_Driver/Src/stm32f7xx_hal_usart.c:1918:33
	bl	HAL_RCC_GetSysClockFreq
	b	.LBB0_23
.Ltmp32:
.LBB0_21:
	@DEBUG_VALUE: HAL_USART_Init:husart <- $r4
	.loc	7 0 33 is_stmt 0        @ ../Drivers/STM32F7xx_HAL_Driver/Src/stm32f7xx_hal_usart.c:0:33
	ldr	r0, __arm_cp.0_6
	b	.LBB0_24
.Ltmp33:
.LBB0_22:
	@DEBUG_VALUE: HAL_USART_Init:husart <- $r4
	.loc	7 1912 33 is_stmt 1     @ ../Drivers/STM32F7xx_HAL_Driver/Src/stm32f7xx_hal_usart.c:1912:33
	bl	HAL_RCC_GetPCLK2Freq
.Ltmp34:
.LBB0_23:
	@DEBUG_VALUE: HAL_USART_Init:husart <- $r4
	.loc	7 0 33 is_stmt 0        @ ../Drivers/STM32F7xx_HAL_Driver/Src/stm32f7xx_hal_usart.c:0:33
	lsls	r0, r0, #1
.Ltmp35:
.LBB0_24:
	@DEBUG_VALUE: HAL_USART_Init:husart <- $r4
	ldr	r1, [r4, #4]
	add.w	r0, r0, r1, lsr #1
	udiv	r1, r0, r1
	movs	r0, #0
.Ltmp36:
.LBB0_25:
	@DEBUG_VALUE: HAL_USART_Init:husart <- $r4
	.loc	7 1929 13 is_stmt 1     @ ../Drivers/STM32F7xx_HAL_Driver/Src/stm32f7xx_hal_usart.c:1929:13
	movw	r2, #65520
.Ltmp37:
	.loc	7 214 7                 @ ../Drivers/STM32F7xx_HAL_Driver/Src/stm32f7xx_hal_usart.c:214:7
	cmp	r0, #0
.Ltmp38:
	.loc	7 1929 13               @ ../Drivers/STM32F7xx_HAL_Driver/Src/stm32f7xx_hal_usart.c:1929:13
	and.w	r2, r2, r1
	.loc	7 1930 14               @ ../Drivers/STM32F7xx_HAL_Driver/Src/stm32f7xx_hal_usart.c:1930:14
	ubfx	r1, r1, #1, #3
	.loc	7 1930 11 is_stmt 0     @ ../Drivers/STM32F7xx_HAL_Driver/Src/stm32f7xx_hal_usart.c:1930:11
	orr.w	r2, r2, r1
	.loc	7 1931 11 is_stmt 1     @ ../Drivers/STM32F7xx_HAL_Driver/Src/stm32f7xx_hal_usart.c:1931:11
	ldr	r1, [r4]
	.loc	7 1931 25 is_stmt 0     @ ../Drivers/STM32F7xx_HAL_Driver/Src/stm32f7xx_hal_usart.c:1931:25
	str	r2, [r1, #12]
.Ltmp39:
	.loc	7 214 7 is_stmt 1       @ ../Drivers/STM32F7xx_HAL_Driver/Src/stm32f7xx_hal_usart.c:214:7
	beq	.LBB0_27
.Ltmp40:
.LBB0_26:
	@DEBUG_VALUE: HAL_USART_Init:husart <- $r4
	.loc	7 0 7 is_stmt 0         @ ../Drivers/STM32F7xx_HAL_Driver/Src/stm32f7xx_hal_usart.c:0:7
	movs	r0, #1
	b	.LBB0_31
.Ltmp41:
.LBB0_27:
	@DEBUG_VALUE: HAL_USART_Init:husart <- $r4
	.loc	7 222 3 is_stmt 1       @ ../Drivers/STM32F7xx_HAL_Driver/Src/stm32f7xx_hal_usart.c:222:3
	ldr	r0, [r1, #4]
	bic	r0, r0, #16384
	str	r0, [r1, #4]
	.loc	7 223 3                 @ ../Drivers/STM32F7xx_HAL_Driver/Src/stm32f7xx_hal_usart.c:223:3
	ldr	r0, [r1, #8]
	bic	r0, r0, #42
	str	r0, [r1, #8]
	.loc	7 226 3                 @ ../Drivers/STM32F7xx_HAL_Driver/Src/stm32f7xx_hal_usart.c:226:3
	ldr	r0, [r1]
	orr	r0, r0, #1
	str	r0, [r1]
	movs	r0, #0
.Ltmp42:
	@DEBUG_VALUE: USART_CheckIdleState:tickstart <- 0
	.loc	7 1946 21               @ ../Drivers/STM32F7xx_HAL_Driver/Src/stm32f7xx_hal_usart.c:1946:21
	str	r0, [r4, #72]
	.loc	7 1949 15               @ ../Drivers/STM32F7xx_HAL_Driver/Src/stm32f7xx_hal_usart.c:1949:15
	bl	HAL_GetTick
	mov	r2, r0
.Ltmp43:
	@DEBUG_VALUE: USART_CheckIdleState:tickstart <- $r2
	.loc	7 1952 15               @ ../Drivers/STM32F7xx_HAL_Driver/Src/stm32f7xx_hal_usart.c:1952:15
	ldr	r0, [r4]
	.loc	7 1952 25 is_stmt 0     @ ../Drivers/STM32F7xx_HAL_Driver/Src/stm32f7xx_hal_usart.c:1952:25
	ldr	r0, [r0]
.Ltmp44:
	.loc	7 1952 6                @ ../Drivers/STM32F7xx_HAL_Driver/Src/stm32f7xx_hal_usart.c:1952:6
	tst.w	r0, #8
	beq	.LBB0_30
.Ltmp45:
@ %bb.28:
	@DEBUG_VALUE: USART_CheckIdleState:tickstart <- $r2
	@DEBUG_VALUE: HAL_USART_Init:husart <- $r4
	.loc	7 1955 8 is_stmt 1      @ ../Drivers/STM32F7xx_HAL_Driver/Src/stm32f7xx_hal_usart.c:1955:8
	mov	r0, r4
	mov.w	r1, #2097152
	mov.w	r3, #1000
	bl	USART_WaitOnFlagUntilTimeout
.Ltmp46:
	.loc	7 1955 8 is_stmt 0      @ ../Drivers/STM32F7xx_HAL_Driver/Src/stm32f7xx_hal_usart.c:1955:8
	cbz	r0, .LBB0_30
.Ltmp47:
@ %bb.29:
	@DEBUG_VALUE: HAL_USART_Init:husart <- $r4
	.loc	7 0 8                   @ ../Drivers/STM32F7xx_HAL_Driver/Src/stm32f7xx_hal_usart.c:0:8
	movs	r0, #3
.Ltmp48:
	.loc	7 1957 20 is_stmt 1     @ ../Drivers/STM32F7xx_HAL_Driver/Src/stm32f7xx_hal_usart.c:1957:20
	strb.w	r0, [r4, #69]
	b	.LBB0_31
.Ltmp49:
.LBB0_30:
	@DEBUG_VALUE: HAL_USART_Init:husart <- $r4
	.loc	7 1966 3                @ ../Drivers/STM32F7xx_HAL_Driver/Src/stm32f7xx_hal_usart.c:1966:3
	mov.w	r0, #256
	strh.w	r0, [r4, #68]
	movs	r0, #0
.Ltmp50:
.LBB0_31:
	@DEBUG_VALUE: HAL_USART_Init:husart <- $r4
	.loc	7 230 1                 @ ../Drivers/STM32F7xx_HAL_Driver/Src/stm32f7xx_hal_usart.c:230:1
	uxtb	r0, r0
	pop	{r4, r5, r7, pc}
.Ltmp51:
	.p2align	2
@ %bb.32:
	.loc	7 0 1 is_stmt 0         @ ../Drivers/STM32F7xx_HAL_Driver/Src/stm32f7xx_hal_usart.c:0:1
__arm_cp.0_0:
	.long	4026493427              @ 0xefff69f3
.Lcpi_end0:
	.size	__arm_cp.0_0, .Lcpi_end0-__arm_cp.0_0
__arm_cp.0_1:
	.long	1073759232              @ 0x40004400
.Lcpi_end1:
	.size	__arm_cp.0_1, .Lcpi_end1-__arm_cp.0_1
__arm_cp.0_2:
	.long	1073760256              @ 0x40004800
.Lcpi_end2:
	.size	__arm_cp.0_2, .Lcpi_end2-__arm_cp.0_2
__arm_cp.0_3:
	.long	1073812480              @ 0x40011400
.Lcpi_end3:
	.size	__arm_cp.0_3, .Lcpi_end3-__arm_cp.0_3
__arm_cp.0_4:
	.long	1073811456              @ 0x40011000
.Lcpi_end4:
	.size	__arm_cp.0_4, .Lcpi_end4-__arm_cp.0_4
__arm_cp.0_5:
	.long	1073887376              @ 0x40023890
.Lcpi_end5:
	.size	__arm_cp.0_5, .Lcpi_end5-__arm_cp.0_5
__arm_cp.0_6:
	.long	32000000                @ 0x1e84800
.Lcpi_end6:
	.size	__arm_cp.0_6, .Lcpi_end6-__arm_cp.0_6
.Lfunc_end0:
	.size	HAL_USART_Init, .Lfunc_end0-HAL_USART_Init
	.cfi_endproc
	.cantunwind
	.fnend
                                        @ -- End function
	.section	.text.HAL_USART_MspInit,"ax",%progbits
	.hidden	HAL_USART_MspInit       @ -- Begin function HAL_USART_MspInit
	.weak	HAL_USART_MspInit
	.p2align	1
	.type	HAL_USART_MspInit,%function
	.code	16                      @ @HAL_USART_MspInit
	.thumb_func
HAL_USART_MspInit:
.Lfunc_begin1:
	.loc	7 272 0 is_stmt 1       @ ../Drivers/STM32F7xx_HAL_Driver/Src/stm32f7xx_hal_usart.c:272:0
	.fnstart
	.cfi_startproc
@ %bb.0:
	@DEBUG_VALUE: HAL_USART_MspInit:husart <- $r0
	.loc	7 279 1 prologue_end    @ ../Drivers/STM32F7xx_HAL_Driver/Src/stm32f7xx_hal_usart.c:279:1
	bx	lr
.Ltmp52:
.Lfunc_end1:
	.size	HAL_USART_MspInit, .Lfunc_end1-HAL_USART_MspInit
	.cfi_endproc
	.cantunwind
	.fnend
                                        @ -- End function
	.section	.text.HAL_USART_DeInit,"ax",%progbits
	.hidden	HAL_USART_DeInit        @ -- Begin function HAL_USART_DeInit
	.globl	HAL_USART_DeInit
	.p2align	1
	.type	HAL_USART_DeInit,%function
	.code	16                      @ @HAL_USART_DeInit
	.thumb_func
HAL_USART_DeInit:
.Lfunc_begin2:
	.loc	7 238 0                 @ ../Drivers/STM32F7xx_HAL_Driver/Src/stm32f7xx_hal_usart.c:238:0
	.fnstart
	.cfi_startproc
@ %bb.0:
	.save	{r4, r5, r7, lr}
	push	{r4, r5, r7, lr}
	.cfi_def_cfa_offset 16
	.cfi_offset lr, -4
	.cfi_offset r7, -8
	.cfi_offset r5, -12
	.cfi_offset r4, -16
	@DEBUG_VALUE: HAL_USART_DeInit:husart <- $r0
	mov	r5, r0
.Ltmp53:
	@DEBUG_VALUE: HAL_USART_DeInit:husart <- $r5
	.loc	7 240 6 prologue_end    @ ../Drivers/STM32F7xx_HAL_Driver/Src/stm32f7xx_hal_usart.c:240:6
	cbz	r0, .LBB2_2
.Ltmp54:
@ %bb.1:
	@DEBUG_VALUE: HAL_USART_DeInit:husart <- $r5
	.loc	7 248 17                @ ../Drivers/STM32F7xx_HAL_Driver/Src/stm32f7xx_hal_usart.c:248:17
	movs	r0, #2
	movs	r4, #0
	strb.w	r0, [r5, #69]
	.loc	7 250 11                @ ../Drivers/STM32F7xx_HAL_Driver/Src/stm32f7xx_hal_usart.c:250:11
	ldr	r0, [r5]
	.loc	7 250 25 is_stmt 0      @ ../Drivers/STM32F7xx_HAL_Driver/Src/stm32f7xx_hal_usart.c:250:25
	str	r4, [r0]
	.loc	7 251 25 is_stmt 1      @ ../Drivers/STM32F7xx_HAL_Driver/Src/stm32f7xx_hal_usart.c:251:25
	str	r4, [r0, #4]
	.loc	7 252 25                @ ../Drivers/STM32F7xx_HAL_Driver/Src/stm32f7xx_hal_usart.c:252:25
	str	r4, [r0, #8]
	.loc	7 255 3                 @ ../Drivers/STM32F7xx_HAL_Driver/Src/stm32f7xx_hal_usart.c:255:3
	mov	r0, r5
	bl	HAL_USART_MspDeInit
	.loc	7 257 21                @ ../Drivers/STM32F7xx_HAL_Driver/Src/stm32f7xx_hal_usart.c:257:21
	str	r4, [r5, #72]
.Ltmp55:
	.loc	7 261 3                 @ ../Drivers/STM32F7xx_HAL_Driver/Src/stm32f7xx_hal_usart.c:261:3
	strh.w	r4, [r5, #68]
	b	.LBB2_3
.Ltmp56:
.LBB2_2:
	@DEBUG_VALUE: HAL_USART_DeInit:husart <- $r5
	.loc	7 0 3 is_stmt 0         @ ../Drivers/STM32F7xx_HAL_Driver/Src/stm32f7xx_hal_usart.c:0:3
	movs	r4, #1
.Ltmp57:
.LBB2_3:
	@DEBUG_VALUE: HAL_USART_DeInit:husart <- $r5
	.loc	7 264 1 is_stmt 1       @ ../Drivers/STM32F7xx_HAL_Driver/Src/stm32f7xx_hal_usart.c:264:1
	mov	r0, r4
	pop	{r4, r5, r7, pc}
.Ltmp58:
.Lfunc_end2:
	.size	HAL_USART_DeInit, .Lfunc_end2-HAL_USART_DeInit
	.cfi_endproc
	.cantunwind
	.fnend
                                        @ -- End function
	.section	.text.HAL_USART_MspDeInit,"ax",%progbits
	.hidden	HAL_USART_MspDeInit     @ -- Begin function HAL_USART_MspDeInit
	.weak	HAL_USART_MspDeInit
	.p2align	1
	.type	HAL_USART_MspDeInit,%function
	.code	16                      @ @HAL_USART_MspDeInit
	.thumb_func
HAL_USART_MspDeInit:
.Lfunc_begin3:
	.loc	7 287 0                 @ ../Drivers/STM32F7xx_HAL_Driver/Src/stm32f7xx_hal_usart.c:287:0
	.fnstart
	.cfi_startproc
@ %bb.0:
	@DEBUG_VALUE: HAL_USART_MspDeInit:husart <- $r0
	.loc	7 294 1 prologue_end    @ ../Drivers/STM32F7xx_HAL_Driver/Src/stm32f7xx_hal_usart.c:294:1
	bx	lr
.Ltmp59:
.Lfunc_end3:
	.size	HAL_USART_MspDeInit, .Lfunc_end3-HAL_USART_MspDeInit
	.cfi_endproc
	.cantunwind
	.fnend
                                        @ -- End function
	.section	.text.HAL_USART_Transmit,"ax",%progbits
	.hidden	HAL_USART_Transmit      @ -- Begin function HAL_USART_Transmit
	.globl	HAL_USART_Transmit
	.p2align	1
	.type	HAL_USART_Transmit,%function
	.code	16                      @ @HAL_USART_Transmit
	.thumb_func
HAL_USART_Transmit:
.Lfunc_begin4:
	.loc	7 366 0                 @ ../Drivers/STM32F7xx_HAL_Driver/Src/stm32f7xx_hal_usart.c:366:0
	.fnstart
	.cfi_startproc
@ %bb.0:
	.save	{r4, r5, r6, r7, r8, lr}
	push.w	{r4, r5, r6, r7, r8, lr}
	.cfi_def_cfa_offset 24
	.cfi_offset lr, -4
	.cfi_offset r8, -8
	.cfi_offset r7, -12
	.cfi_offset r6, -16
	.cfi_offset r5, -20
	.cfi_offset r4, -24
	@DEBUG_VALUE: HAL_USART_Transmit:husart <- $r0
	@DEBUG_VALUE: HAL_USART_Transmit:pTxData <- $r1
	@DEBUG_VALUE: HAL_USART_Transmit:Size <- $r2
	@DEBUG_VALUE: HAL_USART_Transmit:Timeout <- $r3
	mov	r4, r0
.Ltmp60:
	@DEBUG_VALUE: HAL_USART_Transmit:tickstart <- 0
	@DEBUG_VALUE: HAL_USART_Transmit:Timeout <- $r5
	@DEBUG_VALUE: HAL_USART_Transmit:Size <- $r7
	@DEBUG_VALUE: HAL_USART_Transmit:pTxData <- $r6
	@DEBUG_VALUE: HAL_USART_Transmit:husart <- $r4
	.loc	7 370 14 prologue_end   @ ../Drivers/STM32F7xx_HAL_Driver/Src/stm32f7xx_hal_usart.c:370:14
	ldrb.w	r0, [r0, #69]
	mov	r5, r3
.Ltmp61:
	.loc	7 0 14 is_stmt 0        @ ../Drivers/STM32F7xx_HAL_Driver/Src/stm32f7xx_hal_usart.c:0:14
	mov	r7, r2
.Ltmp62:
	mov	r6, r1
.Ltmp63:
	.loc	7 370 6                 @ ../Drivers/STM32F7xx_HAL_Driver/Src/stm32f7xx_hal_usart.c:370:6
	cmp	r0, #1
	bne	.LBB4_4
.Ltmp64:
@ %bb.1:
	@DEBUG_VALUE: HAL_USART_Transmit:husart <- $r4
	.loc	7 0 6                   @ ../Drivers/STM32F7xx_HAL_Driver/Src/stm32f7xx_hal_usart.c:0:6
	movs	r0, #1
.Ltmp65:
	.loc	7 372 26 is_stmt 1      @ ../Drivers/STM32F7xx_HAL_Driver/Src/stm32f7xx_hal_usart.c:372:26
	cbz	r6, .LBB4_5
.Ltmp66:
@ %bb.2:
	@DEBUG_VALUE: HAL_USART_Transmit:husart <- $r4
	cbz	r7, .LBB4_5
.Ltmp67:
@ %bb.3:
	@DEBUG_VALUE: HAL_USART_Transmit:husart <- $r4
	.loc	7 378 5                 @ ../Drivers/STM32F7xx_HAL_Driver/Src/stm32f7xx_hal_usart.c:378:5
	ldrb.w	r0, [r4, #68]
.Ltmp68:
	.loc	7 378 5 is_stmt 0       @ ../Drivers/STM32F7xx_HAL_Driver/Src/stm32f7xx_hal_usart.c:378:5
	cmp	r0, #1
	bne	.LBB4_6
.Ltmp69:
.LBB4_4:
	@DEBUG_VALUE: HAL_USART_Transmit:husart <- $r4
	.loc	7 0 5                   @ ../Drivers/STM32F7xx_HAL_Driver/Src/stm32f7xx_hal_usart.c:0:5
	movs	r0, #2
.Ltmp70:
.LBB4_5:
	@DEBUG_VALUE: HAL_USART_Transmit:husart <- $r4
	.loc	7 425 1 is_stmt 1       @ ../Drivers/STM32F7xx_HAL_Driver/Src/stm32f7xx_hal_usart.c:425:1
	uxtb	r0, r0
	pop.w	{r4, r5, r6, r7, r8, pc}
.Ltmp71:
.LBB4_6:
	@DEBUG_VALUE: HAL_USART_Transmit:husart <- $r4
	@DEBUG_VALUE: HAL_USART_Transmit:Size <- $r7
	.loc	7 0 1 is_stmt 0         @ ../Drivers/STM32F7xx_HAL_Driver/Src/stm32f7xx_hal_usart.c:0:1
	movs	r0, #0
.Ltmp72:
	.loc	7 380 23 is_stmt 1      @ ../Drivers/STM32F7xx_HAL_Driver/Src/stm32f7xx_hal_usart.c:380:23
	str	r0, [r4, #72]
.Ltmp73:
	.loc	7 378 5                 @ ../Drivers/STM32F7xx_HAL_Driver/Src/stm32f7xx_hal_usart.c:378:5
	movw	r0, #4609
	strh.w	r0, [r4, #68]
.Ltmp74:
	.loc	7 384 17                @ ../Drivers/STM32F7xx_HAL_Driver/Src/stm32f7xx_hal_usart.c:384:17
	bl	HAL_GetTick
	mov	r8, r0
.Ltmp75:
	@DEBUG_VALUE: HAL_USART_Transmit:tickstart <- $r8
	.loc	7 386 24                @ ../Drivers/STM32F7xx_HAL_Driver/Src/stm32f7xx_hal_usart.c:386:24
	strh	r7, [r4, #44]
	.loc	7 387 25                @ ../Drivers/STM32F7xx_HAL_Driver/Src/stm32f7xx_hal_usart.c:387:25
	strh	r7, [r4, #46]
	b	.LBB4_11
.Ltmp76:
.LBB4_7:                                @   in Loop: Header=BB4_11 Depth=1
	@DEBUG_VALUE: HAL_USART_Transmit:tickstart <- $r8
	@DEBUG_VALUE: HAL_USART_Transmit:husart <- $r4
	@DEBUG_VALUE: HAL_USART_Transmit:Size <- $r7
	.loc	7 392 26                @ ../Drivers/STM32F7xx_HAL_Driver/Src/stm32f7xx_hal_usart.c:392:26
	ldrh	r0, [r4, #46]
.Ltmp77:
	.loc	7 393 10                @ ../Drivers/STM32F7xx_HAL_Driver/Src/stm32f7xx_hal_usart.c:393:10
	movs	r1, #64
	mov	r2, r8
	mov	r3, r5
.Ltmp78:
	.loc	7 392 26                @ ../Drivers/STM32F7xx_HAL_Driver/Src/stm32f7xx_hal_usart.c:392:26
	subs	r0, #1
	strh	r0, [r4, #46]
.Ltmp79:
	.loc	7 393 10                @ ../Drivers/STM32F7xx_HAL_Driver/Src/stm32f7xx_hal_usart.c:393:10
	mov	r0, r4
	bl	USART_WaitOnFlagUntilTimeout
.Ltmp80:
	.loc	7 393 10 is_stmt 0      @ ../Drivers/STM32F7xx_HAL_Driver/Src/stm32f7xx_hal_usart.c:393:10
	cbnz	r0, .LBB4_13
.Ltmp81:
@ %bb.8:                                @   in Loop: Header=BB4_11 Depth=1
	@DEBUG_VALUE: HAL_USART_Transmit:tickstart <- $r8
	@DEBUG_VALUE: HAL_USART_Transmit:husart <- $r4
	@DEBUG_VALUE: HAL_USART_Transmit:Size <- $r7
	.loc	7 397 24 is_stmt 1      @ ../Drivers/STM32F7xx_HAL_Driver/Src/stm32f7xx_hal_usart.c:397:24
	ldr	r0, [r4, #8]
	.loc	7 397 59 is_stmt 0      @ ../Drivers/STM32F7xx_HAL_Driver/Src/stm32f7xx_hal_usart.c:397:59
	cmp.w	r0, #4096
	.loc	7 397 76                @ ../Drivers/STM32F7xx_HAL_Driver/Src/stm32f7xx_hal_usart.c:397:76
	itt	eq
	ldreq	r0, [r4, #16]
.Ltmp82:
	.loc	7 397 10                @ ../Drivers/STM32F7xx_HAL_Driver/Src/stm32f7xx_hal_usart.c:397:10
	cmpeq	r0, #0
	beq	.LBB4_10
.Ltmp83:
@ %bb.9:                                @   in Loop: Header=BB4_11 Depth=1
	@DEBUG_VALUE: HAL_USART_Transmit:tickstart <- $r8
	@DEBUG_VALUE: HAL_USART_Transmit:husart <- $r4
	@DEBUG_VALUE: HAL_USART_Transmit:Size <- $r7
	@DEBUG_VALUE: HAL_USART_Transmit:pTxData <- $r6
	.loc	7 405 17 is_stmt 1      @ ../Drivers/STM32F7xx_HAL_Driver/Src/stm32f7xx_hal_usart.c:405:17
	ldr	r0, [r4]
	.loc	7 405 34 is_stmt 0      @ ../Drivers/STM32F7xx_HAL_Driver/Src/stm32f7xx_hal_usart.c:405:34
	ldrb	r1, [r6], #1
.Ltmp84:
	.loc	7 405 31                @ ../Drivers/STM32F7xx_HAL_Driver/Src/stm32f7xx_hal_usart.c:405:31
	str	r1, [r0, #40]
	b	.LBB4_11
.Ltmp85:
.LBB4_10:                               @   in Loop: Header=BB4_11 Depth=1
	@DEBUG_VALUE: HAL_USART_Transmit:tickstart <- $r8
	@DEBUG_VALUE: HAL_USART_Transmit:husart <- $r4
	@DEBUG_VALUE: HAL_USART_Transmit:Size <- $r7
	.loc	7 400 34 is_stmt 1      @ ../Drivers/STM32F7xx_HAL_Driver/Src/stm32f7xx_hal_usart.c:400:34
	ldrh	r1, [r6], #2
	.loc	7 400 17 is_stmt 0      @ ../Drivers/STM32F7xx_HAL_Driver/Src/stm32f7xx_hal_usart.c:400:17
	ldr	r0, [r4]
.Ltmp86:
	@DEBUG_VALUE: HAL_USART_Transmit:tmp <- $r6
	.loc	7 400 39                @ ../Drivers/STM32F7xx_HAL_Driver/Src/stm32f7xx_hal_usart.c:400:39
	bfc	r1, #9, #23
.Ltmp87:
	@DEBUG_VALUE: HAL_USART_Transmit:pTxData <- $r6
	.loc	7 400 31                @ ../Drivers/STM32F7xx_HAL_Driver/Src/stm32f7xx_hal_usart.c:400:31
	str	r1, [r0, #40]
.Ltmp88:
.LBB4_11:                               @ =>This Inner Loop Header: Depth=1
	@DEBUG_VALUE: HAL_USART_Transmit:tickstart <- $r8
	@DEBUG_VALUE: HAL_USART_Transmit:husart <- $r4
	@DEBUG_VALUE: HAL_USART_Transmit:Size <- $r7
	.loc	7 390 19 is_stmt 1      @ ../Drivers/STM32F7xx_HAL_Driver/Src/stm32f7xx_hal_usart.c:390:19
	ldrh	r0, [r4, #46]
	.loc	7 390 5 is_stmt 0       @ ../Drivers/STM32F7xx_HAL_Driver/Src/stm32f7xx_hal_usart.c:390:5
	cmp	r0, #0
	bne	.LBB4_7
.Ltmp89:
@ %bb.12:
	@DEBUG_VALUE: HAL_USART_Transmit:tickstart <- $r8
	@DEBUG_VALUE: HAL_USART_Transmit:husart <- $r4
	@DEBUG_VALUE: HAL_USART_Transmit:Size <- $r7
	.loc	7 409 8 is_stmt 1       @ ../Drivers/STM32F7xx_HAL_Driver/Src/stm32f7xx_hal_usart.c:409:8
	mov	r0, r4
	movs	r1, #64
	mov	r2, r8
	mov	r3, r5
	bl	USART_WaitOnFlagUntilTimeout
.Ltmp90:
	.loc	7 409 8 is_stmt 0       @ ../Drivers/STM32F7xx_HAL_Driver/Src/stm32f7xx_hal_usart.c:409:8
	cbz	r0, .LBB4_14
.Ltmp91:
.LBB4_13:
	@DEBUG_VALUE: HAL_USART_Transmit:tickstart <- $r8
	@DEBUG_VALUE: HAL_USART_Transmit:husart <- $r4
	@DEBUG_VALUE: HAL_USART_Transmit:Size <- $r7
	.loc	7 0 8                   @ ../Drivers/STM32F7xx_HAL_Driver/Src/stm32f7xx_hal_usart.c:0:8
	movs	r0, #3
	b	.LBB4_5
.Ltmp92:
.LBB4_14:
	@DEBUG_VALUE: HAL_USART_Transmit:tickstart <- $r8
	@DEBUG_VALUE: HAL_USART_Transmit:husart <- $r4
	@DEBUG_VALUE: HAL_USART_Transmit:Size <- $r7
	.loc	7 417 5 is_stmt 1       @ ../Drivers/STM32F7xx_HAL_Driver/Src/stm32f7xx_hal_usart.c:417:5
	mov.w	r0, #256
	strh.w	r0, [r4, #68]
	movs	r0, #0
	b	.LBB4_5
.Ltmp93:
.Lfunc_end4:
	.size	HAL_USART_Transmit, .Lfunc_end4-HAL_USART_Transmit
	.cfi_endproc
	.cantunwind
	.fnend
                                        @ -- End function
	.section	.text.USART_WaitOnFlagUntilTimeout,"ax",%progbits
	.p2align	1               @ -- Begin function USART_WaitOnFlagUntilTimeout
	.type	USART_WaitOnFlagUntilTimeout,%function
	.code	16                      @ @USART_WaitOnFlagUntilTimeout
	.thumb_func
USART_WaitOnFlagUntilTimeout:
.Lfunc_begin5:
	.loc	7 1634 0                @ ../Drivers/STM32F7xx_HAL_Driver/Src/stm32f7xx_hal_usart.c:1634:0
	.fnstart
	.cfi_startproc
@ %bb.0:
	.save	{r4, r5, r6, r7, r8, lr}
	push.w	{r4, r5, r6, r7, r8, lr}
	.cfi_def_cfa_offset 24
	.cfi_offset lr, -4
	.cfi_offset r8, -8
	.cfi_offset r7, -12
	.cfi_offset r6, -16
	.cfi_offset r5, -20
	.cfi_offset r4, -24
	@DEBUG_VALUE: USART_WaitOnFlagUntilTimeout:husart <- $r0
	@DEBUG_VALUE: USART_WaitOnFlagUntilTimeout:Flag <- $r1
	@DEBUG_VALUE: USART_WaitOnFlagUntilTimeout:Tickstart <- $r2
	@DEBUG_VALUE: USART_WaitOnFlagUntilTimeout:Timeout <- $r3
	mov	r5, r3
.Ltmp94:
	@DEBUG_VALUE: USART_WaitOnFlagUntilTimeout:Timeout <- $r5
	mov	r8, r2
.Ltmp95:
	@DEBUG_VALUE: USART_WaitOnFlagUntilTimeout:Tickstart <- $r8
	mov	r7, r1
.Ltmp96:
	@DEBUG_VALUE: USART_WaitOnFlagUntilTimeout:Flag <- $r7
	mov	r4, r0
	@DEBUG_VALUE: USART_WaitOnFlagUntilTimeout:Status <- 0
.Ltmp97:
	@DEBUG_VALUE: USART_WaitOnFlagUntilTimeout:husart <- $r4
	adds	r6, r3, #1
.Ltmp98:
.LBB5_1:                                @ =>This Inner Loop Header: Depth=1
	@DEBUG_VALUE: USART_WaitOnFlagUntilTimeout:husart <- $r4
	@DEBUG_VALUE: USART_WaitOnFlagUntilTimeout:Flag <- $r7
	@DEBUG_VALUE: USART_WaitOnFlagUntilTimeout:Tickstart <- $r8
	@DEBUG_VALUE: USART_WaitOnFlagUntilTimeout:Timeout <- $r5
	.loc	7 1636 10 prologue_end  @ ../Drivers/STM32F7xx_HAL_Driver/Src/stm32f7xx_hal_usart.c:1636:10
	ldr	r0, [r4]
	ldr	r1, [r0, #28]
	ands	r1, r7
	.loc	7 1636 3 is_stmt 0      @ ../Drivers/STM32F7xx_HAL_Driver/Src/stm32f7xx_hal_usart.c:1636:3
	cmp	r1, r7
	beq	.LBB5_7
.Ltmp99:
@ %bb.2:                                @   in Loop: Header=BB5_1 Depth=1
	@DEBUG_VALUE: USART_WaitOnFlagUntilTimeout:husart <- $r4
	@DEBUG_VALUE: USART_WaitOnFlagUntilTimeout:Flag <- $r7
	@DEBUG_VALUE: USART_WaitOnFlagUntilTimeout:Tickstart <- $r8
	@DEBUG_VALUE: USART_WaitOnFlagUntilTimeout:Timeout <- $r5
	.loc	7 1639 8 is_stmt 1      @ ../Drivers/STM32F7xx_HAL_Driver/Src/stm32f7xx_hal_usart.c:1639:8
	cmp	r6, #0
	beq	.LBB5_1
.Ltmp100:
@ %bb.3:                                @   in Loop: Header=BB5_1 Depth=1
	@DEBUG_VALUE: USART_WaitOnFlagUntilTimeout:husart <- $r4
	@DEBUG_VALUE: USART_WaitOnFlagUntilTimeout:Flag <- $r7
	@DEBUG_VALUE: USART_WaitOnFlagUntilTimeout:Tickstart <- $r8
	@DEBUG_VALUE: USART_WaitOnFlagUntilTimeout:Timeout <- $r5
	cbz	r5, .LBB5_6
.Ltmp101:
@ %bb.4:                                @   in Loop: Header=BB5_1 Depth=1
	@DEBUG_VALUE: USART_WaitOnFlagUntilTimeout:husart <- $r4
	@DEBUG_VALUE: USART_WaitOnFlagUntilTimeout:Flag <- $r7
	@DEBUG_VALUE: USART_WaitOnFlagUntilTimeout:Tickstart <- $r8
	@DEBUG_VALUE: USART_WaitOnFlagUntilTimeout:Timeout <- $r5
	.loc	7 1641 29               @ ../Drivers/STM32F7xx_HAL_Driver/Src/stm32f7xx_hal_usart.c:1641:29
	bl	HAL_GetTick
	.loc	7 1641 42 is_stmt 0     @ ../Drivers/STM32F7xx_HAL_Driver/Src/stm32f7xx_hal_usart.c:1641:42
	sub.w	r0, r0, r8
.Ltmp102:
	.loc	7 1641 10               @ ../Drivers/STM32F7xx_HAL_Driver/Src/stm32f7xx_hal_usart.c:1641:10
	cmp	r0, r5
	blo	.LBB5_1
.Ltmp103:
@ %bb.5:
	@DEBUG_VALUE: USART_WaitOnFlagUntilTimeout:husart <- $r4
	@DEBUG_VALUE: USART_WaitOnFlagUntilTimeout:Flag <- $r7
	@DEBUG_VALUE: USART_WaitOnFlagUntilTimeout:Tickstart <- $r8
	@DEBUG_VALUE: USART_WaitOnFlagUntilTimeout:Timeout <- $r5
	.loc	7 1644 9 is_stmt 1      @ ../Drivers/STM32F7xx_HAL_Driver/Src/stm32f7xx_hal_usart.c:1644:9
	ldr	r0, [r4]
.Ltmp104:
.LBB5_6:
	@DEBUG_VALUE: USART_WaitOnFlagUntilTimeout:husart <- $r4
	@DEBUG_VALUE: USART_WaitOnFlagUntilTimeout:Flag <- $r7
	@DEBUG_VALUE: USART_WaitOnFlagUntilTimeout:Tickstart <- $r8
	@DEBUG_VALUE: USART_WaitOnFlagUntilTimeout:Timeout <- $r5
	ldr	r1, [r0]
	bic	r1, r1, #128
	str	r1, [r0]
	.loc	7 1647 9                @ ../Drivers/STM32F7xx_HAL_Driver/Src/stm32f7xx_hal_usart.c:1647:9
	ldr	r1, [r0]
	bic	r1, r1, #32
	str	r1, [r0]
	.loc	7 1650 9                @ ../Drivers/STM32F7xx_HAL_Driver/Src/stm32f7xx_hal_usart.c:1650:9
	ldr	r1, [r0]
	bic	r1, r1, #256
	str	r1, [r0]
	.loc	7 1653 9                @ ../Drivers/STM32F7xx_HAL_Driver/Src/stm32f7xx_hal_usart.c:1653:9
	ldr	r1, [r0, #8]
	bic	r1, r1, #1
	str	r1, [r0, #8]
.Ltmp105:
	.loc	7 1658 9                @ ../Drivers/STM32F7xx_HAL_Driver/Src/stm32f7xx_hal_usart.c:1658:9
	mov.w	r0, #256
	strh.w	r0, [r4, #68]
	movs	r0, #3
	b	.LBB5_8
.Ltmp106:
.LBB5_7:
	@DEBUG_VALUE: USART_WaitOnFlagUntilTimeout:husart <- $r4
	@DEBUG_VALUE: USART_WaitOnFlagUntilTimeout:Flag <- $r7
	@DEBUG_VALUE: USART_WaitOnFlagUntilTimeout:Tickstart <- $r8
	@DEBUG_VALUE: USART_WaitOnFlagUntilTimeout:Timeout <- $r5
	.loc	7 0 9 is_stmt 0         @ ../Drivers/STM32F7xx_HAL_Driver/Src/stm32f7xx_hal_usart.c:0:9
	movs	r0, #0
.Ltmp107:
.LBB5_8:
	@DEBUG_VALUE: USART_WaitOnFlagUntilTimeout:husart <- $r4
	@DEBUG_VALUE: USART_WaitOnFlagUntilTimeout:Flag <- $r7
	@DEBUG_VALUE: USART_WaitOnFlagUntilTimeout:Tickstart <- $r8
	@DEBUG_VALUE: USART_WaitOnFlagUntilTimeout:Timeout <- $r5
	.loc	7 1665 1 is_stmt 1      @ ../Drivers/STM32F7xx_HAL_Driver/Src/stm32f7xx_hal_usart.c:1665:1
	uxtb	r0, r0
	pop.w	{r4, r5, r6, r7, r8, pc}
.Ltmp108:
.Lfunc_end5:
	.size	USART_WaitOnFlagUntilTimeout, .Lfunc_end5-USART_WaitOnFlagUntilTimeout
	.cfi_endproc
	.cantunwind
	.fnend
                                        @ -- End function
	.section	.text.HAL_USART_Receive,"ax",%progbits
	.hidden	HAL_USART_Receive       @ -- Begin function HAL_USART_Receive
	.globl	HAL_USART_Receive
	.p2align	1
	.type	HAL_USART_Receive,%function
	.code	16                      @ @HAL_USART_Receive
	.thumb_func
HAL_USART_Receive:
.Lfunc_begin6:
	.loc	7 437 0                 @ ../Drivers/STM32F7xx_HAL_Driver/Src/stm32f7xx_hal_usart.c:437:0
	.fnstart
	.cfi_startproc
@ %bb.0:
	.save	{r4, r5, r6, r7, r8, r9, r10, lr}
	push.w	{r4, r5, r6, r7, r8, r9, r10, lr}
	.cfi_def_cfa_offset 32
	.cfi_offset lr, -4
	.cfi_offset r10, -8
	.cfi_offset r9, -12
	.cfi_offset r8, -16
	.cfi_offset r7, -20
	.cfi_offset r6, -24
	.cfi_offset r5, -28
	.cfi_offset r4, -32
	@DEBUG_VALUE: HAL_USART_Receive:husart <- $r0
	@DEBUG_VALUE: HAL_USART_Receive:pRxData <- $r1
	@DEBUG_VALUE: HAL_USART_Receive:Size <- $r2
	@DEBUG_VALUE: HAL_USART_Receive:Timeout <- $r3
	mov	r5, r0
.Ltmp109:
	@DEBUG_VALUE: HAL_USART_Receive:tickstart <- 0
	@DEBUG_VALUE: HAL_USART_Receive:Timeout <- $r4
	@DEBUG_VALUE: HAL_USART_Receive:Size <- $r7
	@DEBUG_VALUE: HAL_USART_Receive:pRxData <- $r6
	@DEBUG_VALUE: HAL_USART_Receive:husart <- $r5
	.loc	7 442 14 prologue_end   @ ../Drivers/STM32F7xx_HAL_Driver/Src/stm32f7xx_hal_usart.c:442:14
	ldrb.w	r0, [r0, #69]
	mov	r4, r3
.Ltmp110:
	.loc	7 0 14 is_stmt 0        @ ../Drivers/STM32F7xx_HAL_Driver/Src/stm32f7xx_hal_usart.c:0:14
	mov	r7, r2
.Ltmp111:
	mov	r6, r1
.Ltmp112:
	.loc	7 442 6                 @ ../Drivers/STM32F7xx_HAL_Driver/Src/stm32f7xx_hal_usart.c:442:6
	cmp	r0, #1
	bne	.LBB6_4
.Ltmp113:
@ %bb.1:
	@DEBUG_VALUE: HAL_USART_Receive:husart <- $r5
	.loc	7 0 6                   @ ../Drivers/STM32F7xx_HAL_Driver/Src/stm32f7xx_hal_usart.c:0:6
	movs	r0, #1
.Ltmp114:
	.loc	7 444 26 is_stmt 1      @ ../Drivers/STM32F7xx_HAL_Driver/Src/stm32f7xx_hal_usart.c:444:26
	cbz	r6, .LBB6_5
.Ltmp115:
@ %bb.2:
	@DEBUG_VALUE: HAL_USART_Receive:husart <- $r5
	cbz	r7, .LBB6_5
.Ltmp116:
@ %bb.3:
	@DEBUG_VALUE: HAL_USART_Receive:husart <- $r5
	.loc	7 449 5                 @ ../Drivers/STM32F7xx_HAL_Driver/Src/stm32f7xx_hal_usart.c:449:5
	ldrb.w	r0, [r5, #68]
.Ltmp117:
	.loc	7 449 5 is_stmt 0       @ ../Drivers/STM32F7xx_HAL_Driver/Src/stm32f7xx_hal_usart.c:449:5
	cmp	r0, #1
	bne	.LBB6_6
.Ltmp118:
.LBB6_4:
	@DEBUG_VALUE: HAL_USART_Receive:husart <- $r5
	.loc	7 0 5                   @ ../Drivers/STM32F7xx_HAL_Driver/Src/stm32f7xx_hal_usart.c:0:5
	movs	r0, #2
.Ltmp119:
.LBB6_5:
	@DEBUG_VALUE: HAL_USART_Receive:husart <- $r5
	.loc	7 508 1 is_stmt 1       @ ../Drivers/STM32F7xx_HAL_Driver/Src/stm32f7xx_hal_usart.c:508:1
	uxtb	r0, r0
	pop.w	{r4, r5, r6, r7, r8, r9, r10, pc}
.Ltmp120:
.LBB6_6:
	@DEBUG_VALUE: HAL_USART_Receive:husart <- $r5
	@DEBUG_VALUE: HAL_USART_Receive:Size <- $r7
	.loc	7 0 1 is_stmt 0         @ ../Drivers/STM32F7xx_HAL_Driver/Src/stm32f7xx_hal_usart.c:0:1
	movs	r0, #0
.Ltmp121:
	.loc	7 451 23 is_stmt 1      @ ../Drivers/STM32F7xx_HAL_Driver/Src/stm32f7xx_hal_usart.c:451:23
	str	r0, [r5, #72]
.Ltmp122:
	.loc	7 449 5                 @ ../Drivers/STM32F7xx_HAL_Driver/Src/stm32f7xx_hal_usart.c:449:5
	movw	r0, #8705
	strh.w	r0, [r5, #68]
.Ltmp123:
	.loc	7 455 17                @ ../Drivers/STM32F7xx_HAL_Driver/Src/stm32f7xx_hal_usart.c:455:17
	bl	HAL_GetTick
	.loc	7 457 24                @ ../Drivers/STM32F7xx_HAL_Driver/Src/stm32f7xx_hal_usart.c:457:24
	strh	r7, [r5, #52]
	.loc	7 458 25                @ ../Drivers/STM32F7xx_HAL_Driver/Src/stm32f7xx_hal_usart.c:458:25
	strh	r7, [r5, #54]
	.loc	7 455 17                @ ../Drivers/STM32F7xx_HAL_Driver/Src/stm32f7xx_hal_usart.c:455:17
	mov	r8, r0
.Ltmp124:
	@DEBUG_VALUE: HAL_USART_Receive:tickstart <- $r8
	.loc	7 461 5                 @ ../Drivers/STM32F7xx_HAL_Driver/Src/stm32f7xx_hal_usart.c:461:5
	ldr	r0, [r5, #8]
.Ltmp125:
	.loc	7 461 5 is_stmt 0       @ ../Drivers/STM32F7xx_HAL_Driver/Src/stm32f7xx_hal_usart.c:461:5
	cbz	r0, .LBB6_11
.Ltmp126:
@ %bb.7:
	@DEBUG_VALUE: HAL_USART_Receive:tickstart <- $r8
	@DEBUG_VALUE: HAL_USART_Receive:husart <- $r5
	@DEBUG_VALUE: HAL_USART_Receive:Size <- $r7
	cmp.w	r0, #4096
	beq	.LBB6_13
.Ltmp127:
@ %bb.8:
	@DEBUG_VALUE: HAL_USART_Receive:tickstart <- $r8
	@DEBUG_VALUE: HAL_USART_Receive:husart <- $r5
	@DEBUG_VALUE: HAL_USART_Receive:Size <- $r7
	cmp.w	r0, #268435456
	bne	.LBB6_15
.Ltmp128:
@ %bb.9:
	@DEBUG_VALUE: HAL_USART_Receive:tickstart <- $r8
	@DEBUG_VALUE: HAL_USART_Receive:husart <- $r5
	@DEBUG_VALUE: HAL_USART_Receive:Size <- $r7
	.loc	7 461 5                 @ ../Drivers/STM32F7xx_HAL_Driver/Src/stm32f7xx_hal_usart.c:461:5
	mov	r9, r5
	ldr	r0, [r9, #16]!
.Ltmp129:
	.loc	7 461 5                 @ ../Drivers/STM32F7xx_HAL_Driver/Src/stm32f7xx_hal_usart.c:461:5
	cbz	r0, .LBB6_12
.Ltmp130:
@ %bb.10:
	@DEBUG_VALUE: HAL_USART_Receive:tickstart <- $r8
	@DEBUG_VALUE: HAL_USART_Receive:husart <- $r5
	@DEBUG_VALUE: HAL_USART_Receive:Size <- $r7
	.loc	7 0 5                   @ ../Drivers/STM32F7xx_HAL_Driver/Src/stm32f7xx_hal_usart.c:0:5
	movs	r7, #63
.Ltmp131:
	b	.LBB6_17
.Ltmp132:
.LBB6_11:
	@DEBUG_VALUE: HAL_USART_Receive:tickstart <- $r8
	@DEBUG_VALUE: HAL_USART_Receive:husart <- $r5
	@DEBUG_VALUE: HAL_USART_Receive:Size <- $r7
	.loc	7 461 5                 @ ../Drivers/STM32F7xx_HAL_Driver/Src/stm32f7xx_hal_usart.c:461:5
	mov	r9, r5
	ldr	r0, [r9, #16]!
.Ltmp133:
	.loc	7 461 5                 @ ../Drivers/STM32F7xx_HAL_Driver/Src/stm32f7xx_hal_usart.c:461:5
	cbz	r0, .LBB6_14
.Ltmp134:
.LBB6_12:
	@DEBUG_VALUE: HAL_USART_Receive:tickstart <- $r8
	@DEBUG_VALUE: HAL_USART_Receive:husart <- $r5
	@DEBUG_VALUE: HAL_USART_Receive:Size <- $r7
	.loc	7 0 5                   @ ../Drivers/STM32F7xx_HAL_Driver/Src/stm32f7xx_hal_usart.c:0:5
	movs	r7, #127
.Ltmp135:
	b	.LBB6_17
.Ltmp136:
.LBB6_13:
	@DEBUG_VALUE: HAL_USART_Receive:tickstart <- $r8
	@DEBUG_VALUE: HAL_USART_Receive:husart <- $r5
	@DEBUG_VALUE: HAL_USART_Receive:Size <- $r7
	.loc	7 461 5                 @ ../Drivers/STM32F7xx_HAL_Driver/Src/stm32f7xx_hal_usart.c:461:5
	mov	r9, r5
	ldr	r0, [r9, #16]!
.Ltmp137:
	.loc	7 461 5                 @ ../Drivers/STM32F7xx_HAL_Driver/Src/stm32f7xx_hal_usart.c:461:5
	cbz	r0, .LBB6_16
.Ltmp138:
.LBB6_14:
	@DEBUG_VALUE: HAL_USART_Receive:tickstart <- $r8
	@DEBUG_VALUE: HAL_USART_Receive:husart <- $r5
	@DEBUG_VALUE: HAL_USART_Receive:Size <- $r7
	.loc	7 0 5                   @ ../Drivers/STM32F7xx_HAL_Driver/Src/stm32f7xx_hal_usart.c:0:5
	movs	r7, #255
.Ltmp139:
	b	.LBB6_17
.Ltmp140:
.LBB6_15:
	@DEBUG_VALUE: HAL_USART_Receive:tickstart <- $r8
	@DEBUG_VALUE: HAL_USART_Receive:husart <- $r5
	@DEBUG_VALUE: HAL_USART_Receive:Size <- $r7
	.loc	7 462 22 is_stmt 1      @ ../Drivers/STM32F7xx_HAL_Driver/Src/stm32f7xx_hal_usart.c:462:22
	ldrh	r7, [r5, #56]
.Ltmp141:
	.loc	7 0 22 is_stmt 0        @ ../Drivers/STM32F7xx_HAL_Driver/Src/stm32f7xx_hal_usart.c:0:22
	add.w	r9, r5, #16
	b	.LBB6_18
.Ltmp142:
.LBB6_16:
	@DEBUG_VALUE: HAL_USART_Receive:tickstart <- $r8
	@DEBUG_VALUE: HAL_USART_Receive:husart <- $r5
	@DEBUG_VALUE: HAL_USART_Receive:Size <- $r7
	movw	r7, #511
.Ltmp143:
.LBB6_17:
	@DEBUG_VALUE: HAL_USART_Receive:tickstart <- $r8
	@DEBUG_VALUE: HAL_USART_Receive:husart <- $r5
	.loc	7 461 5 is_stmt 1       @ ../Drivers/STM32F7xx_HAL_Driver/Src/stm32f7xx_hal_usart.c:461:5
	strh	r7, [r5, #56]
.Ltmp144:
.LBB6_18:
	@DEBUG_VALUE: HAL_USART_Receive:tickstart <- $r8
	@DEBUG_VALUE: HAL_USART_Receive:husart <- $r5
	.loc	7 0 5 is_stmt 0         @ ../Drivers/STM32F7xx_HAL_Driver/Src/stm32f7xx_hal_usart.c:0:5
	mov.w	r10, #255
	b	.LBB6_24
.Ltmp145:
.LBB6_19:                               @   in Loop: Header=BB6_24 Depth=1
	@DEBUG_VALUE: HAL_USART_Receive:tickstart <- $r8
	@DEBUG_VALUE: HAL_USART_Receive:husart <- $r5
	.loc	7 467 26 is_stmt 1      @ ../Drivers/STM32F7xx_HAL_Driver/Src/stm32f7xx_hal_usart.c:467:26
	ldrh	r0, [r5, #54]
.Ltmp146:
	.loc	7 473 10                @ ../Drivers/STM32F7xx_HAL_Driver/Src/stm32f7xx_hal_usart.c:473:10
	movs	r1, #64
	mov	r2, r8
	mov	r3, r4
.Ltmp147:
	.loc	7 467 26                @ ../Drivers/STM32F7xx_HAL_Driver/Src/stm32f7xx_hal_usart.c:467:26
	subs	r0, #1
	strh	r0, [r5, #54]
.Ltmp148:
	.loc	7 473 10                @ ../Drivers/STM32F7xx_HAL_Driver/Src/stm32f7xx_hal_usart.c:473:10
	mov	r0, r5
	bl	USART_WaitOnFlagUntilTimeout
.Ltmp149:
	.loc	7 473 10 is_stmt 0      @ ../Drivers/STM32F7xx_HAL_Driver/Src/stm32f7xx_hal_usart.c:473:10
	cbnz	r0, .LBB6_26
.Ltmp150:
@ %bb.20:                               @   in Loop: Header=BB6_24 Depth=1
	@DEBUG_VALUE: HAL_USART_Receive:tickstart <- $r8
	@DEBUG_VALUE: HAL_USART_Receive:husart <- $r5
	.loc	7 477 15 is_stmt 1      @ ../Drivers/STM32F7xx_HAL_Driver/Src/stm32f7xx_hal_usart.c:477:15
	ldr	r0, [r5]
.Ltmp151:
	.loc	7 480 10                @ ../Drivers/STM32F7xx_HAL_Driver/Src/stm32f7xx_hal_usart.c:480:10
	movs	r1, #32
	mov	r2, r8
	mov	r3, r4
.Ltmp152:
	.loc	7 477 29                @ ../Drivers/STM32F7xx_HAL_Driver/Src/stm32f7xx_hal_usart.c:477:29
	str.w	r10, [r0, #40]
.Ltmp153:
	.loc	7 480 10                @ ../Drivers/STM32F7xx_HAL_Driver/Src/stm32f7xx_hal_usart.c:480:10
	mov	r0, r5
	bl	USART_WaitOnFlagUntilTimeout
.Ltmp154:
	.loc	7 480 10 is_stmt 0      @ ../Drivers/STM32F7xx_HAL_Driver/Src/stm32f7xx_hal_usart.c:480:10
	cbnz	r0, .LBB6_26
.Ltmp155:
@ %bb.21:                               @   in Loop: Header=BB6_24 Depth=1
	@DEBUG_VALUE: HAL_USART_Receive:tickstart <- $r8
	@DEBUG_VALUE: HAL_USART_Receive:husart <- $r5
	.loc	7 485 24 is_stmt 1      @ ../Drivers/STM32F7xx_HAL_Driver/Src/stm32f7xx_hal_usart.c:485:24
	ldr	r0, [r5, #8]
	.loc	7 485 59 is_stmt 0      @ ../Drivers/STM32F7xx_HAL_Driver/Src/stm32f7xx_hal_usart.c:485:59
	cmp.w	r0, #4096
	.loc	7 485 76                @ ../Drivers/STM32F7xx_HAL_Driver/Src/stm32f7xx_hal_usart.c:485:76
	itt	eq
	ldreq.w	r0, [r9]
.Ltmp156:
	.loc	7 485 10                @ ../Drivers/STM32F7xx_HAL_Driver/Src/stm32f7xx_hal_usart.c:485:10
	cmpeq	r0, #0
	beq	.LBB6_23
.Ltmp157:
@ %bb.22:                               @   in Loop: Header=BB6_24 Depth=1
	@DEBUG_VALUE: HAL_USART_Receive:tickstart <- $r8
	@DEBUG_VALUE: HAL_USART_Receive:husart <- $r5
	@DEBUG_VALUE: HAL_USART_Receive:pRxData <- $r6
	.loc	7 493 40 is_stmt 1      @ ../Drivers/STM32F7xx_HAL_Driver/Src/stm32f7xx_hal_usart.c:493:40
	ldr	r0, [r5]
	.loc	7 493 50 is_stmt 0      @ ../Drivers/STM32F7xx_HAL_Driver/Src/stm32f7xx_hal_usart.c:493:50
	ldr	r0, [r0, #36]
	.loc	7 493 54                @ ../Drivers/STM32F7xx_HAL_Driver/Src/stm32f7xx_hal_usart.c:493:54
	ands	r0, r7
	.loc	7 493 20                @ ../Drivers/STM32F7xx_HAL_Driver/Src/stm32f7xx_hal_usart.c:493:20
	strb	r0, [r6], #1
.Ltmp158:
	.loc	7 0 20                  @ ../Drivers/STM32F7xx_HAL_Driver/Src/stm32f7xx_hal_usart.c:0:20
	b	.LBB6_24
.Ltmp159:
.LBB6_23:                               @   in Loop: Header=BB6_24 Depth=1
	@DEBUG_VALUE: HAL_USART_Receive:tickstart <- $r8
	@DEBUG_VALUE: HAL_USART_Receive:husart <- $r5
	.loc	7 488 35 is_stmt 1      @ ../Drivers/STM32F7xx_HAL_Driver/Src/stm32f7xx_hal_usart.c:488:35
	ldr	r0, [r5]
	.loc	7 488 45 is_stmt 0      @ ../Drivers/STM32F7xx_HAL_Driver/Src/stm32f7xx_hal_usart.c:488:45
	ldr	r0, [r0, #36]
	.loc	7 488 16                @ ../Drivers/STM32F7xx_HAL_Driver/Src/stm32f7xx_hal_usart.c:488:16
	ands	r0, r7
.Ltmp160:
	@DEBUG_VALUE: HAL_USART_Receive:tmp <- $r6
	.loc	7 488 14                @ ../Drivers/STM32F7xx_HAL_Driver/Src/stm32f7xx_hal_usart.c:488:14
	strh	r0, [r6], #2
.Ltmp161:
	@DEBUG_VALUE: HAL_USART_Receive:pRxData <- $r6
.LBB6_24:                               @ =>This Inner Loop Header: Depth=1
	@DEBUG_VALUE: HAL_USART_Receive:tickstart <- $r8
	@DEBUG_VALUE: HAL_USART_Receive:husart <- $r5
	.loc	7 465 19 is_stmt 1      @ ../Drivers/STM32F7xx_HAL_Driver/Src/stm32f7xx_hal_usart.c:465:19
	ldrh	r0, [r5, #54]
	.loc	7 465 5 is_stmt 0       @ ../Drivers/STM32F7xx_HAL_Driver/Src/stm32f7xx_hal_usart.c:465:5
	cmp	r0, #0
	bne	.LBB6_19
.Ltmp162:
@ %bb.25:
	@DEBUG_VALUE: HAL_USART_Receive:tickstart <- $r8
	@DEBUG_VALUE: HAL_USART_Receive:husart <- $r5
	.loc	7 500 5 is_stmt 1       @ ../Drivers/STM32F7xx_HAL_Driver/Src/stm32f7xx_hal_usart.c:500:5
	mov.w	r0, #256
	strh.w	r0, [r5, #68]
	movs	r0, #0
	b	.LBB6_5
.Ltmp163:
.LBB6_26:
	@DEBUG_VALUE: HAL_USART_Receive:tickstart <- $r8
	@DEBUG_VALUE: HAL_USART_Receive:husart <- $r5
	.loc	7 0 5 is_stmt 0         @ ../Drivers/STM32F7xx_HAL_Driver/Src/stm32f7xx_hal_usart.c:0:5
	movs	r0, #3
	b	.LBB6_5
.Lfunc_end6:
	.size	HAL_USART_Receive, .Lfunc_end6-HAL_USART_Receive
	.cfi_endproc
	.cantunwind
	.fnend
                                        @ -- End function
	.section	.text.HAL_USART_TransmitReceive,"ax",%progbits
	.hidden	HAL_USART_TransmitReceive @ -- Begin function HAL_USART_TransmitReceive
	.globl	HAL_USART_TransmitReceive
	.p2align	1
	.type	HAL_USART_TransmitReceive,%function
	.code	16                      @ @HAL_USART_TransmitReceive
	.thumb_func
HAL_USART_TransmitReceive:
.Lfunc_begin7:
	.loc	7 520 0 is_stmt 1       @ ../Drivers/STM32F7xx_HAL_Driver/Src/stm32f7xx_hal_usart.c:520:0
	.fnstart
	.cfi_startproc
@ %bb.0:
	.save	{r4, r5, r6, r7, r8, r9, r10, r11, lr}
	.pad	#4
	push.w	{r3, r4, r5, r6, r7, r8, r9, r10, r11, lr}
	.cfi_def_cfa_offset 40
	.cfi_offset lr, -4
	.cfi_offset r11, -8
	.cfi_offset r10, -12
	.cfi_offset r9, -16
	.cfi_offset r8, -20
	.cfi_offset r7, -24
	.cfi_offset r6, -28
	.cfi_offset r5, -32
	.cfi_offset r4, -36
	@DEBUG_VALUE: HAL_USART_TransmitReceive:husart <- $r0
	@DEBUG_VALUE: HAL_USART_TransmitReceive:pTxData <- $r1
	@DEBUG_VALUE: HAL_USART_TransmitReceive:pRxData <- $r2
	@DEBUG_VALUE: HAL_USART_TransmitReceive:Size <- $r3
	mov	r4, r0
.Ltmp164:
	@DEBUG_VALUE: HAL_USART_TransmitReceive:tickstart <- 0
	@DEBUG_VALUE: HAL_USART_TransmitReceive:Timeout <- [DW_OP_plus_uconst 40] [$sp+0]
	@DEBUG_VALUE: HAL_USART_TransmitReceive:Size <- $r7
	@DEBUG_VALUE: HAL_USART_TransmitReceive:pRxData <- $r5
	@DEBUG_VALUE: HAL_USART_TransmitReceive:pTxData <- $r6
	@DEBUG_VALUE: HAL_USART_TransmitReceive:husart <- $r4
	.loc	7 525 14 prologue_end   @ ../Drivers/STM32F7xx_HAL_Driver/Src/stm32f7xx_hal_usart.c:525:14
	ldrb.w	r0, [r0, #69]
	mov	r7, r3
.Ltmp165:
	.loc	7 0 14 is_stmt 0        @ ../Drivers/STM32F7xx_HAL_Driver/Src/stm32f7xx_hal_usart.c:0:14
	mov	r5, r2
.Ltmp166:
	mov	r6, r1
.Ltmp167:
	.loc	7 525 6                 @ ../Drivers/STM32F7xx_HAL_Driver/Src/stm32f7xx_hal_usart.c:525:6
	cmp	r0, #1
	bne	.LBB7_5
.Ltmp168:
@ %bb.1:
	@DEBUG_VALUE: HAL_USART_TransmitReceive:husart <- $r4
	@DEBUG_VALUE: HAL_USART_TransmitReceive:Timeout <- [DW_OP_plus_uconst 40] [$sp+0]
	.loc	7 0 6                   @ ../Drivers/STM32F7xx_HAL_Driver/Src/stm32f7xx_hal_usart.c:0:6
	movs	r0, #1
.Ltmp169:
	.loc	7 527 26 is_stmt 1      @ ../Drivers/STM32F7xx_HAL_Driver/Src/stm32f7xx_hal_usart.c:527:26
	cbz	r6, .LBB7_6
.Ltmp170:
@ %bb.2:
	@DEBUG_VALUE: HAL_USART_TransmitReceive:husart <- $r4
	@DEBUG_VALUE: HAL_USART_TransmitReceive:Timeout <- [DW_OP_plus_uconst 40] [$sp+0]
	cbz	r5, .LBB7_6
.Ltmp171:
@ %bb.3:
	@DEBUG_VALUE: HAL_USART_TransmitReceive:husart <- $r4
	@DEBUG_VALUE: HAL_USART_TransmitReceive:Timeout <- [DW_OP_plus_uconst 40] [$sp+0]
	cbz	r7, .LBB7_6
.Ltmp172:
@ %bb.4:
	@DEBUG_VALUE: HAL_USART_TransmitReceive:husart <- $r4
	@DEBUG_VALUE: HAL_USART_TransmitReceive:Timeout <- [DW_OP_plus_uconst 40] [$sp+0]
	.loc	7 532 5                 @ ../Drivers/STM32F7xx_HAL_Driver/Src/stm32f7xx_hal_usart.c:532:5
	ldrb.w	r0, [r4, #68]
.Ltmp173:
	.loc	7 532 5 is_stmt 0       @ ../Drivers/STM32F7xx_HAL_Driver/Src/stm32f7xx_hal_usart.c:532:5
	cmp	r0, #1
	bne	.LBB7_7
.Ltmp174:
.LBB7_5:
	@DEBUG_VALUE: HAL_USART_TransmitReceive:husart <- $r4
	@DEBUG_VALUE: HAL_USART_TransmitReceive:Timeout <- [DW_OP_plus_uconst 40] [$sp+0]
	.loc	7 0 5                   @ ../Drivers/STM32F7xx_HAL_Driver/Src/stm32f7xx_hal_usart.c:0:5
	movs	r0, #2
.Ltmp175:
.LBB7_6:
	@DEBUG_VALUE: HAL_USART_TransmitReceive:husart <- $r4
	@DEBUG_VALUE: HAL_USART_TransmitReceive:Timeout <- [DW_OP_plus_uconst 40] [$sp+0]
	.loc	7 600 1 is_stmt 1       @ ../Drivers/STM32F7xx_HAL_Driver/Src/stm32f7xx_hal_usart.c:600:1
	uxtb	r0, r0
	add	sp, #4
.Ltmp176:
	pop.w	{r4, r5, r6, r7, r8, r9, r10, r11, pc}
.Ltmp177:
.LBB7_7:
	@DEBUG_VALUE: HAL_USART_TransmitReceive:husart <- $r4
	@DEBUG_VALUE: HAL_USART_TransmitReceive:Timeout <- [DW_OP_plus_uconst 40] [$sp+0]
	@DEBUG_VALUE: HAL_USART_TransmitReceive:Size <- $r7
	.loc	7 0 1 is_stmt 0         @ ../Drivers/STM32F7xx_HAL_Driver/Src/stm32f7xx_hal_usart.c:0:1
	movs	r0, #0
.Ltmp178:
	.loc	7 534 23 is_stmt 1      @ ../Drivers/STM32F7xx_HAL_Driver/Src/stm32f7xx_hal_usart.c:534:23
	str	r0, [r4, #72]
.Ltmp179:
	.loc	7 532 5                 @ ../Drivers/STM32F7xx_HAL_Driver/Src/stm32f7xx_hal_usart.c:532:5
	movw	r0, #8705
	strh.w	r0, [r4, #68]
.Ltmp180:
	.loc	7 538 17                @ ../Drivers/STM32F7xx_HAL_Driver/Src/stm32f7xx_hal_usart.c:538:17
	bl	HAL_GetTick
	.loc	7 542 25                @ ../Drivers/STM32F7xx_HAL_Driver/Src/stm32f7xx_hal_usart.c:542:25
	strh	r7, [r4, #46]
	.loc	7 540 24                @ ../Drivers/STM32F7xx_HAL_Driver/Src/stm32f7xx_hal_usart.c:540:24
	strh	r7, [r4, #52]
	.loc	7 541 24                @ ../Drivers/STM32F7xx_HAL_Driver/Src/stm32f7xx_hal_usart.c:541:24
	strh	r7, [r4, #44]
	.loc	7 543 25                @ ../Drivers/STM32F7xx_HAL_Driver/Src/stm32f7xx_hal_usart.c:543:25
	strh	r7, [r4, #54]
	.loc	7 538 17                @ ../Drivers/STM32F7xx_HAL_Driver/Src/stm32f7xx_hal_usart.c:538:17
	mov	r9, r0
.Ltmp181:
	@DEBUG_VALUE: HAL_USART_TransmitReceive:tickstart <- $r9
	.loc	7 546 5                 @ ../Drivers/STM32F7xx_HAL_Driver/Src/stm32f7xx_hal_usart.c:546:5
	ldr	r0, [r4, #8]
.Ltmp182:
	.loc	7 546 5 is_stmt 0       @ ../Drivers/STM32F7xx_HAL_Driver/Src/stm32f7xx_hal_usart.c:546:5
	cbz	r0, .LBB7_12
.Ltmp183:
@ %bb.8:
	@DEBUG_VALUE: HAL_USART_TransmitReceive:tickstart <- $r9
	@DEBUG_VALUE: HAL_USART_TransmitReceive:husart <- $r4
	@DEBUG_VALUE: HAL_USART_TransmitReceive:Size <- $r7
	@DEBUG_VALUE: HAL_USART_TransmitReceive:Timeout <- [DW_OP_plus_uconst 40] [$sp+0]
	cmp.w	r0, #4096
	beq	.LBB7_14
.Ltmp184:
@ %bb.9:
	@DEBUG_VALUE: HAL_USART_TransmitReceive:tickstart <- $r9
	@DEBUG_VALUE: HAL_USART_TransmitReceive:husart <- $r4
	@DEBUG_VALUE: HAL_USART_TransmitReceive:Size <- $r7
	@DEBUG_VALUE: HAL_USART_TransmitReceive:Timeout <- [DW_OP_plus_uconst 40] [$sp+0]
	cmp.w	r0, #268435456
	bne	.LBB7_16
.Ltmp185:
@ %bb.10:
	@DEBUG_VALUE: HAL_USART_TransmitReceive:tickstart <- $r9
	@DEBUG_VALUE: HAL_USART_TransmitReceive:husart <- $r4
	@DEBUG_VALUE: HAL_USART_TransmitReceive:Size <- $r7
	@DEBUG_VALUE: HAL_USART_TransmitReceive:Timeout <- [DW_OP_plus_uconst 40] [$sp+0]
	.loc	7 546 5                 @ ../Drivers/STM32F7xx_HAL_Driver/Src/stm32f7xx_hal_usart.c:546:5
	mov	r10, r4
	ldr	r0, [r10, #16]!
.Ltmp186:
	.loc	7 546 5                 @ ../Drivers/STM32F7xx_HAL_Driver/Src/stm32f7xx_hal_usart.c:546:5
	cbz	r0, .LBB7_13
.Ltmp187:
@ %bb.11:
	@DEBUG_VALUE: HAL_USART_TransmitReceive:tickstart <- $r9
	@DEBUG_VALUE: HAL_USART_TransmitReceive:husart <- $r4
	@DEBUG_VALUE: HAL_USART_TransmitReceive:Size <- $r7
	@DEBUG_VALUE: HAL_USART_TransmitReceive:Timeout <- [DW_OP_plus_uconst 40] [$sp+0]
	.loc	7 0 5                   @ ../Drivers/STM32F7xx_HAL_Driver/Src/stm32f7xx_hal_usart.c:0:5
	movs	r7, #63
.Ltmp188:
	b	.LBB7_18
.Ltmp189:
.LBB7_12:
	@DEBUG_VALUE: HAL_USART_TransmitReceive:tickstart <- $r9
	@DEBUG_VALUE: HAL_USART_TransmitReceive:husart <- $r4
	@DEBUG_VALUE: HAL_USART_TransmitReceive:Size <- $r7
	@DEBUG_VALUE: HAL_USART_TransmitReceive:Timeout <- [DW_OP_plus_uconst 40] [$sp+0]
	.loc	7 546 5                 @ ../Drivers/STM32F7xx_HAL_Driver/Src/stm32f7xx_hal_usart.c:546:5
	mov	r10, r4
	ldr	r0, [r10, #16]!
.Ltmp190:
	.loc	7 546 5                 @ ../Drivers/STM32F7xx_HAL_Driver/Src/stm32f7xx_hal_usart.c:546:5
	cbz	r0, .LBB7_15
.Ltmp191:
.LBB7_13:
	@DEBUG_VALUE: HAL_USART_TransmitReceive:tickstart <- $r9
	@DEBUG_VALUE: HAL_USART_TransmitReceive:husart <- $r4
	@DEBUG_VALUE: HAL_USART_TransmitReceive:Size <- $r7
	@DEBUG_VALUE: HAL_USART_TransmitReceive:Timeout <- [DW_OP_plus_uconst 40] [$sp+0]
	.loc	7 0 5                   @ ../Drivers/STM32F7xx_HAL_Driver/Src/stm32f7xx_hal_usart.c:0:5
	movs	r7, #127
.Ltmp192:
	b	.LBB7_18
.Ltmp193:
.LBB7_14:
	@DEBUG_VALUE: HAL_USART_TransmitReceive:tickstart <- $r9
	@DEBUG_VALUE: HAL_USART_TransmitReceive:husart <- $r4
	@DEBUG_VALUE: HAL_USART_TransmitReceive:Size <- $r7
	@DEBUG_VALUE: HAL_USART_TransmitReceive:Timeout <- [DW_OP_plus_uconst 40] [$sp+0]
	.loc	7 546 5                 @ ../Drivers/STM32F7xx_HAL_Driver/Src/stm32f7xx_hal_usart.c:546:5
	mov	r10, r4
	ldr	r0, [r10, #16]!
.Ltmp194:
	.loc	7 546 5                 @ ../Drivers/STM32F7xx_HAL_Driver/Src/stm32f7xx_hal_usart.c:546:5
	cbz	r0, .LBB7_17
.Ltmp195:
.LBB7_15:
	@DEBUG_VALUE: HAL_USART_TransmitReceive:tickstart <- $r9
	@DEBUG_VALUE: HAL_USART_TransmitReceive:husart <- $r4
	@DEBUG_VALUE: HAL_USART_TransmitReceive:Size <- $r7
	@DEBUG_VALUE: HAL_USART_TransmitReceive:Timeout <- [DW_OP_plus_uconst 40] [$sp+0]
	.loc	7 0 5                   @ ../Drivers/STM32F7xx_HAL_Driver/Src/stm32f7xx_hal_usart.c:0:5
	movs	r7, #255
.Ltmp196:
	b	.LBB7_18
.Ltmp197:
.LBB7_16:
	@DEBUG_VALUE: HAL_USART_TransmitReceive:tickstart <- $r9
	@DEBUG_VALUE: HAL_USART_TransmitReceive:husart <- $r4
	@DEBUG_VALUE: HAL_USART_TransmitReceive:Size <- $r7
	@DEBUG_VALUE: HAL_USART_TransmitReceive:Timeout <- [DW_OP_plus_uconst 40] [$sp+0]
	.loc	7 547 22 is_stmt 1      @ ../Drivers/STM32F7xx_HAL_Driver/Src/stm32f7xx_hal_usart.c:547:22
	ldrh	r7, [r4, #56]
.Ltmp198:
	.loc	7 0 22 is_stmt 0        @ ../Drivers/STM32F7xx_HAL_Driver/Src/stm32f7xx_hal_usart.c:0:22
	add.w	r10, r4, #16
	b	.LBB7_19
.Ltmp199:
.LBB7_17:
	@DEBUG_VALUE: HAL_USART_TransmitReceive:tickstart <- $r9
	@DEBUG_VALUE: HAL_USART_TransmitReceive:husart <- $r4
	@DEBUG_VALUE: HAL_USART_TransmitReceive:Size <- $r7
	@DEBUG_VALUE: HAL_USART_TransmitReceive:Timeout <- [DW_OP_plus_uconst 40] [$sp+0]
	movw	r7, #511
.Ltmp200:
.LBB7_18:
	@DEBUG_VALUE: HAL_USART_TransmitReceive:tickstart <- $r9
	@DEBUG_VALUE: HAL_USART_TransmitReceive:husart <- $r4
	@DEBUG_VALUE: HAL_USART_TransmitReceive:Timeout <- [DW_OP_plus_uconst 40] [$sp+0]
	.loc	7 546 5 is_stmt 1       @ ../Drivers/STM32F7xx_HAL_Driver/Src/stm32f7xx_hal_usart.c:546:5
	strh	r7, [r4, #56]
.Ltmp201:
.LBB7_19:
	@DEBUG_VALUE: HAL_USART_TransmitReceive:tickstart <- $r9
	@DEBUG_VALUE: HAL_USART_TransmitReceive:husart <- $r4
	@DEBUG_VALUE: HAL_USART_TransmitReceive:Timeout <- [DW_OP_plus_uconst 40] [$sp+0]
	.loc	7 0 5 is_stmt 0         @ ../Drivers/STM32F7xx_HAL_Driver/Src/stm32f7xx_hal_usart.c:0:5
	ldr.w	r8, [sp, #40]
	uxtb.w	r11, r7
	b	.LBB7_28
.Ltmp202:
.LBB7_20:                               @   in Loop: Header=BB7_28 Depth=1
	@DEBUG_VALUE: HAL_USART_TransmitReceive:tickstart <- $r9
	@DEBUG_VALUE: HAL_USART_TransmitReceive:husart <- $r4
	@DEBUG_VALUE: HAL_USART_TransmitReceive:Timeout <- [DW_OP_plus_uconst 40] [$sp+0]
	.loc	7 552 26 is_stmt 1      @ ../Drivers/STM32F7xx_HAL_Driver/Src/stm32f7xx_hal_usart.c:552:26
	ldrh	r0, [r4, #46]
.Ltmp203:
	.loc	7 556 10                @ ../Drivers/STM32F7xx_HAL_Driver/Src/stm32f7xx_hal_usart.c:556:10
	movs	r1, #64
	mov	r2, r9
	mov	r3, r8
.Ltmp204:
	.loc	7 552 26                @ ../Drivers/STM32F7xx_HAL_Driver/Src/stm32f7xx_hal_usart.c:552:26
	subs	r0, #1
	strh	r0, [r4, #46]
	.loc	7 553 26                @ ../Drivers/STM32F7xx_HAL_Driver/Src/stm32f7xx_hal_usart.c:553:26
	ldrh	r0, [r4, #54]
	subs	r0, #1
	strh	r0, [r4, #54]
.Ltmp205:
	.loc	7 556 10                @ ../Drivers/STM32F7xx_HAL_Driver/Src/stm32f7xx_hal_usart.c:556:10
	mov	r0, r4
	bl	USART_WaitOnFlagUntilTimeout
.Ltmp206:
	.loc	7 556 10 is_stmt 0      @ ../Drivers/STM32F7xx_HAL_Driver/Src/stm32f7xx_hal_usart.c:556:10
	cbnz	r0, .LBB7_30
.Ltmp207:
@ %bb.21:                               @   in Loop: Header=BB7_28 Depth=1
	@DEBUG_VALUE: HAL_USART_TransmitReceive:tickstart <- $r9
	@DEBUG_VALUE: HAL_USART_TransmitReceive:husart <- $r4
	@DEBUG_VALUE: HAL_USART_TransmitReceive:Timeout <- [DW_OP_plus_uconst 40] [$sp+0]
	.loc	7 560 24 is_stmt 1      @ ../Drivers/STM32F7xx_HAL_Driver/Src/stm32f7xx_hal_usart.c:560:24
	ldr	r0, [r4, #8]
	.loc	7 560 59 is_stmt 0      @ ../Drivers/STM32F7xx_HAL_Driver/Src/stm32f7xx_hal_usart.c:560:59
	cmp.w	r0, #4096
	.loc	7 560 76                @ ../Drivers/STM32F7xx_HAL_Driver/Src/stm32f7xx_hal_usart.c:560:76
	itt	eq
	ldreq.w	r0, [r10]
.Ltmp208:
	.loc	7 560 10                @ ../Drivers/STM32F7xx_HAL_Driver/Src/stm32f7xx_hal_usart.c:560:10
	cmpeq	r0, #0
	beq	.LBB7_26
.Ltmp209:
@ %bb.22:                               @   in Loop: Header=BB7_28 Depth=1
	@DEBUG_VALUE: HAL_USART_TransmitReceive:tickstart <- $r9
	@DEBUG_VALUE: HAL_USART_TransmitReceive:husart <- $r4
	@DEBUG_VALUE: HAL_USART_TransmitReceive:Timeout <- [DW_OP_plus_uconst 40] [$sp+0]
	@DEBUG_VALUE: HAL_USART_TransmitReceive:pTxData <- $r6
	.loc	7 568 34 is_stmt 1      @ ../Drivers/STM32F7xx_HAL_Driver/Src/stm32f7xx_hal_usart.c:568:34
	ldrb	r0, [r6], #1
.Ltmp210:
	.loc	7 568 45 is_stmt 0      @ ../Drivers/STM32F7xx_HAL_Driver/Src/stm32f7xx_hal_usart.c:568:45
	and.w	r0, r0, r11
.Ltmp211:
.LBB7_23:                               @   in Loop: Header=BB7_28 Depth=1
	@DEBUG_VALUE: HAL_USART_TransmitReceive:tickstart <- $r9
	@DEBUG_VALUE: HAL_USART_TransmitReceive:husart <- $r4
	@DEBUG_VALUE: HAL_USART_TransmitReceive:Timeout <- [DW_OP_plus_uconst 40] [$sp+0]
	.loc	7 0 45                  @ ../Drivers/STM32F7xx_HAL_Driver/Src/stm32f7xx_hal_usart.c:0:45
	ldr	r1, [r4]
.Ltmp212:
	.loc	7 572 10 is_stmt 1      @ ../Drivers/STM32F7xx_HAL_Driver/Src/stm32f7xx_hal_usart.c:572:10
	mov	r2, r9
	mov	r3, r8
	str	r0, [r1, #40]
	mov	r0, r4
	movs	r1, #32
	bl	USART_WaitOnFlagUntilTimeout
.Ltmp213:
	.loc	7 572 10 is_stmt 0      @ ../Drivers/STM32F7xx_HAL_Driver/Src/stm32f7xx_hal_usart.c:572:10
	cbnz	r0, .LBB7_30
.Ltmp214:
@ %bb.24:                               @   in Loop: Header=BB7_28 Depth=1
	@DEBUG_VALUE: HAL_USART_TransmitReceive:tickstart <- $r9
	@DEBUG_VALUE: HAL_USART_TransmitReceive:husart <- $r4
	@DEBUG_VALUE: HAL_USART_TransmitReceive:Timeout <- [DW_OP_plus_uconst 40] [$sp+0]
	.loc	7 577 24 is_stmt 1      @ ../Drivers/STM32F7xx_HAL_Driver/Src/stm32f7xx_hal_usart.c:577:24
	ldr	r0, [r4, #8]
	.loc	7 577 59 is_stmt 0      @ ../Drivers/STM32F7xx_HAL_Driver/Src/stm32f7xx_hal_usart.c:577:59
	cmp.w	r0, #4096
	.loc	7 577 76                @ ../Drivers/STM32F7xx_HAL_Driver/Src/stm32f7xx_hal_usart.c:577:76
	itt	eq
	ldreq.w	r0, [r10]
.Ltmp215:
	.loc	7 577 10                @ ../Drivers/STM32F7xx_HAL_Driver/Src/stm32f7xx_hal_usart.c:577:10
	cmpeq	r0, #0
	beq	.LBB7_27
.Ltmp216:
@ %bb.25:                               @   in Loop: Header=BB7_28 Depth=1
	@DEBUG_VALUE: HAL_USART_TransmitReceive:tickstart <- $r9
	@DEBUG_VALUE: HAL_USART_TransmitReceive:husart <- $r4
	@DEBUG_VALUE: HAL_USART_TransmitReceive:Timeout <- [DW_OP_plus_uconst 40] [$sp+0]
	@DEBUG_VALUE: HAL_USART_TransmitReceive:pRxData <- $r5
	.loc	7 585 40 is_stmt 1      @ ../Drivers/STM32F7xx_HAL_Driver/Src/stm32f7xx_hal_usart.c:585:40
	ldr	r0, [r4]
	.loc	7 585 50 is_stmt 0      @ ../Drivers/STM32F7xx_HAL_Driver/Src/stm32f7xx_hal_usart.c:585:50
	ldr	r0, [r0, #36]
	.loc	7 585 54                @ ../Drivers/STM32F7xx_HAL_Driver/Src/stm32f7xx_hal_usart.c:585:54
	ands	r0, r7
	.loc	7 585 20                @ ../Drivers/STM32F7xx_HAL_Driver/Src/stm32f7xx_hal_usart.c:585:20
	strb	r0, [r5], #1
.Ltmp217:
	.loc	7 0 20                  @ ../Drivers/STM32F7xx_HAL_Driver/Src/stm32f7xx_hal_usart.c:0:20
	b	.LBB7_28
.Ltmp218:
.LBB7_26:                               @   in Loop: Header=BB7_28 Depth=1
	@DEBUG_VALUE: HAL_USART_TransmitReceive:tickstart <- $r9
	@DEBUG_VALUE: HAL_USART_TransmitReceive:husart <- $r4
	@DEBUG_VALUE: HAL_USART_TransmitReceive:Timeout <- [DW_OP_plus_uconst 40] [$sp+0]
	@DEBUG_VALUE: HAL_USART_TransmitReceive:tmp <- $r6
	.loc	7 563 34 is_stmt 1      @ ../Drivers/STM32F7xx_HAL_Driver/Src/stm32f7xx_hal_usart.c:563:34
	ldrh	r0, [r6], #2
.Ltmp219:
	.loc	7 563 39 is_stmt 0      @ ../Drivers/STM32F7xx_HAL_Driver/Src/stm32f7xx_hal_usart.c:563:39
	ands	r0, r7
	b	.LBB7_23
.Ltmp220:
.LBB7_27:                               @   in Loop: Header=BB7_28 Depth=1
	@DEBUG_VALUE: HAL_USART_TransmitReceive:tickstart <- $r9
	@DEBUG_VALUE: HAL_USART_TransmitReceive:husart <- $r4
	@DEBUG_VALUE: HAL_USART_TransmitReceive:Timeout <- [DW_OP_plus_uconst 40] [$sp+0]
	.loc	7 580 35 is_stmt 1      @ ../Drivers/STM32F7xx_HAL_Driver/Src/stm32f7xx_hal_usart.c:580:35
	ldr	r0, [r4]
	.loc	7 580 45 is_stmt 0      @ ../Drivers/STM32F7xx_HAL_Driver/Src/stm32f7xx_hal_usart.c:580:45
	ldr	r0, [r0, #36]
	.loc	7 580 16                @ ../Drivers/STM32F7xx_HAL_Driver/Src/stm32f7xx_hal_usart.c:580:16
	ands	r0, r7
.Ltmp221:
	@DEBUG_VALUE: HAL_USART_TransmitReceive:tmp <- $r5
	.loc	7 580 14                @ ../Drivers/STM32F7xx_HAL_Driver/Src/stm32f7xx_hal_usart.c:580:14
	strh	r0, [r5], #2
.Ltmp222:
	@DEBUG_VALUE: HAL_USART_TransmitReceive:pRxData <- $r5
.LBB7_28:                               @ =>This Inner Loop Header: Depth=1
	@DEBUG_VALUE: HAL_USART_TransmitReceive:tickstart <- $r9
	@DEBUG_VALUE: HAL_USART_TransmitReceive:husart <- $r4
	@DEBUG_VALUE: HAL_USART_TransmitReceive:Timeout <- [DW_OP_plus_uconst 40] [$sp+0]
	.loc	7 550 19 is_stmt 1      @ ../Drivers/STM32F7xx_HAL_Driver/Src/stm32f7xx_hal_usart.c:550:19
	ldrh	r0, [r4, #46]
	.loc	7 550 5 is_stmt 0       @ ../Drivers/STM32F7xx_HAL_Driver/Src/stm32f7xx_hal_usart.c:550:5
	cmp	r0, #0
	bne	.LBB7_20
.Ltmp223:
@ %bb.29:
	@DEBUG_VALUE: HAL_USART_TransmitReceive:tickstart <- $r9
	@DEBUG_VALUE: HAL_USART_TransmitReceive:husart <- $r4
	@DEBUG_VALUE: HAL_USART_TransmitReceive:Timeout <- [DW_OP_plus_uconst 40] [$sp+0]
	.loc	7 592 5 is_stmt 1       @ ../Drivers/STM32F7xx_HAL_Driver/Src/stm32f7xx_hal_usart.c:592:5
	mov.w	r0, #256
	strh.w	r0, [r4, #68]
	movs	r0, #0
	b	.LBB7_6
.Ltmp224:
.LBB7_30:
	@DEBUG_VALUE: HAL_USART_TransmitReceive:tickstart <- $r9
	@DEBUG_VALUE: HAL_USART_TransmitReceive:husart <- $r4
	@DEBUG_VALUE: HAL_USART_TransmitReceive:Timeout <- [DW_OP_plus_uconst 40] [$sp+0]
	.loc	7 0 5 is_stmt 0         @ ../Drivers/STM32F7xx_HAL_Driver/Src/stm32f7xx_hal_usart.c:0:5
	movs	r0, #3
	b	.LBB7_6
.Lfunc_end7:
	.size	HAL_USART_TransmitReceive, .Lfunc_end7-HAL_USART_TransmitReceive
	.cfi_endproc
	.cantunwind
	.fnend
                                        @ -- End function
	.section	.text.HAL_USART_Transmit_IT,"ax",%progbits
	.hidden	HAL_USART_Transmit_IT   @ -- Begin function HAL_USART_Transmit_IT
	.globl	HAL_USART_Transmit_IT
	.p2align	1
	.type	HAL_USART_Transmit_IT,%function
	.code	16                      @ @HAL_USART_Transmit_IT
	.thumb_func
HAL_USART_Transmit_IT:
.Lfunc_begin8:
	.loc	7 610 0 is_stmt 1       @ ../Drivers/STM32F7xx_HAL_Driver/Src/stm32f7xx_hal_usart.c:610:0
	.fnstart
	.cfi_startproc
@ %bb.0:
	@DEBUG_VALUE: HAL_USART_Transmit_IT:husart <- $r0
	@DEBUG_VALUE: HAL_USART_Transmit_IT:husart <- $r0
	@DEBUG_VALUE: HAL_USART_Transmit_IT:pTxData <- $r1
	@DEBUG_VALUE: HAL_USART_Transmit_IT:pTxData <- $r1
	@DEBUG_VALUE: HAL_USART_Transmit_IT:Size <- $r2
	@DEBUG_VALUE: HAL_USART_Transmit_IT:Size <- $r2
	.loc	7 611 14 prologue_end   @ ../Drivers/STM32F7xx_HAL_Driver/Src/stm32f7xx_hal_usart.c:611:14
	ldrb.w	r3, [r0, #69]
.Ltmp225:
	.loc	7 611 6 is_stmt 0       @ ../Drivers/STM32F7xx_HAL_Driver/Src/stm32f7xx_hal_usart.c:611:6
	cmp	r3, #1
	bne	.LBB8_4
.Ltmp226:
@ %bb.1:
	@DEBUG_VALUE: HAL_USART_Transmit_IT:Size <- $r2
	@DEBUG_VALUE: HAL_USART_Transmit_IT:pTxData <- $r1
	@DEBUG_VALUE: HAL_USART_Transmit_IT:husart <- $r0
	.loc	7 0 6                   @ ../Drivers/STM32F7xx_HAL_Driver/Src/stm32f7xx_hal_usart.c:0:6
	movs	r3, #1
.Ltmp227:
	.loc	7 613 27 is_stmt 1      @ ../Drivers/STM32F7xx_HAL_Driver/Src/stm32f7xx_hal_usart.c:613:27
	cbz	r1, .LBB8_5
.Ltmp228:
@ %bb.2:
	@DEBUG_VALUE: HAL_USART_Transmit_IT:Size <- $r2
	@DEBUG_VALUE: HAL_USART_Transmit_IT:pTxData <- $r1
	@DEBUG_VALUE: HAL_USART_Transmit_IT:husart <- $r0
	cbz	r2, .LBB8_5
.Ltmp229:
@ %bb.3:
	@DEBUG_VALUE: HAL_USART_Transmit_IT:Size <- $r2
	@DEBUG_VALUE: HAL_USART_Transmit_IT:pTxData <- $r1
	@DEBUG_VALUE: HAL_USART_Transmit_IT:husart <- $r0
	.loc	7 619 5                 @ ../Drivers/STM32F7xx_HAL_Driver/Src/stm32f7xx_hal_usart.c:619:5
	ldrb.w	r3, [r0, #68]
.Ltmp230:
	.loc	7 619 5 is_stmt 0       @ ../Drivers/STM32F7xx_HAL_Driver/Src/stm32f7xx_hal_usart.c:619:5
	cmp	r3, #1
	bne	.LBB8_6
.Ltmp231:
.LBB8_4:
	@DEBUG_VALUE: HAL_USART_Transmit_IT:Size <- $r2
	@DEBUG_VALUE: HAL_USART_Transmit_IT:pTxData <- $r1
	@DEBUG_VALUE: HAL_USART_Transmit_IT:husart <- $r0
	.loc	7 0 5                   @ ../Drivers/STM32F7xx_HAL_Driver/Src/stm32f7xx_hal_usart.c:0:5
	movs	r3, #2
.Ltmp232:
.LBB8_5:
	@DEBUG_VALUE: HAL_USART_Transmit_IT:Size <- $r2
	.loc	7 646 1 is_stmt 1       @ ../Drivers/STM32F7xx_HAL_Driver/Src/stm32f7xx_hal_usart.c:646:1
	uxtb	r0, r3
	bx	lr
.LBB8_6:
	@DEBUG_VALUE: HAL_USART_Transmit_IT:Size <- $r2
.Ltmp233:
	@DEBUG_VALUE: HAL_USART_Transmit_IT:pTxData <- $r1
	@DEBUG_VALUE: HAL_USART_Transmit_IT:husart <- $r0
	@DEBUG_VALUE: HAL_USART_Transmit_IT:Size <- $r2
	.loc	7 623 25                @ ../Drivers/STM32F7xx_HAL_Driver/Src/stm32f7xx_hal_usart.c:623:25
	strh	r2, [r0, #46]
	.loc	7 622 24                @ ../Drivers/STM32F7xx_HAL_Driver/Src/stm32f7xx_hal_usart.c:622:24
	strh	r2, [r0, #44]
	.loc	7 621 24                @ ../Drivers/STM32F7xx_HAL_Driver/Src/stm32f7xx_hal_usart.c:621:24
	str	r1, [r0, #40]
.Ltmp234:
	.loc	7 635 5                 @ ../Drivers/STM32F7xx_HAL_Driver/Src/stm32f7xx_hal_usart.c:635:5
	mov.w	r1, #4608
.Ltmp235:
	.loc	7 0 5 is_stmt 0         @ ../Drivers/STM32F7xx_HAL_Driver/Src/stm32f7xx_hal_usart.c:0:5
	movs	r3, #0
	.loc	7 635 5                 @ ../Drivers/STM32F7xx_HAL_Driver/Src/stm32f7xx_hal_usart.c:635:5
	strh.w	r1, [r0, #68]
.Ltmp236:
	.loc	7 625 23 is_stmt 1      @ ../Drivers/STM32F7xx_HAL_Driver/Src/stm32f7xx_hal_usart.c:625:23
	str	r3, [r0, #72]
	.loc	7 638 5                 @ ../Drivers/STM32F7xx_HAL_Driver/Src/stm32f7xx_hal_usart.c:638:5
	ldr	r0, [r0]
.Ltmp237:
	ldr	r1, [r0, #8]
	orr	r1, r1, #1
	str	r1, [r0, #8]
	b	.LBB8_5
.Ltmp238:
.Lfunc_end8:
	.size	HAL_USART_Transmit_IT, .Lfunc_end8-HAL_USART_Transmit_IT
	.cfi_endproc
	.cantunwind
	.fnend
                                        @ -- End function
	.section	.text.HAL_USART_Receive_IT,"ax",%progbits
	.hidden	HAL_USART_Receive_IT    @ -- Begin function HAL_USART_Receive_IT
	.globl	HAL_USART_Receive_IT
	.p2align	1
	.type	HAL_USART_Receive_IT,%function
	.code	16                      @ @HAL_USART_Receive_IT
	.thumb_func
HAL_USART_Receive_IT:
.Lfunc_begin9:
	.loc	7 657 0                 @ ../Drivers/STM32F7xx_HAL_Driver/Src/stm32f7xx_hal_usart.c:657:0
	.fnstart
	.cfi_startproc
@ %bb.0:
	@DEBUG_VALUE: HAL_USART_Receive_IT:husart <- $r0
	@DEBUG_VALUE: HAL_USART_Receive_IT:husart <- $r0
	@DEBUG_VALUE: HAL_USART_Receive_IT:pRxData <- $r1
	@DEBUG_VALUE: HAL_USART_Receive_IT:pRxData <- $r1
	@DEBUG_VALUE: HAL_USART_Receive_IT:Size <- $r2
	@DEBUG_VALUE: HAL_USART_Receive_IT:Size <- $r2
	.loc	7 658 14 prologue_end   @ ../Drivers/STM32F7xx_HAL_Driver/Src/stm32f7xx_hal_usart.c:658:14
	ldrb.w	r3, [r0, #69]
.Ltmp239:
	.loc	7 658 6 is_stmt 0       @ ../Drivers/STM32F7xx_HAL_Driver/Src/stm32f7xx_hal_usart.c:658:6
	cmp	r3, #1
	bne	.LBB9_4
.Ltmp240:
@ %bb.1:
	@DEBUG_VALUE: HAL_USART_Receive_IT:Size <- $r2
	@DEBUG_VALUE: HAL_USART_Receive_IT:pRxData <- $r1
	@DEBUG_VALUE: HAL_USART_Receive_IT:husart <- $r0
	.loc	7 0 6                   @ ../Drivers/STM32F7xx_HAL_Driver/Src/stm32f7xx_hal_usart.c:0:6
	movs	r3, #1
.Ltmp241:
	.loc	7 660 27 is_stmt 1      @ ../Drivers/STM32F7xx_HAL_Driver/Src/stm32f7xx_hal_usart.c:660:27
	cbz	r1, .LBB9_5
.Ltmp242:
@ %bb.2:
	@DEBUG_VALUE: HAL_USART_Receive_IT:Size <- $r2
	@DEBUG_VALUE: HAL_USART_Receive_IT:pRxData <- $r1
	@DEBUG_VALUE: HAL_USART_Receive_IT:husart <- $r0
	cbz	r2, .LBB9_5
.Ltmp243:
@ %bb.3:
	@DEBUG_VALUE: HAL_USART_Receive_IT:Size <- $r2
	@DEBUG_VALUE: HAL_USART_Receive_IT:pRxData <- $r1
	@DEBUG_VALUE: HAL_USART_Receive_IT:husart <- $r0
	.loc	7 665 5                 @ ../Drivers/STM32F7xx_HAL_Driver/Src/stm32f7xx_hal_usart.c:665:5
	ldrb.w	r3, [r0, #68]
.Ltmp244:
	.loc	7 665 5 is_stmt 0       @ ../Drivers/STM32F7xx_HAL_Driver/Src/stm32f7xx_hal_usart.c:665:5
	cmp	r3, #1
	bne	.LBB9_6
.Ltmp245:
.LBB9_4:
	@DEBUG_VALUE: HAL_USART_Receive_IT:Size <- $r2
	@DEBUG_VALUE: HAL_USART_Receive_IT:pRxData <- $r1
	@DEBUG_VALUE: HAL_USART_Receive_IT:husart <- $r0
	.loc	7 0 5                   @ ../Drivers/STM32F7xx_HAL_Driver/Src/stm32f7xx_hal_usart.c:0:5
	movs	r3, #2
.Ltmp246:
.LBB9_5:
	.loc	7 702 1 is_stmt 1       @ ../Drivers/STM32F7xx_HAL_Driver/Src/stm32f7xx_hal_usart.c:702:1
	uxtb	r0, r3
	bx	lr
.LBB9_6:
.Ltmp247:
	@DEBUG_VALUE: HAL_USART_Receive_IT:Size <- $r2
	@DEBUG_VALUE: HAL_USART_Receive_IT:pRxData <- $r1
	@DEBUG_VALUE: HAL_USART_Receive_IT:husart <- $r0
	@DEBUG_VALUE: HAL_USART_Receive_IT:Size <- $r2
	.loc	7 667 24                @ ../Drivers/STM32F7xx_HAL_Driver/Src/stm32f7xx_hal_usart.c:667:24
	str	r1, [r0, #48]
.Ltmp248:
	.loc	7 665 5                 @ ../Drivers/STM32F7xx_HAL_Driver/Src/stm32f7xx_hal_usart.c:665:5
	movs	r1, #1
.Ltmp249:
	strb.w	r1, [r0, #68]
.Ltmp250:
	.loc	7 668 24                @ ../Drivers/STM32F7xx_HAL_Driver/Src/stm32f7xx_hal_usart.c:668:24
	strh	r2, [r0, #52]
	.loc	7 669 25                @ ../Drivers/STM32F7xx_HAL_Driver/Src/stm32f7xx_hal_usart.c:669:25
	strh	r2, [r0, #54]
.Ltmp251:
	.loc	7 671 5                 @ ../Drivers/STM32F7xx_HAL_Driver/Src/stm32f7xx_hal_usart.c:671:5
	ldr	r1, [r0, #8]
.Ltmp252:
	.loc	7 671 5 is_stmt 0       @ ../Drivers/STM32F7xx_HAL_Driver/Src/stm32f7xx_hal_usart.c:671:5
	cbz	r1, .LBB9_11
.Ltmp253:
@ %bb.7:
	@DEBUG_VALUE: HAL_USART_Receive_IT:Size <- $r2
	@DEBUG_VALUE: HAL_USART_Receive_IT:husart <- $r0
	cmp.w	r1, #268435456
	beq	.LBB9_13
.Ltmp254:
@ %bb.8:
	@DEBUG_VALUE: HAL_USART_Receive_IT:Size <- $r2
	@DEBUG_VALUE: HAL_USART_Receive_IT:husart <- $r0
	cmp.w	r1, #4096
	bne	.LBB9_17
.Ltmp255:
@ %bb.9:
	@DEBUG_VALUE: HAL_USART_Receive_IT:Size <- $r2
	@DEBUG_VALUE: HAL_USART_Receive_IT:husart <- $r0
	.loc	7 671 5                 @ ../Drivers/STM32F7xx_HAL_Driver/Src/stm32f7xx_hal_usart.c:671:5
	ldr	r2, [r0, #16]
.Ltmp256:
	.loc	7 671 5                 @ ../Drivers/STM32F7xx_HAL_Driver/Src/stm32f7xx_hal_usart.c:671:5
	cbnz	r2, .LBB9_12
.Ltmp257:
@ %bb.10:
	@DEBUG_VALUE: HAL_USART_Receive_IT:husart <- $r0
	.loc	7 671 5                 @ ../Drivers/STM32F7xx_HAL_Driver/Src/stm32f7xx_hal_usart.c:671:5
	movw	r2, #511
	b	.LBB9_16
.Ltmp258:
.LBB9_11:
	@DEBUG_VALUE: HAL_USART_Receive_IT:Size <- $r2
	@DEBUG_VALUE: HAL_USART_Receive_IT:husart <- $r0
	.loc	7 671 5                 @ ../Drivers/STM32F7xx_HAL_Driver/Src/stm32f7xx_hal_usart.c:671:5
	ldr	r2, [r0, #16]
.Ltmp259:
	.loc	7 671 5                 @ ../Drivers/STM32F7xx_HAL_Driver/Src/stm32f7xx_hal_usart.c:671:5
	cbnz	r2, .LBB9_15
.Ltmp260:
.LBB9_12:
	@DEBUG_VALUE: HAL_USART_Receive_IT:husart <- $r0
	.loc	7 671 5                 @ ../Drivers/STM32F7xx_HAL_Driver/Src/stm32f7xx_hal_usart.c:671:5
	movs	r2, #255
	b	.LBB9_16
.Ltmp261:
.LBB9_13:
	@DEBUG_VALUE: HAL_USART_Receive_IT:Size <- $r2
	@DEBUG_VALUE: HAL_USART_Receive_IT:husart <- $r0
	.loc	7 671 5                 @ ../Drivers/STM32F7xx_HAL_Driver/Src/stm32f7xx_hal_usart.c:671:5
	ldr	r2, [r0, #16]
.Ltmp262:
	.loc	7 671 5                 @ ../Drivers/STM32F7xx_HAL_Driver/Src/stm32f7xx_hal_usart.c:671:5
	cbz	r2, .LBB9_15
.Ltmp263:
@ %bb.14:
	@DEBUG_VALUE: HAL_USART_Receive_IT:husart <- $r0
	.loc	7 671 5                 @ ../Drivers/STM32F7xx_HAL_Driver/Src/stm32f7xx_hal_usart.c:671:5
	movs	r2, #63
	b	.LBB9_16
.Ltmp264:
.LBB9_15:
	@DEBUG_VALUE: HAL_USART_Receive_IT:husart <- $r0
	.loc	7 671 5                 @ ../Drivers/STM32F7xx_HAL_Driver/Src/stm32f7xx_hal_usart.c:671:5
	movs	r2, #127
.Ltmp265:
.LBB9_16:
	@DEBUG_VALUE: HAL_USART_Receive_IT:husart <- $r0
	.loc	7 671 5                 @ ../Drivers/STM32F7xx_HAL_Driver/Src/stm32f7xx_hal_usart.c:671:5
	strh	r2, [r0, #56]
.Ltmp266:
.LBB9_17:
	@DEBUG_VALUE: HAL_USART_Receive_IT:husart <- $r0
	.loc	7 674 19 is_stmt 1      @ ../Drivers/STM32F7xx_HAL_Driver/Src/stm32f7xx_hal_usart.c:674:19
	movs	r2, #34
	mov.w	r12, #0
	.loc	7 687 8                 @ ../Drivers/STM32F7xx_HAL_Driver/Src/stm32f7xx_hal_usart.c:687:8
	cmp.w	r1, #4096
	.loc	7 674 19                @ ../Drivers/STM32F7xx_HAL_Driver/Src/stm32f7xx_hal_usart.c:674:19
	strb.w	r2, [r0, #69]
	.loc	7 673 23                @ ../Drivers/STM32F7xx_HAL_Driver/Src/stm32f7xx_hal_usart.c:673:23
	str.w	r12, [r0, #72]
	.loc	7 677 5                 @ ../Drivers/STM32F7xx_HAL_Driver/Src/stm32f7xx_hal_usart.c:677:5
	ldr	r2, [r0]
	ldr	r3, [r2]
	orr	r3, r3, #288
	str	r3, [r2]
	.loc	7 680 5                 @ ../Drivers/STM32F7xx_HAL_Driver/Src/stm32f7xx_hal_usart.c:680:5
	ldr	r3, [r2, #8]
	orr	r3, r3, #1
	str	r3, [r2, #8]
.Ltmp267:
	.loc	7 683 5                 @ ../Drivers/STM32F7xx_HAL_Driver/Src/stm32f7xx_hal_usart.c:683:5
	strb.w	r12, [r0, #68]
.Ltmp268:
	.loc	7 693 29                @ ../Drivers/STM32F7xx_HAL_Driver/Src/stm32f7xx_hal_usart.c:693:29
	ite	ne
	movne	r0, #255
.Ltmp269:
	.loc	7 689 29                @ ../Drivers/STM32F7xx_HAL_Driver/Src/stm32f7xx_hal_usart.c:689:29
	movweq	r0, #511
	movs	r3, #0
	str	r0, [r2, #40]
	b	.LBB9_5
.Ltmp270:
.Lfunc_end9:
	.size	HAL_USART_Receive_IT, .Lfunc_end9-HAL_USART_Receive_IT
	.cfi_endproc
	.cantunwind
	.fnend
                                        @ -- End function
	.section	.text.HAL_USART_TransmitReceive_IT,"ax",%progbits
	.hidden	HAL_USART_TransmitReceive_IT @ -- Begin function HAL_USART_TransmitReceive_IT
	.globl	HAL_USART_TransmitReceive_IT
	.p2align	1
	.type	HAL_USART_TransmitReceive_IT,%function
	.code	16                      @ @HAL_USART_TransmitReceive_IT
	.thumb_func
HAL_USART_TransmitReceive_IT:
.Lfunc_begin10:
	.loc	7 713 0                 @ ../Drivers/STM32F7xx_HAL_Driver/Src/stm32f7xx_hal_usart.c:713:0
	.fnstart
	.cfi_startproc
@ %bb.0:
	@DEBUG_VALUE: HAL_USART_TransmitReceive_IT:husart <- $r0
	@DEBUG_VALUE: HAL_USART_TransmitReceive_IT:husart <- $r0
	@DEBUG_VALUE: HAL_USART_TransmitReceive_IT:pTxData <- $r1
	@DEBUG_VALUE: HAL_USART_TransmitReceive_IT:pTxData <- $r1
	@DEBUG_VALUE: HAL_USART_TransmitReceive_IT:pRxData <- $r2
	@DEBUG_VALUE: HAL_USART_TransmitReceive_IT:pRxData <- $r2
	@DEBUG_VALUE: HAL_USART_TransmitReceive_IT:Size <- $r3
	@DEBUG_VALUE: HAL_USART_TransmitReceive_IT:Size <- $r3
	.loc	7 715 14 prologue_end   @ ../Drivers/STM32F7xx_HAL_Driver/Src/stm32f7xx_hal_usart.c:715:14
	ldrb.w	r12, [r0, #69]
.Ltmp271:
	.loc	7 715 6 is_stmt 0       @ ../Drivers/STM32F7xx_HAL_Driver/Src/stm32f7xx_hal_usart.c:715:6
	cmp.w	r12, #1
	bne	.LBB10_5
.Ltmp272:
@ %bb.1:
	@DEBUG_VALUE: HAL_USART_TransmitReceive_IT:Size <- $r3
	@DEBUG_VALUE: HAL_USART_TransmitReceive_IT:pRxData <- $r2
	@DEBUG_VALUE: HAL_USART_TransmitReceive_IT:pTxData <- $r1
	@DEBUG_VALUE: HAL_USART_TransmitReceive_IT:husart <- $r0
	.loc	7 0 6                   @ ../Drivers/STM32F7xx_HAL_Driver/Src/stm32f7xx_hal_usart.c:0:6
	mov.w	r12, #1
.Ltmp273:
	.loc	7 717 26 is_stmt 1      @ ../Drivers/STM32F7xx_HAL_Driver/Src/stm32f7xx_hal_usart.c:717:26
	cbz	r1, .LBB10_6
.Ltmp274:
@ %bb.2:
	@DEBUG_VALUE: HAL_USART_TransmitReceive_IT:Size <- $r3
	@DEBUG_VALUE: HAL_USART_TransmitReceive_IT:pRxData <- $r2
	@DEBUG_VALUE: HAL_USART_TransmitReceive_IT:pTxData <- $r1
	@DEBUG_VALUE: HAL_USART_TransmitReceive_IT:husart <- $r0
	cbz	r2, .LBB10_6
.Ltmp275:
@ %bb.3:
	@DEBUG_VALUE: HAL_USART_TransmitReceive_IT:Size <- $r3
	@DEBUG_VALUE: HAL_USART_TransmitReceive_IT:pRxData <- $r2
	@DEBUG_VALUE: HAL_USART_TransmitReceive_IT:pTxData <- $r1
	@DEBUG_VALUE: HAL_USART_TransmitReceive_IT:husart <- $r0
	cbz	r3, .LBB10_6
.Ltmp276:
@ %bb.4:
	@DEBUG_VALUE: HAL_USART_TransmitReceive_IT:Size <- $r3
	@DEBUG_VALUE: HAL_USART_TransmitReceive_IT:pRxData <- $r2
	@DEBUG_VALUE: HAL_USART_TransmitReceive_IT:pTxData <- $r1
	@DEBUG_VALUE: HAL_USART_TransmitReceive_IT:husart <- $r0
	.loc	7 722 5                 @ ../Drivers/STM32F7xx_HAL_Driver/Src/stm32f7xx_hal_usart.c:722:5
	ldrb.w	r12, [r0, #68]
.Ltmp277:
	.loc	7 722 5 is_stmt 0       @ ../Drivers/STM32F7xx_HAL_Driver/Src/stm32f7xx_hal_usart.c:722:5
	cmp.w	r12, #1
	bne	.LBB10_7
.Ltmp278:
.LBB10_5:
	@DEBUG_VALUE: HAL_USART_TransmitReceive_IT:Size <- $r3
	@DEBUG_VALUE: HAL_USART_TransmitReceive_IT:pRxData <- $r2
	@DEBUG_VALUE: HAL_USART_TransmitReceive_IT:pTxData <- $r1
	@DEBUG_VALUE: HAL_USART_TransmitReceive_IT:husart <- $r0
	.loc	7 0 5                   @ ../Drivers/STM32F7xx_HAL_Driver/Src/stm32f7xx_hal_usart.c:0:5
	mov.w	r12, #2
.Ltmp279:
.LBB10_6:
	@DEBUG_VALUE: HAL_USART_TransmitReceive_IT:Size <- $r3
	.loc	7 758 1 is_stmt 1       @ ../Drivers/STM32F7xx_HAL_Driver/Src/stm32f7xx_hal_usart.c:758:1
	uxtb.w	r0, r12
	bx	lr
.LBB10_7:
	@DEBUG_VALUE: HAL_USART_TransmitReceive_IT:Size <- $r3
.Ltmp280:
	@DEBUG_VALUE: HAL_USART_TransmitReceive_IT:pRxData <- $r2
	@DEBUG_VALUE: HAL_USART_TransmitReceive_IT:pTxData <- $r1
	@DEBUG_VALUE: HAL_USART_TransmitReceive_IT:husart <- $r0
	@DEBUG_VALUE: HAL_USART_TransmitReceive_IT:Size <- $r3
	.loc	7 726 25                @ ../Drivers/STM32F7xx_HAL_Driver/Src/stm32f7xx_hal_usart.c:726:25
	strh	r3, [r0, #54]
	.loc	7 724 24                @ ../Drivers/STM32F7xx_HAL_Driver/Src/stm32f7xx_hal_usart.c:724:24
	str	r2, [r0, #48]
.Ltmp281:
	.loc	7 722 5                 @ ../Drivers/STM32F7xx_HAL_Driver/Src/stm32f7xx_hal_usart.c:722:5
	movs	r2, #1
.Ltmp282:
	strb.w	r2, [r0, #68]
.Ltmp283:
	.loc	7 725 24                @ ../Drivers/STM32F7xx_HAL_Driver/Src/stm32f7xx_hal_usart.c:725:24
	strh	r3, [r0, #52]
	.loc	7 727 24                @ ../Drivers/STM32F7xx_HAL_Driver/Src/stm32f7xx_hal_usart.c:727:24
	str	r1, [r0, #40]
	.loc	7 728 24                @ ../Drivers/STM32F7xx_HAL_Driver/Src/stm32f7xx_hal_usart.c:728:24
	strh	r3, [r0, #44]
	.loc	7 729 25                @ ../Drivers/STM32F7xx_HAL_Driver/Src/stm32f7xx_hal_usart.c:729:25
	strh	r3, [r0, #46]
.Ltmp284:
	.loc	7 732 5                 @ ../Drivers/STM32F7xx_HAL_Driver/Src/stm32f7xx_hal_usart.c:732:5
	ldr	r1, [r0, #8]
.Ltmp285:
	.loc	7 732 5 is_stmt 0       @ ../Drivers/STM32F7xx_HAL_Driver/Src/stm32f7xx_hal_usart.c:732:5
	cbz	r1, .LBB10_12
.Ltmp286:
@ %bb.8:
	@DEBUG_VALUE: HAL_USART_TransmitReceive_IT:Size <- $r3
	@DEBUG_VALUE: HAL_USART_TransmitReceive_IT:husart <- $r0
	cmp.w	r1, #268435456
	beq	.LBB10_14
.Ltmp287:
@ %bb.9:
	@DEBUG_VALUE: HAL_USART_TransmitReceive_IT:Size <- $r3
	@DEBUG_VALUE: HAL_USART_TransmitReceive_IT:husart <- $r0
	cmp.w	r1, #4096
	bne	.LBB10_18
.Ltmp288:
@ %bb.10:
	@DEBUG_VALUE: HAL_USART_TransmitReceive_IT:Size <- $r3
	@DEBUG_VALUE: HAL_USART_TransmitReceive_IT:husart <- $r0
	.loc	7 732 5                 @ ../Drivers/STM32F7xx_HAL_Driver/Src/stm32f7xx_hal_usart.c:732:5
	ldr	r1, [r0, #16]
.Ltmp289:
	.loc	7 732 5                 @ ../Drivers/STM32F7xx_HAL_Driver/Src/stm32f7xx_hal_usart.c:732:5
	cbnz	r1, .LBB10_13
.Ltmp290:
@ %bb.11:
	@DEBUG_VALUE: HAL_USART_TransmitReceive_IT:Size <- $r3
	@DEBUG_VALUE: HAL_USART_TransmitReceive_IT:husart <- $r0
	.loc	7 732 5                 @ ../Drivers/STM32F7xx_HAL_Driver/Src/stm32f7xx_hal_usart.c:732:5
	movw	r1, #511
	b	.LBB10_17
.Ltmp291:
.LBB10_12:
	@DEBUG_VALUE: HAL_USART_TransmitReceive_IT:Size <- $r3
	@DEBUG_VALUE: HAL_USART_TransmitReceive_IT:husart <- $r0
	.loc	7 732 5                 @ ../Drivers/STM32F7xx_HAL_Driver/Src/stm32f7xx_hal_usart.c:732:5
	ldr	r1, [r0, #16]
.Ltmp292:
	.loc	7 732 5                 @ ../Drivers/STM32F7xx_HAL_Driver/Src/stm32f7xx_hal_usart.c:732:5
	cbnz	r1, .LBB10_16
.Ltmp293:
.LBB10_13:
	@DEBUG_VALUE: HAL_USART_TransmitReceive_IT:Size <- $r3
	@DEBUG_VALUE: HAL_USART_TransmitReceive_IT:husart <- $r0
	.loc	7 732 5                 @ ../Drivers/STM32F7xx_HAL_Driver/Src/stm32f7xx_hal_usart.c:732:5
	movs	r1, #255
	b	.LBB10_17
.Ltmp294:
.LBB10_14:
	@DEBUG_VALUE: HAL_USART_TransmitReceive_IT:Size <- $r3
	@DEBUG_VALUE: HAL_USART_TransmitReceive_IT:husart <- $r0
	.loc	7 732 5                 @ ../Drivers/STM32F7xx_HAL_Driver/Src/stm32f7xx_hal_usart.c:732:5
	ldr	r1, [r0, #16]
.Ltmp295:
	.loc	7 732 5                 @ ../Drivers/STM32F7xx_HAL_Driver/Src/stm32f7xx_hal_usart.c:732:5
	cbz	r1, .LBB10_16
.Ltmp296:
@ %bb.15:
	@DEBUG_VALUE: HAL_USART_TransmitReceive_IT:Size <- $r3
	@DEBUG_VALUE: HAL_USART_TransmitReceive_IT:husart <- $r0
	.loc	7 732 5                 @ ../Drivers/STM32F7xx_HAL_Driver/Src/stm32f7xx_hal_usart.c:732:5
	movs	r1, #63
	b	.LBB10_17
.Ltmp297:
.LBB10_16:
	@DEBUG_VALUE: HAL_USART_TransmitReceive_IT:Size <- $r3
	@DEBUG_VALUE: HAL_USART_TransmitReceive_IT:husart <- $r0
	.loc	7 732 5                 @ ../Drivers/STM32F7xx_HAL_Driver/Src/stm32f7xx_hal_usart.c:732:5
	movs	r1, #127
.Ltmp298:
.LBB10_17:
	@DEBUG_VALUE: HAL_USART_TransmitReceive_IT:Size <- $r3
	@DEBUG_VALUE: HAL_USART_TransmitReceive_IT:husart <- $r0
	.loc	7 732 5                 @ ../Drivers/STM32F7xx_HAL_Driver/Src/stm32f7xx_hal_usart.c:732:5
	strh	r1, [r0, #56]
.Ltmp299:
.LBB10_18:
	@DEBUG_VALUE: HAL_USART_TransmitReceive_IT:Size <- $r3
	@DEBUG_VALUE: HAL_USART_TransmitReceive_IT:husart <- $r0
	.loc	7 735 19 is_stmt 1      @ ../Drivers/STM32F7xx_HAL_Driver/Src/stm32f7xx_hal_usart.c:735:19
	movs	r1, #50
	mov.w	r12, #0
	strb.w	r1, [r0, #69]
	.loc	7 734 23                @ ../Drivers/STM32F7xx_HAL_Driver/Src/stm32f7xx_hal_usart.c:734:23
	str.w	r12, [r0, #72]
	.loc	7 738 5                 @ ../Drivers/STM32F7xx_HAL_Driver/Src/stm32f7xx_hal_usart.c:738:5
	ldr	r1, [r0]
	ldr	r2, [r1]
	orr	r2, r2, #32
	str	r2, [r1]
	.loc	7 741 5                 @ ../Drivers/STM32F7xx_HAL_Driver/Src/stm32f7xx_hal_usart.c:741:5
	ldr	r2, [r1]
	orr	r2, r2, #256
	str	r2, [r1]
	.loc	7 744 5                 @ ../Drivers/STM32F7xx_HAL_Driver/Src/stm32f7xx_hal_usart.c:744:5
	ldr	r2, [r1, #8]
	orr	r2, r2, #1
	str	r2, [r1, #8]
.Ltmp300:
	.loc	7 747 5                 @ ../Drivers/STM32F7xx_HAL_Driver/Src/stm32f7xx_hal_usart.c:747:5
	strb.w	r12, [r0, #68]
.Ltmp301:
	.loc	7 750 5                 @ ../Drivers/STM32F7xx_HAL_Driver/Src/stm32f7xx_hal_usart.c:750:5
	ldr	r0, [r1]
.Ltmp302:
	orr	r0, r0, #128
	str	r0, [r1]
	b	.LBB10_6
.Ltmp303:
.Lfunc_end10:
	.size	HAL_USART_TransmitReceive_IT, .Lfunc_end10-HAL_USART_TransmitReceive_IT
	.cfi_endproc
	.cantunwind
	.fnend
                                        @ -- End function
	.section	.text.HAL_USART_Transmit_DMA,"ax",%progbits
	.hidden	HAL_USART_Transmit_DMA  @ -- Begin function HAL_USART_Transmit_DMA
	.globl	HAL_USART_Transmit_DMA
	.p2align	2
	.type	HAL_USART_Transmit_DMA,%function
	.code	16                      @ @HAL_USART_Transmit_DMA
	.thumb_func
HAL_USART_Transmit_DMA:
.Lfunc_begin11:
	.loc	7 768 0                 @ ../Drivers/STM32F7xx_HAL_Driver/Src/stm32f7xx_hal_usart.c:768:0
	.fnstart
	.cfi_startproc
@ %bb.0:
	.save	{r4, r5, r7, lr}
	push	{r4, r5, r7, lr}
	.cfi_def_cfa_offset 16
	.cfi_offset lr, -4
	.cfi_offset r7, -8
	.cfi_offset r5, -12
	.cfi_offset r4, -16
	@DEBUG_VALUE: HAL_USART_Transmit_DMA:husart <- $r0
	@DEBUG_VALUE: HAL_USART_Transmit_DMA:Size <- $r2
	mov	r4, r0
.Ltmp304:
	@DEBUG_VALUE: HAL_USART_Transmit_DMA:Size <- $r3
	@DEBUG_VALUE: HAL_USART_Transmit_DMA:husart <- $r4
	.loc	7 771 14 prologue_end   @ ../Drivers/STM32F7xx_HAL_Driver/Src/stm32f7xx_hal_usart.c:771:14
	ldrb.w	r0, [r0, #69]
	mov	r3, r2
.Ltmp305:
	.loc	7 771 6 is_stmt 0       @ ../Drivers/STM32F7xx_HAL_Driver/Src/stm32f7xx_hal_usart.c:771:6
	cmp	r0, #1
	bne	.LBB11_4
.Ltmp306:
@ %bb.1:
	@DEBUG_VALUE: HAL_USART_Transmit_DMA:husart <- $r4
	.loc	7 773 27 is_stmt 1      @ ../Drivers/STM32F7xx_HAL_Driver/Src/stm32f7xx_hal_usart.c:773:27
	cbz	r1, .LBB11_5
.Ltmp307:
@ %bb.2:
	@DEBUG_VALUE: HAL_USART_Transmit_DMA:husart <- $r4
	.loc	7 773 8 is_stmt 0       @ ../Drivers/STM32F7xx_HAL_Driver/Src/stm32f7xx_hal_usart.c:773:8
	cbz	r3, .LBB11_5
.Ltmp308:
@ %bb.3:
	@DEBUG_VALUE: HAL_USART_Transmit_DMA:husart <- $r4
	.loc	7 778 5 is_stmt 1       @ ../Drivers/STM32F7xx_HAL_Driver/Src/stm32f7xx_hal_usart.c:778:5
	ldrb.w	r0, [r4, #68]
.Ltmp309:
	.loc	7 778 5 is_stmt 0       @ ../Drivers/STM32F7xx_HAL_Driver/Src/stm32f7xx_hal_usart.c:778:5
	cmp	r0, #1
	bne	.LBB11_6
.Ltmp310:
.LBB11_4:
	@DEBUG_VALUE: HAL_USART_Transmit_DMA:husart <- $r4
	.loc	7 0 5                   @ ../Drivers/STM32F7xx_HAL_Driver/Src/stm32f7xx_hal_usart.c:0:5
	movs	r5, #2
	b	.LBB11_7
.Ltmp311:
.LBB11_5:
	@DEBUG_VALUE: HAL_USART_Transmit_DMA:husart <- $r4
	movs	r5, #1
	b	.LBB11_7
.Ltmp312:
.LBB11_6:
	@DEBUG_VALUE: HAL_USART_Transmit_DMA:husart <- $r4
	@DEBUG_VALUE: HAL_USART_Transmit_DMA:Size <- $r3
	.loc	7 778 5                 @ ../Drivers/STM32F7xx_HAL_Driver/Src/stm32f7xx_hal_usart.c:778:5
	movw	r0, #4609
	movs	r5, #0
.Ltmp313:
	.loc	7 782 25 is_stmt 1      @ ../Drivers/STM32F7xx_HAL_Driver/Src/stm32f7xx_hal_usart.c:782:25
	strh	r3, [r4, #46]
	.loc	7 780 24                @ ../Drivers/STM32F7xx_HAL_Driver/Src/stm32f7xx_hal_usart.c:780:24
	str	r1, [r4, #40]
	.loc	7 791 42                @ ../Drivers/STM32F7xx_HAL_Driver/Src/stm32f7xx_hal_usart.c:791:42
	ldr.w	r12, __arm_cp.11_0
	.loc	7 788 38                @ ../Drivers/STM32F7xx_HAL_Driver/Src/stm32f7xx_hal_usart.c:788:38
	ldr	r2, __arm_cp.11_1
.Ltmp314:
	.loc	7 778 5                 @ ../Drivers/STM32F7xx_HAL_Driver/Src/stm32f7xx_hal_usart.c:778:5
	strh.w	r0, [r4, #68]
.Ltmp315:
	.loc	7 781 24                @ ../Drivers/STM32F7xx_HAL_Driver/Src/stm32f7xx_hal_usart.c:781:24
	strh	r3, [r4, #44]
	.loc	7 784 23                @ ../Drivers/STM32F7xx_HAL_Driver/Src/stm32f7xx_hal_usart.c:784:23
	str	r5, [r4, #72]
	.loc	7 788 13                @ ../Drivers/STM32F7xx_HAL_Driver/Src/stm32f7xx_hal_usart.c:788:13
	ldr	r0, [r4, #60]
	.loc	7 788 38 is_stmt 0      @ ../Drivers/STM32F7xx_HAL_Driver/Src/stm32f7xx_hal_usart.c:788:38
	strd	r2, r12, [r0, #60]
	.loc	7 794 39 is_stmt 1      @ ../Drivers/STM32F7xx_HAL_Driver/Src/stm32f7xx_hal_usart.c:794:39
	ldr	r2, __arm_cp.11_2
	str	r2, [r0, #76]
	.loc	7 797 5                 @ ../Drivers/STM32F7xx_HAL_Driver/Src/stm32f7xx_hal_usart.c:797:5
	ldr.w	r12, [r4]
	ldr.w	r2, [r12, #8]
	orr	r2, r2, #1
	str.w	r2, [r12, #8]
	.loc	7 798 5                 @ ../Drivers/STM32F7xx_HAL_Driver/Src/stm32f7xx_hal_usart.c:798:5
	ldr.w	r2, [r12, #28]
	orr	r2, r2, #15
	str.w	r2, [r12, #28]
	.loc	7 802 84                @ ../Drivers/STM32F7xx_HAL_Driver/Src/stm32f7xx_hal_usart.c:802:84
	add.w	r2, r12, #40
	.loc	7 802 5 is_stmt 0       @ ../Drivers/STM32F7xx_HAL_Driver/Src/stm32f7xx_hal_usart.c:802:5
	bl	HAL_DMA_Start_IT
.Ltmp316:
	.loc	7 805 5 is_stmt 1       @ ../Drivers/STM32F7xx_HAL_Driver/Src/stm32f7xx_hal_usart.c:805:5
	ldr	r0, [r4]
	movs	r1, #64
	str	r1, [r0, #32]
.Ltmp317:
	.loc	7 808 5                 @ ../Drivers/STM32F7xx_HAL_Driver/Src/stm32f7xx_hal_usart.c:808:5
	strb.w	r5, [r4, #68]
.Ltmp318:
	.loc	7 812 5                 @ ../Drivers/STM32F7xx_HAL_Driver/Src/stm32f7xx_hal_usart.c:812:5
	ldr	r1, [r0, #8]
	orr	r1, r1, #128
	str	r1, [r0, #8]
.Ltmp319:
.LBB11_7:
	@DEBUG_VALUE: HAL_USART_Transmit_DMA:husart <- $r4
	.loc	7 820 1                 @ ../Drivers/STM32F7xx_HAL_Driver/Src/stm32f7xx_hal_usart.c:820:1
	uxtb	r0, r5
	pop	{r4, r5, r7, pc}
.Ltmp320:
	.p2align	2
@ %bb.8:
	.loc	7 0 1 is_stmt 0         @ ../Drivers/STM32F7xx_HAL_Driver/Src/stm32f7xx_hal_usart.c:0:1
__arm_cp.11_0:
	.long	USART_DMATxHalfCplt
.Lcpi_end7:
	.size	__arm_cp.11_0, .Lcpi_end7-__arm_cp.11_0
__arm_cp.11_1:
	.long	USART_DMATransmitCplt
.Lcpi_end8:
	.size	__arm_cp.11_1, .Lcpi_end8-__arm_cp.11_1
__arm_cp.11_2:
	.long	USART_DMAError
.Lcpi_end9:
	.size	__arm_cp.11_2, .Lcpi_end9-__arm_cp.11_2
.Lfunc_end11:
	.size	HAL_USART_Transmit_DMA, .Lfunc_end11-HAL_USART_Transmit_DMA
	.cfi_endproc
	.cantunwind
	.fnend
                                        @ -- End function
	.section	.text.USART_DMATransmitCplt,"ax",%progbits
	.p2align	1               @ -- Begin function USART_DMATransmitCplt
	.type	USART_DMATransmitCplt,%function
	.code	16                      @ @USART_DMATransmitCplt
	.thumb_func
USART_DMATransmitCplt:
.Lfunc_begin12:
	.loc	7 1674 0 is_stmt 1      @ ../Drivers/STM32F7xx_HAL_Driver/Src/stm32f7xx_hal_usart.c:1674:0
	.fnstart
	.cfi_startproc
@ %bb.0:
	@DEBUG_VALUE: USART_DMATransmitCplt:hdma <- $r0
	@DEBUG_VALUE: USART_DMATransmitCplt:hdma <- $r0
	.loc	7 1678 13 prologue_end  @ ../Drivers/STM32F7xx_HAL_Driver/Src/stm32f7xx_hal_usart.c:1678:13
	ldr	r1, [r0]
.Ltmp321:
	.loc	7 1675 86               @ ../Drivers/STM32F7xx_HAL_Driver/Src/stm32f7xx_hal_usart.c:1675:86
	ldr	r0, [r0, #56]
.Ltmp322:
	@DEBUG_VALUE: USART_DMATransmitCplt:husart <- $r0
	.loc	7 1678 23               @ ../Drivers/STM32F7xx_HAL_Driver/Src/stm32f7xx_hal_usart.c:1678:23
	ldr	r1, [r1]
.Ltmp323:
	.loc	7 1678 6 is_stmt 0      @ ../Drivers/STM32F7xx_HAL_Driver/Src/stm32f7xx_hal_usart.c:1678:6
	tst.w	r1, #256
	bne	.LBB12_2
.Ltmp324:
@ %bb.1:
	@DEBUG_VALUE: USART_DMATransmitCplt:husart <- $r0
	.loc	7 1680 25 is_stmt 1     @ ../Drivers/STM32F7xx_HAL_Driver/Src/stm32f7xx_hal_usart.c:1680:25
	movs	r1, #0
	strh	r1, [r0, #46]
.Ltmp325:
	.loc	7 1682 16               @ ../Drivers/STM32F7xx_HAL_Driver/Src/stm32f7xx_hal_usart.c:1682:16
	ldrb.w	r1, [r0, #69]
.Ltmp326:
	.loc	7 1682 8 is_stmt 0      @ ../Drivers/STM32F7xx_HAL_Driver/Src/stm32f7xx_hal_usart.c:1682:8
	cmp	r1, #18
.Ltmp327:
	.loc	7 1700 1 is_stmt 1      @ ../Drivers/STM32F7xx_HAL_Driver/Src/stm32f7xx_hal_usart.c:1700:1
	it	ne
	bxne	lr
.Ltmp328:
	.loc	7 1686 7                @ ../Drivers/STM32F7xx_HAL_Driver/Src/stm32f7xx_hal_usart.c:1686:7
	ldr	r0, [r0]
.Ltmp329:
	ldr	r1, [r0, #8]
	bic	r1, r1, #128
	str	r1, [r0, #8]
	.loc	7 1689 7                @ ../Drivers/STM32F7xx_HAL_Driver/Src/stm32f7xx_hal_usart.c:1689:7
	ldr	r1, [r0]
	orr	r1, r1, #64
	str	r1, [r0]
.Ltmp330:
	.loc	7 1700 1                @ ../Drivers/STM32F7xx_HAL_Driver/Src/stm32f7xx_hal_usart.c:1700:1
	bx	lr
.LBB12_2:
.Ltmp331:
	@DEBUG_VALUE: USART_DMATransmitCplt:husart <- $r0
	.loc	7 1695 16               @ ../Drivers/STM32F7xx_HAL_Driver/Src/stm32f7xx_hal_usart.c:1695:16
	ldrb.w	r1, [r0, #69]
.Ltmp332:
	.loc	7 1695 8 is_stmt 0      @ ../Drivers/STM32F7xx_HAL_Driver/Src/stm32f7xx_hal_usart.c:1695:8
	cmp	r1, #18
.Ltmp333:
	.loc	7 1697 5 is_stmt 1      @ ../Drivers/STM32F7xx_HAL_Driver/Src/stm32f7xx_hal_usart.c:1697:5
	it	eq
	beq	HAL_USART_TxCpltCallback
.Ltmp334:
	.loc	7 1700 1                @ ../Drivers/STM32F7xx_HAL_Driver/Src/stm32f7xx_hal_usart.c:1700:1
	bx	lr
.Ltmp335:
.Lfunc_end12:
	.size	USART_DMATransmitCplt, .Lfunc_end12-USART_DMATransmitCplt
	.cfi_endproc
	.cantunwind
	.fnend
                                        @ -- End function
	.section	.text.USART_DMATxHalfCplt,"ax",%progbits
	.p2align	1               @ -- Begin function USART_DMATxHalfCplt
	.type	USART_DMATxHalfCplt,%function
	.code	16                      @ @USART_DMATxHalfCplt
	.thumb_func
USART_DMATxHalfCplt:
.Lfunc_begin13:
	.loc	7 1709 0                @ ../Drivers/STM32F7xx_HAL_Driver/Src/stm32f7xx_hal_usart.c:1709:0
	.fnstart
	.cfi_startproc
@ %bb.0:
	@DEBUG_VALUE: USART_DMATxHalfCplt:hdma <- $r0
	@DEBUG_VALUE: USART_DMATxHalfCplt:hdma <- $r0
	.loc	7 1710 83 prologue_end  @ ../Drivers/STM32F7xx_HAL_Driver/Src/stm32f7xx_hal_usart.c:1710:83
	ldr	r0, [r0, #56]
.Ltmp336:
	@DEBUG_VALUE: USART_DMATxHalfCplt:husart <- $r0
	.loc	7 1712 3                @ ../Drivers/STM32F7xx_HAL_Driver/Src/stm32f7xx_hal_usart.c:1712:3
	b	HAL_USART_TxHalfCpltCallback
.Ltmp337:
.Lfunc_end13:
	.size	USART_DMATxHalfCplt, .Lfunc_end13-USART_DMATxHalfCplt
	.cfi_endproc
	.cantunwind
	.fnend
                                        @ -- End function
	.section	.text.USART_DMAError,"ax",%progbits
	.p2align	1               @ -- Begin function USART_DMAError
	.type	USART_DMAError,%function
	.code	16                      @ @USART_DMAError
	.thumb_func
USART_DMAError:
.Lfunc_begin14:
	.loc	7 1784 0                @ ../Drivers/STM32F7xx_HAL_Driver/Src/stm32f7xx_hal_usart.c:1784:0
	.fnstart
	.cfi_startproc
@ %bb.0:
	.save	{r4, lr}
	push	{r4, lr}
	.cfi_def_cfa_offset 8
	.cfi_offset lr, -4
	.cfi_offset r4, -8
	@DEBUG_VALUE: USART_DMAError:hdma <- $r0
	@DEBUG_VALUE: USART_DMAError:hdma <- $r0
.Ltmp338:
	.loc	7 1785 86 prologue_end  @ ../Drivers/STM32F7xx_HAL_Driver/Src/stm32f7xx_hal_usart.c:1785:86
	ldr	r4, [r0, #56]
.Ltmp339:
	@DEBUG_VALUE: USART_DMAError:husart <- $r4
	@DEBUG_VALUE: USART_EndTxTransfer:husart <- $r4
	.loc	7 0 86 is_stmt 0        @ ../Drivers/STM32F7xx_HAL_Driver/Src/stm32f7xx_hal_usart.c:0:86
	movs	r0, #0
.Ltmp340:
	.loc	7 1787 23 is_stmt 1     @ ../Drivers/STM32F7xx_HAL_Driver/Src/stm32f7xx_hal_usart.c:1787:23
	strh	r0, [r4, #54]
	.loc	7 1788 23               @ ../Drivers/STM32F7xx_HAL_Driver/Src/stm32f7xx_hal_usart.c:1788:23
	strh	r0, [r4, #46]
.Ltmp341:
	.loc	7 1791 15               @ ../Drivers/STM32F7xx_HAL_Driver/Src/stm32f7xx_hal_usart.c:1791:15
	ldrb.w	r0, [r4, #69]
	.loc	7 1792 6                @ ../Drivers/STM32F7xx_HAL_Driver/Src/stm32f7xx_hal_usart.c:1792:6
	cmp	r0, #34
	beq	.LBB14_4
.Ltmp342:
@ %bb.1:
	@DEBUG_VALUE: USART_DMAError:husart <- $r4
	cmp	r0, #18
	bne	.LBB14_5
.Ltmp343:
@ %bb.2:
	@DEBUG_VALUE: USART_DMAError:husart <- $r4
	.loc	7 1792 9 is_stmt 0      @ ../Drivers/STM32F7xx_HAL_Driver/Src/stm32f7xx_hal_usart.c:1792:9
	ldr	r0, [r4]
	ldr	r1, [r0, #8]
.Ltmp344:
	.loc	7 1791 6 is_stmt 1      @ ../Drivers/STM32F7xx_HAL_Driver/Src/stm32f7xx_hal_usart.c:1791:6
	tst.w	r1, #128
	beq	.LBB14_5
.Ltmp345:
@ %bb.3:
	@DEBUG_VALUE: USART_DMAError:husart <- $r4
	.loc	7 1833 17               @ ../Drivers/STM32F7xx_HAL_Driver/Src/stm32f7xx_hal_usart.c:1833:17
	movs	r1, #1
	strb.w	r1, [r4, #69]
	.loc	7 1836 3                @ ../Drivers/STM32F7xx_HAL_Driver/Src/stm32f7xx_hal_usart.c:1836:3
	ldr	r1, [r0]
	bic	r1, r1, #192
	str	r1, [r0]
	b	.LBB14_5
.Ltmp346:
.LBB14_4:
	@DEBUG_VALUE: USART_DMAError:husart <- $r4
	.loc	7 1799 9                @ ../Drivers/STM32F7xx_HAL_Driver/Src/stm32f7xx_hal_usart.c:1799:9
	ldr	r0, [r4]
	ldr	r0, [r0, #8]
.Ltmp347:
	.loc	7 1798 6                @ ../Drivers/STM32F7xx_HAL_Driver/Src/stm32f7xx_hal_usart.c:1798:6
	tst.w	r0, #64
.Ltmp348:
	.loc	7 1801 5                @ ../Drivers/STM32F7xx_HAL_Driver/Src/stm32f7xx_hal_usart.c:1801:5
	itt	ne
	movne	r0, r4
	blne	USART_EndRxTransfer
.Ltmp349:
.LBB14_5:
	@DEBUG_VALUE: USART_DMAError:husart <- $r4
	.loc	7 1805 16               @ ../Drivers/STM32F7xx_HAL_Driver/Src/stm32f7xx_hal_usart.c:1805:16
	movs	r0, #1
	strb.w	r0, [r4, #69]
	.loc	7 1804 21               @ ../Drivers/STM32F7xx_HAL_Driver/Src/stm32f7xx_hal_usart.c:1804:21
	ldr	r0, [r4, #72]
	orr	r0, r0, #16
	str	r0, [r4, #72]
	.loc	7 1807 3                @ ../Drivers/STM32F7xx_HAL_Driver/Src/stm32f7xx_hal_usart.c:1807:3
	mov	r0, r4
	pop.w	{r4, lr}
.Ltmp350:
	b	HAL_USART_ErrorCallback
.Ltmp351:
.Lfunc_end14:
	.size	USART_DMAError, .Lfunc_end14-USART_DMAError
	.cfi_endproc
	.cantunwind
	.fnend
                                        @ -- End function
	.section	.text.HAL_USART_Receive_DMA,"ax",%progbits
	.hidden	HAL_USART_Receive_DMA   @ -- Begin function HAL_USART_Receive_DMA
	.globl	HAL_USART_Receive_DMA
	.p2align	2
	.type	HAL_USART_Receive_DMA,%function
	.code	16                      @ @HAL_USART_Receive_DMA
	.thumb_func
HAL_USART_Receive_DMA:
.Lfunc_begin15:
	.loc	7 833 0                 @ ../Drivers/STM32F7xx_HAL_Driver/Src/stm32f7xx_hal_usart.c:833:0
	.fnstart
	.cfi_startproc
@ %bb.0:
	.save	{r4, r5, r6, r7, lr}
	.pad	#4
	push	{r3, r4, r5, r6, r7, lr}
	.cfi_def_cfa_offset 24
	.cfi_offset lr, -4
	.cfi_offset r7, -8
	.cfi_offset r6, -12
	.cfi_offset r5, -16
	.cfi_offset r4, -20
	@DEBUG_VALUE: HAL_USART_Receive_DMA:husart <- $r0
	@DEBUG_VALUE: HAL_USART_Receive_DMA:Size <- $r2
	mov	r4, r0
.Ltmp352:
	@DEBUG_VALUE: HAL_USART_Receive_DMA:Size <- $r5
	@DEBUG_VALUE: HAL_USART_Receive_DMA:husart <- $r4
	.loc	7 836 14 prologue_end   @ ../Drivers/STM32F7xx_HAL_Driver/Src/stm32f7xx_hal_usart.c:836:14
	ldrb.w	r0, [r0, #69]
	mov	r5, r2
.Ltmp353:
	.loc	7 0 14 is_stmt 0        @ ../Drivers/STM32F7xx_HAL_Driver/Src/stm32f7xx_hal_usart.c:0:14
	mov	r6, r1
.Ltmp354:
	.loc	7 836 6                 @ ../Drivers/STM32F7xx_HAL_Driver/Src/stm32f7xx_hal_usart.c:836:6
	cmp	r0, #1
	bne	.LBB15_4
.Ltmp355:
@ %bb.1:
	@DEBUG_VALUE: HAL_USART_Receive_DMA:husart <- $r4
	.loc	7 838 27 is_stmt 1      @ ../Drivers/STM32F7xx_HAL_Driver/Src/stm32f7xx_hal_usart.c:838:27
	cbz	r6, .LBB15_5
.Ltmp356:
@ %bb.2:
	@DEBUG_VALUE: HAL_USART_Receive_DMA:husart <- $r4
	.loc	7 838 8 is_stmt 0       @ ../Drivers/STM32F7xx_HAL_Driver/Src/stm32f7xx_hal_usart.c:838:8
	cbz	r5, .LBB15_5
.Ltmp357:
@ %bb.3:
	@DEBUG_VALUE: HAL_USART_Receive_DMA:husart <- $r4
	.loc	7 844 5 is_stmt 1       @ ../Drivers/STM32F7xx_HAL_Driver/Src/stm32f7xx_hal_usart.c:844:5
	ldrb.w	r0, [r4, #68]
.Ltmp358:
	.loc	7 844 5 is_stmt 0       @ ../Drivers/STM32F7xx_HAL_Driver/Src/stm32f7xx_hal_usart.c:844:5
	cmp	r0, #1
	bne	.LBB15_6
.Ltmp359:
.LBB15_4:
	@DEBUG_VALUE: HAL_USART_Receive_DMA:husart <- $r4
	.loc	7 0 5                   @ ../Drivers/STM32F7xx_HAL_Driver/Src/stm32f7xx_hal_usart.c:0:5
	movs	r7, #2
	b	.LBB15_7
.Ltmp360:
.LBB15_5:
	@DEBUG_VALUE: HAL_USART_Receive_DMA:husart <- $r4
	movs	r7, #1
	b	.LBB15_7
.Ltmp361:
.LBB15_6:
	@DEBUG_VALUE: HAL_USART_Receive_DMA:husart <- $r4
	@DEBUG_VALUE: HAL_USART_Receive_DMA:Size <- $r5
	.loc	7 844 5                 @ ../Drivers/STM32F7xx_HAL_Driver/Src/stm32f7xx_hal_usart.c:844:5
	movw	r0, #8705
	movs	r7, #0
.Ltmp362:
	.loc	7 846 24 is_stmt 1      @ ../Drivers/STM32F7xx_HAL_Driver/Src/stm32f7xx_hal_usart.c:846:24
	str	r6, [r4, #48]
	.loc	7 858 42                @ ../Drivers/STM32F7xx_HAL_Driver/Src/stm32f7xx_hal_usart.c:858:42
	ldr	r1, __arm_cp.15_0
	.loc	7 855 38                @ ../Drivers/STM32F7xx_HAL_Driver/Src/stm32f7xx_hal_usart.c:855:38
	ldr	r2, __arm_cp.15_1
	.loc	7 880 5                 @ ../Drivers/STM32F7xx_HAL_Driver/Src/stm32f7xx_hal_usart.c:880:5
	mov	r3, r5
.Ltmp363:
	.loc	7 844 5                 @ ../Drivers/STM32F7xx_HAL_Driver/Src/stm32f7xx_hal_usart.c:844:5
	strh.w	r0, [r4, #68]
.Ltmp364:
	.loc	7 847 24                @ ../Drivers/STM32F7xx_HAL_Driver/Src/stm32f7xx_hal_usart.c:847:24
	strh	r5, [r4, #52]
	.loc	7 848 24                @ ../Drivers/STM32F7xx_HAL_Driver/Src/stm32f7xx_hal_usart.c:848:24
	str	r6, [r4, #40]
	.loc	7 849 24                @ ../Drivers/STM32F7xx_HAL_Driver/Src/stm32f7xx_hal_usart.c:849:24
	strh	r5, [r4, #44]
	.loc	7 851 23                @ ../Drivers/STM32F7xx_HAL_Driver/Src/stm32f7xx_hal_usart.c:851:23
	str	r7, [r4, #72]
	.loc	7 855 13                @ ../Drivers/STM32F7xx_HAL_Driver/Src/stm32f7xx_hal_usart.c:855:13
	ldr	r0, [r4, #64]
	.loc	7 855 38 is_stmt 0      @ ../Drivers/STM32F7xx_HAL_Driver/Src/stm32f7xx_hal_usart.c:855:38
	strd	r2, r1, [r0, #60]
	.loc	7 861 39 is_stmt 1      @ ../Drivers/STM32F7xx_HAL_Driver/Src/stm32f7xx_hal_usart.c:861:39
	ldr	r1, __arm_cp.15_2
	str	r1, [r0, #76]
	.loc	7 864 13                @ ../Drivers/STM32F7xx_HAL_Driver/Src/stm32f7xx_hal_usart.c:864:13
	ldr	r2, [r4, #60]
	.loc	7 869 38                @ ../Drivers/STM32F7xx_HAL_Driver/Src/stm32f7xx_hal_usart.c:869:38
	strd	r7, r7, [r2, #60]
	.loc	7 872 39                @ ../Drivers/STM32F7xx_HAL_Driver/Src/stm32f7xx_hal_usart.c:872:39
	strd	r1, r7, [r2, #76]
	.loc	7 875 5                 @ ../Drivers/STM32F7xx_HAL_Driver/Src/stm32f7xx_hal_usart.c:875:5
	ldr	r1, [r4]
	ldr	r2, [r1, #8]
	orr	r2, r2, #1
	str	r2, [r1, #8]
	.loc	7 876 5                 @ ../Drivers/STM32F7xx_HAL_Driver/Src/stm32f7xx_hal_usart.c:876:5
	ldr	r2, [r1, #28]
	orr	r2, r2, #15
	str	r2, [r1, #28]
	.loc	7 880 67                @ ../Drivers/STM32F7xx_HAL_Driver/Src/stm32f7xx_hal_usart.c:880:67
	adds	r1, #36
	.loc	7 880 5 is_stmt 0       @ ../Drivers/STM32F7xx_HAL_Driver/Src/stm32f7xx_hal_usart.c:880:5
	mov	r2, r6
	bl	HAL_DMA_Start_IT
	.loc	7 885 74 is_stmt 1      @ ../Drivers/STM32F7xx_HAL_Driver/Src/stm32f7xx_hal_usart.c:885:74
	ldr	r1, [r4]
	.loc	7 885 30 is_stmt 0      @ ../Drivers/STM32F7xx_HAL_Driver/Src/stm32f7xx_hal_usart.c:885:30
	ldr	r0, [r4, #60]
	.loc	7 885 5                 @ ../Drivers/STM32F7xx_HAL_Driver/Src/stm32f7xx_hal_usart.c:885:5
	mov	r3, r5
	.loc	7 885 84                @ ../Drivers/STM32F7xx_HAL_Driver/Src/stm32f7xx_hal_usart.c:885:84
	add.w	r2, r1, #40
	.loc	7 885 5                 @ ../Drivers/STM32F7xx_HAL_Driver/Src/stm32f7xx_hal_usart.c:885:5
	mov	r1, r6
	bl	HAL_DMA_Start_IT
.Ltmp365:
	.loc	7 888 5 is_stmt 1       @ ../Drivers/STM32F7xx_HAL_Driver/Src/stm32f7xx_hal_usart.c:888:5
	strb.w	r7, [r4, #68]
.Ltmp366:
	.loc	7 891 5                 @ ../Drivers/STM32F7xx_HAL_Driver/Src/stm32f7xx_hal_usart.c:891:5
	ldr	r0, [r4]
	ldr	r1, [r0]
	orr	r1, r1, #256
	str	r1, [r0]
	.loc	7 894 5                 @ ../Drivers/STM32F7xx_HAL_Driver/Src/stm32f7xx_hal_usart.c:894:5
	ldr	r1, [r0, #8]
	orr	r1, r1, #1
	str	r1, [r0, #8]
	.loc	7 898 5                 @ ../Drivers/STM32F7xx_HAL_Driver/Src/stm32f7xx_hal_usart.c:898:5
	ldr	r1, [r0, #8]
	orr	r1, r1, #64
	str	r1, [r0, #8]
	.loc	7 902 5                 @ ../Drivers/STM32F7xx_HAL_Driver/Src/stm32f7xx_hal_usart.c:902:5
	ldr	r1, [r0, #8]
	orr	r1, r1, #128
	str	r1, [r0, #8]
.Ltmp367:
.LBB15_7:
	@DEBUG_VALUE: HAL_USART_Receive_DMA:husart <- $r4
	.loc	7 911 1                 @ ../Drivers/STM32F7xx_HAL_Driver/Src/stm32f7xx_hal_usart.c:911:1
	uxtb	r0, r7
	add	sp, #4
	pop	{r4, r5, r6, r7, pc}
.Ltmp368:
	.p2align	2
@ %bb.8:
	.loc	7 0 1 is_stmt 0         @ ../Drivers/STM32F7xx_HAL_Driver/Src/stm32f7xx_hal_usart.c:0:1
__arm_cp.15_0:
	.long	USART_DMARxHalfCplt
.Lcpi_end10:
	.size	__arm_cp.15_0, .Lcpi_end10-__arm_cp.15_0
__arm_cp.15_1:
	.long	USART_DMAReceiveCplt
.Lcpi_end11:
	.size	__arm_cp.15_1, .Lcpi_end11-__arm_cp.15_1
__arm_cp.15_2:
	.long	USART_DMAError
.Lcpi_end12:
	.size	__arm_cp.15_2, .Lcpi_end12-__arm_cp.15_2
.Lfunc_end15:
	.size	HAL_USART_Receive_DMA, .Lfunc_end15-HAL_USART_Receive_DMA
	.cfi_endproc
	.cantunwind
	.fnend
                                        @ -- End function
	.section	.text.USART_DMAReceiveCplt,"ax",%progbits
	.p2align	1               @ -- Begin function USART_DMAReceiveCplt
	.type	USART_DMAReceiveCplt,%function
	.code	16                      @ @USART_DMAReceiveCplt
	.thumb_func
USART_DMAReceiveCplt:
.Lfunc_begin16:
	.loc	7 1721 0 is_stmt 1      @ ../Drivers/STM32F7xx_HAL_Driver/Src/stm32f7xx_hal_usart.c:1721:0
	.fnstart
	.cfi_startproc
@ %bb.0:
	.save	{r4, lr}
	push	{r4, lr}
	.cfi_def_cfa_offset 8
	.cfi_offset lr, -4
	.cfi_offset r4, -8
	@DEBUG_VALUE: USART_DMAReceiveCplt:hdma <- $r0
	@DEBUG_VALUE: USART_DMAReceiveCplt:hdma <- $r0
.Ltmp369:
	.loc	7 1725 13 prologue_end  @ ../Drivers/STM32F7xx_HAL_Driver/Src/stm32f7xx_hal_usart.c:1725:13
	ldr	r1, [r0]
.Ltmp370:
	.loc	7 1722 86               @ ../Drivers/STM32F7xx_HAL_Driver/Src/stm32f7xx_hal_usart.c:1722:86
	ldr	r4, [r0, #56]
.Ltmp371:
	@DEBUG_VALUE: USART_DMAReceiveCplt:husart <- $r4
	.loc	7 1725 23               @ ../Drivers/STM32F7xx_HAL_Driver/Src/stm32f7xx_hal_usart.c:1725:23
	ldr	r0, [r1]
.Ltmp372:
	.loc	7 1725 6 is_stmt 0      @ ../Drivers/STM32F7xx_HAL_Driver/Src/stm32f7xx_hal_usart.c:1725:6
	tst.w	r0, #256
	bne	.LBB16_3
.Ltmp373:
@ %bb.1:
	@DEBUG_VALUE: USART_DMAReceiveCplt:husart <- $r4
	.loc	7 1727 25 is_stmt 1     @ ../Drivers/STM32F7xx_HAL_Driver/Src/stm32f7xx_hal_usart.c:1727:25
	movs	r0, #0
	strh	r0, [r4, #54]
	.loc	7 1730 5                @ ../Drivers/STM32F7xx_HAL_Driver/Src/stm32f7xx_hal_usart.c:1730:5
	ldr	r0, [r4]
	ldr	r1, [r0]
	bic	r1, r1, #288
	str	r1, [r0]
	.loc	7 1731 5                @ ../Drivers/STM32F7xx_HAL_Driver/Src/stm32f7xx_hal_usart.c:1731:5
	ldr	r1, [r0, #8]
	bic	r1, r1, #1
	str	r1, [r0, #8]
	.loc	7 1735 5                @ ../Drivers/STM32F7xx_HAL_Driver/Src/stm32f7xx_hal_usart.c:1735:5
	ldr	r1, [r0, #8]
	bic	r1, r1, #64
	str	r1, [r0, #8]
	.loc	7 1738 5                @ ../Drivers/STM32F7xx_HAL_Driver/Src/stm32f7xx_hal_usart.c:1738:5
	ldr	r1, [r0, #8]
	bic	r1, r1, #128
	str	r1, [r0, #8]
.Ltmp374:
	.loc	7 1740 18               @ ../Drivers/STM32F7xx_HAL_Driver/Src/stm32f7xx_hal_usart.c:1740:18
	ldrb.w	r0, [r4, #69]
.Ltmp375:
	.loc	7 1740 10 is_stmt 0     @ ../Drivers/STM32F7xx_HAL_Driver/Src/stm32f7xx_hal_usart.c:1740:10
	cmp	r0, #34
	bne	.LBB16_5
.Ltmp376:
@ %bb.2:
	@DEBUG_VALUE: USART_DMAReceiveCplt:husart <- $r4
	.loc	7 1742 9 is_stmt 1      @ ../Drivers/STM32F7xx_HAL_Driver/Src/stm32f7xx_hal_usart.c:1742:9
	mov	r0, r4
	bl	HAL_USART_RxCpltCallback
	b	.LBB16_6
.Ltmp377:
.LBB16_3:
	@DEBUG_VALUE: USART_DMAReceiveCplt:husart <- $r4
	.loc	7 1754 16               @ ../Drivers/STM32F7xx_HAL_Driver/Src/stm32f7xx_hal_usart.c:1754:16
	ldrb.w	r0, [r4, #69]
.Ltmp378:
	.loc	7 1754 8 is_stmt 0      @ ../Drivers/STM32F7xx_HAL_Driver/Src/stm32f7xx_hal_usart.c:1754:8
	cmp	r0, #34
	bne	.LBB16_7
.Ltmp379:
@ %bb.4:
	@DEBUG_VALUE: USART_DMAReceiveCplt:husart <- $r4
	.loc	7 1756 7 is_stmt 1      @ ../Drivers/STM32F7xx_HAL_Driver/Src/stm32f7xx_hal_usart.c:1756:7
	mov	r0, r4
	pop.w	{r4, lr}
.Ltmp380:
	b	HAL_USART_RxCpltCallback
.Ltmp381:
.LBB16_5:
	@DEBUG_VALUE: USART_DMAReceiveCplt:husart <- $r4
	.loc	7 1747 9                @ ../Drivers/STM32F7xx_HAL_Driver/Src/stm32f7xx_hal_usart.c:1747:9
	mov	r0, r4
	bl	HAL_USART_TxRxCpltCallback
.Ltmp382:
.LBB16_6:
	@DEBUG_VALUE: USART_DMAReceiveCplt:husart <- $r4
	.loc	7 1749 18               @ ../Drivers/STM32F7xx_HAL_Driver/Src/stm32f7xx_hal_usart.c:1749:18
	movs	r0, #1
	strb.w	r0, [r4, #69]
.Ltmp383:
	.loc	7 1764 1                @ ../Drivers/STM32F7xx_HAL_Driver/Src/stm32f7xx_hal_usart.c:1764:1
	pop	{r4, pc}
.Ltmp384:
.LBB16_7:
	@DEBUG_VALUE: USART_DMAReceiveCplt:husart <- $r4
	.loc	7 1761 7                @ ../Drivers/STM32F7xx_HAL_Driver/Src/stm32f7xx_hal_usart.c:1761:7
	mov	r0, r4
	pop.w	{r4, lr}
.Ltmp385:
	b	HAL_USART_TxRxCpltCallback
.Ltmp386:
.Lfunc_end16:
	.size	USART_DMAReceiveCplt, .Lfunc_end16-USART_DMAReceiveCplt
	.cfi_endproc
	.cantunwind
	.fnend
                                        @ -- End function
	.section	.text.USART_DMARxHalfCplt,"ax",%progbits
	.p2align	1               @ -- Begin function USART_DMARxHalfCplt
	.type	USART_DMARxHalfCplt,%function
	.code	16                      @ @USART_DMARxHalfCplt
	.thumb_func
USART_DMARxHalfCplt:
.Lfunc_begin17:
	.loc	7 1772 0                @ ../Drivers/STM32F7xx_HAL_Driver/Src/stm32f7xx_hal_usart.c:1772:0
	.fnstart
	.cfi_startproc
@ %bb.0:
	@DEBUG_VALUE: USART_DMARxHalfCplt:hdma <- $r0
	@DEBUG_VALUE: USART_DMARxHalfCplt:hdma <- $r0
	.loc	7 1773 83 prologue_end  @ ../Drivers/STM32F7xx_HAL_Driver/Src/stm32f7xx_hal_usart.c:1773:83
	ldr	r0, [r0, #56]
.Ltmp387:
	@DEBUG_VALUE: USART_DMARxHalfCplt:husart <- $r0
	.loc	7 1775 3                @ ../Drivers/STM32F7xx_HAL_Driver/Src/stm32f7xx_hal_usart.c:1775:3
	b	HAL_USART_RxHalfCpltCallback
.Ltmp388:
.Lfunc_end17:
	.size	USART_DMARxHalfCplt, .Lfunc_end17-USART_DMARxHalfCplt
	.cfi_endproc
	.cantunwind
	.fnend
                                        @ -- End function
	.section	.text.HAL_USART_TransmitReceive_DMA,"ax",%progbits
	.hidden	HAL_USART_TransmitReceive_DMA @ -- Begin function HAL_USART_TransmitReceive_DMA
	.globl	HAL_USART_TransmitReceive_DMA
	.p2align	2
	.type	HAL_USART_TransmitReceive_DMA,%function
	.code	16                      @ @HAL_USART_TransmitReceive_DMA
	.thumb_func
HAL_USART_TransmitReceive_DMA:
.Lfunc_begin18:
	.loc	7 923 0                 @ ../Drivers/STM32F7xx_HAL_Driver/Src/stm32f7xx_hal_usart.c:923:0
	.fnstart
	.cfi_startproc
@ %bb.0:
	.save	{r4, r5, r6, r7, lr}
	.pad	#4
	push	{r3, r4, r5, r6, r7, lr}
	.cfi_def_cfa_offset 24
	.cfi_offset lr, -4
	.cfi_offset r7, -8
	.cfi_offset r6, -12
	.cfi_offset r5, -16
	.cfi_offset r4, -20
	@DEBUG_VALUE: HAL_USART_TransmitReceive_DMA:husart <- $r0
	@DEBUG_VALUE: HAL_USART_TransmitReceive_DMA:Size <- $r3
	mov	r4, r0
.Ltmp389:
	@DEBUG_VALUE: HAL_USART_TransmitReceive_DMA:Size <- $r5
	@DEBUG_VALUE: HAL_USART_TransmitReceive_DMA:husart <- $r4
	.loc	7 926 14 prologue_end   @ ../Drivers/STM32F7xx_HAL_Driver/Src/stm32f7xx_hal_usart.c:926:14
	ldrb.w	r0, [r0, #69]
	mov	r5, r3
.Ltmp390:
	.loc	7 0 14 is_stmt 0        @ ../Drivers/STM32F7xx_HAL_Driver/Src/stm32f7xx_hal_usart.c:0:14
	mov	r6, r1
.Ltmp391:
	.loc	7 926 6                 @ ../Drivers/STM32F7xx_HAL_Driver/Src/stm32f7xx_hal_usart.c:926:6
	cmp	r0, #1
	bne	.LBB18_5
.Ltmp392:
@ %bb.1:
	@DEBUG_VALUE: HAL_USART_TransmitReceive_DMA:husart <- $r4
	.loc	7 0 6                   @ ../Drivers/STM32F7xx_HAL_Driver/Src/stm32f7xx_hal_usart.c:0:6
	movs	r7, #1
.Ltmp393:
	.loc	7 928 26 is_stmt 1      @ ../Drivers/STM32F7xx_HAL_Driver/Src/stm32f7xx_hal_usart.c:928:26
	cbz	r6, .LBB18_6
.Ltmp394:
@ %bb.2:
	@DEBUG_VALUE: HAL_USART_TransmitReceive_DMA:husart <- $r4
	cbz	r2, .LBB18_6
.Ltmp395:
@ %bb.3:
	@DEBUG_VALUE: HAL_USART_TransmitReceive_DMA:husart <- $r4
	.loc	7 928 8 is_stmt 0       @ ../Drivers/STM32F7xx_HAL_Driver/Src/stm32f7xx_hal_usart.c:928:8
	cbz	r5, .LBB18_7
.Ltmp396:
@ %bb.4:
	@DEBUG_VALUE: HAL_USART_TransmitReceive_DMA:husart <- $r4
	.loc	7 933 5 is_stmt 1       @ ../Drivers/STM32F7xx_HAL_Driver/Src/stm32f7xx_hal_usart.c:933:5
	ldrb.w	r0, [r4, #68]
.Ltmp397:
	.loc	7 933 5 is_stmt 0       @ ../Drivers/STM32F7xx_HAL_Driver/Src/stm32f7xx_hal_usart.c:933:5
	cmp	r0, #1
	bne	.LBB18_8
.Ltmp398:
.LBB18_5:
	@DEBUG_VALUE: HAL_USART_TransmitReceive_DMA:husart <- $r4
	.loc	7 0 5                   @ ../Drivers/STM32F7xx_HAL_Driver/Src/stm32f7xx_hal_usart.c:0:5
	movs	r7, #2
.Ltmp399:
.LBB18_6:
	@DEBUG_VALUE: HAL_USART_TransmitReceive_DMA:husart <- $r4
	.loc	7 999 1 is_stmt 1       @ ../Drivers/STM32F7xx_HAL_Driver/Src/stm32f7xx_hal_usart.c:999:1
	uxtb	r0, r7
	add	sp, #4
	pop	{r4, r5, r6, r7, pc}
.Ltmp400:
.LBB18_7:
	@DEBUG_VALUE: HAL_USART_TransmitReceive_DMA:husart <- $r4
	.loc	7 0 1 is_stmt 0         @ ../Drivers/STM32F7xx_HAL_Driver/Src/stm32f7xx_hal_usart.c:0:1
	movs	r7, #1
	b	.LBB18_6
.Ltmp401:
.LBB18_8:
	@DEBUG_VALUE: HAL_USART_TransmitReceive_DMA:husart <- $r4
	@DEBUG_VALUE: HAL_USART_TransmitReceive_DMA:Size <- $r5
	.loc	7 933 5 is_stmt 1       @ ../Drivers/STM32F7xx_HAL_Driver/Src/stm32f7xx_hal_usart.c:933:5
	movw	r0, #12801
	movs	r7, #0
.Ltmp402:
	.loc	7 935 24                @ ../Drivers/STM32F7xx_HAL_Driver/Src/stm32f7xx_hal_usart.c:935:24
	str	r2, [r4, #48]
	.loc	7 947 42                @ ../Drivers/STM32F7xx_HAL_Driver/Src/stm32f7xx_hal_usart.c:947:42
	ldr	r1, __arm_cp.18_0
	.loc	7 944 38                @ ../Drivers/STM32F7xx_HAL_Driver/Src/stm32f7xx_hal_usart.c:944:38
	ldr	r3, __arm_cp.18_1
	.loc	7 953 42                @ ../Drivers/STM32F7xx_HAL_Driver/Src/stm32f7xx_hal_usart.c:953:42
	ldr.w	r12, __arm_cp.18_2
.Ltmp403:
	.loc	7 933 5                 @ ../Drivers/STM32F7xx_HAL_Driver/Src/stm32f7xx_hal_usart.c:933:5
	strh.w	r0, [r4, #68]
.Ltmp404:
	.loc	7 936 24                @ ../Drivers/STM32F7xx_HAL_Driver/Src/stm32f7xx_hal_usart.c:936:24
	strh	r5, [r4, #52]
	.loc	7 937 24                @ ../Drivers/STM32F7xx_HAL_Driver/Src/stm32f7xx_hal_usart.c:937:24
	str	r6, [r4, #40]
	.loc	7 938 24                @ ../Drivers/STM32F7xx_HAL_Driver/Src/stm32f7xx_hal_usart.c:938:24
	strh	r5, [r4, #44]
	.loc	7 940 23                @ ../Drivers/STM32F7xx_HAL_Driver/Src/stm32f7xx_hal_usart.c:940:23
	str	r7, [r4, #72]
	.loc	7 944 13                @ ../Drivers/STM32F7xx_HAL_Driver/Src/stm32f7xx_hal_usart.c:944:13
	ldr	r0, [r4, #64]
	.loc	7 944 38 is_stmt 0      @ ../Drivers/STM32F7xx_HAL_Driver/Src/stm32f7xx_hal_usart.c:944:38
	strd	r3, r1, [r0, #60]
	.loc	7 950 38 is_stmt 1      @ ../Drivers/STM32F7xx_HAL_Driver/Src/stm32f7xx_hal_usart.c:950:38
	ldr	r3, __arm_cp.18_3
	.loc	7 950 13 is_stmt 0      @ ../Drivers/STM32F7xx_HAL_Driver/Src/stm32f7xx_hal_usart.c:950:13
	ldr	r1, [r4, #60]
	.loc	7 950 38                @ ../Drivers/STM32F7xx_HAL_Driver/Src/stm32f7xx_hal_usart.c:950:38
	strd	r3, r12, [r1, #60]
	.loc	7 956 39 is_stmt 1      @ ../Drivers/STM32F7xx_HAL_Driver/Src/stm32f7xx_hal_usart.c:956:39
	ldr	r3, __arm_cp.18_4
	str	r3, [r1, #76]
	.loc	7 959 39                @ ../Drivers/STM32F7xx_HAL_Driver/Src/stm32f7xx_hal_usart.c:959:39
	str	r3, [r0, #76]
	.loc	7 962 5                 @ ../Drivers/STM32F7xx_HAL_Driver/Src/stm32f7xx_hal_usart.c:962:5
	ldr	r1, [r4]
	ldr	r3, [r1, #8]
	orr	r3, r3, #1
	str	r3, [r1, #8]
	.loc	7 963 5                 @ ../Drivers/STM32F7xx_HAL_Driver/Src/stm32f7xx_hal_usart.c:963:5
	ldr	r3, [r1, #28]
	orr	r3, r3, #15
	str	r3, [r1, #28]
	.loc	7 967 67                @ ../Drivers/STM32F7xx_HAL_Driver/Src/stm32f7xx_hal_usart.c:967:67
	adds	r1, #36
	.loc	7 967 5 is_stmt 0       @ ../Drivers/STM32F7xx_HAL_Driver/Src/stm32f7xx_hal_usart.c:967:5
	mov	r3, r5
	bl	HAL_DMA_Start_IT
	.loc	7 971 74 is_stmt 1      @ ../Drivers/STM32F7xx_HAL_Driver/Src/stm32f7xx_hal_usart.c:971:74
	ldr	r1, [r4]
	.loc	7 971 30 is_stmt 0      @ ../Drivers/STM32F7xx_HAL_Driver/Src/stm32f7xx_hal_usart.c:971:30
	ldr	r0, [r4, #60]
	.loc	7 971 5                 @ ../Drivers/STM32F7xx_HAL_Driver/Src/stm32f7xx_hal_usart.c:971:5
	mov	r3, r5
	.loc	7 971 84                @ ../Drivers/STM32F7xx_HAL_Driver/Src/stm32f7xx_hal_usart.c:971:84
	add.w	r2, r1, #40
	.loc	7 971 5                 @ ../Drivers/STM32F7xx_HAL_Driver/Src/stm32f7xx_hal_usart.c:971:5
	mov	r1, r6
	bl	HAL_DMA_Start_IT
	.loc	7 974 5 is_stmt 1       @ ../Drivers/STM32F7xx_HAL_Driver/Src/stm32f7xx_hal_usart.c:974:5
	ldr	r0, [r4]
	movs	r1, #64
	str	r1, [r0, #32]
.Ltmp405:
	.loc	7 977 5                 @ ../Drivers/STM32F7xx_HAL_Driver/Src/stm32f7xx_hal_usart.c:977:5
	strb.w	r7, [r4, #68]
.Ltmp406:
	.loc	7 980 5                 @ ../Drivers/STM32F7xx_HAL_Driver/Src/stm32f7xx_hal_usart.c:980:5
	ldr	r1, [r0]
	orr	r1, r1, #256
	str	r1, [r0]
	.loc	7 983 5                 @ ../Drivers/STM32F7xx_HAL_Driver/Src/stm32f7xx_hal_usart.c:983:5
	ldr	r1, [r0, #8]
	orr	r1, r1, #1
	str	r1, [r0, #8]
	.loc	7 987 5                 @ ../Drivers/STM32F7xx_HAL_Driver/Src/stm32f7xx_hal_usart.c:987:5
	ldr	r1, [r0, #8]
	orr	r1, r1, #64
	str	r1, [r0, #8]
	.loc	7 991 5                 @ ../Drivers/STM32F7xx_HAL_Driver/Src/stm32f7xx_hal_usart.c:991:5
	ldr	r1, [r0, #8]
	orr	r1, r1, #128
	str	r1, [r0, #8]
	b	.LBB18_6
.Ltmp407:
	.p2align	2
@ %bb.9:
	.loc	7 0 5 is_stmt 0         @ ../Drivers/STM32F7xx_HAL_Driver/Src/stm32f7xx_hal_usart.c:0:5
__arm_cp.18_0:
	.long	USART_DMARxHalfCplt
.Lcpi_end13:
	.size	__arm_cp.18_0, .Lcpi_end13-__arm_cp.18_0
__arm_cp.18_1:
	.long	USART_DMAReceiveCplt
.Lcpi_end14:
	.size	__arm_cp.18_1, .Lcpi_end14-__arm_cp.18_1
__arm_cp.18_2:
	.long	USART_DMATxHalfCplt
.Lcpi_end15:
	.size	__arm_cp.18_2, .Lcpi_end15-__arm_cp.18_2
__arm_cp.18_3:
	.long	USART_DMATransmitCplt
.Lcpi_end16:
	.size	__arm_cp.18_3, .Lcpi_end16-__arm_cp.18_3
__arm_cp.18_4:
	.long	USART_DMAError
.Lcpi_end17:
	.size	__arm_cp.18_4, .Lcpi_end17-__arm_cp.18_4
.Lfunc_end18:
	.size	HAL_USART_TransmitReceive_DMA, .Lfunc_end18-HAL_USART_TransmitReceive_DMA
	.cfi_endproc
	.cantunwind
	.fnend
                                        @ -- End function
	.section	.text.HAL_USART_DMAPause,"ax",%progbits
	.hidden	HAL_USART_DMAPause      @ -- Begin function HAL_USART_DMAPause
	.globl	HAL_USART_DMAPause
	.p2align	1
	.type	HAL_USART_DMAPause,%function
	.code	16                      @ @HAL_USART_DMAPause
	.thumb_func
HAL_USART_DMAPause:
.Lfunc_begin19:
	.loc	7 1007 0 is_stmt 1      @ ../Drivers/STM32F7xx_HAL_Driver/Src/stm32f7xx_hal_usart.c:1007:0
	.fnstart
	.cfi_startproc
@ %bb.0:
	@DEBUG_VALUE: HAL_USART_DMAPause:husart <- $r0
	@DEBUG_VALUE: HAL_USART_DMAPause:husart <- $r0
	.loc	7 1009 3 prologue_end   @ ../Drivers/STM32F7xx_HAL_Driver/Src/stm32f7xx_hal_usart.c:1009:3
	ldrb.w	r1, [r0, #68]
.Ltmp408:
	.loc	7 1009 3 is_stmt 0      @ ../Drivers/STM32F7xx_HAL_Driver/Src/stm32f7xx_hal_usart.c:1009:3
	cmp	r1, #1
	bne	.LBB19_2
@ %bb.1:
	@DEBUG_VALUE: HAL_USART_DMAPause:husart <- $r0
	.loc	7 0 3                   @ ../Drivers/STM32F7xx_HAL_Driver/Src/stm32f7xx_hal_usart.c:0:3
	movs	r1, #2
	b	.LBB19_11
.LBB19_2:
	@DEBUG_VALUE: HAL_USART_DMAPause:husart <- $r0
.Ltmp409:
	.loc	7 1009 3                @ ../Drivers/STM32F7xx_HAL_Driver/Src/stm32f7xx_hal_usart.c:1009:3
	movs	r1, #1
	strb.w	r1, [r0, #68]
.Ltmp410:
	.loc	7 1011 14 is_stmt 1     @ ../Drivers/STM32F7xx_HAL_Driver/Src/stm32f7xx_hal_usart.c:1011:14
	ldrb.w	r1, [r0, #69]
.Ltmp411:
	.loc	7 1011 6 is_stmt 0      @ ../Drivers/STM32F7xx_HAL_Driver/Src/stm32f7xx_hal_usart.c:1011:6
	cmp	r1, #50
	beq	.LBB19_6
@ %bb.3:
	@DEBUG_VALUE: HAL_USART_DMAPause:husart <- $r0
	cmp	r1, #34
	beq	.LBB19_8
@ %bb.4:
	@DEBUG_VALUE: HAL_USART_DMAPause:husart <- $r0
	cmp	r1, #18
	bne	.LBB19_10
@ %bb.5:
	@DEBUG_VALUE: HAL_USART_DMAPause:husart <- $r0
.Ltmp412:
	.loc	7 1014 5 is_stmt 1      @ ../Drivers/STM32F7xx_HAL_Driver/Src/stm32f7xx_hal_usart.c:1014:5
	ldr	r1, [r0]
	adds	r1, #8
	b	.LBB19_7
.Ltmp413:
.LBB19_6:
	@DEBUG_VALUE: HAL_USART_DMAPause:husart <- $r0
	.loc	7 1027 5                @ ../Drivers/STM32F7xx_HAL_Driver/Src/stm32f7xx_hal_usart.c:1027:5
	ldr	r1, [r0]
	ldr	r2, [r1, #8]!
	bic	r2, r2, #64
	str	r2, [r1]
.Ltmp414:
.LBB19_7:
	@DEBUG_VALUE: HAL_USART_DMAPause:husart <- $r0
	.loc	7 0 5 is_stmt 0         @ ../Drivers/STM32F7xx_HAL_Driver/Src/stm32f7xx_hal_usart.c:0:5
	mvn	r2, #128
	b	.LBB19_9
.LBB19_8:
	@DEBUG_VALUE: HAL_USART_DMAPause:husart <- $r0
.Ltmp415:
	.loc	7 1019 5 is_stmt 1      @ ../Drivers/STM32F7xx_HAL_Driver/Src/stm32f7xx_hal_usart.c:1019:5
	ldr	r1, [r0]
	ldr	r2, [r1]
	bic	r2, r2, #288
	str	r2, [r1]
	.loc	7 1020 5                @ ../Drivers/STM32F7xx_HAL_Driver/Src/stm32f7xx_hal_usart.c:1020:5
	ldr	r2, [r1, #8]!
	bic	r2, r2, #1
	str	r2, [r1]
	mvn	r2, #64
.Ltmp416:
.LBB19_9:
	@DEBUG_VALUE: HAL_USART_DMAPause:husart <- $r0
	.loc	7 0 5 is_stmt 0         @ ../Drivers/STM32F7xx_HAL_Driver/Src/stm32f7xx_hal_usart.c:0:5
	ldr	r3, [r1]
	ands	r2, r3
	str	r2, [r1]
.LBB19_10:
	@DEBUG_VALUE: HAL_USART_DMAPause:husart <- $r0
	movs	r1, #0
.Ltmp417:
	.loc	7 1033 3 is_stmt 1      @ ../Drivers/STM32F7xx_HAL_Driver/Src/stm32f7xx_hal_usart.c:1033:3
	strb.w	r1, [r0, #68]
.Ltmp418:
.LBB19_11:
	@DEBUG_VALUE: HAL_USART_DMAPause:husart <- $r0
	.loc	7 1036 1                @ ../Drivers/STM32F7xx_HAL_Driver/Src/stm32f7xx_hal_usart.c:1036:1
	uxtb	r0, r1
	bx	lr
.Ltmp419:
.Lfunc_end19:
	.size	HAL_USART_DMAPause, .Lfunc_end19-HAL_USART_DMAPause
	.cfi_endproc
	.cantunwind
	.fnend
                                        @ -- End function
	.section	.text.HAL_USART_DMAResume,"ax",%progbits
	.hidden	HAL_USART_DMAResume     @ -- Begin function HAL_USART_DMAResume
	.globl	HAL_USART_DMAResume
	.p2align	1
	.type	HAL_USART_DMAResume,%function
	.code	16                      @ @HAL_USART_DMAResume
	.thumb_func
HAL_USART_DMAResume:
.Lfunc_begin20:
	.loc	7 1044 0                @ ../Drivers/STM32F7xx_HAL_Driver/Src/stm32f7xx_hal_usart.c:1044:0
	.fnstart
	.cfi_startproc
@ %bb.0:
	@DEBUG_VALUE: HAL_USART_DMAResume:husart <- $r0
	@DEBUG_VALUE: HAL_USART_DMAResume:husart <- $r0
	.loc	7 1046 3 prologue_end   @ ../Drivers/STM32F7xx_HAL_Driver/Src/stm32f7xx_hal_usart.c:1046:3
	ldrb.w	r1, [r0, #68]
.Ltmp420:
	.loc	7 1046 3 is_stmt 0      @ ../Drivers/STM32F7xx_HAL_Driver/Src/stm32f7xx_hal_usart.c:1046:3
	cmp	r1, #1
	bne	.LBB20_2
@ %bb.1:
	@DEBUG_VALUE: HAL_USART_DMAResume:husart <- $r0
	.loc	7 0 3                   @ ../Drivers/STM32F7xx_HAL_Driver/Src/stm32f7xx_hal_usart.c:0:3
	movs	r1, #2
	b	.LBB20_11
.LBB20_2:
	@DEBUG_VALUE: HAL_USART_DMAResume:husart <- $r0
.Ltmp421:
	.loc	7 1046 3                @ ../Drivers/STM32F7xx_HAL_Driver/Src/stm32f7xx_hal_usart.c:1046:3
	movs	r1, #1
	strb.w	r1, [r0, #68]
.Ltmp422:
	.loc	7 1048 14 is_stmt 1     @ ../Drivers/STM32F7xx_HAL_Driver/Src/stm32f7xx_hal_usart.c:1048:14
	ldrb.w	r1, [r0, #69]
.Ltmp423:
	.loc	7 1048 6 is_stmt 0      @ ../Drivers/STM32F7xx_HAL_Driver/Src/stm32f7xx_hal_usart.c:1048:6
	cmp	r1, #50
	beq	.LBB20_6
@ %bb.3:
	@DEBUG_VALUE: HAL_USART_DMAResume:husart <- $r0
	cmp	r1, #34
	beq	.LBB20_8
@ %bb.4:
	@DEBUG_VALUE: HAL_USART_DMAResume:husart <- $r0
	cmp	r1, #18
	bne	.LBB20_10
@ %bb.5:
	@DEBUG_VALUE: HAL_USART_DMAResume:husart <- $r0
.Ltmp424:
	.loc	7 1051 5 is_stmt 1      @ ../Drivers/STM32F7xx_HAL_Driver/Src/stm32f7xx_hal_usart.c:1051:5
	ldr	r1, [r0]
	adds	r1, #8
	b	.LBB20_7
.Ltmp425:
.LBB20_6:
	@DEBUG_VALUE: HAL_USART_DMAResume:husart <- $r0
	.loc	7 1068 5                @ ../Drivers/STM32F7xx_HAL_Driver/Src/stm32f7xx_hal_usart.c:1068:5
	ldr	r1, [r0]
	movs	r2, #8
	str	r2, [r1, #32]
	.loc	7 1071 5                @ ../Drivers/STM32F7xx_HAL_Driver/Src/stm32f7xx_hal_usart.c:1071:5
	ldr	r2, [r1, #8]!
	orr	r2, r2, #64
	str	r2, [r1]
.Ltmp426:
.LBB20_7:
	@DEBUG_VALUE: HAL_USART_DMAResume:husart <- $r0
	.loc	7 0 5 is_stmt 0         @ ../Drivers/STM32F7xx_HAL_Driver/Src/stm32f7xx_hal_usart.c:0:5
	movs	r2, #128
	b	.LBB20_9
.LBB20_8:
	@DEBUG_VALUE: HAL_USART_DMAResume:husart <- $r0
.Ltmp427:
	.loc	7 1056 5 is_stmt 1      @ ../Drivers/STM32F7xx_HAL_Driver/Src/stm32f7xx_hal_usart.c:1056:5
	ldr	r1, [r0]
	movs	r2, #8
	str	r2, [r1, #32]
	.loc	7 1059 5                @ ../Drivers/STM32F7xx_HAL_Driver/Src/stm32f7xx_hal_usart.c:1059:5
	ldr	r2, [r1]
	orr	r2, r2, #288
	str	r2, [r1]
	.loc	7 1060 5                @ ../Drivers/STM32F7xx_HAL_Driver/Src/stm32f7xx_hal_usart.c:1060:5
	ldr	r2, [r1, #8]!
	orr	r2, r2, #1
	str	r2, [r1]
	movs	r2, #64
.Ltmp428:
.LBB20_9:
	@DEBUG_VALUE: HAL_USART_DMAResume:husart <- $r0
	.loc	7 0 5 is_stmt 0         @ ../Drivers/STM32F7xx_HAL_Driver/Src/stm32f7xx_hal_usart.c:0:5
	ldr	r3, [r1]
	orrs	r2, r3
	str	r2, [r1]
.LBB20_10:
	@DEBUG_VALUE: HAL_USART_DMAResume:husart <- $r0
	movs	r1, #0
.Ltmp429:
	.loc	7 1078 3 is_stmt 1      @ ../Drivers/STM32F7xx_HAL_Driver/Src/stm32f7xx_hal_usart.c:1078:3
	strb.w	r1, [r0, #68]
.Ltmp430:
.LBB20_11:
	@DEBUG_VALUE: HAL_USART_DMAResume:husart <- $r0
	.loc	7 1081 1                @ ../Drivers/STM32F7xx_HAL_Driver/Src/stm32f7xx_hal_usart.c:1081:1
	uxtb	r0, r1
	bx	lr
.Ltmp431:
.Lfunc_end20:
	.size	HAL_USART_DMAResume, .Lfunc_end20-HAL_USART_DMAResume
	.cfi_endproc
	.cantunwind
	.fnend
                                        @ -- End function
	.section	.text.HAL_USART_DMAStop,"ax",%progbits
	.hidden	HAL_USART_DMAStop       @ -- Begin function HAL_USART_DMAStop
	.globl	HAL_USART_DMAStop
	.p2align	1
	.type	HAL_USART_DMAStop,%function
	.code	16                      @ @HAL_USART_DMAStop
	.thumb_func
HAL_USART_DMAStop:
.Lfunc_begin21:
	.loc	7 1089 0                @ ../Drivers/STM32F7xx_HAL_Driver/Src/stm32f7xx_hal_usart.c:1089:0
	.fnstart
	.cfi_startproc
@ %bb.0:
	.save	{r4, lr}
	push	{r4, lr}
	.cfi_def_cfa_offset 8
	.cfi_offset lr, -4
	.cfi_offset r4, -8
	@DEBUG_VALUE: HAL_USART_DMAStop:husart <- $r0
.Ltmp432:
	@DEBUG_VALUE: USART_EndTxTransfer:husart <- $r0
	.loc	7 1098 16 prologue_end  @ ../Drivers/STM32F7xx_HAL_Driver/Src/stm32f7xx_hal_usart.c:1098:16
	ldrb.w	r1, [r0, #69]
	mov	r4, r0
.Ltmp433:
	@DEBUG_VALUE: USART_EndTxTransfer:husart <- $r4
	@DEBUG_VALUE: HAL_USART_DMAStop:husart <- $r4
	.loc	7 1098 50 is_stmt 0     @ ../Drivers/STM32F7xx_HAL_Driver/Src/stm32f7xx_hal_usart.c:1098:50
	cmp	r1, #18
	bne	.LBB21_5
.Ltmp434:
@ %bb.1:
	@DEBUG_VALUE: HAL_USART_DMAStop:husart <- $r4
	.loc	7 1099 8 is_stmt 1      @ ../Drivers/STM32F7xx_HAL_Driver/Src/stm32f7xx_hal_usart.c:1099:8
	ldr	r0, [r4]
	mov	r2, r0
	ldr	r1, [r2, #8]!
.Ltmp435:
	.loc	7 1098 7                @ ../Drivers/STM32F7xx_HAL_Driver/Src/stm32f7xx_hal_usart.c:1098:7
	tst.w	r1, #128
	beq	.LBB21_10
.Ltmp436:
@ %bb.2:
	@DEBUG_VALUE: HAL_USART_DMAStop:husart <- $r4
	.loc	7 0 7 is_stmt 0         @ ../Drivers/STM32F7xx_HAL_Driver/Src/stm32f7xx_hal_usart.c:0:7
	movs	r1, #1
.Ltmp437:
	.loc	7 1833 17 is_stmt 1     @ ../Drivers/STM32F7xx_HAL_Driver/Src/stm32f7xx_hal_usart.c:1833:17
	strb.w	r1, [r4, #69]
	.loc	7 1836 3                @ ../Drivers/STM32F7xx_HAL_Driver/Src/stm32f7xx_hal_usart.c:1836:3
	ldr	r3, [r0]
	bic	r3, r3, #192
	str	r3, [r0]
.Ltmp438:
	.loc	7 1104 16               @ ../Drivers/STM32F7xx_HAL_Driver/Src/stm32f7xx_hal_usart.c:1104:16
	ldr	r0, [r4, #60]
.Ltmp439:
	.loc	7 1104 8 is_stmt 0      @ ../Drivers/STM32F7xx_HAL_Driver/Src/stm32f7xx_hal_usart.c:1104:8
	cbz	r0, .LBB21_4
.Ltmp440:
@ %bb.3:
	@DEBUG_VALUE: HAL_USART_DMAStop:husart <- $r4
	.loc	7 1106 7 is_stmt 1      @ ../Drivers/STM32F7xx_HAL_Driver/Src/stm32f7xx_hal_usart.c:1106:7
	bl	HAL_DMA_Abort
.Ltmp441:
	.loc	7 1110 5                @ ../Drivers/STM32F7xx_HAL_Driver/Src/stm32f7xx_hal_usart.c:1110:5
	ldr	r0, [r4]
.Ltmp442:
	.loc	7 1114 16               @ ../Drivers/STM32F7xx_HAL_Driver/Src/stm32f7xx_hal_usart.c:1114:16
	ldrb.w	r1, [r4, #69]
.Ltmp443:
	.loc	7 1110 5                @ ../Drivers/STM32F7xx_HAL_Driver/Src/stm32f7xx_hal_usart.c:1110:5
	add.w	r2, r0, #8
.Ltmp444:
.LBB21_4:
	@DEBUG_VALUE: HAL_USART_DMAStop:husart <- $r4
	ldr	r0, [r2]
	bic	r0, r0, #128
	str	r0, [r2]
.Ltmp445:
.LBB21_5:
	@DEBUG_VALUE: HAL_USART_DMAStop:husart <- $r4
	.loc	7 1114 50               @ ../Drivers/STM32F7xx_HAL_Driver/Src/stm32f7xx_hal_usart.c:1114:50
	cmp	r1, #34
	bne	.LBB21_10
.Ltmp446:
@ %bb.6:
	@DEBUG_VALUE: HAL_USART_DMAStop:husart <- $r4
	.loc	7 1115 8                @ ../Drivers/STM32F7xx_HAL_Driver/Src/stm32f7xx_hal_usart.c:1115:8
	ldr	r0, [r4]
	ldr	r0, [r0, #8]
.Ltmp447:
	.loc	7 1114 7                @ ../Drivers/STM32F7xx_HAL_Driver/Src/stm32f7xx_hal_usart.c:1114:7
	tst.w	r0, #64
	beq	.LBB21_10
.Ltmp448:
@ %bb.7:
	@DEBUG_VALUE: HAL_USART_DMAStop:husart <- $r4
	.loc	7 1117 5                @ ../Drivers/STM32F7xx_HAL_Driver/Src/stm32f7xx_hal_usart.c:1117:5
	mov	r0, r4
	bl	USART_EndRxTransfer
.Ltmp449:
	.loc	7 1120 16               @ ../Drivers/STM32F7xx_HAL_Driver/Src/stm32f7xx_hal_usart.c:1120:16
	ldr	r0, [r4, #64]
.Ltmp450:
	.loc	7 1120 8 is_stmt 0      @ ../Drivers/STM32F7xx_HAL_Driver/Src/stm32f7xx_hal_usart.c:1120:8
	cbz	r0, .LBB21_9
.Ltmp451:
@ %bb.8:
	@DEBUG_VALUE: HAL_USART_DMAStop:husart <- $r4
	.loc	7 1122 7 is_stmt 1      @ ../Drivers/STM32F7xx_HAL_Driver/Src/stm32f7xx_hal_usart.c:1122:7
	bl	HAL_DMA_Abort
.Ltmp452:
.LBB21_9:
	@DEBUG_VALUE: HAL_USART_DMAStop:husart <- $r4
	.loc	7 1126 5                @ ../Drivers/STM32F7xx_HAL_Driver/Src/stm32f7xx_hal_usart.c:1126:5
	ldr	r0, [r4]
	ldr	r1, [r0, #8]
	bic	r1, r1, #64
	str	r1, [r0, #8]
.Ltmp453:
.LBB21_10:
	@DEBUG_VALUE: HAL_USART_DMAStop:husart <- $r4
	.loc	7 1129 3                @ ../Drivers/STM32F7xx_HAL_Driver/Src/stm32f7xx_hal_usart.c:1129:3
	movs	r0, #0
	pop	{r4, pc}
.Ltmp454:
.Lfunc_end21:
	.size	HAL_USART_DMAStop, .Lfunc_end21-HAL_USART_DMAStop
	.cfi_endproc
	.cantunwind
	.fnend
                                        @ -- End function
	.section	.text.USART_EndRxTransfer,"ax",%progbits
	.p2align	1               @ -- Begin function USART_EndRxTransfer
	.type	USART_EndRxTransfer,%function
	.code	16                      @ @USART_EndRxTransfer
	.thumb_func
USART_EndRxTransfer:
.Lfunc_begin22:
	.loc	7 1845 0                @ ../Drivers/STM32F7xx_HAL_Driver/Src/stm32f7xx_hal_usart.c:1845:0
	.fnstart
	.cfi_startproc
@ %bb.0:
	@DEBUG_VALUE: USART_EndRxTransfer:husart <- $r0
	@DEBUG_VALUE: USART_EndRxTransfer:husart <- $r0
	.loc	7 1847 17 prologue_end  @ ../Drivers/STM32F7xx_HAL_Driver/Src/stm32f7xx_hal_usart.c:1847:17
	movs	r1, #1
	strb.w	r1, [r0, #69]
	.loc	7 1850 3                @ ../Drivers/STM32F7xx_HAL_Driver/Src/stm32f7xx_hal_usart.c:1850:3
	ldr	r0, [r0]
.Ltmp455:
	ldr	r1, [r0]
	bic	r1, r1, #288
	str	r1, [r0]
	.loc	7 1851 3                @ ../Drivers/STM32F7xx_HAL_Driver/Src/stm32f7xx_hal_usart.c:1851:3
	ldr	r1, [r0, #8]
	bic	r1, r1, #1
	str	r1, [r0, #8]
	.loc	7 1852 1                @ ../Drivers/STM32F7xx_HAL_Driver/Src/stm32f7xx_hal_usart.c:1852:1
	bx	lr
.Ltmp456:
.Lfunc_end22:
	.size	USART_EndRxTransfer, .Lfunc_end22-USART_EndRxTransfer
	.cfi_endproc
	.cantunwind
	.fnend
                                        @ -- End function
	.section	.text.HAL_USART_IRQHandler,"ax",%progbits
	.hidden	HAL_USART_IRQHandler    @ -- Begin function HAL_USART_IRQHandler
	.globl	HAL_USART_IRQHandler
	.p2align	2
	.type	HAL_USART_IRQHandler,%function
	.code	16                      @ @HAL_USART_IRQHandler
	.thumb_func
HAL_USART_IRQHandler:
.Lfunc_begin23:
	.loc	7 1138 0                @ ../Drivers/STM32F7xx_HAL_Driver/Src/stm32f7xx_hal_usart.c:1138:0
	.fnstart
	.cfi_startproc
@ %bb.0:
	.save	{r4, r5, r7, lr}
	push	{r4, r5, r7, lr}
	.cfi_def_cfa_offset 16
	.cfi_offset lr, -4
	.cfi_offset r7, -8
	.cfi_offset r5, -12
	.cfi_offset r4, -16
	@DEBUG_VALUE: HAL_USART_IRQHandler:husart <- $r0
.Ltmp457:
	@DEBUG_VALUE: USART_Transmit_IT:husart <- $r0
	@DEBUG_VALUE: USART_EndTransmit_IT:husart <- $r0
	.loc	7 1139 23 prologue_end  @ ../Drivers/STM32F7xx_HAL_Driver/Src/stm32f7xx_hal_usart.c:1139:23
	ldr	r2, [r0]
	mov	r4, r0
.Ltmp458:
	@DEBUG_VALUE: USART_EndTransmit_IT:husart <- $r4
	@DEBUG_VALUE: USART_Transmit_IT:husart <- $r4
	@DEBUG_VALUE: HAL_USART_IRQHandler:husart <- $r4
	ldr	r0, [r2, #28]
.Ltmp459:
	@DEBUG_VALUE: HAL_USART_IRQHandler:isrflags <- $r0
	.loc	7 1140 23               @ ../Drivers/STM32F7xx_HAL_Driver/Src/stm32f7xx_hal_usart.c:1140:23
	ldr	r1, [r2]
.Ltmp460:
	@DEBUG_VALUE: HAL_USART_IRQHandler:cr1its <- $r1
	.loc	7 1141 23               @ ../Drivers/STM32F7xx_HAL_Driver/Src/stm32f7xx_hal_usart.c:1141:23
	ldr	r3, [r2, #8]
.Ltmp461:
	@DEBUG_VALUE: HAL_USART_IRQHandler:cr3its <- $r3
	.loc	7 1146 7                @ ../Drivers/STM32F7xx_HAL_Driver/Src/stm32f7xx_hal_usart.c:1146:7
	tst.w	r0, #15
	beq	.LBB23_11
.Ltmp462:
@ %bb.1:
	@DEBUG_VALUE: HAL_USART_IRQHandler:cr3its <- $r3
	@DEBUG_VALUE: HAL_USART_IRQHandler:cr1its <- $r1
	@DEBUG_VALUE: HAL_USART_IRQHandler:isrflags <- $r0
	@DEBUG_VALUE: HAL_USART_IRQHandler:husart <- $r4
	.loc	7 1165 22               @ ../Drivers/STM32F7xx_HAL_Driver/Src/stm32f7xx_hal_usart.c:1165:22
	and	r5, r1, #288
	.loc	7 1164 22               @ ../Drivers/STM32F7xx_HAL_Driver/Src/stm32f7xx_hal_usart.c:1164:22
	and	r3, r3, #1
.Ltmp463:
	.loc	7 1165 10               @ ../Drivers/STM32F7xx_HAL_Driver/Src/stm32f7xx_hal_usart.c:1165:10
	orrs	r5, r3
	beq	.LBB23_14
.Ltmp464:
@ %bb.2:
	@DEBUG_VALUE: HAL_USART_IRQHandler:cr1its <- $r1
	@DEBUG_VALUE: HAL_USART_IRQHandler:isrflags <- $r0
	@DEBUG_VALUE: HAL_USART_IRQHandler:husart <- $r4
	.loc	7 1169 45               @ ../Drivers/STM32F7xx_HAL_Driver/Src/stm32f7xx_hal_usart.c:1169:45
	lsls	r5, r0, #31
	itttt	ne
	andsne	r5, r1, #256
.Ltmp465:
	.loc	7 1171 7                @ ../Drivers/STM32F7xx_HAL_Driver/Src/stm32f7xx_hal_usart.c:1171:7
	movne	r5, #1
	strne	r5, [r2, #32]
	.loc	7 1172 25               @ ../Drivers/STM32F7xx_HAL_Driver/Src/stm32f7xx_hal_usart.c:1172:25
	ldrne	r5, [r4, #72]
	itt	ne
	orrne	r5, r5, #1
	strne	r5, [r4, #72]
.Ltmp466:
	.loc	7 1176 45               @ ../Drivers/STM32F7xx_HAL_Driver/Src/stm32f7xx_hal_usart.c:1176:45
	lsls	r5, r0, #30
	bpl	.LBB23_5
.Ltmp467:
@ %bb.3:
	@DEBUG_VALUE: HAL_USART_IRQHandler:cr1its <- $r1
	@DEBUG_VALUE: HAL_USART_IRQHandler:isrflags <- $r0
	@DEBUG_VALUE: HAL_USART_IRQHandler:husart <- $r4
	cbz	r3, .LBB23_5
.Ltmp468:
@ %bb.4:
	@DEBUG_VALUE: HAL_USART_IRQHandler:cr1its <- $r1
	@DEBUG_VALUE: HAL_USART_IRQHandler:isrflags <- $r0
	@DEBUG_VALUE: HAL_USART_IRQHandler:husart <- $r4
	.loc	7 1178 7                @ ../Drivers/STM32F7xx_HAL_Driver/Src/stm32f7xx_hal_usart.c:1178:7
	movs	r5, #2
	str	r5, [r2, #32]
	.loc	7 1179 25               @ ../Drivers/STM32F7xx_HAL_Driver/Src/stm32f7xx_hal_usart.c:1179:25
	ldr	r5, [r4, #72]
	orr	r5, r5, #4
	str	r5, [r4, #72]
.Ltmp469:
.LBB23_5:
	@DEBUG_VALUE: HAL_USART_IRQHandler:cr1its <- $r1
	@DEBUG_VALUE: HAL_USART_IRQHandler:isrflags <- $r0
	@DEBUG_VALUE: HAL_USART_IRQHandler:husart <- $r4
	.loc	7 1183 45               @ ../Drivers/STM32F7xx_HAL_Driver/Src/stm32f7xx_hal_usart.c:1183:45
	lsls	r5, r0, #29
	bpl	.LBB23_8
.Ltmp470:
@ %bb.6:
	@DEBUG_VALUE: HAL_USART_IRQHandler:cr1its <- $r1
	@DEBUG_VALUE: HAL_USART_IRQHandler:isrflags <- $r0
	@DEBUG_VALUE: HAL_USART_IRQHandler:husart <- $r4
	cbz	r3, .LBB23_8
.Ltmp471:
@ %bb.7:
	@DEBUG_VALUE: HAL_USART_IRQHandler:cr1its <- $r1
	@DEBUG_VALUE: HAL_USART_IRQHandler:isrflags <- $r0
	@DEBUG_VALUE: HAL_USART_IRQHandler:husart <- $r4
	.loc	7 1185 7                @ ../Drivers/STM32F7xx_HAL_Driver/Src/stm32f7xx_hal_usart.c:1185:7
	movs	r5, #4
	str	r5, [r2, #32]
	.loc	7 1186 25               @ ../Drivers/STM32F7xx_HAL_Driver/Src/stm32f7xx_hal_usart.c:1186:25
	ldr	r5, [r4, #72]
	orr	r5, r5, #2
	str	r5, [r4, #72]
.Ltmp472:
.LBB23_8:
	@DEBUG_VALUE: HAL_USART_IRQHandler:cr1its <- $r1
	@DEBUG_VALUE: HAL_USART_IRQHandler:isrflags <- $r0
	@DEBUG_VALUE: HAL_USART_IRQHandler:husart <- $r4
	.loc	7 1190 46               @ ../Drivers/STM32F7xx_HAL_Driver/Src/stm32f7xx_hal_usart.c:1190:46
	lsls	r5, r0, #28
	bpl	.LBB23_15
.Ltmp473:
@ %bb.9:
	@DEBUG_VALUE: HAL_USART_IRQHandler:cr1its <- $r1
	@DEBUG_VALUE: HAL_USART_IRQHandler:isrflags <- $r0
	@DEBUG_VALUE: HAL_USART_IRQHandler:husart <- $r4
	cbz	r3, .LBB23_15
.Ltmp474:
@ %bb.10:
	@DEBUG_VALUE: HAL_USART_IRQHandler:cr1its <- $r1
	@DEBUG_VALUE: HAL_USART_IRQHandler:isrflags <- $r0
	@DEBUG_VALUE: HAL_USART_IRQHandler:husart <- $r4
	.loc	7 1192 7                @ ../Drivers/STM32F7xx_HAL_Driver/Src/stm32f7xx_hal_usart.c:1192:7
	movs	r3, #8
	.loc	7 1193 25               @ ../Drivers/STM32F7xx_HAL_Driver/Src/stm32f7xx_hal_usart.c:1193:25
	mov	r5, r4
	.loc	7 1192 7                @ ../Drivers/STM32F7xx_HAL_Driver/Src/stm32f7xx_hal_usart.c:1192:7
	str	r3, [r2, #32]
	.loc	7 1193 25               @ ../Drivers/STM32F7xx_HAL_Driver/Src/stm32f7xx_hal_usart.c:1193:25
	ldr	r2, [r5, #72]!
	orr	r2, r2, #8
	str	r2, [r5]
	b	.LBB23_16
.Ltmp475:
.LBB23_11:
	@DEBUG_VALUE: HAL_USART_IRQHandler:cr3its <- $r3
	@DEBUG_VALUE: HAL_USART_IRQHandler:cr1its <- $r1
	@DEBUG_VALUE: HAL_USART_IRQHandler:isrflags <- $r0
	@DEBUG_VALUE: HAL_USART_IRQHandler:husart <- $r4
	.loc	7 1149 47               @ ../Drivers/STM32F7xx_HAL_Driver/Src/stm32f7xx_hal_usart.c:1149:47
	and.w	r5, r1, r0
	tst.w	r5, #32
	beq	.LBB23_26
.Ltmp476:
@ %bb.12:
	@DEBUG_VALUE: HAL_USART_IRQHandler:cr3its <- $r3
	@DEBUG_VALUE: HAL_USART_IRQHandler:cr1its <- $r1
	@DEBUG_VALUE: HAL_USART_IRQHandler:isrflags <- $r0
	@DEBUG_VALUE: HAL_USART_IRQHandler:husart <- $r4
	.loc	7 1151 18               @ ../Drivers/STM32F7xx_HAL_Driver/Src/stm32f7xx_hal_usart.c:1151:18
	ldrb.w	r0, [r4, #69]
.Ltmp477:
	.loc	7 1151 10 is_stmt 0     @ ../Drivers/STM32F7xx_HAL_Driver/Src/stm32f7xx_hal_usart.c:1151:10
	cmp	r0, #34
	bne	.LBB23_25
.Ltmp478:
@ %bb.13:
	@DEBUG_VALUE: HAL_USART_IRQHandler:cr3its <- $r3
	@DEBUG_VALUE: HAL_USART_IRQHandler:cr1its <- $r1
	@DEBUG_VALUE: HAL_USART_IRQHandler:husart <- $r4
	.loc	7 1153 9 is_stmt 1      @ ../Drivers/STM32F7xx_HAL_Driver/Src/stm32f7xx_hal_usart.c:1153:9
	mov	r0, r4
	bl	USART_Receive_IT
.Ltmp479:
	.loc	7 0 9 is_stmt 0         @ ../Drivers/STM32F7xx_HAL_Driver/Src/stm32f7xx_hal_usart.c:0:9
	b	.LBB23_26
.Ltmp480:
.LBB23_14:
	@DEBUG_VALUE: HAL_USART_IRQHandler:cr1its <- $r1
	@DEBUG_VALUE: HAL_USART_IRQHandler:isrflags <- $r0
	@DEBUG_VALUE: HAL_USART_IRQHandler:husart <- $r4
	.loc	7 1259 44 is_stmt 1     @ ../Drivers/STM32F7xx_HAL_Driver/Src/stm32f7xx_hal_usart.c:1259:44
	and.w	r5, r1, r0
	b	.LBB23_26
.Ltmp481:
.LBB23_15:
	@DEBUG_VALUE: HAL_USART_IRQHandler:cr1its <- $r1
	@DEBUG_VALUE: HAL_USART_IRQHandler:isrflags <- $r0
	@DEBUG_VALUE: HAL_USART_IRQHandler:husart <- $r4
	.loc	7 1197 16               @ ../Drivers/STM32F7xx_HAL_Driver/Src/stm32f7xx_hal_usart.c:1197:16
	add.w	r5, r4, #72
.Ltmp482:
.LBB23_16:
	@DEBUG_VALUE: HAL_USART_IRQHandler:cr1its <- $r1
	@DEBUG_VALUE: HAL_USART_IRQHandler:isrflags <- $r0
	@DEBUG_VALUE: HAL_USART_IRQHandler:husart <- $r4
	ldr	r2, [r5]
.Ltmp483:
	.loc	7 1197 8 is_stmt 0      @ ../Drivers/STM32F7xx_HAL_Driver/Src/stm32f7xx_hal_usart.c:1197:8
	cbz	r2, .LBB23_28
.Ltmp484:
@ %bb.17:
	@DEBUG_VALUE: HAL_USART_IRQHandler:cr1its <- $r1
	@DEBUG_VALUE: HAL_USART_IRQHandler:isrflags <- $r0
	@DEBUG_VALUE: HAL_USART_IRQHandler:husart <- $r4
	.loc	7 1200 49 is_stmt 1     @ ../Drivers/STM32F7xx_HAL_Driver/Src/stm32f7xx_hal_usart.c:1200:49
	ands	r0, r1
.Ltmp485:
	lsls	r0, r0, #26
.Ltmp486:
	.loc	7 1202 9                @ ../Drivers/STM32F7xx_HAL_Driver/Src/stm32f7xx_hal_usart.c:1202:9
	itt	mi
	movmi	r0, r4
	blmi	USART_Receive_IT
.Ltmp487:
	.loc	7 1207 21               @ ../Drivers/STM32F7xx_HAL_Driver/Src/stm32f7xx_hal_usart.c:1207:21
	ldr	r0, [r5]
	.loc	7 1207 64 is_stmt 0     @ ../Drivers/STM32F7xx_HAL_Driver/Src/stm32f7xx_hal_usart.c:1207:64
	tst.w	r0, #8
	bne	.LBB23_20
.Ltmp488:
@ %bb.18:
	@DEBUG_VALUE: HAL_USART_IRQHandler:husart <- $r4
	.loc	7 1208 12 is_stmt 1     @ ../Drivers/STM32F7xx_HAL_Driver/Src/stm32f7xx_hal_usart.c:1208:12
	ldr	r0, [r4]
	ldr	r0, [r0, #8]
.Ltmp489:
	.loc	7 1207 11               @ ../Drivers/STM32F7xx_HAL_Driver/Src/stm32f7xx_hal_usart.c:1207:11
	tst.w	r0, #64
	bne	.LBB23_20
.Ltmp490:
@ %bb.19:
	@DEBUG_VALUE: HAL_USART_IRQHandler:husart <- $r4
	.loc	7 1250 9                @ ../Drivers/STM32F7xx_HAL_Driver/Src/stm32f7xx_hal_usart.c:1250:9
	mov	r0, r4
	bl	HAL_USART_ErrorCallback
	.loc	7 1251 27               @ ../Drivers/STM32F7xx_HAL_Driver/Src/stm32f7xx_hal_usart.c:1251:27
	movs	r0, #0
	str	r0, [r4, #72]
.Ltmp491:
	.loc	7 1278 1                @ ../Drivers/STM32F7xx_HAL_Driver/Src/stm32f7xx_hal_usart.c:1278:1
	pop	{r4, r5, r7, pc}
.Ltmp492:
.LBB23_20:
	@DEBUG_VALUE: HAL_USART_IRQHandler:husart <- $r4
	.loc	7 1213 9                @ ../Drivers/STM32F7xx_HAL_Driver/Src/stm32f7xx_hal_usart.c:1213:9
	mov	r0, r4
	bl	USART_EndRxTransfer
.Ltmp493:
	.loc	7 1216 13               @ ../Drivers/STM32F7xx_HAL_Driver/Src/stm32f7xx_hal_usart.c:1216:13
	ldr	r0, [r4]
	ldr	r1, [r0, #8]
.Ltmp494:
	.loc	7 1216 13 is_stmt 0     @ ../Drivers/STM32F7xx_HAL_Driver/Src/stm32f7xx_hal_usart.c:1216:13
	tst.w	r1, #64
	beq	.LBB23_24
.Ltmp495:
@ %bb.21:
	@DEBUG_VALUE: HAL_USART_IRQHandler:husart <- $r4
	.loc	7 1218 11 is_stmt 1     @ ../Drivers/STM32F7xx_HAL_Driver/Src/stm32f7xx_hal_usart.c:1218:11
	ldr	r1, [r0, #8]
	bic	r1, r1, #64
	str	r1, [r0, #8]
.Ltmp496:
	.loc	7 1221 22               @ ../Drivers/STM32F7xx_HAL_Driver/Src/stm32f7xx_hal_usart.c:1221:22
	ldr	r0, [r4, #64]
.Ltmp497:
	.loc	7 1221 14 is_stmt 0     @ ../Drivers/STM32F7xx_HAL_Driver/Src/stm32f7xx_hal_usart.c:1221:14
	cbz	r0, .LBB23_24
.Ltmp498:
@ %bb.22:
	@DEBUG_VALUE: HAL_USART_IRQHandler:husart <- $r4
	.loc	7 1225 47 is_stmt 1     @ ../Drivers/STM32F7xx_HAL_Driver/Src/stm32f7xx_hal_usart.c:1225:47
	ldr	r1, __arm_cp.23_0
	str	r1, [r0, #80]
.Ltmp499:
	.loc	7 1228 16               @ ../Drivers/STM32F7xx_HAL_Driver/Src/stm32f7xx_hal_usart.c:1228:16
	bl	HAL_DMA_Abort_IT
.Ltmp500:
	.loc	7 1228 16 is_stmt 0     @ ../Drivers/STM32F7xx_HAL_Driver/Src/stm32f7xx_hal_usart.c:1228:16
	cbz	r0, .LBB23_28
.Ltmp501:
@ %bb.23:
	@DEBUG_VALUE: HAL_USART_IRQHandler:husart <- $r4
	.loc	7 1231 23 is_stmt 1     @ ../Drivers/STM32F7xx_HAL_Driver/Src/stm32f7xx_hal_usart.c:1231:23
	ldr	r0, [r4, #64]
	.loc	7 1231 31 is_stmt 0     @ ../Drivers/STM32F7xx_HAL_Driver/Src/stm32f7xx_hal_usart.c:1231:31
	ldr	r1, [r0, #80]
	.loc	7 1231 15               @ ../Drivers/STM32F7xx_HAL_Driver/Src/stm32f7xx_hal_usart.c:1231:15
	pop.w	{r4, r5, r7, lr}
.Ltmp502:
	bx	r1
.Ltmp503:
.LBB23_24:
	@DEBUG_VALUE: HAL_USART_IRQHandler:husart <- $r4
	.loc	7 0 15                  @ ../Drivers/STM32F7xx_HAL_Driver/Src/stm32f7xx_hal_usart.c:0:15
	mov	r0, r4
	pop.w	{r4, r5, r7, lr}
.Ltmp504:
	b	HAL_USART_ErrorCallback
.LBB23_25:
.Ltmp505:
	@DEBUG_VALUE: HAL_USART_IRQHandler:cr3its <- $r3
	@DEBUG_VALUE: HAL_USART_IRQHandler:cr1its <- $r1
	@DEBUG_VALUE: HAL_USART_IRQHandler:husart <- $r4
	.loc	7 1157 9 is_stmt 1      @ ../Drivers/STM32F7xx_HAL_Driver/Src/stm32f7xx_hal_usart.c:1157:9
	mov	r0, r4
	bl	USART_TransmitReceive_IT
.Ltmp506:
.LBB23_26:
	@DEBUG_VALUE: HAL_USART_IRQHandler:husart <- $r4
	.loc	7 1259 44               @ ../Drivers/STM32F7xx_HAL_Driver/Src/stm32f7xx_hal_usart.c:1259:44
	lsls	r0, r5, #24
	bmi	.LBB23_29
.Ltmp507:
@ %bb.27:
	@DEBUG_VALUE: HAL_USART_IRQHandler:husart <- $r4
	.loc	7 1273 43               @ ../Drivers/STM32F7xx_HAL_Driver/Src/stm32f7xx_hal_usart.c:1273:43
	lsls	r0, r5, #25
	bmi	.LBB23_34
.Ltmp508:
.LBB23_28:
	@DEBUG_VALUE: HAL_USART_IRQHandler:husart <- $r4
	.loc	7 1278 1                @ ../Drivers/STM32F7xx_HAL_Driver/Src/stm32f7xx_hal_usart.c:1278:1
	pop	{r4, r5, r7, pc}
.Ltmp509:
.LBB23_29:
	@DEBUG_VALUE: HAL_USART_IRQHandler:husart <- $r4
	.loc	7 1261 16               @ ../Drivers/STM32F7xx_HAL_Driver/Src/stm32f7xx_hal_usart.c:1261:16
	ldrb.w	r0, [r4, #69]
.Ltmp510:
	.loc	7 1261 8 is_stmt 0      @ ../Drivers/STM32F7xx_HAL_Driver/Src/stm32f7xx_hal_usart.c:1261:8
	cmp	r0, #18
	bne	.LBB23_35
.Ltmp511:
@ %bb.30:
	@DEBUG_VALUE: HAL_USART_IRQHandler:husart <- $r4
	.loc	7 1434 16 is_stmt 1     @ ../Drivers/STM32F7xx_HAL_Driver/Src/stm32f7xx_hal_usart.c:1434:16
	ldrh	r0, [r4, #46]
.Ltmp512:
	.loc	7 1434 8 is_stmt 0      @ ../Drivers/STM32F7xx_HAL_Driver/Src/stm32f7xx_hal_usart.c:1434:8
	cbz	r0, .LBB23_36
.Ltmp513:
@ %bb.31:
	@DEBUG_VALUE: HAL_USART_IRQHandler:husart <- $r4
	.loc	7 1446 24 is_stmt 1     @ ../Drivers/STM32F7xx_HAL_Driver/Src/stm32f7xx_hal_usart.c:1446:24
	ldr	r0, [r4, #8]
	.loc	7 1446 59 is_stmt 0     @ ../Drivers/STM32F7xx_HAL_Driver/Src/stm32f7xx_hal_usart.c:1446:59
	cmp.w	r0, #4096
	.loc	7 1446 76               @ ../Drivers/STM32F7xx_HAL_Driver/Src/stm32f7xx_hal_usart.c:1446:76
	itt	eq
	ldreq	r0, [r4, #16]
.Ltmp514:
	.loc	7 1446 10               @ ../Drivers/STM32F7xx_HAL_Driver/Src/stm32f7xx_hal_usart.c:1446:10
	cmpeq	r0, #0
	beq	.LBB23_37
.Ltmp515:
@ %bb.32:
	@DEBUG_VALUE: HAL_USART_IRQHandler:husart <- $r4
	.loc	7 1454 62 is_stmt 1     @ ../Drivers/STM32F7xx_HAL_Driver/Src/stm32f7xx_hal_usart.c:1454:62
	ldr	r1, [r4, #40]
	.loc	7 1454 17 is_stmt 0     @ ../Drivers/STM32F7xx_HAL_Driver/Src/stm32f7xx_hal_usart.c:1454:17
	ldr	r0, [r4]
	.loc	7 1454 62               @ ../Drivers/STM32F7xx_HAL_Driver/Src/stm32f7xx_hal_usart.c:1454:62
	adds	r2, r1, #1
	str	r2, [r4, #40]
	.loc	7 1454 33               @ ../Drivers/STM32F7xx_HAL_Driver/Src/stm32f7xx_hal_usart.c:1454:33
	ldrb	r1, [r1]
	.loc	7 1454 31               @ ../Drivers/STM32F7xx_HAL_Driver/Src/stm32f7xx_hal_usart.c:1454:31
	str	r1, [r0, #40]
.Ltmp516:
.LBB23_33:
	@DEBUG_VALUE: HAL_USART_IRQHandler:husart <- $r4
	.loc	7 1457 26 is_stmt 1     @ ../Drivers/STM32F7xx_HAL_Driver/Src/stm32f7xx_hal_usart.c:1457:26
	ldrh	r0, [r4, #46]
	subs	r0, #1
	strh	r0, [r4, #46]
.Ltmp517:
	.loc	7 1278 1                @ ../Drivers/STM32F7xx_HAL_Driver/Src/stm32f7xx_hal_usart.c:1278:1
	pop	{r4, r5, r7, pc}
.Ltmp518:
.LBB23_34:
	@DEBUG_VALUE: HAL_USART_IRQHandler:husart <- $r4
	.loc	7 1477 3                @ ../Drivers/STM32F7xx_HAL_Driver/Src/stm32f7xx_hal_usart.c:1477:3
	ldr	r0, [r4]
	ldr	r1, [r0]
	bic	r1, r1, #64
	str	r1, [r0]
	.loc	7 1480 3                @ ../Drivers/STM32F7xx_HAL_Driver/Src/stm32f7xx_hal_usart.c:1480:3
	ldr	r1, [r0, #8]
	bic	r1, r1, #1
	str	r1, [r0, #8]
	.loc	7 1482 17               @ ../Drivers/STM32F7xx_HAL_Driver/Src/stm32f7xx_hal_usart.c:1482:17
	movs	r0, #1
	strb.w	r0, [r4, #69]
	.loc	7 1484 3                @ ../Drivers/STM32F7xx_HAL_Driver/Src/stm32f7xx_hal_usart.c:1484:3
	mov	r0, r4
	pop.w	{r4, r5, r7, lr}
.Ltmp519:
	b	HAL_USART_TxCpltCallback
.Ltmp520:
.LBB23_35:
	@DEBUG_VALUE: HAL_USART_IRQHandler:husart <- $r4
	.loc	7 1267 7                @ ../Drivers/STM32F7xx_HAL_Driver/Src/stm32f7xx_hal_usart.c:1267:7
	mov	r0, r4
	pop.w	{r4, r5, r7, lr}
.Ltmp521:
	b	USART_TransmitReceive_IT
.Ltmp522:
.LBB23_36:
	@DEBUG_VALUE: HAL_USART_IRQHandler:husart <- $r4
	.loc	7 1437 7                @ ../Drivers/STM32F7xx_HAL_Driver/Src/stm32f7xx_hal_usart.c:1437:7
	ldr	r0, [r4]
	ldr	r1, [r0]
	bic	r1, r1, #128
	str	r1, [r0]
	.loc	7 1440 7                @ ../Drivers/STM32F7xx_HAL_Driver/Src/stm32f7xx_hal_usart.c:1440:7
	ldr	r1, [r0]
	orr	r1, r1, #64
	str	r1, [r0]
.Ltmp523:
	.loc	7 1278 1                @ ../Drivers/STM32F7xx_HAL_Driver/Src/stm32f7xx_hal_usart.c:1278:1
	pop	{r4, r5, r7, pc}
.Ltmp524:
.LBB23_37:
	@DEBUG_VALUE: HAL_USART_IRQHandler:husart <- $r4
	.loc	7 1448 35               @ ../Drivers/STM32F7xx_HAL_Driver/Src/stm32f7xx_hal_usart.c:1448:35
	ldr	r1, [r4, #40]
.Ltmp525:
	@DEBUG_VALUE: USART_Transmit_IT:tmp <- $r1
	.loc	7 1449 17               @ ../Drivers/STM32F7xx_HAL_Driver/Src/stm32f7xx_hal_usart.c:1449:17
	ldr	r0, [r4]
	.loc	7 1449 34 is_stmt 0     @ ../Drivers/STM32F7xx_HAL_Driver/Src/stm32f7xx_hal_usart.c:1449:34
	ldrh	r2, [r1], #2
.Ltmp526:
	.loc	7 1449 39               @ ../Drivers/STM32F7xx_HAL_Driver/Src/stm32f7xx_hal_usart.c:1449:39
	bfc	r2, #9, #23
	.loc	7 1449 31               @ ../Drivers/STM32F7xx_HAL_Driver/Src/stm32f7xx_hal_usart.c:1449:31
	str	r2, [r0, #40]
	.loc	7 1450 28 is_stmt 1     @ ../Drivers/STM32F7xx_HAL_Driver/Src/stm32f7xx_hal_usart.c:1450:28
	str	r1, [r4, #40]
	b	.LBB23_33
.Ltmp527:
	.p2align	2
@ %bb.38:
	.loc	7 0 28 is_stmt 0        @ ../Drivers/STM32F7xx_HAL_Driver/Src/stm32f7xx_hal_usart.c:0:28
__arm_cp.23_0:
	.long	USART_DMAAbortOnError
.Lcpi_end18:
	.size	__arm_cp.23_0, .Lcpi_end18-__arm_cp.23_0
.Lfunc_end23:
	.size	HAL_USART_IRQHandler, .Lfunc_end23-HAL_USART_IRQHandler
	.cfi_endproc
	.cantunwind
	.fnend
                                        @ -- End function
	.section	.text.USART_Receive_IT,"ax",%progbits
	.p2align	1               @ -- Begin function USART_Receive_IT
	.type	USART_Receive_IT,%function
	.code	16                      @ @USART_Receive_IT
	.thumb_func
USART_Receive_IT:
.Lfunc_begin24:
	.loc	7 1497 0 is_stmt 1      @ ../Drivers/STM32F7xx_HAL_Driver/Src/stm32f7xx_hal_usart.c:1497:0
	.fnstart
	.cfi_startproc
@ %bb.0:
	@DEBUG_VALUE: USART_Receive_IT:husart <- $r0
	@DEBUG_VALUE: USART_Receive_IT:husart <- $r0
	.loc	7 1501 14 prologue_end  @ ../Drivers/STM32F7xx_HAL_Driver/Src/stm32f7xx_hal_usart.c:1501:14
	ldrb.w	r1, [r0, #69]
.Ltmp528:
	.loc	7 1501 6 is_stmt 0      @ ../Drivers/STM32F7xx_HAL_Driver/Src/stm32f7xx_hal_usart.c:1501:6
	cmp	r1, #34
	bne	.LBB24_4
@ %bb.1:
	@DEBUG_VALUE: USART_Receive_IT:husart <- $r0
	.loc	7 0 6                   @ ../Drivers/STM32F7xx_HAL_Driver/Src/stm32f7xx_hal_usart.c:0:6
	.save	{r7, lr}
	push	{r7, lr}
	.cfi_def_cfa_offset 8
	.cfi_offset lr, -4
	.cfi_offset r7, -8
.Ltmp529:
	.loc	7 1504 22 is_stmt 1     @ ../Drivers/STM32F7xx_HAL_Driver/Src/stm32f7xx_hal_usart.c:1504:22
	ldr	r1, [r0, #8]
	ldrh.w	lr, [r0, #56]
	.loc	7 1504 57 is_stmt 0     @ ../Drivers/STM32F7xx_HAL_Driver/Src/stm32f7xx_hal_usart.c:1504:57
	cmp.w	r1, #4096
	.loc	7 1504 74               @ ../Drivers/STM32F7xx_HAL_Driver/Src/stm32f7xx_hal_usart.c:1504:74
	itt	eq
	ldreq	r1, [r0, #16]
.Ltmp530:
	.loc	7 1504 8                @ ../Drivers/STM32F7xx_HAL_Driver/Src/stm32f7xx_hal_usart.c:1504:8
	cmpeq	r1, #0
	beq	.LBB24_5
@ %bb.2:
	@DEBUG_VALUE: USART_Receive_IT:husart <- $r0
.Ltmp531:
	.loc	7 1512 49 is_stmt 1     @ ../Drivers/STM32F7xx_HAL_Driver/Src/stm32f7xx_hal_usart.c:1512:49
	ldr	r1, [r0]
	.loc	7 1512 59 is_stmt 0     @ ../Drivers/STM32F7xx_HAL_Driver/Src/stm32f7xx_hal_usart.c:1512:59
	ldr	r1, [r1, #36]
	.loc	7 1512 26               @ ../Drivers/STM32F7xx_HAL_Driver/Src/stm32f7xx_hal_usart.c:1512:26
	ldr	r3, [r0, #48]
	adds	r2, r3, #1
	.loc	7 1512 63               @ ../Drivers/STM32F7xx_HAL_Driver/Src/stm32f7xx_hal_usart.c:1512:63
	and.w	r1, r1, lr
	.loc	7 1512 26               @ ../Drivers/STM32F7xx_HAL_Driver/Src/stm32f7xx_hal_usart.c:1512:26
	str	r2, [r0, #48]
	.loc	7 1512 29               @ ../Drivers/STM32F7xx_HAL_Driver/Src/stm32f7xx_hal_usart.c:1512:29
	strb	r1, [r3]
.Ltmp532:
	.loc	7 1515 15 is_stmt 1     @ ../Drivers/STM32F7xx_HAL_Driver/Src/stm32f7xx_hal_usart.c:1515:15
	ldr	r1, [r0]
.LBB24_3:
	@DEBUG_VALUE: USART_Receive_IT:husart <- $r0
	.loc	7 1515 29 is_stmt 0     @ ../Drivers/STM32F7xx_HAL_Driver/Src/stm32f7xx_hal_usart.c:1515:29
	movs	r2, #255
	movw	r3, #65535
	str	r2, [r1, #40]
.Ltmp533:
	.loc	7 1517 8 is_stmt 1      @ ../Drivers/STM32F7xx_HAL_Driver/Src/stm32f7xx_hal_usart.c:1517:8
	ldrh	r2, [r0, #54]
	subs	r2, #1
	strh	r2, [r0, #54]
.Ltmp534:
	.loc	7 1517 8 is_stmt 0      @ ../Drivers/STM32F7xx_HAL_Driver/Src/stm32f7xx_hal_usart.c:1517:8
	tst	r2, r3
	pop.w	{r7, lr}
	it	ne
	bxne	lr
.Ltmp535:
	.loc	7 1519 7 is_stmt 1      @ ../Drivers/STM32F7xx_HAL_Driver/Src/stm32f7xx_hal_usart.c:1519:7
	ldr	r2, [r1]
	bic	r2, r2, #32
	str	r2, [r1]
	.loc	7 1522 7                @ ../Drivers/STM32F7xx_HAL_Driver/Src/stm32f7xx_hal_usart.c:1522:7
	ldr	r2, [r1]
	bic	r2, r2, #256
	str	r2, [r1]
	.loc	7 1525 7                @ ../Drivers/STM32F7xx_HAL_Driver/Src/stm32f7xx_hal_usart.c:1525:7
	ldr	r2, [r1, #8]
	bic	r2, r2, #1
	str	r2, [r1, #8]
	.loc	7 1527 21               @ ../Drivers/STM32F7xx_HAL_Driver/Src/stm32f7xx_hal_usart.c:1527:21
	movs	r1, #1
	strb.w	r1, [r0, #69]
	.loc	7 1529 7                @ ../Drivers/STM32F7xx_HAL_Driver/Src/stm32f7xx_hal_usart.c:1529:7
	b	HAL_USART_RxCpltCallback
.Ltmp536:
.LBB24_4:
	@DEBUG_VALUE: USART_Receive_IT:husart <- $r0
	.loc	7 0 7 is_stmt 0         @ ../Drivers/STM32F7xx_HAL_Driver/Src/stm32f7xx_hal_usart.c:0:7
	bx	lr
.LBB24_5:
	@DEBUG_VALUE: USART_Receive_IT:husart <- $r0
.Ltmp537:
	.loc	7 1507 33 is_stmt 1     @ ../Drivers/STM32F7xx_HAL_Driver/Src/stm32f7xx_hal_usart.c:1507:33
	ldr	r1, [r0]
	.loc	7 1506 33               @ ../Drivers/STM32F7xx_HAL_Driver/Src/stm32f7xx_hal_usart.c:1506:33
	ldr.w	r12, [r0, #48]
.Ltmp538:
	@DEBUG_VALUE: USART_Receive_IT:tmp <- $r12
	.loc	7 1507 43               @ ../Drivers/STM32F7xx_HAL_Driver/Src/stm32f7xx_hal_usart.c:1507:43
	ldr	r3, [r1, #36]
	.loc	7 1507 14 is_stmt 0     @ ../Drivers/STM32F7xx_HAL_Driver/Src/stm32f7xx_hal_usart.c:1507:14
	and.w	r2, lr, r3
	.loc	7 1507 12               @ ../Drivers/STM32F7xx_HAL_Driver/Src/stm32f7xx_hal_usart.c:1507:12
	strh	r2, [r12], #2
.Ltmp539:
	.loc	7 1508 26 is_stmt 1     @ ../Drivers/STM32F7xx_HAL_Driver/Src/stm32f7xx_hal_usart.c:1508:26
	str.w	r12, [r0, #48]
	b	.LBB24_3
.Ltmp540:
.Lfunc_end24:
	.size	USART_Receive_IT, .Lfunc_end24-USART_Receive_IT
	.cfi_endproc
	.cantunwind
	.fnend
                                        @ -- End function
	.section	.text.USART_TransmitReceive_IT,"ax",%progbits
	.p2align	1               @ -- Begin function USART_TransmitReceive_IT
	.type	USART_TransmitReceive_IT,%function
	.code	16                      @ @USART_TransmitReceive_IT
	.thumb_func
USART_TransmitReceive_IT:
.Lfunc_begin25:
	.loc	7 1550 0                @ ../Drivers/STM32F7xx_HAL_Driver/Src/stm32f7xx_hal_usart.c:1550:0
	.fnstart
	.cfi_startproc
@ %bb.0:
	@DEBUG_VALUE: USART_TransmitReceive_IT:husart <- $r0
	@DEBUG_VALUE: USART_TransmitReceive_IT:husart <- $r0
	.loc	7 1554 14 prologue_end  @ ../Drivers/STM32F7xx_HAL_Driver/Src/stm32f7xx_hal_usart.c:1554:14
	ldrb.w	r1, [r0, #69]
.Ltmp541:
	.loc	7 1554 6 is_stmt 0      @ ../Drivers/STM32F7xx_HAL_Driver/Src/stm32f7xx_hal_usart.c:1554:6
	cmp	r1, #50
	it	ne
	bxne	lr
	.save	{r7, lr}
	push	{r7, lr}
	.cfi_def_cfa_offset 8
	.cfi_offset lr, -4
	.cfi_offset r7, -8
	ldrh.w	lr, [r0, #56]
.Ltmp542:
	.loc	7 1556 16 is_stmt 1     @ ../Drivers/STM32F7xx_HAL_Driver/Src/stm32f7xx_hal_usart.c:1556:16
	ldrh	r2, [r0, #46]
.Ltmp543:
	.loc	7 1556 8 is_stmt 0      @ ../Drivers/STM32F7xx_HAL_Driver/Src/stm32f7xx_hal_usart.c:1556:8
	cbz	r2, .LBB25_6
@ %bb.1:
	@DEBUG_VALUE: USART_TransmitReceive_IT:husart <- $r0
.Ltmp544:
	.loc	7 1558 10 is_stmt 1     @ ../Drivers/STM32F7xx_HAL_Driver/Src/stm32f7xx_hal_usart.c:1558:10
	ldr	r2, [r0]
	ldr	r3, [r2, #28]
.Ltmp545:
	.loc	7 1558 10 is_stmt 0     @ ../Drivers/STM32F7xx_HAL_Driver/Src/stm32f7xx_hal_usart.c:1558:10
	tst.w	r3, #128
	beq	.LBB25_6
@ %bb.2:
	@DEBUG_VALUE: USART_TransmitReceive_IT:husart <- $r0
.Ltmp546:
	.loc	7 1560 26 is_stmt 1     @ ../Drivers/STM32F7xx_HAL_Driver/Src/stm32f7xx_hal_usart.c:1560:26
	ldr	r3, [r0, #8]
	.loc	7 1560 61 is_stmt 0     @ ../Drivers/STM32F7xx_HAL_Driver/Src/stm32f7xx_hal_usart.c:1560:61
	cmp.w	r3, #4096
	.loc	7 1560 78               @ ../Drivers/STM32F7xx_HAL_Driver/Src/stm32f7xx_hal_usart.c:1560:78
	itt	eq
	ldreq	r3, [r0, #16]
.Ltmp547:
	.loc	7 1560 12               @ ../Drivers/STM32F7xx_HAL_Driver/Src/stm32f7xx_hal_usart.c:1560:12
	cmpeq	r3, #0
	beq	.LBB25_14
@ %bb.3:
	@DEBUG_VALUE: USART_TransmitReceive_IT:husart <- $r0
.Ltmp548:
	.loc	7 1568 64 is_stmt 1     @ ../Drivers/STM32F7xx_HAL_Driver/Src/stm32f7xx_hal_usart.c:1568:64
	ldr	r3, [r0, #40]
	adds	r1, r3, #1
	str	r1, [r0, #40]
	.loc	7 1568 45 is_stmt 0     @ ../Drivers/STM32F7xx_HAL_Driver/Src/stm32f7xx_hal_usart.c:1568:45
	ldrb	r1, [r3]
	and.w	r1, r1, lr
	.loc	7 1568 33               @ ../Drivers/STM32F7xx_HAL_Driver/Src/stm32f7xx_hal_usart.c:1568:33
	str	r1, [r2, #40]
.Ltmp549:
.LBB25_4:
	@DEBUG_VALUE: USART_TransmitReceive_IT:husart <- $r0
	.loc	7 1570 28 is_stmt 1     @ ../Drivers/STM32F7xx_HAL_Driver/Src/stm32f7xx_hal_usart.c:1570:28
	ldrh	r1, [r0, #46]
	subs	r1, #1
	strh	r1, [r0, #46]
.Ltmp550:
	.loc	7 1573 20               @ ../Drivers/STM32F7xx_HAL_Driver/Src/stm32f7xx_hal_usart.c:1573:20
	ldrh	r1, [r0, #46]
.Ltmp551:
	.loc	7 1573 12 is_stmt 0     @ ../Drivers/STM32F7xx_HAL_Driver/Src/stm32f7xx_hal_usart.c:1573:12
	cbnz	r1, .LBB25_6
@ %bb.5:
	@DEBUG_VALUE: USART_TransmitReceive_IT:husart <- $r0
.Ltmp552:
	.loc	7 1575 12 is_stmt 1     @ ../Drivers/STM32F7xx_HAL_Driver/Src/stm32f7xx_hal_usart.c:1575:12
	ldr	r1, [r2]
	bic	r1, r1, #128
	str	r1, [r2]
.Ltmp553:
.LBB25_6:
	@DEBUG_VALUE: USART_TransmitReceive_IT:husart <- $r0
	.loc	7 1580 16               @ ../Drivers/STM32F7xx_HAL_Driver/Src/stm32f7xx_hal_usart.c:1580:16
	ldrh	r1, [r0, #54]
.Ltmp554:
	.loc	7 1580 8 is_stmt 0      @ ../Drivers/STM32F7xx_HAL_Driver/Src/stm32f7xx_hal_usart.c:1580:8
	cbz	r1, .LBB25_11
@ %bb.7:
	@DEBUG_VALUE: USART_TransmitReceive_IT:husart <- $r0
.Ltmp555:
	.loc	7 1582 10 is_stmt 1     @ ../Drivers/STM32F7xx_HAL_Driver/Src/stm32f7xx_hal_usart.c:1582:10
	ldr	r2, [r0]
	ldr	r1, [r2, #28]
.Ltmp556:
	.loc	7 1582 10 is_stmt 0     @ ../Drivers/STM32F7xx_HAL_Driver/Src/stm32f7xx_hal_usart.c:1582:10
	tst.w	r1, #32
	beq	.LBB25_11
@ %bb.8:
	@DEBUG_VALUE: USART_TransmitReceive_IT:husart <- $r0
.Ltmp557:
	.loc	7 1584 26 is_stmt 1     @ ../Drivers/STM32F7xx_HAL_Driver/Src/stm32f7xx_hal_usart.c:1584:26
	ldr	r1, [r0, #8]
	.loc	7 1584 61 is_stmt 0     @ ../Drivers/STM32F7xx_HAL_Driver/Src/stm32f7xx_hal_usart.c:1584:61
	cmp.w	r1, #4096
	.loc	7 1584 78               @ ../Drivers/STM32F7xx_HAL_Driver/Src/stm32f7xx_hal_usart.c:1584:78
	itt	eq
	ldreq	r1, [r0, #16]
.Ltmp558:
	.loc	7 1584 12               @ ../Drivers/STM32F7xx_HAL_Driver/Src/stm32f7xx_hal_usart.c:1584:12
	cmpeq	r1, #0
	beq	.LBB25_15
@ %bb.9:
	@DEBUG_VALUE: USART_TransmitReceive_IT:husart <- $r0
.Ltmp559:
	.loc	7 1592 63 is_stmt 1     @ ../Drivers/STM32F7xx_HAL_Driver/Src/stm32f7xx_hal_usart.c:1592:63
	ldr	r1, [r2, #36]
	.loc	7 1592 30 is_stmt 0     @ ../Drivers/STM32F7xx_HAL_Driver/Src/stm32f7xx_hal_usart.c:1592:30
	ldr	r2, [r0, #48]
	adds	r3, r2, #1
	.loc	7 1592 67               @ ../Drivers/STM32F7xx_HAL_Driver/Src/stm32f7xx_hal_usart.c:1592:67
	and.w	r1, r1, lr
	.loc	7 1592 30               @ ../Drivers/STM32F7xx_HAL_Driver/Src/stm32f7xx_hal_usart.c:1592:30
	str	r3, [r0, #48]
	.loc	7 1592 33               @ ../Drivers/STM32F7xx_HAL_Driver/Src/stm32f7xx_hal_usart.c:1592:33
	strb	r1, [r2]
.Ltmp560:
.LBB25_10:
	@DEBUG_VALUE: USART_TransmitReceive_IT:husart <- $r0
	.loc	7 1594 28 is_stmt 1     @ ../Drivers/STM32F7xx_HAL_Driver/Src/stm32f7xx_hal_usart.c:1594:28
	ldrh	r1, [r0, #54]
	subs	r1, #1
	strh	r1, [r0, #54]
.Ltmp561:
.LBB25_11:
	@DEBUG_VALUE: USART_TransmitReceive_IT:husart <- $r0
	.loc	7 1599 16               @ ../Drivers/STM32F7xx_HAL_Driver/Src/stm32f7xx_hal_usart.c:1599:16
	ldrh	r1, [r0, #54]
.Ltmp562:
	.loc	7 1599 8 is_stmt 0      @ ../Drivers/STM32F7xx_HAL_Driver/Src/stm32f7xx_hal_usart.c:1599:8
	cmp	r1, #0
	pop.w	{r7, lr}
	beq	.LBB25_13
@ %bb.12:
	@DEBUG_VALUE: USART_TransmitReceive_IT:husart <- $r0
	.loc	7 0 8                   @ ../Drivers/STM32F7xx_HAL_Driver/Src/stm32f7xx_hal_usart.c:0:8
	bx	lr
.LBB25_13:
	@DEBUG_VALUE: USART_TransmitReceive_IT:husart <- $r0
.Ltmp563:
	.loc	7 1601 7 is_stmt 1      @ ../Drivers/STM32F7xx_HAL_Driver/Src/stm32f7xx_hal_usart.c:1601:7
	ldr	r1, [r0]
	ldr	r2, [r1]
	bic	r2, r2, #32
	str	r2, [r1]
	.loc	7 1604 7                @ ../Drivers/STM32F7xx_HAL_Driver/Src/stm32f7xx_hal_usart.c:1604:7
	ldr	r2, [r1]
	bic	r2, r2, #256
	str	r2, [r1]
	.loc	7 1607 7                @ ../Drivers/STM32F7xx_HAL_Driver/Src/stm32f7xx_hal_usart.c:1607:7
	ldr	r2, [r1, #8]
	bic	r2, r2, #1
	str	r2, [r1, #8]
	.loc	7 1609 21               @ ../Drivers/STM32F7xx_HAL_Driver/Src/stm32f7xx_hal_usart.c:1609:21
	movs	r1, #1
	strb.w	r1, [r0, #69]
	.loc	7 1611 7                @ ../Drivers/STM32F7xx_HAL_Driver/Src/stm32f7xx_hal_usart.c:1611:7
	b	HAL_USART_TxRxCpltCallback
.Ltmp564:
.LBB25_14:
	@DEBUG_VALUE: USART_TransmitReceive_IT:husart <- $r0
	.loc	7 1562 37               @ ../Drivers/STM32F7xx_HAL_Driver/Src/stm32f7xx_hal_usart.c:1562:37
	ldr.w	r12, [r0, #40]
.Ltmp565:
	@DEBUG_VALUE: USART_TransmitReceive_IT:tmp <- $r12
	.loc	7 1563 46               @ ../Drivers/STM32F7xx_HAL_Driver/Src/stm32f7xx_hal_usart.c:1563:46
	ldrh	r3, [r12], #2
.Ltmp566:
	.loc	7 1563 51 is_stmt 0     @ ../Drivers/STM32F7xx_HAL_Driver/Src/stm32f7xx_hal_usart.c:1563:51
	and.w	r3, r3, lr
	.loc	7 1563 33               @ ../Drivers/STM32F7xx_HAL_Driver/Src/stm32f7xx_hal_usart.c:1563:33
	str	r3, [r2, #40]
	.loc	7 1564 30 is_stmt 1     @ ../Drivers/STM32F7xx_HAL_Driver/Src/stm32f7xx_hal_usart.c:1564:30
	str.w	r12, [r0, #40]
	b	.LBB25_4
.Ltmp567:
.LBB25_15:
	@DEBUG_VALUE: USART_TransmitReceive_IT:husart <- $r0
	.loc	7 1586 37               @ ../Drivers/STM32F7xx_HAL_Driver/Src/stm32f7xx_hal_usart.c:1586:37
	ldr	r1, [r0, #48]
.Ltmp568:
	@DEBUG_VALUE: USART_TransmitReceive_IT:tmp <- $r1
	.loc	7 1587 47               @ ../Drivers/STM32F7xx_HAL_Driver/Src/stm32f7xx_hal_usart.c:1587:47
	ldr	r2, [r2, #36]
	.loc	7 1587 18 is_stmt 0     @ ../Drivers/STM32F7xx_HAL_Driver/Src/stm32f7xx_hal_usart.c:1587:18
	and.w	r2, r2, lr
	.loc	7 1587 16               @ ../Drivers/STM32F7xx_HAL_Driver/Src/stm32f7xx_hal_usart.c:1587:16
	strh	r2, [r1], #2
.Ltmp569:
	.loc	7 1588 30 is_stmt 1     @ ../Drivers/STM32F7xx_HAL_Driver/Src/stm32f7xx_hal_usart.c:1588:30
	str	r1, [r0, #48]
	b	.LBB25_10
.Ltmp570:
.Lfunc_end25:
	.size	USART_TransmitReceive_IT, .Lfunc_end25-USART_TransmitReceive_IT
	.cfi_endproc
	.cantunwind
	.fnend
                                        @ -- End function
	.section	.text.USART_DMAAbortOnError,"ax",%progbits
	.p2align	1               @ -- Begin function USART_DMAAbortOnError
	.type	USART_DMAAbortOnError,%function
	.code	16                      @ @USART_DMAAbortOnError
	.thumb_func
USART_DMAAbortOnError:
.Lfunc_begin26:
	.loc	7 1817 0                @ ../Drivers/STM32F7xx_HAL_Driver/Src/stm32f7xx_hal_usart.c:1817:0
	.fnstart
	.cfi_startproc
@ %bb.0:
	@DEBUG_VALUE: USART_DMAAbortOnError:hdma <- $r0
	@DEBUG_VALUE: USART_DMAAbortOnError:hdma <- $r0
	.loc	7 1818 85 prologue_end  @ ../Drivers/STM32F7xx_HAL_Driver/Src/stm32f7xx_hal_usart.c:1818:85
	ldr	r0, [r0, #56]
.Ltmp571:
	@DEBUG_VALUE: USART_DMAAbortOnError:husart <- $r0
	.loc	7 1819 23               @ ../Drivers/STM32F7xx_HAL_Driver/Src/stm32f7xx_hal_usart.c:1819:23
	movs	r1, #0
	strh	r1, [r0, #54]
	.loc	7 1820 23               @ ../Drivers/STM32F7xx_HAL_Driver/Src/stm32f7xx_hal_usart.c:1820:23
	strh	r1, [r0, #46]
	.loc	7 1822 3                @ ../Drivers/STM32F7xx_HAL_Driver/Src/stm32f7xx_hal_usart.c:1822:3
	b	HAL_USART_ErrorCallback
.Ltmp572:
.Lfunc_end26:
	.size	USART_DMAAbortOnError, .Lfunc_end26-USART_DMAAbortOnError
	.cfi_endproc
	.cantunwind
	.fnend
                                        @ -- End function
	.section	.text.HAL_USART_ErrorCallback,"ax",%progbits
	.hidden	HAL_USART_ErrorCallback @ -- Begin function HAL_USART_ErrorCallback
	.weak	HAL_USART_ErrorCallback
	.p2align	1
	.type	HAL_USART_ErrorCallback,%function
	.code	16                      @ @HAL_USART_ErrorCallback
	.thumb_func
HAL_USART_ErrorCallback:
.Lfunc_begin27:
	.loc	7 1361 0                @ ../Drivers/STM32F7xx_HAL_Driver/Src/stm32f7xx_hal_usart.c:1361:0
	.fnstart
	.cfi_startproc
@ %bb.0:
	@DEBUG_VALUE: HAL_USART_ErrorCallback:husart <- $r0
	.loc	7 1368 1 prologue_end   @ ../Drivers/STM32F7xx_HAL_Driver/Src/stm32f7xx_hal_usart.c:1368:1
	bx	lr
.Ltmp573:
.Lfunc_end27:
	.size	HAL_USART_ErrorCallback, .Lfunc_end27-HAL_USART_ErrorCallback
	.cfi_endproc
	.cantunwind
	.fnend
                                        @ -- End function
	.section	.text.HAL_USART_TxCpltCallback,"ax",%progbits
	.hidden	HAL_USART_TxCpltCallback @ -- Begin function HAL_USART_TxCpltCallback
	.weak	HAL_USART_TxCpltCallback
	.p2align	1
	.type	HAL_USART_TxCpltCallback,%function
	.code	16                      @ @HAL_USART_TxCpltCallback
	.thumb_func
HAL_USART_TxCpltCallback:
.Lfunc_begin28:
	.loc	7 1286 0                @ ../Drivers/STM32F7xx_HAL_Driver/Src/stm32f7xx_hal_usart.c:1286:0
	.fnstart
	.cfi_startproc
@ %bb.0:
	@DEBUG_VALUE: HAL_USART_TxCpltCallback:husart <- $r0
	.loc	7 1293 1 prologue_end   @ ../Drivers/STM32F7xx_HAL_Driver/Src/stm32f7xx_hal_usart.c:1293:1
	bx	lr
.Ltmp574:
.Lfunc_end28:
	.size	HAL_USART_TxCpltCallback, .Lfunc_end28-HAL_USART_TxCpltCallback
	.cfi_endproc
	.cantunwind
	.fnend
                                        @ -- End function
	.section	.text.HAL_USART_TxHalfCpltCallback,"ax",%progbits
	.hidden	HAL_USART_TxHalfCpltCallback @ -- Begin function HAL_USART_TxHalfCpltCallback
	.weak	HAL_USART_TxHalfCpltCallback
	.p2align	1
	.type	HAL_USART_TxHalfCpltCallback,%function
	.code	16                      @ @HAL_USART_TxHalfCpltCallback
	.thumb_func
HAL_USART_TxHalfCpltCallback:
.Lfunc_begin29:
	.loc	7 1301 0                @ ../Drivers/STM32F7xx_HAL_Driver/Src/stm32f7xx_hal_usart.c:1301:0
	.fnstart
	.cfi_startproc
@ %bb.0:
	@DEBUG_VALUE: HAL_USART_TxHalfCpltCallback:husart <- $r0
	.loc	7 1308 1 prologue_end   @ ../Drivers/STM32F7xx_HAL_Driver/Src/stm32f7xx_hal_usart.c:1308:1
	bx	lr
.Ltmp575:
.Lfunc_end29:
	.size	HAL_USART_TxHalfCpltCallback, .Lfunc_end29-HAL_USART_TxHalfCpltCallback
	.cfi_endproc
	.cantunwind
	.fnend
                                        @ -- End function
	.section	.text.HAL_USART_RxCpltCallback,"ax",%progbits
	.hidden	HAL_USART_RxCpltCallback @ -- Begin function HAL_USART_RxCpltCallback
	.weak	HAL_USART_RxCpltCallback
	.p2align	1
	.type	HAL_USART_RxCpltCallback,%function
	.code	16                      @ @HAL_USART_RxCpltCallback
	.thumb_func
HAL_USART_RxCpltCallback:
.Lfunc_begin30:
	.loc	7 1316 0                @ ../Drivers/STM32F7xx_HAL_Driver/Src/stm32f7xx_hal_usart.c:1316:0
	.fnstart
	.cfi_startproc
@ %bb.0:
	@DEBUG_VALUE: HAL_USART_RxCpltCallback:husart <- $r0
	.loc	7 1323 1 prologue_end   @ ../Drivers/STM32F7xx_HAL_Driver/Src/stm32f7xx_hal_usart.c:1323:1
	bx	lr
.Ltmp576:
.Lfunc_end30:
	.size	HAL_USART_RxCpltCallback, .Lfunc_end30-HAL_USART_RxCpltCallback
	.cfi_endproc
	.cantunwind
	.fnend
                                        @ -- End function
	.section	.text.HAL_USART_RxHalfCpltCallback,"ax",%progbits
	.hidden	HAL_USART_RxHalfCpltCallback @ -- Begin function HAL_USART_RxHalfCpltCallback
	.weak	HAL_USART_RxHalfCpltCallback
	.p2align	1
	.type	HAL_USART_RxHalfCpltCallback,%function
	.code	16                      @ @HAL_USART_RxHalfCpltCallback
	.thumb_func
HAL_USART_RxHalfCpltCallback:
.Lfunc_begin31:
	.loc	7 1331 0                @ ../Drivers/STM32F7xx_HAL_Driver/Src/stm32f7xx_hal_usart.c:1331:0
	.fnstart
	.cfi_startproc
@ %bb.0:
	@DEBUG_VALUE: HAL_USART_RxHalfCpltCallback:husart <- $r0
	.loc	7 1338 1 prologue_end   @ ../Drivers/STM32F7xx_HAL_Driver/Src/stm32f7xx_hal_usart.c:1338:1
	bx	lr
.Ltmp577:
.Lfunc_end31:
	.size	HAL_USART_RxHalfCpltCallback, .Lfunc_end31-HAL_USART_RxHalfCpltCallback
	.cfi_endproc
	.cantunwind
	.fnend
                                        @ -- End function
	.section	.text.HAL_USART_TxRxCpltCallback,"ax",%progbits
	.hidden	HAL_USART_TxRxCpltCallback @ -- Begin function HAL_USART_TxRxCpltCallback
	.weak	HAL_USART_TxRxCpltCallback
	.p2align	1
	.type	HAL_USART_TxRxCpltCallback,%function
	.code	16                      @ @HAL_USART_TxRxCpltCallback
	.thumb_func
HAL_USART_TxRxCpltCallback:
.Lfunc_begin32:
	.loc	7 1346 0                @ ../Drivers/STM32F7xx_HAL_Driver/Src/stm32f7xx_hal_usart.c:1346:0
	.fnstart
	.cfi_startproc
@ %bb.0:
	@DEBUG_VALUE: HAL_USART_TxRxCpltCallback:husart <- $r0
	.loc	7 1353 1 prologue_end   @ ../Drivers/STM32F7xx_HAL_Driver/Src/stm32f7xx_hal_usart.c:1353:1
	bx	lr
.Ltmp578:
.Lfunc_end32:
	.size	HAL_USART_TxRxCpltCallback, .Lfunc_end32-HAL_USART_TxRxCpltCallback
	.cfi_endproc
	.cantunwind
	.fnend
                                        @ -- End function
	.section	.text.HAL_USART_GetState,"ax",%progbits
	.hidden	HAL_USART_GetState      @ -- Begin function HAL_USART_GetState
	.globl	HAL_USART_GetState
	.p2align	1
	.type	HAL_USART_GetState,%function
	.code	16                      @ @HAL_USART_GetState
	.thumb_func
HAL_USART_GetState:
.Lfunc_begin33:
	.loc	7 1399 0                @ ../Drivers/STM32F7xx_HAL_Driver/Src/stm32f7xx_hal_usart.c:1399:0
	.fnstart
	.cfi_startproc
@ %bb.0:
	@DEBUG_VALUE: HAL_USART_GetState:husart <- $r0
	@DEBUG_VALUE: HAL_USART_GetState:husart <- $r0
	.loc	7 1400 3 prologue_end   @ ../Drivers/STM32F7xx_HAL_Driver/Src/stm32f7xx_hal_usart.c:1400:3
	ldrb.w	r0, [r0, #69]
	bx	lr
.Ltmp579:
.Lfunc_end33:
	.size	HAL_USART_GetState, .Lfunc_end33-HAL_USART_GetState
	.cfi_endproc
	.cantunwind
	.fnend
                                        @ -- End function
	.section	.text.HAL_USART_GetError,"ax",%progbits
	.hidden	HAL_USART_GetError      @ -- Begin function HAL_USART_GetError
	.globl	HAL_USART_GetError
	.p2align	1
	.type	HAL_USART_GetError,%function
	.code	16                      @ @HAL_USART_GetError
	.thumb_func
HAL_USART_GetError:
.Lfunc_begin34:
	.loc	7 1410 0                @ ../Drivers/STM32F7xx_HAL_Driver/Src/stm32f7xx_hal_usart.c:1410:0
	.fnstart
	.cfi_startproc
@ %bb.0:
	@DEBUG_VALUE: HAL_USART_GetError:husart <- $r0
	@DEBUG_VALUE: HAL_USART_GetError:husart <- $r0
	.loc	7 1411 18 prologue_end  @ ../Drivers/STM32F7xx_HAL_Driver/Src/stm32f7xx_hal_usart.c:1411:18
	ldr	r0, [r0, #72]
.Ltmp580:
	.loc	7 1411 3 is_stmt 0      @ ../Drivers/STM32F7xx_HAL_Driver/Src/stm32f7xx_hal_usart.c:1411:3
	bx	lr
.Ltmp581:
.Lfunc_end34:
	.size	HAL_USART_GetError, .Lfunc_end34-HAL_USART_GetError
	.cfi_endproc
	.cantunwind
	.fnend
                                        @ -- End function
	.section	".note.GNU-stack","",%progbits
	.eabi_attribute	30, 4	@ Tag_ABI_optimization_goals
	.ARM_attribute	16, 1	@ Tag_AV_eba