	.text
	.syntax unified
	.eabi_attribute	67, "2.09"	@ Tag_conformance
	.cpu	cortex-m7
	.eabi_attribute	6, 13	@ Tag_CPU_arch
	.eabi_attribute	7, 77	@ Tag_CPU_arch_profile
	.eabi_attribute	8, 0	@ Tag_ARM_ISA_use
	.eabi_attribute	9, 2	@ Tag_THUMB_ISA_use
	.fpu	fpv5-sp-d16
	.eabi_attribute	27, 1	@ Tag_ABI_HardFP_use
	.eabi_attribute	36, 1	@ Tag_FP_HP_extension
	.eabi_attribute	34, 1	@ Tag_CPU_unaligned_access
	.eabi_attribute	17, 1	@ Tag_ABI_PCS_GOT_use
	.eabi_attribute	20, 2	@ Tag_ABI_FP_denormal
	.eabi_attribute	21, 0	@ Tag_ABI_FP_exceptions
	.eabi_attribute	23, 1	@ Tag_ABI_FP_number_model
	.eabi_attribute	24, 1	@ Tag_ABI_align_needed
	.eabi_attribute	25, 1	@ Tag_ABI_align_preserved
	.eabi_attribute	28, 1	@ Tag_ABI_VFP_args
	.eabi_attribute	38, 1	@ Tag_ABI_FP_16bit_format
	.eabi_attribute	18, 2	@ Tag_ABI_PCS_wchar_t
	.eabi_attribute	26, 1	@ Tag_ABI_enum_size
	.eabi_attribute	14, 0	@ Tag_ABI_PCS_R9_use
	.file	"stm32f7xx_hal_dma.c"
	.file	1 "C:\\Keil\\ARM\\ARMCLANG\\Bin\\..\\include" "stdint.h"
	.file	2 "../Drivers/STM32F7xx_HAL_Driver/Src" "stm32f7xx_hal_dma.c"
	.file	3 "../Drivers/STM32F7xx_HAL_Driver/Inc" "stm32f7xx_hal_def.h"
	.file	4 "../Drivers/STM32F7xx_HAL_Driver/Inc" "stm32f7xx_hal_dma.h"
	.file	5 "../Drivers/CMSIS/Device/ST/STM32F7xx/Include" "stm32f7xx.h"
	.section	.text.HAL_DMA_Init,"ax",%progbits
	.hidden	HAL_DMA_Init            @ -- Begin function HAL_DMA_Init
	.globl	HAL_DMA_Init
	.p2align	2
	.type	HAL_DMA_Init,%function
	.code	16                      @ @HAL_DMA_Init
	.thumb_func
HAL_DMA_Init:
.Lfunc_begin0:
	.loc	2 188 0                 @ ../Drivers/STM32F7xx_HAL_Driver/Src/stm32f7xx_hal_dma.c:188:0
	.fnstart
	.cfi_sections .debug_frame
	.cfi_startproc
@ %bb.0:
	.save	{r4, r5, r6, r7, r8, lr}
	push.w	{r4, r5, r6, r7, r8, lr}
	.cfi_def_cfa_offset 24
	.cfi_offset lr, -4
	.cfi_offset r8, -8
	.cfi_offset r7, -12
	.cfi_offset r6, -16
	.cfi_offset r5, -20
	.cfi_offset r4, -24
	@DEBUG_VALUE: HAL_DMA_Init:hdma <- $r0
.Ltmp0:
	@DEBUG_VALUE: DMA_CheckFifoParam:hdma <- $r0
	mov	r4, r0
.Ltmp1:
	@DEBUG_VALUE: HAL_DMA_Init:tmp <- 0
	@DEBUG_VALUE: DMA_CheckFifoParam:hdma <- $r4
	@DEBUG_VALUE: HAL_DMA_Init:hdma <- $r4
	.loc	2 190 24 prologue_end   @ ../Drivers/STM32F7xx_HAL_Driver/Src/stm32f7xx_hal_dma.c:190:24
	bl	HAL_GetTick
	mov	r5, r0
.Ltmp2:
	@DEBUG_VALUE: HAL_DMA_Init:tickstart <- $r5
	.loc	2 194 6                 @ ../Drivers/STM32F7xx_HAL_Driver/Src/stm32f7xx_hal_dma.c:194:6
	cmp	r4, #0
	beq	.LBB0_12
.Ltmp3:
@ %bb.1:
	@DEBUG_VALUE: HAL_DMA_Init:tickstart <- $r5
	@DEBUG_VALUE: HAL_DMA_Init:hdma <- $r4
	.loc	2 223 15                @ ../Drivers/STM32F7xx_HAL_Driver/Src/stm32f7xx_hal_dma.c:223:15
	movs	r0, #2
	strb.w	r0, [r4, #53]
.Ltmp4:
	.loc	2 220 3                 @ ../Drivers/STM32F7xx_HAL_Driver/Src/stm32f7xx_hal_dma.c:220:3
	movs	r0, #0
	strb.w	r0, [r4, #52]
.Ltmp5:
	.loc	2 226 3                 @ ../Drivers/STM32F7xx_HAL_Driver/Src/stm32f7xx_hal_dma.c:226:3
	ldr	r0, [r4]
	ldr	r1, [r0]
	bic	r1, r1, #1
	str	r1, [r0]
	b	.LBB0_4
.Ltmp6:
.LBB0_2:                                @   in Loop: Header=BB0_4 Depth=1
	@DEBUG_VALUE: HAL_DMA_Init:tickstart <- $r5
	@DEBUG_VALUE: HAL_DMA_Init:hdma <- $r4
	.loc	2 232 9                 @ ../Drivers/STM32F7xx_HAL_Driver/Src/stm32f7xx_hal_dma.c:232:9
	bl	HAL_GetTick
	.loc	2 232 23 is_stmt 0      @ ../Drivers/STM32F7xx_HAL_Driver/Src/stm32f7xx_hal_dma.c:232:23
	subs	r0, r0, r5
.Ltmp7:
	.loc	2 232 8                 @ ../Drivers/STM32F7xx_HAL_Driver/Src/stm32f7xx_hal_dma.c:232:8
	cmp	r0, #5
	bhi	.LBB0_13
.Ltmp8:
@ %bb.3:                                @   in Loop: Header=BB0_4 Depth=1
	@DEBUG_VALUE: HAL_DMA_Init:tickstart <- $r5
	@DEBUG_VALUE: HAL_DMA_Init:hdma <- $r4
	.loc	2 229 16 is_stmt 1      @ ../Drivers/STM32F7xx_HAL_Driver/Src/stm32f7xx_hal_dma.c:229:16
	ldr	r0, [r4]
.Ltmp9:
.LBB0_4:                                @ =>This Inner Loop Header: Depth=1
	@DEBUG_VALUE: HAL_DMA_Init:tickstart <- $r5
	@DEBUG_VALUE: HAL_DMA_Init:hdma <- $r4
	.loc	2 229 26 is_stmt 0      @ ../Drivers/STM32F7xx_HAL_Driver/Src/stm32f7xx_hal_dma.c:229:26
	ldr	r1, [r0]
	.loc	2 229 3                 @ ../Drivers/STM32F7xx_HAL_Driver/Src/stm32f7xx_hal_dma.c:229:3
	tst.w	r1, #1
	bne	.LBB0_2
.Ltmp10:
@ %bb.5:
	@DEBUG_VALUE: HAL_DMA_Init:tickstart <- $r5
	@DEBUG_VALUE: HAL_DMA_Init:hdma <- $r4
	.loc	2 245 25 is_stmt 1      @ ../Drivers/STM32F7xx_HAL_Driver/Src/stm32f7xx_hal_dma.c:245:25
	ldr	r1, [r0]
.Ltmp11:
	@DEBUG_VALUE: HAL_DMA_Init:tmp <- $r1
	.loc	2 248 7                 @ ../Drivers/STM32F7xx_HAL_Driver/Src/stm32f7xx_hal_dma.c:248:7
	ldr	r2, __arm_cp.0_0
	.loc	2 254 22                @ ../Drivers/STM32F7xx_HAL_Driver/Src/stm32f7xx_hal_dma.c:254:22
	ldrd	r3, r5, [r4, #4]
.Ltmp12:
	.loc	2 255 22                @ ../Drivers/STM32F7xx_HAL_Driver/Src/stm32f7xx_hal_dma.c:255:22
	add.w	r8, r4, #12
	.loc	2 248 7                 @ ../Drivers/STM32F7xx_HAL_Driver/Src/stm32f7xx_hal_dma.c:248:7
	and.w	r12, r1, r2
.Ltmp13:
	@DEBUG_VALUE: HAL_DMA_Init:tmp <- $r12
	.loc	2 255 22                @ ../Drivers/STM32F7xx_HAL_Driver/Src/stm32f7xx_hal_dma.c:255:22
	ldm.w	r8, {r1, r6, r7, r8}
	.loc	2 257 22                @ ../Drivers/STM32F7xx_HAL_Driver/Src/stm32f7xx_hal_dma.c:257:22
	ldrd	r2, lr, [r4, #28]
	.loc	2 254 42                @ ../Drivers/STM32F7xx_HAL_Driver/Src/stm32f7xx_hal_dma.c:254:42
	orr.w	r3, r3, r12
	.loc	2 254 72 is_stmt 0      @ ../Drivers/STM32F7xx_HAL_Driver/Src/stm32f7xx_hal_dma.c:254:72
	orrs	r3, r5
	.loc	2 255 42 is_stmt 1      @ ../Drivers/STM32F7xx_HAL_Driver/Src/stm32f7xx_hal_dma.c:255:42
	orrs	r1, r3
.Ltmp14:
	.loc	2 260 17                @ ../Drivers/STM32F7xx_HAL_Driver/Src/stm32f7xx_hal_dma.c:260:17
	ldr	r3, [r4, #36]
.Ltmp15:
	.loc	2 255 72                @ ../Drivers/STM32F7xx_HAL_Driver/Src/stm32f7xx_hal_dma.c:255:72
	orrs	r1, r6
	.loc	2 256 42                @ ../Drivers/STM32F7xx_HAL_Driver/Src/stm32f7xx_hal_dma.c:256:42
	orrs	r1, r7
	.loc	2 256 72 is_stmt 0      @ ../Drivers/STM32F7xx_HAL_Driver/Src/stm32f7xx_hal_dma.c:256:72
	orr.w	r1, r1, r8
	.loc	2 257 42 is_stmt 1      @ ../Drivers/STM32F7xx_HAL_Driver/Src/stm32f7xx_hal_dma.c:257:42
	orrs	r1, r2
	.loc	2 260 6                 @ ../Drivers/STM32F7xx_HAL_Driver/Src/stm32f7xx_hal_dma.c:260:6
	cmp	r3, #4
	.loc	2 254 7                 @ ../Drivers/STM32F7xx_HAL_Driver/Src/stm32f7xx_hal_dma.c:254:7
	orr.w	r2, r1, lr
.Ltmp16:
	@DEBUG_VALUE: HAL_DMA_Init:tmp <- $r2
	.loc	2 260 6                 @ ../Drivers/STM32F7xx_HAL_Driver/Src/stm32f7xx_hal_dma.c:260:6
	bne	.LBB0_14
.Ltmp17:
@ %bb.6:
	@DEBUG_VALUE: HAL_DMA_Init:tmp <- $r2
	@DEBUG_VALUE: HAL_DMA_Init:hdma <- $r4
	.loc	2 263 24                @ ../Drivers/STM32F7xx_HAL_Driver/Src/stm32f7xx_hal_dma.c:263:24
	ldrd	lr, r1, [r4, #44]
	.loc	2 263 33 is_stmt 0      @ ../Drivers/STM32F7xx_HAL_Driver/Src/stm32f7xx_hal_dma.c:263:33
	orr.w	r2, r2, lr
.Ltmp18:
	.loc	2 286 9 is_stmt 1       @ ../Drivers/STM32F7xx_HAL_Driver/Src/stm32f7xx_hal_dma.c:286:9
	cmp.w	lr, #0
.Ltmp19:
	.loc	2 263 9                 @ ../Drivers/STM32F7xx_HAL_Driver/Src/stm32f7xx_hal_dma.c:263:9
	orr.w	r1, r1, r2
.Ltmp20:
	@DEBUG_VALUE: HAL_DMA_Init:tmp <- $r1
	.loc	2 267 22                @ ../Drivers/STM32F7xx_HAL_Driver/Src/stm32f7xx_hal_dma.c:267:22
	str	r1, [r0]
	.loc	2 270 25                @ ../Drivers/STM32F7xx_HAL_Driver/Src/stm32f7xx_hal_dma.c:270:25
	ldr	r1, [r0, #20]!
.Ltmp21:
	.loc	2 282 23                @ ../Drivers/STM32F7xx_HAL_Driver/Src/stm32f7xx_hal_dma.c:282:23
	ldr	r5, [r4, #40]
.Ltmp22:
	@DEBUG_VALUE: DMA_CheckFifoParam:tmp <- $r5
	.loc	2 273 7                 @ ../Drivers/STM32F7xx_HAL_Driver/Src/stm32f7xx_hal_dma.c:273:7
	bic	r1, r1, #7
.Ltmp23:
	.loc	2 282 9                 @ ../Drivers/STM32F7xx_HAL_Driver/Src/stm32f7xx_hal_dma.c:282:9
	orr.w	r1, r1, r5
	orr	r12, r1, #4
.Ltmp24:
	@DEBUG_VALUE: HAL_DMA_Init:tmp <- $r12
	.loc	2 286 9                 @ ../Drivers/STM32F7xx_HAL_Driver/Src/stm32f7xx_hal_dma.c:286:9
	beq	.LBB0_15
.Ltmp25:
@ %bb.7:
	@DEBUG_VALUE: DMA_CheckFifoParam:tmp <- $r5
	@DEBUG_VALUE: HAL_DMA_Init:tmp <- $r12
	@DEBUG_VALUE: HAL_DMA_Init:hdma <- $r4
	.loc	2 1227 6                @ ../Drivers/STM32F7xx_HAL_Driver/Src/stm32f7xx_hal_dma.c:1227:6
	cmp.w	r8, #8192
.Ltmp26:
	@DEBUG_VALUE: DMA_CheckFifoParam:status <- 0
	beq	.LBB0_17
.Ltmp27:
@ %bb.8:
	@DEBUG_VALUE: DMA_CheckFifoParam:tmp <- $r5
	@DEBUG_VALUE: HAL_DMA_Init:tmp <- $r12
	@DEBUG_VALUE: HAL_DMA_Init:hdma <- $r4
	cmp.w	r8, #0
	bne	.LBB0_22
.Ltmp28:
@ %bb.9:
	@DEBUG_VALUE: DMA_CheckFifoParam:tmp <- $r5
	@DEBUG_VALUE: HAL_DMA_Init:tmp <- $r12
	@DEBUG_VALUE: HAL_DMA_Init:hdma <- $r4
	.loc	2 1229 5                @ ../Drivers/STM32F7xx_HAL_Driver/Src/stm32f7xx_hal_dma.c:1229:5
	cmp	r5, #2
	beq	.LBB0_24
.Ltmp29:
@ %bb.10:
	@DEBUG_VALUE: DMA_CheckFifoParam:tmp <- $r5
	@DEBUG_VALUE: HAL_DMA_Init:tmp <- $r12
	@DEBUG_VALUE: HAL_DMA_Init:hdma <- $r4
	cmp	r5, #1
	beq	.LBB0_21
.Ltmp30:
@ %bb.11:
	@DEBUG_VALUE: HAL_DMA_Init:tmp <- $r12
	@DEBUG_VALUE: HAL_DMA_Init:hdma <- $r4
	.loc	2 0 5 is_stmt 0         @ ../Drivers/STM32F7xx_HAL_Driver/Src/stm32f7xx_hal_dma.c:0:5
	cbz	r5, .LBB0_24
	b	.LBB0_15
.Ltmp31:
.LBB0_12:
	@DEBUG_VALUE: HAL_DMA_Init:tickstart <- $r5
	@DEBUG_VALUE: HAL_DMA_Init:hdma <- $r4
	movs	r2, #1
	b	.LBB0_16
.Ltmp32:
.LBB0_13:
	@DEBUG_VALUE: HAL_DMA_Init:tickstart <- $r5
	@DEBUG_VALUE: HAL_DMA_Init:hdma <- $r4
	movs	r3, #3
	movs	r1, #32
	movs	r2, #3
	b	.LBB0_20
.Ltmp33:
.LBB0_14:
	@DEBUG_VALUE: HAL_DMA_Init:tmp <- $r2
	@DEBUG_VALUE: HAL_DMA_Init:hdma <- $r4
	.loc	2 267 22 is_stmt 1      @ ../Drivers/STM32F7xx_HAL_Driver/Src/stm32f7xx_hal_dma.c:267:22
	str	r2, [r0]
	.loc	2 270 25                @ ../Drivers/STM32F7xx_HAL_Driver/Src/stm32f7xx_hal_dma.c:270:25
	ldr	r1, [r0, #20]!
.Ltmp34:
	@DEBUG_VALUE: HAL_DMA_Init:tmp <- $r1
	.loc	2 273 7                 @ ../Drivers/STM32F7xx_HAL_Driver/Src/stm32f7xx_hal_dma.c:273:7
	bic	r1, r1, #7
.Ltmp35:
	@DEBUG_VALUE: HAL_DMA_Init:tmp <- $r1
	.loc	2 276 7                 @ ../Drivers/STM32F7xx_HAL_Driver/Src/stm32f7xx_hal_dma.c:276:7
	orr.w	r12, r1, r3
.Ltmp36:
	@DEBUG_VALUE: HAL_DMA_Init:tmp <- $r12
.LBB0_15:
	@DEBUG_VALUE: HAL_DMA_Init:tmp <- $r12
	@DEBUG_VALUE: HAL_DMA_Init:hdma <- $r4
	@DEBUG_VALUE: HAL_DMA_Init:tmp <- $r12
	.loc	2 302 23                @ ../Drivers/STM32F7xx_HAL_Driver/Src/stm32f7xx_hal_dma.c:302:23
	str.w	r12, [r0]
	.loc	2 306 32                @ ../Drivers/STM32F7xx_HAL_Driver/Src/stm32f7xx_hal_dma.c:306:32
	mov	r0, r4
	bl	DMA_CalcBaseAndBitshift
.Ltmp37:
	@DEBUG_VALUE: HAL_DMA_Init:regs <- $r0
	.loc	2 309 31                @ ../Drivers/STM32F7xx_HAL_Driver/Src/stm32f7xx_hal_dma.c:309:31
	ldr	r1, [r4, #92]
	.loc	2 309 22 is_stmt 0      @ ../Drivers/STM32F7xx_HAL_Driver/Src/stm32f7xx_hal_dma.c:309:22
	movs	r2, #63
	movs	r3, #1
	lsl.w	r1, r2, r1
	movs	r2, #0
	.loc	2 309 14                @ ../Drivers/STM32F7xx_HAL_Driver/Src/stm32f7xx_hal_dma.c:309:14
	str	r1, [r0, #8]
	movs	r1, #0
	b	.LBB0_20
.Ltmp38:
.LBB0_16:
	@DEBUG_VALUE: HAL_DMA_Init:hdma <- $r4
	.loc	2 318 1 is_stmt 1       @ ../Drivers/STM32F7xx_HAL_Driver/Src/stm32f7xx_hal_dma.c:318:1
	uxtb	r0, r2
	pop.w	{r4, r5, r6, r7, r8, pc}
.Ltmp39:
.LBB0_17:
	@DEBUG_VALUE: DMA_CheckFifoParam:tmp <- $r5
	@DEBUG_VALUE: HAL_DMA_Init:tmp <- $r12
	@DEBUG_VALUE: HAL_DMA_Init:hdma <- $r4
	.loc	2 1254 5                @ ../Drivers/STM32F7xx_HAL_Driver/Src/stm32f7xx_hal_dma.c:1254:5
	cmp	r5, #3
	bhi	.LBB0_15
.Ltmp40:
@ %bb.18:
	@DEBUG_VALUE: HAL_DMA_Init:tmp <- $r12
	@DEBUG_VALUE: HAL_DMA_Init:hdma <- $r4
	.loc	2 0 5 is_stmt 0         @ ../Drivers/STM32F7xx_HAL_Driver/Src/stm32f7xx_hal_dma.c:0:5
	movs	r3, #1
	movs	r1, #64
	movs	r2, #1
.LCPI0_1:
	tbb	[pc, r5]
.Ltmp41:
@ %bb.19:
.LJTI0_0:
	.byte	(.LBB0_20-(.LCPI0_1+4))/2
	.byte	(.LBB0_24-(.LCPI0_1+4))/2
	.byte	(.LBB0_20-(.LCPI0_1+4))/2
	.byte	(.LBB0_21-(.LCPI0_1+4))/2
	.p2align	1
.LBB0_20:
.Ltmp42:
	@DEBUG_VALUE: HAL_DMA_Init:hdma <- $r4
	str	r1, [r4, #84]
	strb.w	r3, [r4, #53]
	b	.LBB0_16
.Ltmp43:
.LBB0_21:
	@DEBUG_VALUE: HAL_DMA_Init:tmp <- $r12
	@DEBUG_VALUE: HAL_DMA_Init:hdma <- $r4
	sub.w	r1, lr, #25165824
	clz	r1, r1
	lsrs	r1, r1, #5
	b	.LBB0_25
.Ltmp44:
.LBB0_22:
	@DEBUG_VALUE: DMA_CheckFifoParam:tmp <- $r5
	@DEBUG_VALUE: HAL_DMA_Init:tmp <- $r12
	@DEBUG_VALUE: HAL_DMA_Init:hdma <- $r4
	.loc	2 1280 5 is_stmt 1      @ ../Drivers/STM32F7xx_HAL_Driver/Src/stm32f7xx_hal_dma.c:1280:5
	cmp	r5, #3
	blo	.LBB0_26
.Ltmp45:
@ %bb.23:
	@DEBUG_VALUE: HAL_DMA_Init:tmp <- $r12
	@DEBUG_VALUE: HAL_DMA_Init:hdma <- $r4
	.loc	2 0 5 is_stmt 0         @ ../Drivers/STM32F7xx_HAL_Driver/Src/stm32f7xx_hal_dma.c:0:5
	bne	.LBB0_15
.Ltmp46:
.LBB0_24:
	@DEBUG_VALUE: HAL_DMA_Init:tmp <- $r12
	@DEBUG_VALUE: HAL_DMA_Init:hdma <- $r4
	ubfx	r1, lr, #24, #1
.Ltmp47:
.LBB0_25:
	@DEBUG_VALUE: HAL_DMA_Init:tmp <- $r12
	@DEBUG_VALUE: HAL_DMA_Init:hdma <- $r4
	.loc	2 288 11 is_stmt 1      @ ../Drivers/STM32F7xx_HAL_Driver/Src/stm32f7xx_hal_dma.c:288:11
	cmp	r1, #0
	beq	.LBB0_15
.Ltmp48:
.LBB0_26:
	@DEBUG_VALUE: HAL_DMA_Init:tmp <- $r12
	@DEBUG_VALUE: HAL_DMA_Init:hdma <- $r4
	.loc	2 0 11 is_stmt 0        @ ../Drivers/STM32F7xx_HAL_Driver/Src/stm32f7xx_hal_dma.c:0:11
	movs	r3, #1
	movs	r1, #64
	movs	r2, #1
	b	.LBB0_20
.Ltmp49:
	.p2align	2
@ %bb.27:
__arm_cp.0_0:
	.long	4027613247              @ 0xf010803f
.Lcpi_end0:
	.size	__arm_cp.0_0, .Lcpi_end0-__arm_cp.0_0
.Lfunc_end0:
	.size	HAL_DMA_Init, .Lfunc_end0-HAL_DMA_Init
	.cfi_endproc
	.file	6 "../Drivers/CMSIS/Device/ST/STM32F7xx/Include" "stm32f746xx.h"
	.cantunwind
	.fnend
                                        @ -- End function
	.section	.text.DMA_CalcBaseAndBitshift,"ax",%progbits
	.p2align	2               @ -- Begin function DMA_CalcBaseAndBitshift
	.type	DMA_CalcBaseAndBitshift,%function
	.code	16                      @ @DMA_CalcBaseAndBitshift
	.thumb_func
DMA_CalcBaseAndBitshift:
.Lfunc_begin1:
	.loc	2 1194 0 is_stmt 1      @ ../Drivers/STM32F7xx_HAL_Driver/Src/stm32f7xx_hal_dma.c:1194:0
	.fnstart
	.cfi_startproc
@ %bb.0:
	@DEBUG_VALUE: DMA_CalcBaseAndBitshift:hdma <- $r0
	@DEBUG_VALUE: DMA_CalcBaseAndBitshift:hdma <- $r0
	.loc	2 1195 46 prologue_end  @ ../Drivers/STM32F7xx_HAL_Driver/Src/stm32f7xx_hal_dma.c:1195:46
	ldr	r1, [r0]
	.loc	2 1195 64 is_stmt 0     @ ../Drivers/STM32F7xx_HAL_Driver/Src/stm32f7xx_hal_dma.c:1195:64
	mvn	r2, #15
	movw	r3, #1023
	uxtab	r2, r2, r1
	bics	r1, r3
	.loc	2 1195 71               @ ../Drivers/STM32F7xx_HAL_Driver/Src/stm32f7xx_hal_dma.c:1195:71
	movs	r3, #24
	.loc	2 1201 7 is_stmt 1      @ ../Drivers/STM32F7xx_HAL_Driver/Src/stm32f7xx_hal_dma.c:1201:7
	cmp	r2, #95
	.loc	2 1195 71               @ ../Drivers/STM32F7xx_HAL_Driver/Src/stm32f7xx_hal_dma.c:1195:71
	udiv	r2, r2, r3
.Ltmp50:
	@DEBUG_VALUE: DMA_CalcBaseAndBitshift:stream_number <- $r2
	.loc	2 1199 23               @ ../Drivers/STM32F7xx_HAL_Driver/Src/stm32f7xx_hal_dma.c:1199:23
	adr	r3, .LCPI1_0
	ldrb	r2, [r3, r2]
.Ltmp51:
	.loc	2 1201 7                @ ../Drivers/STM32F7xx_HAL_Driver/Src/stm32f7xx_hal_dma.c:1201:7
	it	hi
	orrhi	r1, r1, #4
.Ltmp52:
	.loc	2 1209 29               @ ../Drivers/STM32F7xx_HAL_Driver/Src/stm32f7xx_hal_dma.c:1209:29
	str	r1, [r0, #88]
.Ltmp53:
	.loc	2 1199 21               @ ../Drivers/STM32F7xx_HAL_Driver/Src/stm32f7xx_hal_dma.c:1199:21
	str	r2, [r0, #92]
	.loc	2 1212 3                @ ../Drivers/STM32F7xx_HAL_Driver/Src/stm32f7xx_hal_dma.c:1212:3
	mov	r0, r1
	bx	lr
.Ltmp54:
	.p2align	2
@ %bb.1:
	.loc	2 0 3 is_stmt 0         @ ../Drivers/STM32F7xx_HAL_Driver/Src/stm32f7xx_hal_dma.c:0:3
.LCPI1_0:
DMA_CalcBaseAndBitshift.flagBitshiftOffset:
	.ascii	"\000\006\020\026\000\006\020\026"
.Lfunc_end1:
	.size	DMA_CalcBaseAndBitshift, .Lfunc_end1-DMA_CalcBaseAndBitshift
	.cfi_endproc
	.cantunwind
	.fnend
                                        @ -- End function
	.section	.text.HAL_DMA_DeInit,"ax",%progbits
	.hidden	HAL_DMA_DeInit          @ -- Begin function HAL_DMA_DeInit
	.globl	HAL_DMA_DeInit
	.p2align	1
	.type	HAL_DMA_DeInit,%function
	.code	16                      @ @HAL_DMA_DeInit
	.thumb_func
HAL_DMA_DeInit:
.Lfunc_begin2:
	.loc	2 327 0 is_stmt 1       @ ../Drivers/STM32F7xx_HAL_Driver/Src/stm32f7xx_hal_dma.c:327:0
	.fnstart
	.cfi_startproc
@ %bb.0:
	.save	{r4, r5, r7, lr}
	push	{r4, r5, r7, lr}
	.cfi_def_cfa_offset 16
	.cfi_offset lr, -4
	.cfi_offset r7, -8
	.cfi_offset r5, -12
	.cfi_offset r4, -16
	@DEBUG_VALUE: HAL_DMA_DeInit:hdma <- $r0
	mov	r4, r0
.Ltmp55:
	@DEBUG_VALUE: HAL_DMA_DeInit:hdma <- $r4
	.loc	2 331 6 prologue_end    @ ../Drivers/STM32F7xx_HAL_Driver/Src/stm32f7xx_hal_dma.c:331:6
	cbz	r0, .LBB2_3
.Ltmp56:
@ %bb.1:
	@DEBUG_VALUE: HAL_DMA_DeInit:hdma <- $r4
	.loc	2 337 12                @ ../Drivers/STM32F7xx_HAL_Driver/Src/stm32f7xx_hal_dma.c:337:12
	ldrb.w	r0, [r4, #53]
.Ltmp57:
	.loc	2 337 6 is_stmt 0       @ ../Drivers/STM32F7xx_HAL_Driver/Src/stm32f7xx_hal_dma.c:337:6
	cmp	r0, #2
	bne	.LBB2_4
.Ltmp58:
@ %bb.2:
	@DEBUG_VALUE: HAL_DMA_DeInit:hdma <- $r4
	.loc	2 0 6                   @ ../Drivers/STM32F7xx_HAL_Driver/Src/stm32f7xx_hal_dma.c:0:6
	movs	r5, #2
	b	.LBB2_5
.Ltmp59:
.LBB2_3:
	@DEBUG_VALUE: HAL_DMA_DeInit:hdma <- $r4
	movs	r5, #1
	b	.LBB2_5
.Ltmp60:
.LBB2_4:
	@DEBUG_VALUE: HAL_DMA_DeInit:hdma <- $r4
	.loc	2 347 3 is_stmt 1       @ ../Drivers/STM32F7xx_HAL_Driver/Src/stm32f7xx_hal_dma.c:347:3
	ldr	r0, [r4]
	movs	r5, #0
	ldr	r1, [r0]
	bic	r1, r1, #1
	str	r1, [r0]
	.loc	2 365 24                @ ../Drivers/STM32F7xx_HAL_Driver/Src/stm32f7xx_hal_dma.c:365:24
	movs	r1, #33
	.loc	2 350 24                @ ../Drivers/STM32F7xx_HAL_Driver/Src/stm32f7xx_hal_dma.c:350:24
	str	r5, [r0]
	.loc	2 353 24                @ ../Drivers/STM32F7xx_HAL_Driver/Src/stm32f7xx_hal_dma.c:353:24
	str	r5, [r0, #4]
	.loc	2 356 24                @ ../Drivers/STM32F7xx_HAL_Driver/Src/stm32f7xx_hal_dma.c:356:24
	str	r5, [r0, #8]
	.loc	2 359 24                @ ../Drivers/STM32F7xx_HAL_Driver/Src/stm32f7xx_hal_dma.c:359:24
	str	r5, [r0, #12]
	.loc	2 362 24                @ ../Drivers/STM32F7xx_HAL_Driver/Src/stm32f7xx_hal_dma.c:362:24
	str	r5, [r0, #16]
	.loc	2 365 24                @ ../Drivers/STM32F7xx_HAL_Driver/Src/stm32f7xx_hal_dma.c:365:24
	str	r1, [r0, #20]
	.loc	2 368 32                @ ../Drivers/STM32F7xx_HAL_Driver/Src/stm32f7xx_hal_dma.c:368:32
	mov	r0, r4
	bl	DMA_CalcBaseAndBitshift
.Ltmp61:
	@DEBUG_VALUE: HAL_DMA_DeInit:regs <- $r0
	.loc	2 371 31                @ ../Drivers/STM32F7xx_HAL_Driver/Src/stm32f7xx_hal_dma.c:371:31
	ldr	r1, [r4, #92]
	.loc	2 371 22 is_stmt 0      @ ../Drivers/STM32F7xx_HAL_Driver/Src/stm32f7xx_hal_dma.c:371:22
	movs	r2, #63
	lsl.w	r1, r2, r1
	.loc	2 371 14                @ ../Drivers/STM32F7xx_HAL_Driver/Src/stm32f7xx_hal_dma.c:371:14
	str	r1, [r0, #8]
	.loc	2 374 19 is_stmt 1      @ ../Drivers/STM32F7xx_HAL_Driver/Src/stm32f7xx_hal_dma.c:374:19
	str	r5, [r4, #84]
.Ltmp62:
	.loc	2 380 3                 @ ../Drivers/STM32F7xx_HAL_Driver/Src/stm32f7xx_hal_dma.c:380:3
	strb.w	r5, [r4, #52]
.Ltmp63:
	.loc	2 377 15                @ ../Drivers/STM32F7xx_HAL_Driver/Src/stm32f7xx_hal_dma.c:377:15
	strb.w	r5, [r4, #53]
.Ltmp64:
.LBB2_5:
	@DEBUG_VALUE: HAL_DMA_DeInit:hdma <- $r4
	.loc	2 383 1                 @ ../Drivers/STM32F7xx_HAL_Driver/Src/stm32f7xx_hal_dma.c:383:1
	uxtb	r0, r5
	pop	{r4, r5, r7, pc}
.Ltmp65:
.Lfunc_end2:
	.size	HAL_DMA_DeInit, .Lfunc_end2-HAL_DMA_DeInit
	.cfi_endproc
	.cantunwind
	.fnend
                                        @ -- End function
	.section	.text.HAL_DMA_Start,"ax",%progbits
	.hidden	HAL_DMA_Start           @ -- Begin function HAL_DMA_Start
	.globl	HAL_DMA_Start
	.p2align	1
	.type	HAL_DMA_Start,%function
	.code	16                      @ @HAL_DMA_Start
	.thumb_func
HAL_DMA_Start:
.Lfunc_begin3:
	.loc	2 417 0                 @ ../Drivers/STM32F7xx_HAL_Driver/Src/stm32f7xx_hal_dma.c:417:0
	.fnstart
	.cfi_startproc
@ %bb.0:
	.save	{r4, r5, r7, lr}
	push	{r4, r5, r7, lr}
	.cfi_def_cfa_offset 16
	.cfi_offset lr, -4
	.cfi_offset r7, -8
	.cfi_offset r5, -12
	.cfi_offset r4, -16
	@DEBUG_VALUE: HAL_DMA_Start:hdma <- $r0
	@DEBUG_VALUE: HAL_DMA_Start:SrcAddress <- $r1
	@DEBUG_VALUE: HAL_DMA_Start:DstAddress <- $r2
	@DEBUG_VALUE: HAL_DMA_Start:DataLength <- $r3
	mov	r4, r0
.Ltmp66:
	@DEBUG_VALUE: HAL_DMA_Start:status <- 0
	@DEBUG_VALUE: HAL_DMA_Start:DataLength <- $r3
	@DEBUG_VALUE: HAL_DMA_Start:DstAddress <- $r2
	@DEBUG_VALUE: HAL_DMA_Start:SrcAddress <- $r1
	@DEBUG_VALUE: HAL_DMA_Start:hdma <- $r4
	.loc	2 424 3 prologue_end    @ ../Drivers/STM32F7xx_HAL_Driver/Src/stm32f7xx_hal_dma.c:424:3
	ldrb.w	r0, [r0, #52]
.Ltmp67:
	.loc	2 424 3 is_stmt 0       @ ../Drivers/STM32F7xx_HAL_Driver/Src/stm32f7xx_hal_dma.c:424:3
	cmp	r0, #1
	beq	.LBB3_4
.Ltmp68:
@ %bb.1:
	@DEBUG_VALUE: HAL_DMA_Start:hdma <- $r4
	@DEBUG_VALUE: HAL_DMA_Start:DataLength <- $r3
	@DEBUG_VALUE: HAL_DMA_Start:DstAddress <- $r2
	@DEBUG_VALUE: HAL_DMA_Start:SrcAddress <- $r1
	.loc	2 0 3                   @ ../Drivers/STM32F7xx_HAL_Driver/Src/stm32f7xx_hal_dma.c:0:3
	movs	r0, #1
.Ltmp69:
	.loc	2 424 3                 @ ../Drivers/STM32F7xx_HAL_Driver/Src/stm32f7xx_hal_dma.c:424:3
	strb.w	r0, [r4, #52]
.Ltmp70:
	.loc	2 426 35 is_stmt 1      @ ../Drivers/STM32F7xx_HAL_Driver/Src/stm32f7xx_hal_dma.c:426:35
	ldrb.w	r0, [r4, #53]
.Ltmp71:
	.loc	2 426 6 is_stmt 0       @ ../Drivers/STM32F7xx_HAL_Driver/Src/stm32f7xx_hal_dma.c:426:6
	cmp	r0, #1
	bne	.LBB3_3
.Ltmp72:
@ %bb.2:
	@DEBUG_VALUE: HAL_DMA_Start:hdma <- $r4
	@DEBUG_VALUE: HAL_DMA_Start:DataLength <- $r3
	@DEBUG_VALUE: HAL_DMA_Start:DstAddress <- $r2
	@DEBUG_VALUE: HAL_DMA_Start:SrcAddress <- $r1
	.loc	2 429 17 is_stmt 1      @ ../Drivers/STM32F7xx_HAL_Driver/Src/stm32f7xx_hal_dma.c:429:17
	movs	r0, #2
	movs	r5, #0
	strb.w	r0, [r4, #53]
	.loc	2 435 5                 @ ../Drivers/STM32F7xx_HAL_Driver/Src/stm32f7xx_hal_dma.c:435:5
	mov	r0, r4
	.loc	2 432 21                @ ../Drivers/STM32F7xx_HAL_Driver/Src/stm32f7xx_hal_dma.c:432:21
	str	r5, [r4, #84]
	.loc	2 435 5                 @ ../Drivers/STM32F7xx_HAL_Driver/Src/stm32f7xx_hal_dma.c:435:5
	bl	DMA_SetConfig
.Ltmp73:
	.loc	2 438 5                 @ ../Drivers/STM32F7xx_HAL_Driver/Src/stm32f7xx_hal_dma.c:438:5
	ldr	r0, [r4]
	ldr	r1, [r0]
	orr	r1, r1, #1
	str	r1, [r0]
	b	.LBB3_5
.Ltmp74:
.LBB3_3:
	@DEBUG_VALUE: HAL_DMA_Start:hdma <- $r4
	@DEBUG_VALUE: HAL_DMA_Start:DataLength <- $r3
	@DEBUG_VALUE: HAL_DMA_Start:DstAddress <- $r2
	@DEBUG_VALUE: HAL_DMA_Start:SrcAddress <- $r1
	.loc	2 443 5                 @ ../Drivers/STM32F7xx_HAL_Driver/Src/stm32f7xx_hal_dma.c:443:5
	movs	r0, #0
	strb.w	r0, [r4, #52]
.Ltmp75:
.LBB3_4:
	@DEBUG_VALUE: HAL_DMA_Start:hdma <- $r4
	@DEBUG_VALUE: HAL_DMA_Start:DataLength <- $r3
	@DEBUG_VALUE: HAL_DMA_Start:DstAddress <- $r2
	@DEBUG_VALUE: HAL_DMA_Start:SrcAddress <- $r1
	.loc	2 0 5 is_stmt 0         @ ../Drivers/STM32F7xx_HAL_Driver/Src/stm32f7xx_hal_dma.c:0:5
	movs	r5, #2
.Ltmp76:
	@DEBUG_VALUE: HAL_DMA_Start:status <- 2
.LBB3_5:
	@DEBUG_VALUE: HAL_DMA_Start:hdma <- $r4
	.loc	2 449 1 is_stmt 1       @ ../Drivers/STM32F7xx_HAL_Driver/Src/stm32f7xx_hal_dma.c:449:1
	uxtb	r0, r5
	pop	{r4, r5, r7, pc}
.Ltmp77:
.Lfunc_end3:
	.size	HAL_DMA_Start, .Lfunc_end3-HAL_DMA_Start
	.cfi_endproc
	.cantunwind
	.fnend
                                        @ -- End function
	.section	.text.DMA_SetConfig,"ax",%progbits
	.p2align	1               @ -- Begin function DMA_SetConfig
	.type	DMA_SetConfig,%function
	.code	16                      @ @DMA_SetConfig
	.thumb_func
DMA_SetConfig:
.Lfunc_begin4:
	.loc	2 1160 0                @ ../Drivers/STM32F7xx_HAL_Driver/Src/stm32f7xx_hal_dma.c:1160:0
	.fnstart
	.cfi_startproc
@ %bb.0:
	.save	{r7, lr}
	push	{r7, lr}
	.cfi_def_cfa_offset 8
	.cfi_offset lr, -4
	.cfi_offset r7, -8
	@DEBUG_VALUE: DMA_SetConfig:hdma <- $r0
	@DEBUG_VALUE: DMA_SetConfig:hdma <- $r0
	@DEBUG_VALUE: DMA_SetConfig:SrcAddress <- $r1
	@DEBUG_VALUE: DMA_SetConfig:SrcAddress <- $r1
	@DEBUG_VALUE: DMA_SetConfig:DstAddress <- $r2
	@DEBUG_VALUE: DMA_SetConfig:DstAddress <- $r2
	@DEBUG_VALUE: DMA_SetConfig:DataLength <- $r3
	@DEBUG_VALUE: DMA_SetConfig:DataLength <- $r3
.Ltmp78:
	.loc	2 1162 9 prologue_end   @ ../Drivers/STM32F7xx_HAL_Driver/Src/stm32f7xx_hal_dma.c:1162:9
	ldr.w	r12, [r0]
	.loc	2 1162 22 is_stmt 0     @ ../Drivers/STM32F7xx_HAL_Driver/Src/stm32f7xx_hal_dma.c:1162:22
	ldr.w	lr, [r12]
	bic	lr, lr, #262144
	str.w	lr, [r12]
	.loc	2 1165 24 is_stmt 1     @ ../Drivers/STM32F7xx_HAL_Driver/Src/stm32f7xx_hal_dma.c:1165:24
	str.w	r3, [r12, #4]
.Ltmp79:
	.loc	2 1168 18               @ ../Drivers/STM32F7xx_HAL_Driver/Src/stm32f7xx_hal_dma.c:1168:18
	ldr	r0, [r0, #8]
.Ltmp80:
	.loc	2 1168 6 is_stmt 0      @ ../Drivers/STM32F7xx_HAL_Driver/Src/stm32f7xx_hal_dma.c:1168:6
	cmp	r0, #64
	mov	r0, r1
	it	eq
	moveq	r0, r2
	str.w	r0, [r12, #8]
	it	eq
	moveq	r2, r1
.Ltmp81:
	.loc	2 0 6                   @ ../Drivers/STM32F7xx_HAL_Driver/Src/stm32f7xx_hal_dma.c:0:6
	str.w	r2, [r12, #12]
	.loc	2 1185 1 is_stmt 1      @ ../Drivers/STM32F7xx_HAL_Driver/Src/stm32f7xx_hal_dma.c:1185:1
	pop	{r7, pc}
.Ltmp82:
.Lfunc_end4:
	.size	DMA_SetConfig, .Lfunc_end4-DMA_SetConfig
	.cfi_endproc
	.cantunwind
	.fnend
                                        @ -- End function
	.section	.text.HAL_DMA_Start_IT,"ax",%progbits
	.hidden	HAL_DMA_Start_IT        @ -- Begin function HAL_DMA_Start_IT
	.globl	HAL_DMA_Start_IT
	.p2align	1
	.type	HAL_DMA_Start_IT,%function
	.code	16                      @ @HAL_DMA_Start_IT
	.thumb_func
HAL_DMA_Start_IT:
.Lfunc_begin5:
	.loc	2 461 0                 @ ../Drivers/STM32F7xx_HAL_Driver/Src/stm32f7xx_hal_dma.c:461:0
	.fnstart
	.cfi_startproc
@ %bb.0:
	.save	{r4, r5, r7, lr}
	push	{r4, r5, r7, lr}
	.cfi_def_cfa_offset 16
	.cfi_offset lr, -4
	.cfi_offset r7, -8
	.cfi_offset r5, -12
	.cfi_offset r4, -16
	@DEBUG_VALUE: HAL_DMA_Start_IT:hdma <- $r0
	@DEBUG_VALUE: HAL_DMA_Start_IT:SrcAddress <- $r1
	@DEBUG_VALUE: HAL_DMA_Start_IT:DstAddress <- $r2
	@DEBUG_VALUE: HAL_DMA_Start_IT:DataLength <- $r3
	mov	r4, r0
.Ltmp83:
	@DEBUG_VALUE: HAL_DMA_Start_IT:status <- 0
	@DEBUG_VALUE: HAL_DMA_Start_IT:DataLength <- $r3
	@DEBUG_VALUE: HAL_DMA_Start_IT:DstAddress <- $r2
	@DEBUG_VALUE: HAL_DMA_Start_IT:SrcAddress <- $r1
	@DEBUG_VALUE: HAL_DMA_Start_IT:hdma <- $r4
	.loc	2 471 3 prologue_end    @ ../Drivers/STM32F7xx_HAL_Driver/Src/stm32f7xx_hal_dma.c:471:3
	ldrb.w	r0, [r0, #52]
.Ltmp84:
	.loc	2 471 3 is_stmt 0       @ ../Drivers/STM32F7xx_HAL_Driver/Src/stm32f7xx_hal_dma.c:471:3
	cmp	r0, #1
	beq	.LBB5_6
.Ltmp85:
@ %bb.1:
	@DEBUG_VALUE: HAL_DMA_Start_IT:hdma <- $r4
	@DEBUG_VALUE: HAL_DMA_Start_IT:DataLength <- $r3
	@DEBUG_VALUE: HAL_DMA_Start_IT:DstAddress <- $r2
	@DEBUG_VALUE: HAL_DMA_Start_IT:SrcAddress <- $r1
	.loc	2 0 3                   @ ../Drivers/STM32F7xx_HAL_Driver/Src/stm32f7xx_hal_dma.c:0:3
	movs	r0, #1
	ldr	r5, [r4, #88]
.Ltmp86:
	@DEBUG_VALUE: HAL_DMA_Start_IT:regs <- $r5
	.loc	2 471 3                 @ ../Drivers/STM32F7xx_HAL_Driver/Src/stm32f7xx_hal_dma.c:471:3
	strb.w	r0, [r4, #52]
.Ltmp87:
	.loc	2 473 35 is_stmt 1      @ ../Drivers/STM32F7xx_HAL_Driver/Src/stm32f7xx_hal_dma.c:473:35
	ldrb.w	r0, [r4, #53]
.Ltmp88:
	.loc	2 473 6 is_stmt 0       @ ../Drivers/STM32F7xx_HAL_Driver/Src/stm32f7xx_hal_dma.c:473:6
	cmp	r0, #1
	bne	.LBB5_5
.Ltmp89:
@ %bb.2:
	@DEBUG_VALUE: HAL_DMA_Start_IT:regs <- $r5
	@DEBUG_VALUE: HAL_DMA_Start_IT:hdma <- $r4
	@DEBUG_VALUE: HAL_DMA_Start_IT:DataLength <- $r3
	@DEBUG_VALUE: HAL_DMA_Start_IT:DstAddress <- $r2
	@DEBUG_VALUE: HAL_DMA_Start_IT:SrcAddress <- $r1
	.loc	2 476 17 is_stmt 1      @ ../Drivers/STM32F7xx_HAL_Driver/Src/stm32f7xx_hal_dma.c:476:17
	movs	r0, #2
	strb.w	r0, [r4, #53]
	movs	r0, #0
	.loc	2 479 21                @ ../Drivers/STM32F7xx_HAL_Driver/Src/stm32f7xx_hal_dma.c:479:21
	str	r0, [r4, #84]
	.loc	2 482 5                 @ ../Drivers/STM32F7xx_HAL_Driver/Src/stm32f7xx_hal_dma.c:482:5
	mov	r0, r4
	bl	DMA_SetConfig
.Ltmp90:
	.loc	2 485 33                @ ../Drivers/STM32F7xx_HAL_Driver/Src/stm32f7xx_hal_dma.c:485:33
	ldr	r0, [r4, #92]
	.loc	2 485 24 is_stmt 0      @ ../Drivers/STM32F7xx_HAL_Driver/Src/stm32f7xx_hal_dma.c:485:24
	movs	r1, #63
	lsl.w	r0, r1, r0
	.loc	2 485 16                @ ../Drivers/STM32F7xx_HAL_Driver/Src/stm32f7xx_hal_dma.c:485:16
	str	r0, [r5, #8]
	.loc	2 488 11 is_stmt 1      @ ../Drivers/STM32F7xx_HAL_Driver/Src/stm32f7xx_hal_dma.c:488:11
	ldr	r0, [r4]
	.loc	2 488 25 is_stmt 0      @ ../Drivers/STM32F7xx_HAL_Driver/Src/stm32f7xx_hal_dma.c:488:25
	ldr	r1, [r0]
	orr	r1, r1, #22
	str	r1, [r0]
	.loc	2 489 25 is_stmt 1      @ ../Drivers/STM32F7xx_HAL_Driver/Src/stm32f7xx_hal_dma.c:489:25
	ldr	r1, [r0, #20]
	orr	r1, r1, #128
	str	r1, [r0, #20]
.Ltmp91:
	.loc	2 491 14                @ ../Drivers/STM32F7xx_HAL_Driver/Src/stm32f7xx_hal_dma.c:491:14
	ldr	r1, [r4, #64]
.Ltmp92:
	.loc	2 491 8 is_stmt 0       @ ../Drivers/STM32F7xx_HAL_Driver/Src/stm32f7xx_hal_dma.c:491:8
	cbz	r1, .LBB5_4
.Ltmp93:
@ %bb.3:
	@DEBUG_VALUE: HAL_DMA_Start_IT:regs <- $r5
	@DEBUG_VALUE: HAL_DMA_Start_IT:hdma <- $r4
	.loc	2 493 27 is_stmt 1      @ ../Drivers/STM32F7xx_HAL_Driver/Src/stm32f7xx_hal_dma.c:493:27
	ldr	r1, [r0]
	orr	r1, r1, #8
	str	r1, [r0]
.Ltmp94:
.LBB5_4:
	@DEBUG_VALUE: HAL_DMA_Start_IT:regs <- $r5
	@DEBUG_VALUE: HAL_DMA_Start_IT:hdma <- $r4
	.loc	2 497 5                 @ ../Drivers/STM32F7xx_HAL_Driver/Src/stm32f7xx_hal_dma.c:497:5
	ldr	r1, [r0]
	orr	r1, r1, #1
	str	r1, [r0]
	movs	r0, #0
	b	.LBB5_7
.Ltmp95:
.LBB5_5:
	@DEBUG_VALUE: HAL_DMA_Start_IT:regs <- $r5
	@DEBUG_VALUE: HAL_DMA_Start_IT:hdma <- $r4
	@DEBUG_VALUE: HAL_DMA_Start_IT:DataLength <- $r3
	@DEBUG_VALUE: HAL_DMA_Start_IT:DstAddress <- $r2
	@DEBUG_VALUE: HAL_DMA_Start_IT:SrcAddress <- $r1
	.loc	2 502 5                 @ ../Drivers/STM32F7xx_HAL_Driver/Src/stm32f7xx_hal_dma.c:502:5
	movs	r0, #0
	strb.w	r0, [r4, #52]
.Ltmp96:
.LBB5_6:
	@DEBUG_VALUE: HAL_DMA_Start_IT:hdma <- $r4
	@DEBUG_VALUE: HAL_DMA_Start_IT:DataLength <- $r3
	@DEBUG_VALUE: HAL_DMA_Start_IT:DstAddress <- $r2
	@DEBUG_VALUE: HAL_DMA_Start_IT:SrcAddress <- $r1
	.loc	2 0 5 is_stmt 0         @ ../Drivers/STM32F7xx_HAL_Driver/Src/stm32f7xx_hal_dma.c:0:5
	movs	r0, #2
.Ltmp97:
	@DEBUG_VALUE: HAL_DMA_Start_IT:status <- 2
.LBB5_7:
	@DEBUG_VALUE: HAL_DMA_Start_IT:hdma <- $r4
	.loc	2 509 1 is_stmt 1       @ ../Drivers/STM32F7xx_HAL_Driver/Src/stm32f7xx_hal_dma.c:509:1
	uxtb	r0, r0
	pop	{r4, r5, r7, pc}
.Ltmp98:
.Lfunc_end5:
	.size	HAL_DMA_Start_IT, .Lfunc_end5-HAL_DMA_Start_IT
	.cfi_endproc
	.cantunwind
	.fnend
                                        @ -- End function
	.section	.text.HAL_DMA_Abort,"ax",%progbits
	.hidden	HAL_DMA_Abort           @ -- Begin function HAL_DMA_Abort
	.globl	HAL_DMA_Abort
	.p2align	1
	.type	HAL_DMA_Abort,%function
	.code	16                      @ @HAL_DMA_Abort
	.thumb_func
HAL_DMA_Abort:
.Lfunc_begin6:
	.loc	2 524 0                 @ ../Drivers/STM32F7xx_HAL_Driver/Src/stm32f7xx_hal_dma.c:524:0
	.fnstart
	.cfi_startproc
@ %bb.0:
	.save	{r4, r5, r6, lr}
	push	{r4, r5, r6, lr}
	.cfi_def_cfa_offset 16
	.cfi_offset lr, -4
	.cfi_offset r6, -8
	.cfi_offset r5, -12
	.cfi_offset r4, -16
	@DEBUG_VALUE: HAL_DMA_Abort:hdma <- $r0
.Ltmp99:
	.loc	2 526 58 prologue_end   @ ../Drivers/STM32F7xx_HAL_Driver/Src/stm32f7xx_hal_dma.c:526:58
	ldr	r6, [r0, #88]
.Ltmp100:
	@DEBUG_VALUE: HAL_DMA_Abort:regs <- $r6
	.loc	2 0 58 is_stmt 0        @ ../Drivers/STM32F7xx_HAL_Driver/Src/stm32f7xx_hal_dma.c:0:58
	mov	r4, r0
.Ltmp101:
	@DEBUG_VALUE: HAL_DMA_Abort:hdma <- $r4
	.loc	2 528 24 is_stmt 1      @ ../Drivers/STM32F7xx_HAL_Driver/Src/stm32f7xx_hal_dma.c:528:24
	bl	HAL_GetTick
	mov	r5, r0
.Ltmp102:
	@DEBUG_VALUE: HAL_DMA_Abort:tickstart <- $r5
	.loc	2 530 12                @ ../Drivers/STM32F7xx_HAL_Driver/Src/stm32f7xx_hal_dma.c:530:12
	ldrb.w	r0, [r4, #53]
.Ltmp103:
	.loc	2 530 6 is_stmt 0       @ ../Drivers/STM32F7xx_HAL_Driver/Src/stm32f7xx_hal_dma.c:530:6
	cmp	r0, #2
	bne	.LBB6_9
.Ltmp104:
@ %bb.1:
	@DEBUG_VALUE: HAL_DMA_Abort:tickstart <- $r5
	@DEBUG_VALUE: HAL_DMA_Abort:hdma <- $r4
	@DEBUG_VALUE: HAL_DMA_Abort:regs <- $r6
	.loc	2 542 11 is_stmt 1      @ ../Drivers/STM32F7xx_HAL_Driver/Src/stm32f7xx_hal_dma.c:542:11
	ldr	r0, [r4]
	.loc	2 542 25 is_stmt 0      @ ../Drivers/STM32F7xx_HAL_Driver/Src/stm32f7xx_hal_dma.c:542:25
	ldr	r1, [r0]
	bic	r1, r1, #22
	str	r1, [r0]
	.loc	2 543 25 is_stmt 1      @ ../Drivers/STM32F7xx_HAL_Driver/Src/stm32f7xx_hal_dma.c:543:25
	ldr	r1, [r0, #20]
	bic	r1, r1, #128
	str	r1, [r0, #20]
.Ltmp105:
	.loc	2 545 15                @ ../Drivers/STM32F7xx_HAL_Driver/Src/stm32f7xx_hal_dma.c:545:15
	ldr	r1, [r4, #64]
	.loc	2 545 45 is_stmt 0      @ ../Drivers/STM32F7xx_HAL_Driver/Src/stm32f7xx_hal_dma.c:545:45
	cbnz	r1, .LBB6_3
.Ltmp106:
@ %bb.2:
	@DEBUG_VALUE: HAL_DMA_Abort:tickstart <- $r5
	@DEBUG_VALUE: HAL_DMA_Abort:hdma <- $r4
	@DEBUG_VALUE: HAL_DMA_Abort:regs <- $r6
	.loc	2 545 55                @ ../Drivers/STM32F7xx_HAL_Driver/Src/stm32f7xx_hal_dma.c:545:55
	ldr	r1, [r4, #72]
.Ltmp107:
	.loc	2 545 8                 @ ../Drivers/STM32F7xx_HAL_Driver/Src/stm32f7xx_hal_dma.c:545:8
	cbz	r1, .LBB6_4
.Ltmp108:
.LBB6_3:
	@DEBUG_VALUE: HAL_DMA_Abort:tickstart <- $r5
	@DEBUG_VALUE: HAL_DMA_Abort:hdma <- $r4
	@DEBUG_VALUE: HAL_DMA_Abort:regs <- $r6
	.loc	2 547 27 is_stmt 1      @ ../Drivers/STM32F7xx_HAL_Driver/Src/stm32f7xx_hal_dma.c:547:27
	ldr	r1, [r0]
	bic	r1, r1, #8
	str	r1, [r0]
.Ltmp109:
.LBB6_4:
	@DEBUG_VALUE: HAL_DMA_Abort:tickstart <- $r5
	@DEBUG_VALUE: HAL_DMA_Abort:hdma <- $r4
	@DEBUG_VALUE: HAL_DMA_Abort:regs <- $r6
	.loc	2 551 5                 @ ../Drivers/STM32F7xx_HAL_Driver/Src/stm32f7xx_hal_dma.c:551:5
	ldr	r1, [r0]
	bic	r1, r1, #1
	str	r1, [r0]
	b	.LBB6_7
.Ltmp110:
.LBB6_5:                                @   in Loop: Header=BB6_7 Depth=1
	@DEBUG_VALUE: HAL_DMA_Abort:tickstart <- $r5
	@DEBUG_VALUE: HAL_DMA_Abort:hdma <- $r4
	@DEBUG_VALUE: HAL_DMA_Abort:regs <- $r6
	.loc	2 557 11                @ ../Drivers/STM32F7xx_HAL_Driver/Src/stm32f7xx_hal_dma.c:557:11
	bl	HAL_GetTick
	.loc	2 557 25 is_stmt 0      @ ../Drivers/STM32F7xx_HAL_Driver/Src/stm32f7xx_hal_dma.c:557:25
	subs	r0, r0, r5
.Ltmp111:
	.loc	2 557 10                @ ../Drivers/STM32F7xx_HAL_Driver/Src/stm32f7xx_hal_dma.c:557:10
	cmp	r0, #5
	bhi	.LBB6_10
.Ltmp112:
@ %bb.6:                                @   in Loop: Header=BB6_7 Depth=1
	@DEBUG_VALUE: HAL_DMA_Abort:tickstart <- $r5
	@DEBUG_VALUE: HAL_DMA_Abort:hdma <- $r4
	@DEBUG_VALUE: HAL_DMA_Abort:regs <- $r6
	.loc	2 554 18 is_stmt 1      @ ../Drivers/STM32F7xx_HAL_Driver/Src/stm32f7xx_hal_dma.c:554:18
	ldr	r0, [r4]
.Ltmp113:
.LBB6_7:                                @ =>This Inner Loop Header: Depth=1
	@DEBUG_VALUE: HAL_DMA_Abort:tickstart <- $r5
	@DEBUG_VALUE: HAL_DMA_Abort:hdma <- $r4
	@DEBUG_VALUE: HAL_DMA_Abort:regs <- $r6
	.loc	2 554 28 is_stmt 0      @ ../Drivers/STM32F7xx_HAL_Driver/Src/stm32f7xx_hal_dma.c:554:28
	ldr	r0, [r0]
	.loc	2 554 5                 @ ../Drivers/STM32F7xx_HAL_Driver/Src/stm32f7xx_hal_dma.c:554:5
	tst.w	r0, #1
	bne	.LBB6_5
.Ltmp114:
@ %bb.8:
	@DEBUG_VALUE: HAL_DMA_Abort:tickstart <- $r5
	@DEBUG_VALUE: HAL_DMA_Abort:hdma <- $r4
	@DEBUG_VALUE: HAL_DMA_Abort:regs <- $r6
	.loc	2 573 33 is_stmt 1      @ ../Drivers/STM32F7xx_HAL_Driver/Src/stm32f7xx_hal_dma.c:573:33
	ldr	r0, [r4, #92]
	.loc	2 573 24 is_stmt 0      @ ../Drivers/STM32F7xx_HAL_Driver/Src/stm32f7xx_hal_dma.c:573:24
	movs	r1, #63
	lsl.w	r0, r1, r0
	.loc	2 573 16                @ ../Drivers/STM32F7xx_HAL_Driver/Src/stm32f7xx_hal_dma.c:573:16
	str	r0, [r6, #8]
	.loc	2 579 17 is_stmt 1      @ ../Drivers/STM32F7xx_HAL_Driver/Src/stm32f7xx_hal_dma.c:579:17
	movs	r0, #1
	strb.w	r0, [r4, #53]
	movs	r0, #0
.Ltmp115:
	.loc	2 576 5                 @ ../Drivers/STM32F7xx_HAL_Driver/Src/stm32f7xx_hal_dma.c:576:5
	strb.w	r0, [r4, #52]
	b	.LBB6_11
.Ltmp116:
.LBB6_9:
	@DEBUG_VALUE: HAL_DMA_Abort:tickstart <- $r5
	@DEBUG_VALUE: HAL_DMA_Abort:hdma <- $r4
	@DEBUG_VALUE: HAL_DMA_Abort:regs <- $r6
	.loc	2 535 5                 @ ../Drivers/STM32F7xx_HAL_Driver/Src/stm32f7xx_hal_dma.c:535:5
	movs	r0, #0
	strb.w	r0, [r4, #52]
.Ltmp117:
	.loc	2 532 21                @ ../Drivers/STM32F7xx_HAL_Driver/Src/stm32f7xx_hal_dma.c:532:21
	movs	r0, #128
	str	r0, [r4, #84]
	movs	r0, #1
	b	.LBB6_11
.Ltmp118:
.LBB6_10:
	@DEBUG_VALUE: HAL_DMA_Abort:tickstart <- $r5
	@DEBUG_VALUE: HAL_DMA_Abort:hdma <- $r4
	@DEBUG_VALUE: HAL_DMA_Abort:regs <- $r6
	.loc	2 560 25                @ ../Drivers/STM32F7xx_HAL_Driver/Src/stm32f7xx_hal_dma.c:560:25
	movs	r0, #32
	str	r0, [r4, #84]
.Ltmp119:
	.loc	2 563 9                 @ ../Drivers/STM32F7xx_HAL_Driver/Src/stm32f7xx_hal_dma.c:563:9
	movs	r0, #0
	strb.w	r0, [r4, #52]
	movs	r0, #3
.Ltmp120:
	.loc	2 566 21                @ ../Drivers/STM32F7xx_HAL_Driver/Src/stm32f7xx_hal_dma.c:566:21
	strb.w	r0, [r4, #53]
.Ltmp121:
.LBB6_11:
	@DEBUG_VALUE: HAL_DMA_Abort:tickstart <- $r5
	@DEBUG_VALUE: HAL_DMA_Abort:hdma <- $r4
	@DEBUG_VALUE: HAL_DMA_Abort:regs <- $r6
	.loc	2 582 1                 @ ../Drivers/STM32F7xx_HAL_Driver/Src/stm32f7xx_hal_dma.c:582:1
	uxtb	r0, r0
	pop	{r4, r5, r6, pc}
.Ltmp122:
.Lfunc_end6:
	.size	HAL_DMA_Abort, .Lfunc_end6-HAL_DMA_Abort
	.cfi_endproc
	.cantunwind
	.fnend
                                        @ -- End function
	.section	.text.HAL_DMA_Abort_IT,"ax",%progbits
	.hidden	HAL_DMA_Abort_IT        @ -- Begin function HAL_DMA_Abort_IT
	.globl	HAL_DMA_Abort_IT
	.p2align	1
	.type	HAL_DMA_Abort_IT,%function
	.code	16                      @ @HAL_DMA_Abort_IT
	.thumb_func
HAL_DMA_Abort_IT:
.Lfunc_begin7:
	.loc	2 591 0                 @ ../Drivers/STM32F7xx_HAL_Driver/Src/stm32f7xx_hal_dma.c:591:0
	.fnstart
	.cfi_startproc
@ %bb.0:
	@DEBUG_VALUE: HAL_DMA_Abort_IT:hdma <- $r0
	@DEBUG_VALUE: HAL_DMA_Abort_IT:hdma <- $r0
	.loc	2 592 12 prologue_end   @ ../Drivers/STM32F7xx_HAL_Driver/Src/stm32f7xx_hal_dma.c:592:12
	ldrb.w	r1, [r0, #53]
.Ltmp123:
	.loc	2 592 6 is_stmt 0       @ ../Drivers/STM32F7xx_HAL_Driver/Src/stm32f7xx_hal_dma.c:592:6
	cmp	r1, #2
.Ltmp124:
	.loc	2 594 21 is_stmt 1      @ ../Drivers/STM32F7xx_HAL_Driver/Src/stm32f7xx_hal_dma.c:594:21
	itttt	ne
	movne	r1, #128
	strne	r1, [r0, #84]
	movne	r0, #1
.Ltmp125:
	.loc	2 607 1                 @ ../Drivers/STM32F7xx_HAL_Driver/Src/stm32f7xx_hal_dma.c:607:1
	bxne	lr
.Ltmp126:
	.loc	2 600 17                @ ../Drivers/STM32F7xx_HAL_Driver/Src/stm32f7xx_hal_dma.c:600:17
	movs	r1, #5
	strb.w	r1, [r0, #53]
	.loc	2 603 5                 @ ../Drivers/STM32F7xx_HAL_Driver/Src/stm32f7xx_hal_dma.c:603:5
	ldr	r0, [r0]
	ldr	r1, [r0]
	bic	r1, r1, #1
	str	r1, [r0]
	movs	r0, #0
.Ltmp127:
	.loc	2 607 1                 @ ../Drivers/STM32F7xx_HAL_Driver/Src/stm32f7xx_hal_dma.c:607:1
	bx	lr
.Ltmp128:
.Lfunc_end7:
	.size	HAL_DMA_Abort_IT, .Lfunc_end7-HAL_DMA_Abort_IT
	.cfi_endproc
	.cantunwind
	.fnend
                                        @ -- End function
	.section	.text.HAL_DMA_PollForTransfer,"ax",%progbits
	.hidden	HAL_DMA_PollForTransfer @ -- Begin function HAL_DMA_PollForTransfer
	.globl	HAL_DMA_PollForTransfer
	.p2align	2
	.type	HAL_DMA_PollForTransfer,%function
	.code	16                      @ @HAL_DMA_PollForTransfer
	.thumb_func
HAL_DMA_PollForTransfer:
.Lfunc_begin8:
	.loc	2 621 0                 @ ../Drivers/STM32F7xx_HAL_Driver/Src/stm32f7xx_hal_dma.c:621:0
	.fnstart
	.cfi_startproc
@ %bb.0:
	.save	{r4, r5, r6, r7, r8, r9, r10, r11, lr}
	.pad	#4
	push.w	{r3, r4, r5, r6, r7, r8, r9, r10, r11, lr}
	.cfi_def_cfa_offset 40
	.cfi_offset lr, -4
	.cfi_offset r11, -8
	.cfi_offset r10, -12
	.cfi_offset r9, -16
	.cfi_offset r8, -20
	.cfi_offset r7, -24
	.cfi_offset r6, -28
	.cfi_offset r5, -32
	.cfi_offset r4, -36
	@DEBUG_VALUE: HAL_DMA_PollForTransfer:hdma <- $r0
	@DEBUG_VALUE: HAL_DMA_PollForTransfer:CompleteLevel <- $r1
	@DEBUG_VALUE: HAL_DMA_PollForTransfer:Timeout <- $r2
	mov	r6, r2
	mov	r5, r1
	mov	r4, r0
.Ltmp129:
	@DEBUG_VALUE: HAL_DMA_PollForTransfer:status <- 0
	@DEBUG_VALUE: HAL_DMA_PollForTransfer:Timeout <- $r6
	@DEBUG_VALUE: HAL_DMA_PollForTransfer:CompleteLevel <- $r5
	@DEBUG_VALUE: HAL_DMA_PollForTransfer:hdma <- $r4
	.loc	2 624 24 prologue_end   @ ../Drivers/STM32F7xx_HAL_Driver/Src/stm32f7xx_hal_dma.c:624:24
	bl	HAL_GetTick
	mov	r9, r0
.Ltmp130:
	@DEBUG_VALUE: HAL_DMA_PollForTransfer:tickstart <- $r9
	.loc	2 630 34                @ ../Drivers/STM32F7xx_HAL_Driver/Src/stm32f7xx_hal_dma.c:630:34
	ldrb.w	r0, [r4, #53]
.Ltmp131:
	@DEBUG_VALUE: HAL_DMA_PollForTransfer:CompleteLevel <- undef
	.loc	2 630 6 is_stmt 0       @ ../Drivers/STM32F7xx_HAL_Driver/Src/stm32f7xx_hal_dma.c:630:6
	cmp	r0, #2
	bne	.LBB8_3
.Ltmp132:
@ %bb.1:
	@DEBUG_VALUE: HAL_DMA_PollForTransfer:tickstart <- $r9
	@DEBUG_VALUE: HAL_DMA_PollForTransfer:hdma <- $r4
	@DEBUG_VALUE: HAL_DMA_PollForTransfer:Timeout <- $r6
	.loc	2 639 14 is_stmt 1      @ ../Drivers/STM32F7xx_HAL_Driver/Src/stm32f7xx_hal_dma.c:639:14
	ldr	r0, [r4]
	.loc	2 639 24 is_stmt 0      @ ../Drivers/STM32F7xx_HAL_Driver/Src/stm32f7xx_hal_dma.c:639:24
	ldr	r0, [r0]
.Ltmp133:
	.loc	2 639 7                 @ ../Drivers/STM32F7xx_HAL_Driver/Src/stm32f7xx_hal_dma.c:639:7
	tst.w	r0, #256
	bne	.LBB8_4
.Ltmp134:
@ %bb.2:
	@DEBUG_VALUE: HAL_DMA_PollForTransfer:tickstart <- $r9
	@DEBUG_VALUE: HAL_DMA_PollForTransfer:hdma <- $r4
	@DEBUG_VALUE: HAL_DMA_PollForTransfer:Timeout <- $r6
	.loc	2 646 6 is_stmt 1       @ ../Drivers/STM32F7xx_HAL_Driver/Src/stm32f7xx_hal_dma.c:646:6
	movs	r1, #16
	cmp	r5, #0
	str	r5, [sp]                @ 4-byte Spill
	ldr	r2, __arm_cp.8_0
	add.w	r10, r6, #1
	mov.w	r7, #8
	it	eq
	moveq	r1, #32
.Ltmp135:
	@DEBUG_VALUE: HAL_DMA_PollForTransfer:regs <- $r5
	@DEBUG_VALUE: HAL_DMA_PollForTransfer:regs <- $r5
	.loc	2 657 38                @ ../Drivers/STM32F7xx_HAL_Driver/Src/stm32f7xx_hal_dma.c:657:38
	ldrd	r5, r0, [r4, #88]
.Ltmp136:
	.loc	2 0 38 is_stmt 0        @ ../Drivers/STM32F7xx_HAL_Driver/Src/stm32f7xx_hal_dma.c:0:38
	add.w	r8, r2, #3
	lsl.w	r11, r1, r0
.Ltmp137:
	@DEBUG_VALUE: HAL_DMA_PollForTransfer:mask_cpltlevel <- $r11
	.loc	2 658 18 is_stmt 1      @ ../Drivers/STM32F7xx_HAL_Driver/Src/stm32f7xx_hal_dma.c:658:18
	ldr	r1, [r5]
.Ltmp138:
	@DEBUG_VALUE: HAL_DMA_PollForTransfer:tmpisr <- $r1
	.loc	2 0 18 is_stmt 0        @ ../Drivers/STM32F7xx_HAL_Driver/Src/stm32f7xx_hal_dma.c:0:18
	b	.LBB8_13
.Ltmp139:
.LBB8_3:
	@DEBUG_VALUE: HAL_DMA_PollForTransfer:tickstart <- $r9
	@DEBUG_VALUE: HAL_DMA_PollForTransfer:hdma <- $r4
	@DEBUG_VALUE: HAL_DMA_PollForTransfer:Timeout <- $r6
	.loc	2 634 5 is_stmt 1       @ ../Drivers/STM32F7xx_HAL_Driver/Src/stm32f7xx_hal_dma.c:634:5
	movs	r0, #0
	strb.w	r0, [r4, #52]
.Ltmp140:
	.loc	2 633 21                @ ../Drivers/STM32F7xx_HAL_Driver/Src/stm32f7xx_hal_dma.c:633:21
	movs	r0, #128
	b	.LBB8_5
.Ltmp141:
.LBB8_4:
	@DEBUG_VALUE: HAL_DMA_PollForTransfer:tickstart <- $r9
	@DEBUG_VALUE: HAL_DMA_PollForTransfer:hdma <- $r4
	@DEBUG_VALUE: HAL_DMA_PollForTransfer:Timeout <- $r6
	.loc	2 641 21                @ ../Drivers/STM32F7xx_HAL_Driver/Src/stm32f7xx_hal_dma.c:641:21
	mov.w	r0, #256
.Ltmp142:
.LBB8_5:
	@DEBUG_VALUE: HAL_DMA_PollForTransfer:tickstart <- $r9
	@DEBUG_VALUE: HAL_DMA_PollForTransfer:hdma <- $r4
	@DEBUG_VALUE: HAL_DMA_PollForTransfer:Timeout <- $r6
	.loc	2 0 21 is_stmt 0        @ ../Drivers/STM32F7xx_HAL_Driver/Src/stm32f7xx_hal_dma.c:0:21
	str	r0, [r4, #84]
	movs	r0, #1
.Ltmp143:
.LBB8_6:
	@DEBUG_VALUE: HAL_DMA_PollForTransfer:tickstart <- $r9
	@DEBUG_VALUE: HAL_DMA_PollForTransfer:hdma <- $r4
	@DEBUG_VALUE: HAL_DMA_PollForTransfer:Timeout <- $r6
	.loc	2 748 1 is_stmt 1       @ ../Drivers/STM32F7xx_HAL_Driver/Src/stm32f7xx_hal_dma.c:748:1
	uxtb	r0, r0
	add	sp, #4
	pop.w	{r4, r5, r6, r7, r8, r9, r10, r11, pc}
.Ltmp144:
.LBB8_7:                                @   in Loop: Header=BB8_13 Depth=1
	@DEBUG_VALUE: HAL_DMA_PollForTransfer:mask_cpltlevel <- $r11
	@DEBUG_VALUE: HAL_DMA_PollForTransfer:tickstart <- $r9
	@DEBUG_VALUE: HAL_DMA_PollForTransfer:hdma <- $r4
	@DEBUG_VALUE: HAL_DMA_PollForTransfer:Timeout <- $r6
	.loc	2 663 8                 @ ../Drivers/STM32F7xx_HAL_Driver/Src/stm32f7xx_hal_dma.c:663:8
	cmp.w	r10, #0
	beq	.LBB8_11
.Ltmp145:
@ %bb.8:                                @   in Loop: Header=BB8_13 Depth=1
	@DEBUG_VALUE: HAL_DMA_PollForTransfer:mask_cpltlevel <- $r11
	@DEBUG_VALUE: HAL_DMA_PollForTransfer:tickstart <- $r9
	@DEBUG_VALUE: HAL_DMA_PollForTransfer:hdma <- $r4
	@DEBUG_VALUE: HAL_DMA_PollForTransfer:Timeout <- $r6
	cmp	r6, #0
	beq	.LBB8_20
.Ltmp146:
@ %bb.9:                                @   in Loop: Header=BB8_13 Depth=1
	@DEBUG_VALUE: HAL_DMA_PollForTransfer:mask_cpltlevel <- $r11
	@DEBUG_VALUE: HAL_DMA_PollForTransfer:tickstart <- $r9
	@DEBUG_VALUE: HAL_DMA_PollForTransfer:hdma <- $r4
	@DEBUG_VALUE: HAL_DMA_PollForTransfer:Timeout <- $r6
	.loc	2 665 28                @ ../Drivers/STM32F7xx_HAL_Driver/Src/stm32f7xx_hal_dma.c:665:28
	bl	HAL_GetTick
	.loc	2 665 42 is_stmt 0      @ ../Drivers/STM32F7xx_HAL_Driver/Src/stm32f7xx_hal_dma.c:665:42
	sub.w	r0, r0, r9
	movs	r7, #8
.Ltmp147:
	.loc	2 665 10                @ ../Drivers/STM32F7xx_HAL_Driver/Src/stm32f7xx_hal_dma.c:665:10
	cmp	r0, r6
	bhi	.LBB8_20
.Ltmp148:
@ %bb.10:                               @   in Loop: Header=BB8_13 Depth=1
	@DEBUG_VALUE: HAL_DMA_PollForTransfer:mask_cpltlevel <- $r11
	@DEBUG_VALUE: HAL_DMA_PollForTransfer:tickstart <- $r9
	@DEBUG_VALUE: HAL_DMA_PollForTransfer:hdma <- $r4
	@DEBUG_VALUE: HAL_DMA_PollForTransfer:Timeout <- $r6
	.loc	2 683 45 is_stmt 1      @ ../Drivers/STM32F7xx_HAL_Driver/Src/stm32f7xx_hal_dma.c:683:45
	ldr	r0, [r4, #92]
.Ltmp149:
.LBB8_11:                               @   in Loop: Header=BB8_13 Depth=1
	@DEBUG_VALUE: HAL_DMA_PollForTransfer:mask_cpltlevel <- $r11
	@DEBUG_VALUE: HAL_DMA_PollForTransfer:tickstart <- $r9
	@DEBUG_VALUE: HAL_DMA_PollForTransfer:hdma <- $r4
	@DEBUG_VALUE: HAL_DMA_PollForTransfer:Timeout <- $r6
	.loc	2 681 20                @ ../Drivers/STM32F7xx_HAL_Driver/Src/stm32f7xx_hal_dma.c:681:20
	ldr	r1, [r5]
.Ltmp150:
	@DEBUG_VALUE: HAL_DMA_PollForTransfer:tmpisr <- $r1
	.loc	2 683 36                @ ../Drivers/STM32F7xx_HAL_Driver/Src/stm32f7xx_hal_dma.c:683:36
	lsl.w	r2, r7, r0
.Ltmp151:
	.loc	2 683 8 is_stmt 0       @ ../Drivers/STM32F7xx_HAL_Driver/Src/stm32f7xx_hal_dma.c:683:8
	tst	r2, r1
.Ltmp152:
	.loc	2 686 23 is_stmt 1      @ ../Drivers/STM32F7xx_HAL_Driver/Src/stm32f7xx_hal_dma.c:686:23
	itttt	ne
	ldrne	r3, [r4, #84]
	orrne	r3, r3, #1
	strne	r3, [r4, #84]
	.loc	2 689 18                @ ../Drivers/STM32F7xx_HAL_Driver/Src/stm32f7xx_hal_dma.c:689:18
	strne	r2, [r5, #8]
.Ltmp153:
	.loc	2 692 36                @ ../Drivers/STM32F7xx_HAL_Driver/Src/stm32f7xx_hal_dma.c:692:36
	ldr	r2, __arm_cp.8_0
	lsls	r2, r0
.Ltmp154:
	.loc	2 692 8 is_stmt 0       @ ../Drivers/STM32F7xx_HAL_Driver/Src/stm32f7xx_hal_dma.c:692:8
	tst	r2, r1
.Ltmp155:
	.loc	2 695 23 is_stmt 1      @ ../Drivers/STM32F7xx_HAL_Driver/Src/stm32f7xx_hal_dma.c:695:23
	itttt	ne
	ldrne	r3, [r4, #84]
	orrne	r3, r3, #2
	strne	r3, [r4, #84]
	.loc	2 698 18                @ ../Drivers/STM32F7xx_HAL_Driver/Src/stm32f7xx_hal_dma.c:698:18
	strne	r2, [r5, #8]
.Ltmp156:
	.loc	2 701 37                @ ../Drivers/STM32F7xx_HAL_Driver/Src/stm32f7xx_hal_dma.c:701:37
	lsl.w	r2, r8, r0
.Ltmp157:
	.loc	2 701 8 is_stmt 0       @ ../Drivers/STM32F7xx_HAL_Driver/Src/stm32f7xx_hal_dma.c:701:8
	tst	r2, r1
	beq	.LBB8_13
.Ltmp158:
@ %bb.12:                               @   in Loop: Header=BB8_13 Depth=1
	@DEBUG_VALUE: HAL_DMA_PollForTransfer:tmpisr <- $r1
	@DEBUG_VALUE: HAL_DMA_PollForTransfer:mask_cpltlevel <- $r11
	@DEBUG_VALUE: HAL_DMA_PollForTransfer:tickstart <- $r9
	@DEBUG_VALUE: HAL_DMA_PollForTransfer:hdma <- $r4
	@DEBUG_VALUE: HAL_DMA_PollForTransfer:Timeout <- $r6
	.loc	2 704 23 is_stmt 1      @ ../Drivers/STM32F7xx_HAL_Driver/Src/stm32f7xx_hal_dma.c:704:23
	ldr	r3, [r4, #84]
	orr	r3, r3, #4
	str	r3, [r4, #84]
	.loc	2 707 18                @ ../Drivers/STM32F7xx_HAL_Driver/Src/stm32f7xx_hal_dma.c:707:18
	str	r2, [r5, #8]
.Ltmp159:
.LBB8_13:                               @ =>This Inner Loop Header: Depth=1
	@DEBUG_VALUE: HAL_DMA_PollForTransfer:tmpisr <- $r1
	@DEBUG_VALUE: HAL_DMA_PollForTransfer:mask_cpltlevel <- $r11
	@DEBUG_VALUE: HAL_DMA_PollForTransfer:tickstart <- $r9
	@DEBUG_VALUE: HAL_DMA_PollForTransfer:hdma <- $r4
	@DEBUG_VALUE: HAL_DMA_PollForTransfer:Timeout <- $r6
	@DEBUG_VALUE: HAL_DMA_PollForTransfer:tmpisr <- $r1
	.loc	2 660 46                @ ../Drivers/STM32F7xx_HAL_Driver/Src/stm32f7xx_hal_dma.c:660:46
	tst.w	r1, r11
	.loc	2 660 57 is_stmt 0      @ ../Drivers/STM32F7xx_HAL_Driver/Src/stm32f7xx_hal_dma.c:660:57
	itt	eq
	ldreq	r1, [r4, #84]
.Ltmp160:
	.loc	2 660 3                 @ ../Drivers/STM32F7xx_HAL_Driver/Src/stm32f7xx_hal_dma.c:660:3
	tsteq.w	r1, #1
	beq	.LBB8_7
.Ltmp161:
@ %bb.14:
	@DEBUG_VALUE: HAL_DMA_PollForTransfer:mask_cpltlevel <- $r11
	@DEBUG_VALUE: HAL_DMA_PollForTransfer:tickstart <- $r9
	@DEBUG_VALUE: HAL_DMA_PollForTransfer:hdma <- $r4
	@DEBUG_VALUE: HAL_DMA_PollForTransfer:Timeout <- $r6
	.loc	2 711 12 is_stmt 1      @ ../Drivers/STM32F7xx_HAL_Driver/Src/stm32f7xx_hal_dma.c:711:12
	ldr	r1, [r4, #84]
.Ltmp162:
	.loc	2 711 6 is_stmt 0       @ ../Drivers/STM32F7xx_HAL_Driver/Src/stm32f7xx_hal_dma.c:711:6
	cbz	r1, .LBB8_16
.Ltmp163:
@ %bb.15:
	@DEBUG_VALUE: HAL_DMA_PollForTransfer:mask_cpltlevel <- $r11
	@DEBUG_VALUE: HAL_DMA_PollForTransfer:tickstart <- $r9
	@DEBUG_VALUE: HAL_DMA_PollForTransfer:hdma <- $r4
	@DEBUG_VALUE: HAL_DMA_PollForTransfer:Timeout <- $r6
	.loc	2 713 15 is_stmt 1      @ ../Drivers/STM32F7xx_HAL_Driver/Src/stm32f7xx_hal_dma.c:713:15
	ldr	r1, [r4, #84]
.Ltmp164:
	.loc	2 713 8 is_stmt 0       @ ../Drivers/STM32F7xx_HAL_Driver/Src/stm32f7xx_hal_dma.c:713:8
	tst.w	r1, #1
	bne	.LBB8_18
.Ltmp165:
.LBB8_16:
	@DEBUG_VALUE: HAL_DMA_PollForTransfer:mask_cpltlevel <- $r11
	@DEBUG_VALUE: HAL_DMA_PollForTransfer:tickstart <- $r9
	@DEBUG_VALUE: HAL_DMA_PollForTransfer:hdma <- $r4
	@DEBUG_VALUE: HAL_DMA_PollForTransfer:Timeout <- $r6
	.loc	2 731 6 is_stmt 1       @ ../Drivers/STM32F7xx_HAL_Driver/Src/stm32f7xx_hal_dma.c:731:6
	ldr	r1, [sp]                @ 4-byte Reload
	cbz	r1, .LBB8_19
.Ltmp166:
@ %bb.17:
	@DEBUG_VALUE: HAL_DMA_PollForTransfer:mask_cpltlevel <- $r11
	@DEBUG_VALUE: HAL_DMA_PollForTransfer:tickstart <- $r9
	@DEBUG_VALUE: HAL_DMA_PollForTransfer:hdma <- $r4
	@DEBUG_VALUE: HAL_DMA_PollForTransfer:Timeout <- $r6
	.loc	2 744 37                @ ../Drivers/STM32F7xx_HAL_Driver/Src/stm32f7xx_hal_dma.c:744:37
	movs	r1, #16
	lsl.w	r0, r1, r0
	.loc	2 744 16 is_stmt 0      @ ../Drivers/STM32F7xx_HAL_Driver/Src/stm32f7xx_hal_dma.c:744:16
	str	r0, [r5, #8]
	movs	r0, #0
	b	.LBB8_6
.Ltmp167:
.LBB8_18:
	@DEBUG_VALUE: HAL_DMA_PollForTransfer:mask_cpltlevel <- $r11
	@DEBUG_VALUE: HAL_DMA_PollForTransfer:tickstart <- $r9
	@DEBUG_VALUE: HAL_DMA_PollForTransfer:hdma <- $r4
	@DEBUG_VALUE: HAL_DMA_PollForTransfer:Timeout <- $r6
	.loc	2 715 7 is_stmt 1       @ ../Drivers/STM32F7xx_HAL_Driver/Src/stm32f7xx_hal_dma.c:715:7
	mov	r0, r4
	bl	HAL_DMA_Abort
	.loc	2 718 67                @ ../Drivers/STM32F7xx_HAL_Driver/Src/stm32f7xx_hal_dma.c:718:67
	ldr	r0, [r4, #92]
	.loc	2 718 58 is_stmt 0      @ ../Drivers/STM32F7xx_HAL_Driver/Src/stm32f7xx_hal_dma.c:718:58
	movs	r1, #48
	lsl.w	r0, r1, r0
.Ltmp168:
	.loc	2 721 7 is_stmt 1       @ ../Drivers/STM32F7xx_HAL_Driver/Src/stm32f7xx_hal_dma.c:721:7
	movs	r1, #0
.Ltmp169:
	.loc	2 718 18                @ ../Drivers/STM32F7xx_HAL_Driver/Src/stm32f7xx_hal_dma.c:718:18
	str	r0, [r5, #8]
	movs	r0, #1
	.loc	2 724 18                @ ../Drivers/STM32F7xx_HAL_Driver/Src/stm32f7xx_hal_dma.c:724:18
	strb.w	r0, [r4, #53]
.Ltmp170:
	.loc	2 721 7                 @ ../Drivers/STM32F7xx_HAL_Driver/Src/stm32f7xx_hal_dma.c:721:7
	strb.w	r1, [r4, #52]
	b	.LBB8_6
.Ltmp171:
.LBB8_19:
	@DEBUG_VALUE: HAL_DMA_PollForTransfer:mask_cpltlevel <- $r11
	@DEBUG_VALUE: HAL_DMA_PollForTransfer:tickstart <- $r9
	@DEBUG_VALUE: HAL_DMA_PollForTransfer:hdma <- $r4
	@DEBUG_VALUE: HAL_DMA_PollForTransfer:Timeout <- $r6
	.loc	2 734 56                @ ../Drivers/STM32F7xx_HAL_Driver/Src/stm32f7xx_hal_dma.c:734:56
	movs	r1, #48
	lsl.w	r0, r1, r0
	.loc	2 734 16 is_stmt 0      @ ../Drivers/STM32F7xx_HAL_Driver/Src/stm32f7xx_hal_dma.c:734:16
	str	r0, [r5, #8]
	.loc	2 739 17 is_stmt 1      @ ../Drivers/STM32F7xx_HAL_Driver/Src/stm32f7xx_hal_dma.c:739:17
	movs	r0, #1
	strb.w	r0, [r4, #53]
	movs	r0, #0
.Ltmp172:
	.loc	2 737 5                 @ ../Drivers/STM32F7xx_HAL_Driver/Src/stm32f7xx_hal_dma.c:737:5
	strb.w	r0, [r4, #52]
	b	.LBB8_6
.Ltmp173:
.LBB8_20:
	@DEBUG_VALUE: HAL_DMA_PollForTransfer:mask_cpltlevel <- $r11
	@DEBUG_VALUE: HAL_DMA_PollForTransfer:tickstart <- $r9
	@DEBUG_VALUE: HAL_DMA_PollForTransfer:hdma <- $r4
	@DEBUG_VALUE: HAL_DMA_PollForTransfer:Timeout <- $r6
	.loc	2 668 25                @ ../Drivers/STM32F7xx_HAL_Driver/Src/stm32f7xx_hal_dma.c:668:25
	movs	r0, #32
	str	r0, [r4, #84]
.Ltmp174:
	.loc	2 671 9                 @ ../Drivers/STM32F7xx_HAL_Driver/Src/stm32f7xx_hal_dma.c:671:9
	movs	r0, #0
	strb.w	r0, [r4, #52]
.Ltmp175:
	.loc	2 674 21                @ ../Drivers/STM32F7xx_HAL_Driver/Src/stm32f7xx_hal_dma.c:674:21
	movs	r0, #1
	strb.w	r0, [r4, #53]
	movs	r0, #3
	b	.LBB8_6
.Ltmp176:
	.p2align	2
@ %bb.21:
	.loc	2 0 21 is_stmt 0        @ ../Drivers/STM32F7xx_HAL_Driver/Src/stm32f7xx_hal_dma.c:0:21
__arm_cp.8_0:
	.long	8388609                 @ 0x800001
.Lcpi_end1:
	.size	__arm_cp.8_0, .Lcpi_end1-__arm_cp.8_0
.Lfunc_end8:
	.size	HAL_DMA_PollForTransfer, .Lfunc_end8-HAL_DMA_PollForTransfer
	.cfi_endproc
	.cantunwind
	.fnend
                                        @ -- End function
	.section	.text.HAL_DMA_IRQHandler,"ax",%progbits
	.hidden	HAL_DMA_IRQHandler      @ -- Begin function HAL_DMA_IRQHandler
	.globl	HAL_DMA_IRQHandler
	.p2align	2
	.type	HAL_DMA_IRQHandler,%function
	.code	16                      @ @HAL_DMA_IRQHandler
	.thumb_func
HAL_DMA_IRQHandler:
.Lfunc_begin9:
	.loc	2 757 0 is_stmt 1       @ ../Drivers/STM32F7xx_HAL_Driver/Src/stm32f7xx_hal_dma.c:757:0
	.fnstart
	.cfi_startproc
@ %bb.0:
	.save	{r4, r5, r6, r7, lr}
	.pad	#4
	push	{r3, r4, r5, r6, r7, lr}
	.cfi_def_cfa_offset 24
	.cfi_offset lr, -4
	.cfi_offset r7, -8
	.cfi_offset r6, -12
	.cfi_offset r5, -16
	.cfi_offset r4, -20
	@DEBUG_VALUE: HAL_DMA_IRQHandler:hdma <- $r0
	mov	r4, r0
	movs	r0, #0
.Ltmp177:
	@DEBUG_VALUE: HAL_DMA_IRQHandler:count <- 0
	@DEBUG_VALUE: HAL_DMA_IRQHandler:hdma <- $r4
	.loc	2 768 35 prologue_end   @ ../Drivers/STM32F7xx_HAL_Driver/Src/stm32f7xx_hal_dma.c:768:35
	movs	r1, #8
.Ltmp178:
	.loc	2 759 17                @ ../Drivers/STM32F7xx_HAL_Driver/Src/stm32f7xx_hal_dma.c:759:17
	str	r0, [sp]
	.loc	2 760 22                @ ../Drivers/STM32F7xx_HAL_Driver/Src/stm32f7xx_hal_dma.c:760:22
	ldr	r0, __arm_cp.9_0
	ldr	r5, [r0]
.Ltmp179:
	@DEBUG_VALUE: HAL_DMA_IRQHandler:regs <- $r6
	@DEBUG_VALUE: HAL_DMA_IRQHandler:regs <- $r6
	.loc	2 763 58                @ ../Drivers/STM32F7xx_HAL_Driver/Src/stm32f7xx_hal_dma.c:763:58
	ldrd	r6, r0, [r4, #88]
.Ltmp180:
	.loc	2 765 18                @ ../Drivers/STM32F7xx_HAL_Driver/Src/stm32f7xx_hal_dma.c:765:18
	ldr	r7, [r6]
.Ltmp181:
	@DEBUG_VALUE: HAL_DMA_IRQHandler:tmpisr <- $r7
	.loc	2 768 35                @ ../Drivers/STM32F7xx_HAL_Driver/Src/stm32f7xx_hal_dma.c:768:35
	lsls	r1, r0
.Ltmp182:
	.loc	2 768 7 is_stmt 0       @ ../Drivers/STM32F7xx_HAL_Driver/Src/stm32f7xx_hal_dma.c:768:7
	tst	r1, r7
	beq	.LBB9_3
.Ltmp183:
@ %bb.1:
	@DEBUG_VALUE: HAL_DMA_IRQHandler:tmpisr <- $r7
	@DEBUG_VALUE: HAL_DMA_IRQHandler:hdma <- $r4
	.loc	2 770 8 is_stmt 1       @ ../Drivers/STM32F7xx_HAL_Driver/Src/stm32f7xx_hal_dma.c:770:8
	ldr	r2, [r4]
	ldr	r3, [r2]
.Ltmp184:
	.loc	2 770 8 is_stmt 0       @ ../Drivers/STM32F7xx_HAL_Driver/Src/stm32f7xx_hal_dma.c:770:8
	tst.w	r3, #4
	beq	.LBB9_3
.Ltmp185:
@ %bb.2:
	@DEBUG_VALUE: HAL_DMA_IRQHandler:tmpisr <- $r7
	@DEBUG_VALUE: HAL_DMA_IRQHandler:hdma <- $r4
	.loc	2 773 27 is_stmt 1      @ ../Drivers/STM32F7xx_HAL_Driver/Src/stm32f7xx_hal_dma.c:773:27
	ldr	r3, [r2]
	bic	r3, r3, #4
	str	r3, [r2]
	.loc	2 776 18                @ ../Drivers/STM32F7xx_HAL_Driver/Src/stm32f7xx_hal_dma.c:776:18
	str	r1, [r6, #8]
	.loc	2 779 23                @ ../Drivers/STM32F7xx_HAL_Driver/Src/stm32f7xx_hal_dma.c:779:23
	ldr	r1, [r4, #84]
	orr	r1, r1, #1
	str	r1, [r4, #84]
.Ltmp186:
.LBB9_3:
	@DEBUG_VALUE: HAL_DMA_IRQHandler:tmpisr <- $r7
	@DEBUG_VALUE: HAL_DMA_IRQHandler:hdma <- $r4
	.loc	2 0 23 is_stmt 0        @ ../Drivers/STM32F7xx_HAL_Driver/Src/stm32f7xx_hal_dma.c:0:23
	ldr	r1, __arm_cp.9_1
.Ltmp187:
	.loc	2 783 35 is_stmt 1      @ ../Drivers/STM32F7xx_HAL_Driver/Src/stm32f7xx_hal_dma.c:783:35
	lsl.w	r2, r1, r0
.Ltmp188:
	.loc	2 783 7 is_stmt 0       @ ../Drivers/STM32F7xx_HAL_Driver/Src/stm32f7xx_hal_dma.c:783:7
	tst	r2, r7
	beq	.LBB9_5
.Ltmp189:
@ %bb.4:
	@DEBUG_VALUE: HAL_DMA_IRQHandler:tmpisr <- $r7
	@DEBUG_VALUE: HAL_DMA_IRQHandler:hdma <- $r4
	.loc	2 785 8 is_stmt 1       @ ../Drivers/STM32F7xx_HAL_Driver/Src/stm32f7xx_hal_dma.c:785:8
	ldr	r3, [r4]
	ldr	r3, [r3, #20]
.Ltmp190:
	.loc	2 785 8 is_stmt 0       @ ../Drivers/STM32F7xx_HAL_Driver/Src/stm32f7xx_hal_dma.c:785:8
	tst.w	r3, #128
.Ltmp191:
	.loc	2 788 18 is_stmt 1      @ ../Drivers/STM32F7xx_HAL_Driver/Src/stm32f7xx_hal_dma.c:788:18
	itttt	ne
	strne	r2, [r6, #8]
	.loc	2 791 23                @ ../Drivers/STM32F7xx_HAL_Driver/Src/stm32f7xx_hal_dma.c:791:23
	ldrne	r2, [r4, #84]
	orrne	r2, r2, #2
	strne	r2, [r4, #84]
.Ltmp192:
.LBB9_5:
	@DEBUG_VALUE: HAL_DMA_IRQHandler:tmpisr <- $r7
	@DEBUG_VALUE: HAL_DMA_IRQHandler:hdma <- $r4
	.loc	2 795 36                @ ../Drivers/STM32F7xx_HAL_Driver/Src/stm32f7xx_hal_dma.c:795:36
	adds	r1, #3
	lsls	r1, r0
.Ltmp193:
	.loc	2 795 7 is_stmt 0       @ ../Drivers/STM32F7xx_HAL_Driver/Src/stm32f7xx_hal_dma.c:795:7
	tst	r1, r7
	beq	.LBB9_7
.Ltmp194:
@ %bb.6:
	@DEBUG_VALUE: HAL_DMA_IRQHandler:tmpisr <- $r7
	@DEBUG_VALUE: HAL_DMA_IRQHandler:hdma <- $r4
	.loc	2 797 8 is_stmt 1       @ ../Drivers/STM32F7xx_HAL_Driver/Src/stm32f7xx_hal_dma.c:797:8
	ldr	r2, [r4]
	ldr	r2, [r2]
.Ltmp195:
	.loc	2 797 8 is_stmt 0       @ ../Drivers/STM32F7xx_HAL_Driver/Src/stm32f7xx_hal_dma.c:797:8
	tst.w	r2, #2
.Ltmp196:
	.loc	2 800 18 is_stmt 1      @ ../Drivers/STM32F7xx_HAL_Driver/Src/stm32f7xx_hal_dma.c:800:18
	itttt	ne
	strne	r1, [r6, #8]
	.loc	2 803 23                @ ../Drivers/STM32F7xx_HAL_Driver/Src/stm32f7xx_hal_dma.c:803:23
	ldrne	r1, [r4, #84]
	orrne	r1, r1, #4
	strne	r1, [r4, #84]
.Ltmp197:
.LBB9_7:
	@DEBUG_VALUE: HAL_DMA_IRQHandler:tmpisr <- $r7
	@DEBUG_VALUE: HAL_DMA_IRQHandler:hdma <- $r4
	.loc	2 807 35                @ ../Drivers/STM32F7xx_HAL_Driver/Src/stm32f7xx_hal_dma.c:807:35
	movs	r1, #16
	lsls	r1, r0
.Ltmp198:
	.loc	2 807 7 is_stmt 0       @ ../Drivers/STM32F7xx_HAL_Driver/Src/stm32f7xx_hal_dma.c:807:7
	tst	r1, r7
	beq	.LBB9_16
.Ltmp199:
@ %bb.8:
	@DEBUG_VALUE: HAL_DMA_IRQHandler:tmpisr <- $r7
	@DEBUG_VALUE: HAL_DMA_IRQHandler:hdma <- $r4
	.loc	2 809 8 is_stmt 1       @ ../Drivers/STM32F7xx_HAL_Driver/Src/stm32f7xx_hal_dma.c:809:8
	ldr	r0, [r4]
	ldr	r2, [r0]
.Ltmp200:
	.loc	2 809 8 is_stmt 0       @ ../Drivers/STM32F7xx_HAL_Driver/Src/stm32f7xx_hal_dma.c:809:8
	tst.w	r2, #8
	beq	.LBB9_16
.Ltmp201:
@ %bb.9:
	@DEBUG_VALUE: HAL_DMA_IRQHandler:tmpisr <- $r7
	@DEBUG_VALUE: HAL_DMA_IRQHandler:hdma <- $r4
	.loc	2 812 18 is_stmt 1      @ ../Drivers/STM32F7xx_HAL_Driver/Src/stm32f7xx_hal_dma.c:812:18
	str	r1, [r6, #8]
.Ltmp202:
	.loc	2 815 28                @ ../Drivers/STM32F7xx_HAL_Driver/Src/stm32f7xx_hal_dma.c:815:28
	ldr	r2, [r0]
	ldr	r1, [r0]
.Ltmp203:
	.loc	2 815 10 is_stmt 0      @ ../Drivers/STM32F7xx_HAL_Driver/Src/stm32f7xx_hal_dma.c:815:10
	tst.w	r2, #262144
	bne	.LBB9_11
.Ltmp204:
@ %bb.10:
	@DEBUG_VALUE: HAL_DMA_IRQHandler:tmpisr <- $r7
	@DEBUG_VALUE: HAL_DMA_IRQHandler:hdma <- $r4
	.loc	2 839 12 is_stmt 1      @ ../Drivers/STM32F7xx_HAL_Driver/Src/stm32f7xx_hal_dma.c:839:12
	lsls	r1, r1, #23
.Ltmp205:
	.loc	2 842 31                @ ../Drivers/STM32F7xx_HAL_Driver/Src/stm32f7xx_hal_dma.c:842:31
	ittt	pl
	ldrpl	r1, [r0]
	bicpl	r1, r1, #8
	strpl	r1, [r0]
	b	.LBB9_12
.Ltmp206:
.LBB9_11:
	@DEBUG_VALUE: HAL_DMA_IRQHandler:tmpisr <- $r7
	@DEBUG_VALUE: HAL_DMA_IRQHandler:hdma <- $r4
	.loc	2 818 12                @ ../Drivers/STM32F7xx_HAL_Driver/Src/stm32f7xx_hal_dma.c:818:12
	lsls	r0, r1, #12
	bmi	.LBB9_13
.Ltmp207:
.LBB9_12:
	@DEBUG_VALUE: HAL_DMA_IRQHandler:tmpisr <- $r7
	@DEBUG_VALUE: HAL_DMA_IRQHandler:hdma <- $r4
	.loc	2 0 12 is_stmt 0        @ ../Drivers/STM32F7xx_HAL_Driver/Src/stm32f7xx_hal_dma.c:0:12
	ldr	r1, [r4, #64]
	b	.LBB9_14
.Ltmp208:
.LBB9_13:
	@DEBUG_VALUE: HAL_DMA_IRQHandler:tmpisr <- $r7
	@DEBUG_VALUE: HAL_DMA_IRQHandler:hdma <- $r4
	.loc	2 829 20 is_stmt 1      @ ../Drivers/STM32F7xx_HAL_Driver/Src/stm32f7xx_hal_dma.c:829:20
	ldr	r1, [r4, #72]
.Ltmp209:
.LBB9_14:
	@DEBUG_VALUE: HAL_DMA_IRQHandler:tmpisr <- $r7
	@DEBUG_VALUE: HAL_DMA_IRQHandler:hdma <- $r4
	.loc	2 0 20 is_stmt 0        @ ../Drivers/STM32F7xx_HAL_Driver/Src/stm32f7xx_hal_dma.c:0:20
	cbz	r1, .LBB9_16
.Ltmp210:
@ %bb.15:
	@DEBUG_VALUE: HAL_DMA_IRQHandler:tmpisr <- $r7
	@DEBUG_VALUE: HAL_DMA_IRQHandler:hdma <- $r4
	mov	r0, r4
	blx	r1
.Ltmp211:
.LBB9_16:
	@DEBUG_VALUE: HAL_DMA_IRQHandler:tmpisr <- $r7
	@DEBUG_VALUE: HAL_DMA_IRQHandler:hdma <- $r4
	.loc	2 854 44 is_stmt 1      @ ../Drivers/STM32F7xx_HAL_Driver/Src/stm32f7xx_hal_dma.c:854:44
	ldr	r1, [r4, #92]
	.loc	2 854 35 is_stmt 0      @ ../Drivers/STM32F7xx_HAL_Driver/Src/stm32f7xx_hal_dma.c:854:35
	movs	r0, #32
	lsl.w	r2, r0, r1
.Ltmp212:
	.loc	2 854 7                 @ ../Drivers/STM32F7xx_HAL_Driver/Src/stm32f7xx_hal_dma.c:854:7
	tst	r2, r7
	beq	.LBB9_31
.Ltmp213:
@ %bb.17:
	@DEBUG_VALUE: HAL_DMA_IRQHandler:tmpisr <- $r7
	@DEBUG_VALUE: HAL_DMA_IRQHandler:hdma <- $r4
	.loc	2 856 8 is_stmt 1       @ ../Drivers/STM32F7xx_HAL_Driver/Src/stm32f7xx_hal_dma.c:856:8
	ldr	r0, [r4]
	ldr	r3, [r0]
.Ltmp214:
	.loc	2 856 8 is_stmt 0       @ ../Drivers/STM32F7xx_HAL_Driver/Src/stm32f7xx_hal_dma.c:856:8
	tst.w	r3, #16
	beq	.LBB9_31
.Ltmp215:
@ %bb.18:
	@DEBUG_VALUE: HAL_DMA_IRQHandler:tmpisr <- $r7
	@DEBUG_VALUE: HAL_DMA_IRQHandler:hdma <- $r4
	.loc	2 859 18 is_stmt 1      @ ../Drivers/STM32F7xx_HAL_Driver/Src/stm32f7xx_hal_dma.c:859:18
	str	r2, [r6, #8]
.Ltmp216:
	.loc	2 861 39                @ ../Drivers/STM32F7xx_HAL_Driver/Src/stm32f7xx_hal_dma.c:861:39
	ldrb.w	r3, [r4, #53]
	ldr	r2, [r0]
.Ltmp217:
	.loc	2 861 10 is_stmt 0      @ ../Drivers/STM32F7xx_HAL_Driver/Src/stm32f7xx_hal_dma.c:861:10
	cmp	r3, #5
	bne	.LBB9_23
.Ltmp218:
@ %bb.19:
	@DEBUG_VALUE: HAL_DMA_IRQHandler:tmpisr <- $r7
	@DEBUG_VALUE: HAL_DMA_IRQHandler:hdma <- $r4
	.loc	2 864 29 is_stmt 1      @ ../Drivers/STM32F7xx_HAL_Driver/Src/stm32f7xx_hal_dma.c:864:29
	bic	r2, r2, #22
	str	r2, [r0]
	.loc	2 865 29                @ ../Drivers/STM32F7xx_HAL_Driver/Src/stm32f7xx_hal_dma.c:865:29
	ldr	r2, [r0, #20]
	bic	r2, r2, #128
	str	r2, [r0, #20]
.Ltmp219:
	.loc	2 867 19                @ ../Drivers/STM32F7xx_HAL_Driver/Src/stm32f7xx_hal_dma.c:867:19
	ldr	r2, [r4, #64]
	.loc	2 867 49 is_stmt 0      @ ../Drivers/STM32F7xx_HAL_Driver/Src/stm32f7xx_hal_dma.c:867:49
	cbnz	r2, .LBB9_21
.Ltmp220:
@ %bb.20:
	@DEBUG_VALUE: HAL_DMA_IRQHandler:tmpisr <- $r7
	@DEBUG_VALUE: HAL_DMA_IRQHandler:hdma <- $r4
	.loc	2 867 59                @ ../Drivers/STM32F7xx_HAL_Driver/Src/stm32f7xx_hal_dma.c:867:59
	ldr	r2, [r4, #72]
.Ltmp221:
	.loc	2 867 12                @ ../Drivers/STM32F7xx_HAL_Driver/Src/stm32f7xx_hal_dma.c:867:12
	cbz	r2, .LBB9_22
.Ltmp222:
.LBB9_21:
	@DEBUG_VALUE: HAL_DMA_IRQHandler:tmpisr <- $r7
	@DEBUG_VALUE: HAL_DMA_IRQHandler:hdma <- $r4
	.loc	2 869 31 is_stmt 1      @ ../Drivers/STM32F7xx_HAL_Driver/Src/stm32f7xx_hal_dma.c:869:31
	ldr	r2, [r0]
	bic	r2, r2, #8
	str	r2, [r0]
.Ltmp223:
.LBB9_22:
	@DEBUG_VALUE: HAL_DMA_IRQHandler:tmpisr <- $r7
	@DEBUG_VALUE: HAL_DMA_IRQHandler:hdma <- $r4
	.loc	2 873 28                @ ../Drivers/STM32F7xx_HAL_Driver/Src/stm32f7xx_hal_dma.c:873:28
	movs	r0, #63
	lsls	r0, r1
	.loc	2 873 20 is_stmt 0      @ ../Drivers/STM32F7xx_HAL_Driver/Src/stm32f7xx_hal_dma.c:873:20
	str	r0, [r6, #8]
	.loc	2 879 21 is_stmt 1      @ ../Drivers/STM32F7xx_HAL_Driver/Src/stm32f7xx_hal_dma.c:879:21
	movs	r0, #1
	strb.w	r0, [r4, #53]
	movs	r0, #0
.Ltmp224:
	.loc	2 876 9                 @ ../Drivers/STM32F7xx_HAL_Driver/Src/stm32f7xx_hal_dma.c:876:9
	strb.w	r0, [r4, #52]
.Ltmp225:
	.loc	2 881 18                @ ../Drivers/STM32F7xx_HAL_Driver/Src/stm32f7xx_hal_dma.c:881:18
	ldr	r1, [r4, #80]
	b	.LBB9_38
.Ltmp226:
.LBB9_23:
	@DEBUG_VALUE: HAL_DMA_IRQHandler:tmpisr <- $r7
	@DEBUG_VALUE: HAL_DMA_IRQHandler:hdma <- $r4
	.loc	2 0 18 is_stmt 0        @ ../Drivers/STM32F7xx_HAL_Driver/Src/stm32f7xx_hal_dma.c:0:18
	ldr	r1, [r0]
	.loc	2 888 10 is_stmt 1      @ ../Drivers/STM32F7xx_HAL_Driver/Src/stm32f7xx_hal_dma.c:888:10
	lsls	r2, r2, #13
	bmi	.LBB9_26
.Ltmp227:
@ %bb.24:
	@DEBUG_VALUE: HAL_DMA_IRQHandler:tmpisr <- $r7
	@DEBUG_VALUE: HAL_DMA_IRQHandler:hdma <- $r4
	.loc	2 912 12                @ ../Drivers/STM32F7xx_HAL_Driver/Src/stm32f7xx_hal_dma.c:912:12
	lsls	r1, r1, #23
	bmi	.LBB9_28
.Ltmp228:
@ %bb.25:
	@DEBUG_VALUE: HAL_DMA_IRQHandler:tmpisr <- $r7
	@DEBUG_VALUE: HAL_DMA_IRQHandler:hdma <- $r4
	.loc	2 915 31                @ ../Drivers/STM32F7xx_HAL_Driver/Src/stm32f7xx_hal_dma.c:915:31
	ldr	r1, [r0]
	bic	r1, r1, #16
	str	r1, [r0]
	.loc	2 921 23                @ ../Drivers/STM32F7xx_HAL_Driver/Src/stm32f7xx_hal_dma.c:921:23
	movs	r0, #1
	strb.w	r0, [r4, #53]
.Ltmp229:
	.loc	2 918 11                @ ../Drivers/STM32F7xx_HAL_Driver/Src/stm32f7xx_hal_dma.c:918:11
	movs	r0, #0
	strb.w	r0, [r4, #52]
	b	.LBB9_28
.Ltmp230:
.LBB9_26:
	@DEBUG_VALUE: HAL_DMA_IRQHandler:tmpisr <- $r7
	@DEBUG_VALUE: HAL_DMA_IRQHandler:hdma <- $r4
	.loc	2 891 12                @ ../Drivers/STM32F7xx_HAL_Driver/Src/stm32f7xx_hal_dma.c:891:12
	lsls	r0, r1, #12
	bmi	.LBB9_28
.Ltmp231:
@ %bb.27:
	@DEBUG_VALUE: HAL_DMA_IRQHandler:tmpisr <- $r7
	@DEBUG_VALUE: HAL_DMA_IRQHandler:hdma <- $r4
	.loc	2 893 20                @ ../Drivers/STM32F7xx_HAL_Driver/Src/stm32f7xx_hal_dma.c:893:20
	ldr	r1, [r4, #68]
	b	.LBB9_29
.Ltmp232:
.LBB9_28:
	@DEBUG_VALUE: HAL_DMA_IRQHandler:tmpisr <- $r7
	@DEBUG_VALUE: HAL_DMA_IRQHandler:hdma <- $r4
	.loc	2 0 20 is_stmt 0        @ ../Drivers/STM32F7xx_HAL_Driver/Src/stm32f7xx_hal_dma.c:0:20
	ldr	r1, [r4, #60]
.Ltmp233:
.LBB9_29:
	@DEBUG_VALUE: HAL_DMA_IRQHandler:tmpisr <- $r7
	@DEBUG_VALUE: HAL_DMA_IRQHandler:hdma <- $r4
	cbz	r1, .LBB9_31
.Ltmp234:
@ %bb.30:
	@DEBUG_VALUE: HAL_DMA_IRQHandler:tmpisr <- $r7
	@DEBUG_VALUE: HAL_DMA_IRQHandler:hdma <- $r4
	mov	r0, r4
	blx	r1
.Ltmp235:
.LBB9_31:
	@DEBUG_VALUE: HAL_DMA_IRQHandler:tmpisr <- $r7
	@DEBUG_VALUE: HAL_DMA_IRQHandler:hdma <- $r4
	.loc	2 934 12 is_stmt 1      @ ../Drivers/STM32F7xx_HAL_Driver/Src/stm32f7xx_hal_dma.c:934:12
	ldr	r0, [r4, #84]
.Ltmp236:
	.loc	2 934 6 is_stmt 0       @ ../Drivers/STM32F7xx_HAL_Driver/Src/stm32f7xx_hal_dma.c:934:6
	cbz	r0, .LBB9_40
.Ltmp237:
@ %bb.32:
	@DEBUG_VALUE: HAL_DMA_IRQHandler:tmpisr <- $r7
	@DEBUG_VALUE: HAL_DMA_IRQHandler:hdma <- $r4
	.loc	2 936 15 is_stmt 1      @ ../Drivers/STM32F7xx_HAL_Driver/Src/stm32f7xx_hal_dma.c:936:15
	ldr	r0, [r4, #84]
.Ltmp238:
	.loc	2 936 8 is_stmt 0       @ ../Drivers/STM32F7xx_HAL_Driver/Src/stm32f7xx_hal_dma.c:936:8
	tst.w	r0, #1
	beq	.LBB9_37
.Ltmp239:
@ %bb.33:
	@DEBUG_VALUE: HAL_DMA_IRQHandler:tmpisr <- $r7
	@DEBUG_VALUE: HAL_DMA_IRQHandler:hdma <- $r4
	.loc	2 938 19 is_stmt 1      @ ../Drivers/STM32F7xx_HAL_Driver/Src/stm32f7xx_hal_dma.c:938:19
	movs	r1, #5
	mov.w	r0, #9600
	strb.w	r1, [r4, #53]
	udiv	r0, r5, r0
.Ltmp240:
	@DEBUG_VALUE: HAL_DMA_IRQHandler:timeout <- $r0
	.loc	2 941 7                 @ ../Drivers/STM32F7xx_HAL_Driver/Src/stm32f7xx_hal_dma.c:941:7
	ldr	r1, [r4]
	ldr	r2, [r1]
	bic	r2, r2, #1
	str	r2, [r1]
.Ltmp241:
.LBB9_34:                               @ =>This Inner Loop Header: Depth=1
	@DEBUG_VALUE: HAL_DMA_IRQHandler:timeout <- $r0
	@DEBUG_VALUE: HAL_DMA_IRQHandler:tmpisr <- $r7
	@DEBUG_VALUE: HAL_DMA_IRQHandler:hdma <- $r4
	.loc	2 945 13                @ ../Drivers/STM32F7xx_HAL_Driver/Src/stm32f7xx_hal_dma.c:945:13
	ldr	r2, [sp]
.Ltmp242:
	@DEBUG_VALUE: HAL_DMA_IRQHandler:count <- $r2
	adds	r2, #1
.Ltmp243:
	@DEBUG_VALUE: HAL_DMA_IRQHandler:count <- $r2
	.loc	2 945 13 is_stmt 0      @ ../Drivers/STM32F7xx_HAL_Driver/Src/stm32f7xx_hal_dma.c:945:13
	cmp	r2, r0
.Ltmp244:
	.loc	2 945 13                @ ../Drivers/STM32F7xx_HAL_Driver/Src/stm32f7xx_hal_dma.c:945:13
	str	r2, [sp]
.Ltmp245:
	.loc	2 945 13                @ ../Drivers/STM32F7xx_HAL_Driver/Src/stm32f7xx_hal_dma.c:945:13
	bhi	.LBB9_36
.Ltmp246:
@ %bb.35:                               @   in Loop: Header=BB9_34 Depth=1
	@DEBUG_VALUE: HAL_DMA_IRQHandler:count <- $r2
	@DEBUG_VALUE: HAL_DMA_IRQHandler:timeout <- $r0
	@DEBUG_VALUE: HAL_DMA_IRQHandler:tmpisr <- $r7
	@DEBUG_VALUE: HAL_DMA_IRQHandler:hdma <- $r4
	.loc	2 950 30 is_stmt 1      @ ../Drivers/STM32F7xx_HAL_Driver/Src/stm32f7xx_hal_dma.c:950:30
	ldr	r2, [r1]
.Ltmp247:
	.loc	2 949 7                 @ ../Drivers/STM32F7xx_HAL_Driver/Src/stm32f7xx_hal_dma.c:949:7
	tst.w	r2, #1
	bne	.LBB9_34
.Ltmp248:
.LBB9_36:
	@DEBUG_VALUE: HAL_DMA_IRQHandler:timeout <- $r0
	@DEBUG_VALUE: HAL_DMA_IRQHandler:tmpisr <- $r7
	@DEBUG_VALUE: HAL_DMA_IRQHandler:hdma <- $r4
	.loc	2 956 19                @ ../Drivers/STM32F7xx_HAL_Driver/Src/stm32f7xx_hal_dma.c:956:19
	movs	r0, #1
.Ltmp249:
	strb.w	r0, [r4, #53]
.Ltmp250:
	.loc	2 953 7                 @ ../Drivers/STM32F7xx_HAL_Driver/Src/stm32f7xx_hal_dma.c:953:7
	movs	r0, #0
	strb.w	r0, [r4, #52]
.Ltmp251:
.LBB9_37:
	@DEBUG_VALUE: HAL_DMA_IRQHandler:tmpisr <- $r7
	@DEBUG_VALUE: HAL_DMA_IRQHandler:hdma <- $r4
	.loc	2 959 14                @ ../Drivers/STM32F7xx_HAL_Driver/Src/stm32f7xx_hal_dma.c:959:14
	ldr	r1, [r4, #76]
.Ltmp252:
.LBB9_38:
	@DEBUG_VALUE: HAL_DMA_IRQHandler:tmpisr <- $r7
	@DEBUG_VALUE: HAL_DMA_IRQHandler:hdma <- $r4
	.loc	2 0 14 is_stmt 0        @ ../Drivers/STM32F7xx_HAL_Driver/Src/stm32f7xx_hal_dma.c:0:14
	cbz	r1, .LBB9_40
.Ltmp253:
@ %bb.39:
	@DEBUG_VALUE: HAL_DMA_IRQHandler:tmpisr <- $r7
	@DEBUG_VALUE: HAL_DMA_IRQHandler:hdma <- $r4
	mov	r0, r4
	blx	r1
.Ltmp254:
.LBB9_40:
	@DEBUG_VALUE: HAL_DMA_IRQHandler:tmpisr <- $r7
	@DEBUG_VALUE: HAL_DMA_IRQHandler:hdma <- $r4
	.loc	2 965 1 is_stmt 1       @ ../Drivers/STM32F7xx_HAL_Driver/Src/stm32f7xx_hal_dma.c:965:1
	pop	{r3, r4, r5, r6, r7, pc}
.Ltmp255:
	.p2align	2
@ %bb.41:
	.loc	2 0 1 is_stmt 0         @ ../Drivers/STM32F7xx_HAL_Driver/Src/stm32f7xx_hal_dma.c:0:1
__arm_cp.9_0:
	.long	SystemCoreClock
.Lcpi_end2:
	.size	__arm_cp.9_0, .Lcpi_end2-__arm_cp.9_0
__arm_cp.9_1:
	.long	8388609                 @ 0x800001
.Lcpi_end3:
	.size	__arm_cp.9_1, .Lcpi_end3-__arm_cp.9_1
.Lfunc_end9:
	.size	HAL_DMA_IRQHandler, .Lfunc_end9-HAL_DMA_IRQHandler
	.cfi_endproc
	.cantunwind
	.fnend
                                        @ -- End function
	.section	.text.HAL_DMA_RegisterCallback,"ax",%progbits
	.hidden	HAL_DMA_RegisterCallback @ -- Begin function HAL_DMA_RegisterCallback
	.globl	HAL_DMA_RegisterCallback
	.p2align	2
	.type	HAL_DMA_RegisterCallback,%function
	.code	16                      @ @HAL_DMA_RegisterCallback
	.thumb_func
HAL_DMA_RegisterCallback:
.Lfunc_begin10:
	.loc	2 978 0 is_stmt 1       @ ../Drivers/STM32F7xx_HAL_Driver/Src/stm32f7xx_hal_dma.c:978:0
	.fnstart
	.cfi_startproc
@ %bb.0:
	@DEBUG_VALUE: HAL_DMA_RegisterCallback:hdma <- $r0
	@DEBUG_VALUE: HAL_DMA_RegisterCallback:hdma <- $r0
	@DEBUG_VALUE: HAL_DMA_RegisterCallback:CallbackID <- $r1
	@DEBUG_VALUE: HAL_DMA_RegisterCallback:CallbackID <- $r1
	@DEBUG_VALUE: HAL_DMA_RegisterCallback:pCallback <- $r2
	@DEBUG_VALUE: HAL_DMA_RegisterCallback:pCallback <- $r2
	@DEBUG_VALUE: HAL_DMA_RegisterCallback:status <- 0
	.loc	2 983 3 prologue_end    @ ../Drivers/STM32F7xx_HAL_Driver/Src/stm32f7xx_hal_dma.c:983:3
	ldrb.w	r3, [r0, #52]
.Ltmp256:
	.loc	2 983 3 is_stmt 0       @ ../Drivers/STM32F7xx_HAL_Driver/Src/stm32f7xx_hal_dma.c:983:3
	cmp	r3, #1
	bne	.LBB10_2
.Ltmp257:
@ %bb.1:
	@DEBUG_VALUE: HAL_DMA_RegisterCallback:pCallback <- $r2
	@DEBUG_VALUE: HAL_DMA_RegisterCallback:CallbackID <- $r1
	@DEBUG_VALUE: HAL_DMA_RegisterCallback:hdma <- $r0
	.loc	2 0 3                   @ ../Drivers/STM32F7xx_HAL_Driver/Src/stm32f7xx_hal_dma.c:0:3
	mov.w	r12, #2
	b	.LBB10_14
.Ltmp258:
.LBB10_2:
	@DEBUG_VALUE: HAL_DMA_RegisterCallback:pCallback <- $r2
	@DEBUG_VALUE: HAL_DMA_RegisterCallback:CallbackID <- $r1
	@DEBUG_VALUE: HAL_DMA_RegisterCallback:hdma <- $r0
	mov.w	r12, #1
.Ltmp259:
	.loc	2 983 3                 @ ../Drivers/STM32F7xx_HAL_Driver/Src/stm32f7xx_hal_dma.c:983:3
	strb.w	r12, [r0, #52]
.Ltmp260:
	.loc	2 985 35 is_stmt 1      @ ../Drivers/STM32F7xx_HAL_Driver/Src/stm32f7xx_hal_dma.c:985:35
	ldrb.w	r3, [r0, #53]
.Ltmp261:
	.loc	2 985 6 is_stmt 0       @ ../Drivers/STM32F7xx_HAL_Driver/Src/stm32f7xx_hal_dma.c:985:6
	cmp	r3, #1
	bne	.LBB10_13
.Ltmp262:
@ %bb.3:
	@DEBUG_VALUE: HAL_DMA_RegisterCallback:pCallback <- $r2
	@DEBUG_VALUE: HAL_DMA_RegisterCallback:CallbackID <- $r1
	@DEBUG_VALUE: HAL_DMA_RegisterCallback:hdma <- $r0
	.loc	2 987 5 is_stmt 1       @ ../Drivers/STM32F7xx_HAL_Driver/Src/stm32f7xx_hal_dma.c:987:5
	cmp	r1, #5
	bhi	.LBB10_12
.Ltmp263:
@ %bb.4:
	@DEBUG_VALUE: HAL_DMA_RegisterCallback:pCallback <- $r2
	@DEBUG_VALUE: HAL_DMA_RegisterCallback:CallbackID <- $r1
	@DEBUG_VALUE: HAL_DMA_RegisterCallback:hdma <- $r0
	@DEBUG_VALUE: HAL_DMA_RegisterCallback:CallbackID <- $r1
	.loc	2 0 5 is_stmt 0         @ ../Drivers/STM32F7xx_HAL_Driver/Src/stm32f7xx_hal_dma.c:0:5
.LCPI10_0:
	tbb	[pc, r1]
.Ltmp264:
@ %bb.5:
.LJTI10_0:
	.byte	(.LBB10_6-(.LCPI10_0+4))/2
	.byte	(.LBB10_7-(.LCPI10_0+4))/2
	.byte	(.LBB10_8-(.LCPI10_0+4))/2
	.byte	(.LBB10_9-(.LCPI10_0+4))/2
	.byte	(.LBB10_10-(.LCPI10_0+4))/2
	.byte	(.LBB10_11-(.LCPI10_0+4))/2
	.p2align	1
.LBB10_6:
	@DEBUG_VALUE: HAL_DMA_RegisterCallback:pCallback <- $r2
.Ltmp265:
	@DEBUG_VALUE: HAL_DMA_RegisterCallback:CallbackID <- $r1
	@DEBUG_VALUE: HAL_DMA_RegisterCallback:hdma <- $r0
	.loc	2 990 30 is_stmt 1      @ ../Drivers/STM32F7xx_HAL_Driver/Src/stm32f7xx_hal_dma.c:990:30
	str	r2, [r0, #60]
	b	.LBB10_12
.Ltmp266:
.LBB10_7:
	@DEBUG_VALUE: HAL_DMA_RegisterCallback:pCallback <- $r2
	@DEBUG_VALUE: HAL_DMA_RegisterCallback:CallbackID <- $r1
	@DEBUG_VALUE: HAL_DMA_RegisterCallback:hdma <- $r0
	.loc	2 994 34                @ ../Drivers/STM32F7xx_HAL_Driver/Src/stm32f7xx_hal_dma.c:994:34
	str	r2, [r0, #64]
	b	.LBB10_12
.Ltmp267:
.LBB10_8:
	@DEBUG_VALUE: HAL_DMA_RegisterCallback:pCallback <- $r2
	@DEBUG_VALUE: HAL_DMA_RegisterCallback:CallbackID <- $r1
	@DEBUG_VALUE: HAL_DMA_RegisterCallback:hdma <- $r0
	.loc	2 998 32                @ ../Drivers/STM32F7xx_HAL_Driver/Src/stm32f7xx_hal_dma.c:998:32
	str	r2, [r0, #68]
	b	.LBB10_12
.Ltmp268:
.LBB10_9:
	@DEBUG_VALUE: HAL_DMA_RegisterCallback:pCallback <- $r2
	@DEBUG_VALUE: HAL_DMA_RegisterCallback:CallbackID <- $r1
	@DEBUG_VALUE: HAL_DMA_RegisterCallback:hdma <- $r0
	.loc	2 1002 36               @ ../Drivers/STM32F7xx_HAL_Driver/Src/stm32f7xx_hal_dma.c:1002:36
	str	r2, [r0, #72]
	b	.LBB10_12
.Ltmp269:
.LBB10_10:
	@DEBUG_VALUE: HAL_DMA_RegisterCallback:pCallback <- $r2
	@DEBUG_VALUE: HAL_DMA_RegisterCallback:CallbackID <- $r1
	@DEBUG_VALUE: HAL_DMA_RegisterCallback:hdma <- $r0
	.loc	2 1006 31               @ ../Drivers/STM32F7xx_HAL_Driver/Src/stm32f7xx_hal_dma.c:1006:31
	str	r2, [r0, #76]
	b	.LBB10_12
.Ltmp270:
.LBB10_11:
	@DEBUG_VALUE: HAL_DMA_RegisterCallback:pCallback <- $r2
	@DEBUG_VALUE: HAL_DMA_RegisterCallback:CallbackID <- $r1
	@DEBUG_VALUE: HAL_DMA_RegisterCallback:hdma <- $r0
	.loc	2 1010 31               @ ../Drivers/STM32F7xx_HAL_Driver/Src/stm32f7xx_hal_dma.c:1010:31
	str	r2, [r0, #80]
.Ltmp271:
.LBB10_12:
	@DEBUG_VALUE: HAL_DMA_RegisterCallback:pCallback <- $r2
	@DEBUG_VALUE: HAL_DMA_RegisterCallback:CallbackID <- $r1
	@DEBUG_VALUE: HAL_DMA_RegisterCallback:hdma <- $r0
	.loc	2 0 31 is_stmt 0        @ ../Drivers/STM32F7xx_HAL_Driver/Src/stm32f7xx_hal_dma.c:0:31
	mov.w	r12, #0
.Ltmp272:
.LBB10_13:
	@DEBUG_VALUE: HAL_DMA_RegisterCallback:pCallback <- $r2
	@DEBUG_VALUE: HAL_DMA_RegisterCallback:CallbackID <- $r1
	@DEBUG_VALUE: HAL_DMA_RegisterCallback:hdma <- $r0
	.loc	2 1024 3 is_stmt 1      @ ../Drivers/STM32F7xx_HAL_Driver/Src/stm32f7xx_hal_dma.c:1024:3
	movs	r1, #0
.Ltmp273:
	strb.w	r1, [r0, #52]
.Ltmp274:
.LBB10_14:
	@DEBUG_VALUE: HAL_DMA_RegisterCallback:pCallback <- $r2
	@DEBUG_VALUE: HAL_DMA_RegisterCallback:hdma <- $r0
	.loc	2 1027 1                @ ../Drivers/STM32F7xx_HAL_Driver/Src/stm32f7xx_hal_dma.c:1027:1
	uxtb.w	r0, r12
	bx	lr
.Ltmp275:
.Lfunc_end10:
	.size	HAL_DMA_RegisterCallback, .Lfunc_end10-HAL_DMA_RegisterCallback
	.cfi_endproc
	.cantunwind
	.fnend
                                        @ -- End function
	.section	.text.HAL_DMA_UnRegisterCallback,"ax",%progbits
	.hidden	HAL_DMA_UnRegisterCallback @ -- Begin function HAL_DMA_UnRegisterCallback
	.globl	HAL_DMA_UnRegisterCallback
	.p2align	2
	.type	HAL_DMA_UnRegisterCallback,%function
	.code	16                      @ @HAL_DMA_UnRegisterCallback
	.thumb_func
HAL_DMA_UnRegisterCallback:
.Lfunc_begin11:
	.loc	2 1038 0                @ ../Drivers/STM32F7xx_HAL_Driver/Src/stm32f7xx_hal_dma.c:1038:0
	.fnstart
	.cfi_startproc
@ %bb.0:
	.save	{r4, lr}
	push	{r4, lr}
	.cfi_def_cfa_offset 8
	.cfi_offset lr, -4
	.cfi_offset r4, -8
	@DEBUG_VALUE: HAL_DMA_UnRegisterCallback:hdma <- $r0
	@DEBUG_VALUE: HAL_DMA_UnRegisterCallback:CallbackID <- $r1
	mov	r4, r0
.Ltmp276:
	@DEBUG_VALUE: HAL_DMA_UnRegisterCallback:status <- 0
	@DEBUG_VALUE: HAL_DMA_UnRegisterCallback:CallbackID <- $r1
	@DEBUG_VALUE: HAL_DMA_UnRegisterCallback:hdma <- $r4
	.loc	2 1042 3 prologue_end   @ ../Drivers/STM32F7xx_HAL_Driver/Src/stm32f7xx_hal_dma.c:1042:3
	ldrb.w	r0, [r0, #52]
.Ltmp277:
	.loc	2 1042 3 is_stmt 0      @ ../Drivers/STM32F7xx_HAL_Driver/Src/stm32f7xx_hal_dma.c:1042:3
	cmp	r0, #1
	bne	.LBB11_2
.Ltmp278:
@ %bb.1:
	@DEBUG_VALUE: HAL_DMA_UnRegisterCallback:hdma <- $r4
	@DEBUG_VALUE: HAL_DMA_UnRegisterCallback:CallbackID <- $r1
	.loc	2 0 3                   @ ../Drivers/STM32F7xx_HAL_Driver/Src/stm32f7xx_hal_dma.c:0:3
	movs	r0, #2
	b	.LBB11_15
.Ltmp279:
.LBB11_2:
	@DEBUG_VALUE: HAL_DMA_UnRegisterCallback:hdma <- $r4
	@DEBUG_VALUE: HAL_DMA_UnRegisterCallback:CallbackID <- $r1
	movs	r0, #1
.Ltmp280:
	.loc	2 1042 3                @ ../Drivers/STM32F7xx_HAL_Driver/Src/stm32f7xx_hal_dma.c:1042:3
	strb.w	r0, [r4, #52]
.Ltmp281:
	.loc	2 1044 35 is_stmt 1     @ ../Drivers/STM32F7xx_HAL_Driver/Src/stm32f7xx_hal_dma.c:1044:35
	ldrb.w	r2, [r4, #53]
.Ltmp282:
	.loc	2 1044 6 is_stmt 0      @ ../Drivers/STM32F7xx_HAL_Driver/Src/stm32f7xx_hal_dma.c:1044:6
	cmp	r2, #1
	bne	.LBB11_14
.Ltmp283:
@ %bb.3:
	@DEBUG_VALUE: HAL_DMA_UnRegisterCallback:hdma <- $r4
	@DEBUG_VALUE: HAL_DMA_UnRegisterCallback:CallbackID <- $r1
	.loc	2 1046 5 is_stmt 1      @ ../Drivers/STM32F7xx_HAL_Driver/Src/stm32f7xx_hal_dma.c:1046:5
	cmp	r1, #6
	bhi	.LBB11_7
.Ltmp284:
@ %bb.4:
	@DEBUG_VALUE: HAL_DMA_UnRegisterCallback:hdma <- $r4
	@DEBUG_VALUE: HAL_DMA_UnRegisterCallback:CallbackID <- $r1
	@DEBUG_VALUE: HAL_DMA_UnRegisterCallback:CallbackID <- $r1
	.loc	2 0 5 is_stmt 0         @ ../Drivers/STM32F7xx_HAL_Driver/Src/stm32f7xx_hal_dma.c:0:5
.LCPI11_0:
	tbb	[pc, r1]
.Ltmp285:
@ %bb.5:
.LJTI11_0:
	.byte	(.LBB11_6-(.LCPI11_0+4))/2
	.byte	(.LBB11_8-(.LCPI11_0+4))/2
	.byte	(.LBB11_9-(.LCPI11_0+4))/2
	.byte	(.LBB11_10-(.LCPI11_0+4))/2
	.byte	(.LBB11_11-(.LCPI11_0+4))/2
	.byte	(.LBB11_12-(.LCPI11_0+4))/2
	.byte	(.LBB11_13-(.LCPI11_0+4))/2
	.p2align	1
.LBB11_6:
.Ltmp286:
	@DEBUG_VALUE: HAL_DMA_UnRegisterCallback:hdma <- $r4
	@DEBUG_VALUE: HAL_DMA_UnRegisterCallback:CallbackID <- $r1
	movs	r0, #0
.Ltmp287:
	.loc	2 1049 30 is_stmt 1     @ ../Drivers/STM32F7xx_HAL_Driver/Src/stm32f7xx_hal_dma.c:1049:30
	str	r0, [r4, #60]
	b	.LBB11_14
.Ltmp288:
.LBB11_7:
	@DEBUG_VALUE: HAL_DMA_UnRegisterCallback:hdma <- $r4
	@DEBUG_VALUE: HAL_DMA_UnRegisterCallback:CallbackID <- $r1
	.loc	2 0 30 is_stmt 0        @ ../Drivers/STM32F7xx_HAL_Driver/Src/stm32f7xx_hal_dma.c:0:30
	movs	r0, #1
	b	.LBB11_14
.Ltmp289:
.LBB11_8:
	@DEBUG_VALUE: HAL_DMA_UnRegisterCallback:hdma <- $r4
	@DEBUG_VALUE: HAL_DMA_UnRegisterCallback:CallbackID <- $r1
	movs	r0, #0
	.loc	2 1053 34 is_stmt 1     @ ../Drivers/STM32F7xx_HAL_Driver/Src/stm32f7xx_hal_dma.c:1053:34
	str	r0, [r4, #64]
	b	.LBB11_14
.Ltmp290:
.LBB11_9:
	@DEBUG_VALUE: HAL_DMA_UnRegisterCallback:hdma <- $r4
	@DEBUG_VALUE: HAL_DMA_UnRegisterCallback:CallbackID <- $r1
	.loc	2 0 34 is_stmt 0        @ ../Drivers/STM32F7xx_HAL_Driver/Src/stm32f7xx_hal_dma.c:0:34
	movs	r0, #0
	.loc	2 1057 32 is_stmt 1     @ ../Drivers/STM32F7xx_HAL_Driver/Src/stm32f7xx_hal_dma.c:1057:32
	str	r0, [r4, #68]
	b	.LBB11_14
.Ltmp291:
.LBB11_10:
	@DEBUG_VALUE: HAL_DMA_UnRegisterCallback:hdma <- $r4
	@DEBUG_VALUE: HAL_DMA_UnRegisterCallback:CallbackID <- $r1
	.loc	2 0 32 is_stmt 0        @ ../Drivers/STM32F7xx_HAL_Driver/Src/stm32f7xx_hal_dma.c:0:32
	movs	r0, #0
	.loc	2 1061 36 is_stmt 1     @ ../Drivers/STM32F7xx_HAL_Driver/Src/stm32f7xx_hal_dma.c:1061:36
	str	r0, [r4, #72]
	b	.LBB11_14
.Ltmp292:
.LBB11_11:
	@DEBUG_VALUE: HAL_DMA_UnRegisterCallback:hdma <- $r4
	@DEBUG_VALUE: HAL_DMA_UnRegisterCallback:CallbackID <- $r1
	.loc	2 0 36 is_stmt 0        @ ../Drivers/STM32F7xx_HAL_Driver/Src/stm32f7xx_hal_dma.c:0:36
	movs	r0, #0
	.loc	2 1065 31 is_stmt 1     @ ../Drivers/STM32F7xx_HAL_Driver/Src/stm32f7xx_hal_dma.c:1065:31
	str	r0, [r4, #76]
	b	.LBB11_14
.Ltmp293:
.LBB11_12:
	@DEBUG_VALUE: HAL_DMA_UnRegisterCallback:hdma <- $r4
	@DEBUG_VALUE: HAL_DMA_UnRegisterCallback:CallbackID <- $r1
	.loc	2 0 31 is_stmt 0        @ ../Drivers/STM32F7xx_HAL_Driver/Src/stm32f7xx_hal_dma.c:0:31
	movs	r0, #0
	.loc	2 1069 31 is_stmt 1     @ ../Drivers/STM32F7xx_HAL_Driver/Src/stm32f7xx_hal_dma.c:1069:31
	str	r0, [r4, #80]
	b	.LBB11_14
.Ltmp294:
.LBB11_13:
	@DEBUG_VALUE: HAL_DMA_UnRegisterCallback:hdma <- $r4
	@DEBUG_VALUE: HAL_DMA_UnRegisterCallback:CallbackID <- $r1
	.loc	2 1073 13               @ ../Drivers/STM32F7xx_HAL_Driver/Src/stm32f7xx_hal_dma.c:1073:13
	add.w	r0, r4, #60
	.loc	2 1074 34               @ ../Drivers/STM32F7xx_HAL_Driver/Src/stm32f7xx_hal_dma.c:1074:34
	movs	r1, #24
.Ltmp295:
	bl	__aeabi_memclr4
	movs	r0, #0
.Ltmp296:
.LBB11_14:
	@DEBUG_VALUE: HAL_DMA_UnRegisterCallback:hdma <- $r4
	.loc	2 1092 3                @ ../Drivers/STM32F7xx_HAL_Driver/Src/stm32f7xx_hal_dma.c:1092:3
	movs	r1, #0
	strb.w	r1, [r4, #52]
.Ltmp297:
.LBB11_15:
	@DEBUG_VALUE: HAL_DMA_UnRegisterCallback:hdma <- $r4
	.loc	2 1095 1                @ ../Drivers/STM32F7xx_HAL_Driver/Src/stm32f7xx_hal_dma.c:1095:1
	uxtb	r0, r0
	pop	{r4, pc}
.Ltmp298:
.Lfunc_end11:
	.size	HAL_DMA_UnRegisterCallback, .Lfunc_end11-HAL_DMA_UnRegisterCallback
	.cfi_endproc
	.cantunwind
	.fnend
                                        @ -- End function
	.section	.text.HAL_DMA_GetState,"ax",%progbits
	.hidden	HAL_DMA_GetState        @ -- Begin function HAL_DMA_GetState
	.globl	HAL_DMA_GetState
	.p2align	1
	.type	HAL_DMA_GetState,%function
	.code	16                      @ @HAL_DMA_GetState
	.thumb_func
HAL_DMA_GetState:
.Lfunc_begin12:
	.loc	2 1123 0                @ ../Drivers/STM32F7xx_HAL_Driver/Src/stm32f7xx_hal_dma.c:1123:0
	.fnstart
	.cfi_startproc
@ %bb.0:
	@DEBUG_VALUE: HAL_DMA_GetState:hdma <- $r0
	@DEBUG_VALUE: HAL_DMA_GetState:hdma <- $r0
	.loc	2 1124 3 prologue_end   @ ../Drivers/STM32F7xx_HAL_Driver/Src/stm32f7xx_hal_dma.c:1124:3
	ldrb.w	r0, [r0, #53]
	bx	lr
.Ltmp299:
.Lfunc_end12:
	.size	HAL_DMA_GetState, .Lfunc_end12-HAL_DMA_GetState
	.cfi_endproc
	.cantunwind
	.fnend
                                        @ -- End function
	.section	.text.HAL_DMA_GetError,"ax",%progbits
	.hidden	HAL_DMA_GetError        @ -- Begin function HAL_DMA_GetError
	.globl	HAL_DMA_GetError
	.p2align	1
	.type	HAL_DMA_GetError,%function
	.code	16                      @ @HAL_DMA_GetError
	.thumb_func
HAL_DMA_GetError:
.Lfunc_begin13:
	.loc	2 1134 0                @ ../Drivers/STM32F7xx_HAL_Driver/Src/stm32f7xx_hal_dma.c:1134:0
	.fnstart
	.cfi_startproc
@ %bb.0:
	@DEBUG_VALUE: HAL_DMA_GetError:hdma <- $r0
	@DEBUG_VALUE: HAL_DMA_GetError:hdma <- $r0
	.loc	2 1135 16 prologue_end  @ ../Drivers/STM32F7xx_HAL_Driver/Src/stm32f7xx_hal_dma.c:1135:16
	ldr	r0, [r0, #84]
.Ltmp300:
	.loc	2 1135 3 is_stmt 0      @ ../Drivers/STM32F7xx_HAL_Driver/Src/stm32f7xx_hal_dma.c:1135:3
	bx	lr
.Ltmp301:
.Lfunc_end13:
	.size	HAL_DMA_GetError, .Lfunc_end13-HAL_DMA_GetError
	.cfi_endproc
	.cantunwind
	.fnend
                                        @ -- End function
	.section	".note.GNU-stack","",%progbits
	.eabi_attribute	30, 4	@ Tag_ABI_optimization_goals
	.ARM_attribute	16, 1	@ Tag_AV_eba