	.text
	.syntax unified
	.eabi_attribute	67, "2.09"	@ Tag_conformance
	.cpu	cortex-m7
	.eabi_attribute	6, 13	@ Tag_CPU_arch
	.eabi_attribute	7, 77	@ Tag_CPU_arch_profile
	.eabi_attribute	8, 0	@ Tag_ARM_ISA_use
	.eabi_attribute	9, 2	@ Tag_THUMB_ISA_use
	.fpu	fpv5-sp-d16
	.eabi_attribute	27, 1	@ Tag_ABI_HardFP_use
	.eabi_attribute	36, 1	@ Tag_FP_HP_extension
	.eabi_attribute	34, 1	@ Tag_CPU_unaligned_access
	.eabi_attribute	17, 1	@ Tag_ABI_PCS_GOT_use
	.eabi_attribute	20, 2	@ Tag_ABI_FP_denormal
	.eabi_attribute	21, 0	@ Tag_ABI_FP_exceptions
	.eabi_attribute	23, 1	@ Tag_ABI_FP_number_model
	.eabi_attribute	24, 1	@ Tag_ABI_align_needed
	.eabi_attribute	25, 1	@ Tag_ABI_align_preserved
	.eabi_attribute	28, 1	@ Tag_ABI_VFP_args
	.eabi_attribute	38, 1	@ Tag_ABI_FP_16bit_format
	.eabi_attribute	18, 2	@ Tag_ABI_PCS_wchar_t
	.eabi_attribute	26, 1	@ Tag_ABI_enum_size
	.eabi_attribute	14, 0	@ Tag_ABI_PCS_R9_use
	.file	"stm32f7xx_it.c"
	.file	1 "C:\\Keil\\ARM\\ARMCLANG\\Bin\\..\\include" "stdint.h"
	.file	2 "../Drivers/CMSIS/Device/ST/STM32F7xx/Include" "stm32f746xx.h"
	.section	.text.NMI_Handler,"ax",%progbits
	.hidden	NMI_Handler             @ -- Begin function NMI_Handler
	.globl	NMI_Handler
	.p2align	1
	.type	NMI_Handler,%function
	.code	16                      @ @NMI_Handler
	.thumb_func
NMI_Handler:
.Lfunc_begin0:
	.file	3 "../Src" "stm32f7xx_it.c"
	.loc	3 61 0                  @ ../Src/stm32f7xx_it.c:61:0
	.fnstart
	.cfi_sections .debug_frame
	.cfi_startproc
@ %bb.0:
	.loc	3 63 1 prologue_end     @ ../Src/stm32f7xx_it.c:63:1
	bx	lr
.Ltmp0:
.Lfunc_end0:
	.size	NMI_Handler, .Lfunc_end0-NMI_Handler
	.cfi_endproc
	.cantunwind
	.fnend
                                        @ -- End function
	.section	.text.HardFault_Handler,"ax",%progbits
	.hidden	HardFault_Handler       @ -- Begin function HardFault_Handler
	.globl	HardFault_Handler
	.p2align	1
	.type	HardFault_Handler,%function
	.code	16                      @ @HardFault_Handler
	.thumb_func
HardFault_Handler:
.Lfunc_begin1:
	.loc	3 67 0                  @ ../Src/stm32f7xx_it.c:67:0
	.fnstart
	.cfi_startproc
@ %bb.0:
	.loc	3 68 2 prologue_end     @ ../Src/stm32f7xx_it.c:68:2
	b	Error_Handler
.Ltmp1:
.Lfunc_end1:
	.size	HardFault_Handler, .Lfunc_end1-HardFault_Handler
	.cfi_endproc
	.cantunwind
	.fnend
                                        @ -- End function
	.section	.text.MemManage_Handler,"ax",%progbits
	.hidden	MemManage_Handler       @ -- Begin function MemManage_Handler
	.globl	MemManage_Handler
	.p2align	1
	.type	MemManage_Handler,%function
	.code	16                      @ @MemManage_Handler
	.thumb_func
MemManage_Handler:
.Lfunc_begin2:
	.loc	3 73 0                  @ ../Src/stm32f7xx_it.c:73:0
	.fnstart
	.cfi_startproc
@ %bb.0:
	.loc	3 74 2 prologue_end     @ ../Src/stm32f7xx_it.c:74:2
	b	Error_Handler
.Ltmp2:
.Lfunc_end2:
	.size	MemManage_Handler, .Lfunc_end2-MemManage_Handler
	.cfi_endproc
	.cantunwind
	.fnend
                                        @ -- End function
	.section	.text.BusFault_Handler,"ax",%progbits
	.hidden	BusFault_Handler        @ -- Begin function BusFault_Handler
	.globl	BusFault_Handler
	.p2align	1
	.type	BusFault_Handler,%function
	.code	16                      @ @BusFault_Handler
	.thumb_func
BusFault_Handler:
.Lfunc_begin3:
	.loc	3 79 0                  @ ../Src/stm32f7xx_it.c:79:0
	.fnstart
	.cfi_startproc
@ %bb.0:
	.loc	3 80 2 prologue_end     @ ../Src/stm32f7xx_it.c:80:2
	b	Error_Handler
.Ltmp3:
.Lfunc_end3:
	.size	BusFault_Handler, .Lfunc_end3-BusFault_Handler
	.cfi_endproc
	.cantunwind
	.fnend
                                        @ -- End function
	.section	.text.UsageFault_Handler,"ax",%progbits
	.hidden	UsageFault_Handler      @ -- Begin function UsageFault_Handler
	.globl	UsageFault_Handler
	.p2align	1
	.type	UsageFault_Handler,%function
	.code	16                      @ @UsageFault_Handler
	.thumb_func
UsageFault_Handler:
.Lfunc_begin4:
	.loc	3 85 0                  @ ../Src/stm32f7xx_it.c:85:0
	.fnstart
	.cfi_startproc
@ %bb.0:
	.loc	3 86 2 prologue_end     @ ../Src/stm32f7xx_it.c:86:2
	b	Error_Handler
.Ltmp4:
.Lfunc_end4:
	.size	UsageFault_Handler, .Lfunc_end4-UsageFault_Handler
	.cfi_endproc
	.cantunwind
	.fnend
                                        @ -- End function
	.section	.text.DebugMon_Handler,"ax",%progbits
	.hidden	DebugMon_Handler        @ -- Begin function DebugMon_Handler
	.globl	DebugMon_Handler
	.p2align	1
	.type	DebugMon_Handler,%function
	.code	16                      @ @DebugMon_Handler
	.thumb_func
DebugMon_Handler:
.Lfunc_begin5:
	.loc	3 91 0                  @ ../Src/stm32f7xx_it.c:91:0
	.fnstart
	.cfi_startproc
@ %bb.0:
	.loc	3 93 1 prologue_end     @ ../Src/stm32f7xx_it.c:93:1
	bx	lr
.Ltmp5:
.Lfunc_end5:
	.size	DebugMon_Handler, .Lfunc_end5-DebugMon_Handler
	.cfi_endproc
	.cantunwind
	.fnend
                                        @ -- End function
	.section	.text.SysTick_Handler,"ax",%progbits
	.hidden	SysTick_Handler         @ -- Begin function SysTick_Handler
	.globl	SysTick_Handler
	.p2align	2
	.type	SysTick_Handler,%function
	.code	16                      @ @SysTick_Handler
	.thumb_func
SysTick_Handler:
.Lfunc_begin6:
	.loc	3 97 0                  @ ../Src/stm32f7xx_it.c:97:0
	.fnstart
	.cfi_startproc
@ %bb.0:
	.save	{r7, lr}
	push	{r7, lr}
	.cfi_def_cfa_offset 8
	.cfi_offset lr, -4
	.cfi_offset r7, -8
.Ltmp6:
	.loc	3 98 2 prologue_end     @ ../Src/stm32f7xx_it.c:98:2
	bl	HAL_IncTick
	.loc	3 99 11                 @ ../Src/stm32f7xx_it.c:99:11
	ldr	r0, __arm_cp.6_0
	ldr	r1, [r0]
	adds	r1, #1
	str	r1, [r0]
	.loc	3 100 12                @ ../Src/stm32f7xx_it.c:100:12
	ldr	r0, __arm_cp.6_1
	ldr	r1, [r0]
	adds	r1, #1
	str	r1, [r0]
	.loc	3 101 2                 @ ../Src/stm32f7xx_it.c:101:2
	pop.w	{r7, lr}
	b	HAL_SYSTICK_IRQHandler
.Ltmp7:
	.p2align	2
@ %bb.1:
	.loc	3 0 2 is_stmt 0         @ ../Src/stm32f7xx_it.c:0:2
__arm_cp.6_0:
	.long	OS_TimeMS
.Lcpi_end0:
	.size	__arm_cp.6_0, .Lcpi_end0-__arm_cp.6_0
__arm_cp.6_1:
	.long	SystickCnt
.Lcpi_end1:
	.size	__arm_cp.6_1, .Lcpi_end1-__arm_cp.6_1
.Lfunc_end6:
	.size	SysTick_Handler, .Lfunc_end6-SysTick_Handler
	.cfi_endproc
	.cantunwind
	.fnend
                                        @ -- End function
	.section	.text.DMA2D_IRQHandler,"ax",%progbits
	.hidden	DMA2D_IRQHandler        @ -- Begin function DMA2D_IRQHandler
	.globl	DMA2D_IRQHandler
	.p2align	2
	.type	DMA2D_IRQHandler,%function
	.code	16                      @ @DMA2D_IRQHandler
	.thumb_func
DMA2D_IRQHandler:
.Lfunc_begin7:
	.loc	3 106 0 is_stmt 1       @ ../Src/stm32f7xx_it.c:106:0
	.fnstart
	.cfi_startproc
@ %bb.0:
	.save	{r7, lr}
	push	{r7, lr}
	.cfi_def_cfa_offset 8
	.cfi_offset lr, -4
	.cfi_offset r7, -8
.Ltmp8:
	.loc	3 107 2 prologue_end    @ ../Src/stm32f7xx_it.c:107:2
	ldr	r0, __arm_cp.7_0
	bl	HAL_DMA2D_IRQHandler
	.loc	3 108 14                @ ../Src/stm32f7xx_it.c:108:14
	ldr	r0, __arm_cp.7_1
	movs	r1, #2
	str	r1, [r0]
	.loc	3 109 1                 @ ../Src/stm32f7xx_it.c:109:1
	pop	{r7, pc}
.Ltmp9:
	.p2align	2
@ %bb.1:
	.loc	3 0 1 is_stmt 0         @ ../Src/stm32f7xx_it.c:0:1
__arm_cp.7_0:
	.long	hdma2d
.Lcpi_end2:
	.size	__arm_cp.7_0, .Lcpi_end2-__arm_cp.7_0
__arm_cp.7_1:
	.long	1073917960              @ 0x4002b008
.Lcpi_end3:
	.size	__arm_cp.7_1, .Lcpi_end3-__arm_cp.7_1
.Lfunc_end7:
	.size	DMA2D_IRQHandler, .Lfunc_end7-DMA2D_IRQHandler
	.cfi_endproc
	.cantunwind
	.fnend
                                        @ -- End function
	.section	.text.USART2_IRQHandler,"ax",%progbits
	.hidden	USART2_IRQHandler       @ -- Begin function USART2_IRQHandler
	.globl	USART2_IRQHandler
	.p2align	2
	.type	USART2_IRQHandler,%function
	.code	16                      @ @USART2_IRQHandler
	.thumb_func
USART2_IRQHandler:
.Lfunc_begin8:
	.loc	3 125 0 is_stmt 1       @ ../Src/stm32f7xx_it.c:125:0
	.fnstart
	.cfi_startproc
@ %bb.0:
	.loc	3 126 2 prologue_end    @ ../Src/stm32f7xx_it.c:126:2
	ldr	r0, __arm_cp.8_0
	b	HAL_UART_IRQHandler
.Ltmp10:
	.p2align	2
@ %bb.1:
	.loc	3 0 2 is_stmt 0         @ ../Src/stm32f7xx_it.c:0:2
__arm_cp.8_0:
	.long	huart2
.Lcpi_end4:
	.size	__arm_cp.8_0, .Lcpi_end4-__arm_cp.8_0
.Lfunc_end8:
	.size	USART2_IRQHandler, .Lfunc_end8-USART2_IRQHandler
	.cfi_endproc
	.cantunwind
	.fnend
                                        @ -- End function
	.section	.text.TIM3_IRQHandler,"ax",%progbits
	.hidden	TIM3_IRQHandler         @ -- Begin function TIM3_IRQHandler
	.globl	TIM3_IRQHandler
	.p2align	2
	.type	TIM3_IRQHandler,%function
	.code	16                      @ @TIM3_IRQHandler
	.thumb_func
TIM3_IRQHandler:
.Lfunc_begin9:
	.loc	3 131 0 is_stmt 1       @ ../Src/stm32f7xx_it.c:131:0
	.fnstart
	.cfi_startproc
@ %bb.0:
	.loc	3 132 2 prologue_end    @ ../Src/stm32f7xx_it.c:132:2
	ldr	r0, __arm_cp.9_0
	b	HAL_TIM_IRQHandler
.Ltmp11:
	.p2align	2
@ %bb.1:
	.loc	3 0 2 is_stmt 0         @ ../Src/stm32f7xx_it.c:0:2
__arm_cp.9_0:
	.long	htim3
.Lcpi_end5:
	.size	__arm_cp.9_0, .Lcpi_end5-__arm_cp.9_0
.Lfunc_end9:
	.size	TIM3_IRQHandler, .Lfunc_end9-TIM3_IRQHandler
	.cfi_endproc
	.cantunwind
	.fnend
                                        @ -- End function
	.section	.text.LTDC_IRQHandler,"ax",%progbits
	.hidden	LTDC_IRQHandler         @ -- Begin function LTDC_IRQHandler
	.globl	LTDC_IRQHandler
	.p2align	2
	.type	LTDC_IRQHandler,%function
	.code	16                      @ @LTDC_IRQHandler
	.thumb_func
LTDC_IRQHandler:
.Lfunc_begin10:
	.loc	3 137 0 is_stmt 1       @ ../Src/stm32f7xx_it.c:137:0
	.fnstart
	.cfi_startproc
@ %bb.0:
	.loc	3 138 2 prologue_end    @ ../Src/stm32f7xx_it.c:138:2
	ldr	r0, __arm_cp.10_0
	b	HAL_LTDC_IRQHandler
.Ltmp12:
	.p2align	2
@ %bb.1:
	.loc	3 0 2 is_stmt 0         @ ../Src/stm32f7xx_it.c:0:2
__arm_cp.10_0:
	.long	hltdc
.Lcpi_end6:
	.size	__arm_cp.10_0, .Lcpi_end6-__arm_cp.10_0
.Lfunc_end10:
	.size	LTDC_IRQHandler, .Lfunc_end10-LTDC_IRQHandler
	.cfi_endproc
	.cantunwind
	.fnend
                                        @ -- End function
	.section	.text.QUADSPI_IRQHandler,"ax",%progbits
	.hidden	QUADSPI_IRQHandler      @ -- Begin function QUADSPI_IRQHandler
	.globl	QUADSPI_IRQHandler
	.p2align	2
	.type	QUADSPI_IRQHandler,%function
	.code	16                      @ @QUADSPI_IRQHandler
	.thumb_func
QUADSPI_IRQHandler:
.Lfunc_begin11:
	.loc	3 143 0 is_stmt 1       @ ../Src/stm32f7xx_it.c:143:0
	.fnstart
	.cfi_startproc
@ %bb.0:
	.loc	3 144 2 prologue_end    @ ../Src/stm32f7xx_it.c:144:2
	ldr	r0, __arm_cp.11_0
	b	HAL_QSPI_IRQHandler
.Ltmp13:
	.p2align	2
@ %bb.1:
	.loc	3 0 2 is_stmt 0         @ ../Src/stm32f7xx_it.c:0:2
__arm_cp.11_0:
	.long	hqspi
.Lcpi_end7:
	.size	__arm_cp.11_0, .Lcpi_end7-__arm_cp.11_0
.Lfunc_end11:
	.size	QUADSPI_IRQHandler, .Lfunc_end11-QUADSPI_IRQHandler
	.cfi_endproc
	.cantunwind
	.fnend
                                        @ -- End function
	.section	.text.EXTI3_IRQHandler,"ax",%progbits
	.hidden	EXTI3_IRQHandler        @ -- Begin function EXTI3_IRQHandler
	.globl	EXTI3_IRQHandler
	.p2align	1
	.type	EXTI3_IRQHandler,%function
	.code	16                      @ @EXTI3_IRQHandler
	.thumb_func
EXTI3_IRQHandler:
.Lfunc_begin12:
	.loc	3 149 0 is_stmt 1       @ ../Src/stm32f7xx_it.c:149:0
	.fnstart
	.cfi_startproc
@ %bb.0:
	.loc	3 150 2 prologue_end    @ ../Src/stm32f7xx_it.c:150:2
	movs	r0, #8
	b	HAL_GPIO_EXTI_IRQHandler
.Ltmp14:
.Lfunc_end12:
	.size	EXTI3_IRQHandler, .Lfunc_end12-EXTI3_IRQHandler
	.cfi_endproc
	.cantunwind
	.fnend
                                        @ -- End function
	.section	.text.EXTI15_10_IRQHandler,"ax",%progbits
	.hidden	EXTI15_10_IRQHandler    @ -- Begin function EXTI15_10_IRQHandler
	.globl	EXTI15_10_IRQHandler
	.p2align	1
	.type	EXTI15_10_IRQHandler,%function
	.code	16                      @ @EXTI15_10_IRQHandler
	.thumb_func
EXTI15_10_IRQHandler:
.Lfunc_begin13:
	.loc	3 155 0                 @ ../Src/stm32f7xx_it.c:155:0
	.fnstart
	.cfi_startproc
@ %bb.0:
	.loc	3 156 2 prologue_end    @ ../Src/stm32f7xx_it.c:156:2
	mov.w	r0, #8192
	b	HAL_GPIO_EXTI_IRQHandler
.Ltmp15:
.Lfunc_end13:
	.size	EXTI15_10_IRQHandler, .Lfunc_end13-EXTI15_10_IRQHandler
	.cfi_endproc
	.cantunwind
	.fnend
                                        @ -- End function
	.section	".note.GNU-stack","",%progbits
	.eabi_attribute	30, 4	@ Tag_ABI_optimization_goals
	.ARM_attribute	16, 1	@ Tag_AV_eba