	.text
	.syntax unified
	.eabi_attribute	67, "2.09"	@ Tag_conformance
	.cpu	cortex-m7
	.eabi_attribute	6, 13	@ Tag_CPU_arch
	.eabi_attribute	7, 77	@ Tag_CPU_arch_profile
	.eabi_attribute	8, 0	@ Tag_ARM_ISA_use
	.eabi_attribute	9, 2	@ Tag_THUMB_ISA_use
	.fpu	fpv5-sp-d16
	.eabi_attribute	27, 1	@ Tag_ABI_HardFP_use
	.eabi_attribute	36, 1	@ Tag_FP_HP_extension
	.eabi_attribute	34, 1	@ Tag_CPU_unaligned_access
	.eabi_attribute	17, 1	@ Tag_ABI_PCS_GOT_use
	.eabi_attribute	20, 2	@ Tag_ABI_FP_denormal
	.eabi_attribute	21, 0	@ Tag_ABI_FP_exceptions
	.eabi_attribute	23, 1	@ Tag_ABI_FP_number_model
	.eabi_attribute	24, 1	@ Tag_ABI_align_needed
	.eabi_attribute	25, 1	@ Tag_ABI_align_preserved
	.eabi_attribute	28, 1	@ Tag_ABI_VFP_args
	.eabi_attribute	38, 1	@ Tag_ABI_FP_16bit_format
	.eabi_attribute	18, 2	@ Tag_ABI_PCS_wchar_t
	.eabi_attribute	26, 1	@ Tag_ABI_enum_size
	.eabi_attribute	14, 0	@ Tag_ABI_PCS_R9_use
	.file	"stm32f7xx_hal_adc.c"
	.file	1 "../Drivers/STM32F7xx_HAL_Driver/Inc" "stm32f7xx_hal_def.h"
	.file	2 "../Drivers/STM32F7xx_HAL_Driver/Inc" "stm32f7xx_hal_dma.h"
	.file	3 "../Drivers/CMSIS/Device/ST/STM32F7xx/Include" "stm32f7xx.h"
	.file	4 "C:\\Keil\\ARM\\ARMCLANG\\Bin\\..\\include" "stdint.h"
	.file	5 "../Drivers/CMSIS/Device/ST/STM32F7xx/Include" "stm32f746xx.h"
	.file	6 "../Drivers/STM32F7xx_HAL_Driver/Inc" "stm32f7xx_hal_adc.h"
	.section	.text.HAL_ADC_Init,"ax",%progbits
	.hidden	HAL_ADC_Init            @ -- Begin function HAL_ADC_Init
	.globl	HAL_ADC_Init
	.p2align	2
	.type	HAL_ADC_Init,%function
	.code	16                      @ @HAL_ADC_Init
	.thumb_func
HAL_ADC_Init:
.Lfunc_begin0:
	.file	7 "../Drivers/STM32F7xx_HAL_Driver/Src" "stm32f7xx_hal_adc.c"
	.loc	7 258 0                 @ ../Drivers/STM32F7xx_HAL_Driver/Src/stm32f7xx_hal_adc.c:258:0
	.fnstart
	.cfi_sections .debug_frame
	.cfi_startproc
@ %bb.0:
	.save	{r4, lr}
	push	{r4, lr}
	.cfi_def_cfa_offset 8
	.cfi_offset lr, -4
	.cfi_offset r4, -8
	@DEBUG_VALUE: HAL_ADC_Init:hadc <- $r0
.Ltmp0:
	@DEBUG_VALUE: ADC_Init:hadc <- $r0
	mov	r4, r0
.Ltmp1:
	@DEBUG_VALUE: HAL_ADC_Init:tmp_hal_status <- 0
	@DEBUG_VALUE: ADC_Init:hadc <- $r4
	@DEBUG_VALUE: HAL_ADC_Init:hadc <- $r4
	.loc	7 262 6 prologue_end    @ ../Drivers/STM32F7xx_HAL_Driver/Src/stm32f7xx_hal_adc.c:262:6
	cmp	r0, #0
	beq	.LBB0_6
.Ltmp2:
@ %bb.1:
	@DEBUG_VALUE: HAL_ADC_Init:hadc <- $r4
	.loc	7 285 12                @ ../Drivers/STM32F7xx_HAL_Driver/Src/stm32f7xx_hal_adc.c:285:12
	ldr	r0, [r4, #64]
.Ltmp3:
	.loc	7 285 6 is_stmt 0       @ ../Drivers/STM32F7xx_HAL_Driver/Src/stm32f7xx_hal_adc.c:285:6
	cbnz	r0, .LBB0_3
.Ltmp4:
@ %bb.2:
	@DEBUG_VALUE: HAL_ADC_Init:hadc <- $r4
	.loc	7 0 6                   @ ../Drivers/STM32F7xx_HAL_Driver/Src/stm32f7xx_hal_adc.c:0:6
	movs	r0, #0
.Ltmp5:
	.loc	7 291 16 is_stmt 1      @ ../Drivers/STM32F7xx_HAL_Driver/Src/stm32f7xx_hal_adc.c:291:16
	strb.w	r0, [r4, #60]
	.loc	7 288 5                 @ ../Drivers/STM32F7xx_HAL_Driver/Src/stm32f7xx_hal_adc.c:288:5
	str	r0, [r4, #68]
	.loc	7 293 5                 @ ../Drivers/STM32F7xx_HAL_Driver/Src/stm32f7xx_hal_adc.c:293:5
	mov	r0, r4
	bl	HAL_ADC_MspInit
.Ltmp6:
.LBB0_3:
	@DEBUG_VALUE: HAL_ADC_Init:hadc <- $r4
	.loc	7 298 7                 @ ../Drivers/STM32F7xx_HAL_Driver/Src/stm32f7xx_hal_adc.c:298:7
	ldr	r0, [r4, #64]
.Ltmp7:
	.loc	7 298 7 is_stmt 0       @ ../Drivers/STM32F7xx_HAL_Driver/Src/stm32f7xx_hal_adc.c:298:7
	tst.w	r0, #16
	bne	.LBB0_7
.Ltmp8:
@ %bb.4:
	@DEBUG_VALUE: HAL_ADC_Init:hadc <- $r4
	.loc	7 301 5 is_stmt 1       @ ../Drivers/STM32F7xx_HAL_Driver/Src/stm32f7xx_hal_adc.c:301:5
	ldr	r0, [r4, #64]
	movw	r1, #4354
.Ltmp9:
	.loc	7 1535 34               @ ../Drivers/STM32F7xx_HAL_Driver/Src/stm32f7xx_hal_adc.c:1535:34
	ldr	r3, __arm_cp.0_1
.Ltmp10:
	.loc	7 301 5                 @ ../Drivers/STM32F7xx_HAL_Driver/Src/stm32f7xx_hal_adc.c:301:5
	bics	r0, r1
	orr	r0, r0, #2
	str	r0, [r4, #64]
	ldr	r0, __arm_cp.0_0
.Ltmp11:
	.loc	7 1515 12               @ ../Drivers/STM32F7xx_HAL_Driver/Src/stm32f7xx_hal_adc.c:1515:12
	ldr	r1, [r0]
	bic	r1, r1, #196608
	str	r1, [r0]
	.loc	7 1516 27               @ ../Drivers/STM32F7xx_HAL_Driver/Src/stm32f7xx_hal_adc.c:1516:27
	ldr	r1, [r4, #4]
	.loc	7 1516 12 is_stmt 0     @ ../Drivers/STM32F7xx_HAL_Driver/Src/stm32f7xx_hal_adc.c:1516:12
	ldr	r2, [r0]
	orrs	r1, r2
	str	r1, [r0]
	.loc	7 1519 9 is_stmt 1      @ ../Drivers/STM32F7xx_HAL_Driver/Src/stm32f7xx_hal_adc.c:1519:9
	ldr	r0, [r4]
	.loc	7 1519 23 is_stmt 0     @ ../Drivers/STM32F7xx_HAL_Driver/Src/stm32f7xx_hal_adc.c:1519:23
	ldr	r1, [r0, #4]
	bic	r1, r1, #256
	str	r1, [r0, #4]
	.loc	7 1520 27 is_stmt 1     @ ../Drivers/STM32F7xx_HAL_Driver/Src/stm32f7xx_hal_adc.c:1520:27
	ldr	r1, [r4, #16]
	.loc	7 1520 23 is_stmt 0     @ ../Drivers/STM32F7xx_HAL_Driver/Src/stm32f7xx_hal_adc.c:1520:23
	ldr	r2, [r0, #4]
	orr.w	r1, r2, r1, lsl #8
	str	r1, [r0, #4]
	.loc	7 1523 23 is_stmt 1     @ ../Drivers/STM32F7xx_HAL_Driver/Src/stm32f7xx_hal_adc.c:1523:23
	ldr	r1, [r0, #4]
	bic	r1, r1, #50331648
	str	r1, [r0, #4]
	.loc	7 1524 38               @ ../Drivers/STM32F7xx_HAL_Driver/Src/stm32f7xx_hal_adc.c:1524:38
	ldr	r1, [r4, #8]
	.loc	7 1524 23 is_stmt 0     @ ../Drivers/STM32F7xx_HAL_Driver/Src/stm32f7xx_hal_adc.c:1524:23
	ldr	r2, [r0, #4]
	orrs	r1, r2
	str	r1, [r0, #4]
	.loc	7 1527 23 is_stmt 1     @ ../Drivers/STM32F7xx_HAL_Driver/Src/stm32f7xx_hal_adc.c:1527:23
	ldr	r1, [r0, #8]
	bic	r1, r1, #2048
	str	r1, [r0, #8]
	.loc	7 1528 37               @ ../Drivers/STM32F7xx_HAL_Driver/Src/stm32f7xx_hal_adc.c:1528:37
	ldr	r1, [r4, #12]
	.loc	7 1528 23 is_stmt 0     @ ../Drivers/STM32F7xx_HAL_Driver/Src/stm32f7xx_hal_adc.c:1528:23
	ldr	r2, [r0, #8]
	orrs	r1, r2
	str	r1, [r0, #8]
.Ltmp12:
	.loc	7 1535 17 is_stmt 1     @ ../Drivers/STM32F7xx_HAL_Driver/Src/stm32f7xx_hal_adc.c:1535:17
	ldr	r1, [r4, #40]
	ldr	r2, [r0, #8]
	bic	r2, r2, #251658240
.Ltmp13:
	.loc	7 1535 6 is_stmt 0      @ ../Drivers/STM32F7xx_HAL_Driver/Src/stm32f7xx_hal_adc.c:1535:6
	cmp	r1, r3
	str	r2, [r0, #8]
	ldr	r2, [r0, #8]
	bne	.LBB0_8
.Ltmp14:
@ %bb.5:
	@DEBUG_VALUE: HAL_ADC_Init:hadc <- $r4
	.loc	7 1549 25 is_stmt 1     @ ../Drivers/STM32F7xx_HAL_Driver/Src/stm32f7xx_hal_adc.c:1549:25
	bic	r1, r2, #805306368
	b	.LBB0_9
.Ltmp15:
.LBB0_6:
	@DEBUG_VALUE: HAL_ADC_Init:hadc <- $r4
	.loc	7 0 25 is_stmt 0        @ ../Drivers/STM32F7xx_HAL_Driver/Src/stm32f7xx_hal_adc.c:0:25
	movs	r0, #1
	.loc	7 326 1 is_stmt 1       @ ../Drivers/STM32F7xx_HAL_Driver/Src/stm32f7xx_hal_adc.c:326:1
	pop	{r4, pc}
.Ltmp16:
.LBB0_7:
	@DEBUG_VALUE: HAL_ADC_Init:hadc <- $r4
	.loc	7 0 1 is_stmt 0         @ ../Drivers/STM32F7xx_HAL_Driver/Src/stm32f7xx_hal_adc.c:0:1
	movs	r0, #1
	b	.LBB0_13
.Ltmp17:
.LBB0_8:
	@DEBUG_VALUE: HAL_ADC_Init:hadc <- $r4
	.loc	7 1539 25 is_stmt 1     @ ../Drivers/STM32F7xx_HAL_Driver/Src/stm32f7xx_hal_adc.c:1539:25
	orrs	r1, r2
	str	r1, [r0, #8]
	.loc	7 1542 25               @ ../Drivers/STM32F7xx_HAL_Driver/Src/stm32f7xx_hal_adc.c:1542:25
	ldr	r1, [r0, #8]
	bic	r1, r1, #805306368
	str	r1, [r0, #8]
	.loc	7 1543 39               @ ../Drivers/STM32F7xx_HAL_Driver/Src/stm32f7xx_hal_adc.c:1543:39
	ldr	r1, [r4, #44]
	.loc	7 1543 25 is_stmt 0     @ ../Drivers/STM32F7xx_HAL_Driver/Src/stm32f7xx_hal_adc.c:1543:25
	ldr	r2, [r0, #8]
	orrs	r1, r2
.Ltmp18:
.LBB0_9:
	@DEBUG_VALUE: HAL_ADC_Init:hadc <- $r4
	.loc	7 0 25                  @ ../Drivers/STM32F7xx_HAL_Driver/Src/stm32f7xx_hal_adc.c:0:25
	str	r1, [r0, #8]
	.loc	7 1553 23 is_stmt 1     @ ../Drivers/STM32F7xx_HAL_Driver/Src/stm32f7xx_hal_adc.c:1553:23
	ldr	r1, [r0, #8]
	bic	r1, r1, #2
	str	r1, [r0, #8]
	.loc	7 1554 26               @ ../Drivers/STM32F7xx_HAL_Driver/Src/stm32f7xx_hal_adc.c:1554:26
	ldr	r1, [r4, #24]
	.loc	7 1554 23 is_stmt 0     @ ../Drivers/STM32F7xx_HAL_Driver/Src/stm32f7xx_hal_adc.c:1554:23
	ldr	r2, [r0, #8]
	orr.w	r1, r2, r1, lsl #1
	str	r1, [r0, #8]
.Ltmp19:
	.loc	7 1556 17 is_stmt 1     @ ../Drivers/STM32F7xx_HAL_Driver/Src/stm32f7xx_hal_adc.c:1556:17
	ldr	r2, [r4, #32]
	ldr	r1, [r0, #4]
.Ltmp20:
	.loc	7 1556 6 is_stmt 0      @ ../Drivers/STM32F7xx_HAL_Driver/Src/stm32f7xx_hal_adc.c:1556:6
	cbz	r2, .LBB0_11
.Ltmp21:
@ %bb.10:
	@DEBUG_VALUE: HAL_ADC_Init:hadc <- $r4
	.loc	7 1561 25 is_stmt 1     @ ../Drivers/STM32F7xx_HAL_Driver/Src/stm32f7xx_hal_adc.c:1561:25
	orr	r1, r1, #2048
	.loc	7 1565 29               @ ../Drivers/STM32F7xx_HAL_Driver/Src/stm32f7xx_hal_adc.c:1565:29
	ldr	r2, __arm_cp.0_2
	.loc	7 1561 25               @ ../Drivers/STM32F7xx_HAL_Driver/Src/stm32f7xx_hal_adc.c:1561:25
	str	r1, [r0, #4]
	.loc	7 1564 25               @ ../Drivers/STM32F7xx_HAL_Driver/Src/stm32f7xx_hal_adc.c:1564:25
	ldr	r1, [r0, #4]
	bic	r1, r1, #57344
	str	r1, [r0, #4]
	.loc	7 1565 29               @ ../Drivers/STM32F7xx_HAL_Driver/Src/stm32f7xx_hal_adc.c:1565:29
	ldr	r1, [r4, #36]
	add.w	r1, r2, r1, lsl #13
	.loc	7 1565 25 is_stmt 0     @ ../Drivers/STM32F7xx_HAL_Driver/Src/stm32f7xx_hal_adc.c:1565:25
	ldr	r2, [r0, #4]
	orrs	r1, r2
	b	.LBB0_12
.Ltmp22:
.LBB0_11:
	@DEBUG_VALUE: HAL_ADC_Init:hadc <- $r4
	.loc	7 1570 25 is_stmt 1     @ ../Drivers/STM32F7xx_HAL_Driver/Src/stm32f7xx_hal_adc.c:1570:25
	bic	r1, r1, #2048
.Ltmp23:
.LBB0_12:
	@DEBUG_VALUE: HAL_ADC_Init:hadc <- $r4
	.loc	7 0 25 is_stmt 0        @ ../Drivers/STM32F7xx_HAL_Driver/Src/stm32f7xx_hal_adc.c:0:25
	str	r1, [r0, #4]
	.loc	7 1575 28 is_stmt 1     @ ../Drivers/STM32F7xx_HAL_Driver/Src/stm32f7xx_hal_adc.c:1575:28
	ldr	r2, __arm_cp.0_3
	.loc	7 1574 24               @ ../Drivers/STM32F7xx_HAL_Driver/Src/stm32f7xx_hal_adc.c:1574:24
	ldr	r1, [r0, #44]
	bic	r1, r1, #15728640
	str	r1, [r0, #44]
	.loc	7 1575 28               @ ../Drivers/STM32F7xx_HAL_Driver/Src/stm32f7xx_hal_adc.c:1575:28
	ldr	r1, [r4, #28]
	add.w	r1, r2, r1, lsl #20
	.loc	7 1575 24 is_stmt 0     @ ../Drivers/STM32F7xx_HAL_Driver/Src/stm32f7xx_hal_adc.c:1575:24
	ldr	r2, [r0, #44]
	orrs	r1, r2
	str	r1, [r0, #44]
	.loc	7 1578 23 is_stmt 1     @ ../Drivers/STM32F7xx_HAL_Driver/Src/stm32f7xx_hal_adc.c:1578:23
	ldr	r1, [r0, #8]
	bic	r1, r1, #512
	str	r1, [r0, #8]
	.loc	7 1579 26               @ ../Drivers/STM32F7xx_HAL_Driver/Src/stm32f7xx_hal_adc.c:1579:26
	ldr	r1, [r4, #48]
	.loc	7 1579 23 is_stmt 0     @ ../Drivers/STM32F7xx_HAL_Driver/Src/stm32f7xx_hal_adc.c:1579:23
	ldr	r2, [r0, #8]
	orr.w	r1, r2, r1, lsl #9
	str	r1, [r0, #8]
	.loc	7 1582 23 is_stmt 1     @ ../Drivers/STM32F7xx_HAL_Driver/Src/stm32f7xx_hal_adc.c:1582:23
	ldr	r1, [r0, #8]
	bic	r1, r1, #1024
	str	r1, [r0, #8]
	.loc	7 1583 26               @ ../Drivers/STM32F7xx_HAL_Driver/Src/stm32f7xx_hal_adc.c:1583:26
	ldr	r1, [r4, #20]
	.loc	7 1583 23 is_stmt 0     @ ../Drivers/STM32F7xx_HAL_Driver/Src/stm32f7xx_hal_adc.c:1583:23
	ldr	r2, [r0, #8]
	orr.w	r1, r2, r1, lsl #10
.Ltmp24:
	.loc	7 312 5 is_stmt 1       @ ../Drivers/STM32F7xx_HAL_Driver/Src/stm32f7xx_hal_adc.c:312:5
	movs	r2, #1
.Ltmp25:
	.loc	7 1583 23               @ ../Drivers/STM32F7xx_HAL_Driver/Src/stm32f7xx_hal_adc.c:1583:23
	str	r1, [r0, #8]
	movs	r0, #0
.Ltmp26:
	.loc	7 309 5                 @ ../Drivers/STM32F7xx_HAL_Driver/Src/stm32f7xx_hal_adc.c:309:5
	str	r0, [r4, #68]
	.loc	7 312 5                 @ ../Drivers/STM32F7xx_HAL_Driver/Src/stm32f7xx_hal_adc.c:312:5
	ldr	r1, [r4, #64]
	bfi	r1, r2, #0, #2
	str	r1, [r4, #64]
.Ltmp27:
.LBB0_13:
	@DEBUG_VALUE: HAL_ADC_Init:hadc <- $r4
	.loc	7 322 3                 @ ../Drivers/STM32F7xx_HAL_Driver/Src/stm32f7xx_hal_adc.c:322:3
	movs	r1, #0
	strb.w	r1, [r4, #60]
.Ltmp28:
	.loc	7 326 1                 @ ../Drivers/STM32F7xx_HAL_Driver/Src/stm32f7xx_hal_adc.c:326:1
	pop	{r4, pc}
.Ltmp29:
	.p2align	2
@ %bb.14:
	.loc	7 0 1 is_stmt 0         @ ../Drivers/STM32F7xx_HAL_Driver/Src/stm32f7xx_hal_adc.c:0:1
__arm_cp.0_0:
	.long	1073816324              @ 0x40012304
.Lcpi_end0:
	.size	__arm_cp.0_0, .Lcpi_end0-__arm_cp.0_0
__arm_cp.0_1:
	.long	251658241               @ 0xf000001
.Lcpi_end1:
	.size	__arm_cp.0_1, .Lcpi_end1-__arm_cp.0_1
__arm_cp.0_2:
	.long	4294959104              @ 0xffffe000
.Lcpi_end2:
	.size	__arm_cp.0_2, .Lcpi_end2-__arm_cp.0_2
__arm_cp.0_3:
	.long	4293918720              @ 0xfff00000
.Lcpi_end3:
	.size	__arm_cp.0_3, .Lcpi_end3-__arm_cp.0_3
.Lfunc_end0:
	.size	HAL_ADC_Init, .Lfunc_end0-HAL_ADC_Init
	.cfi_endproc
	.cantunwind
	.fnend
                                        @ -- End function
	.section	.text.HAL_ADC_MspInit,"ax",%progbits
	.hidden	HAL_ADC_MspInit         @ -- Begin function HAL_ADC_MspInit
	.weak	HAL_ADC_MspInit
	.p2align	1
	.type	HAL_ADC_MspInit,%function
	.code	16                      @ @HAL_ADC_MspInit
	.thumb_func
HAL_ADC_MspInit:
.Lfunc_begin1:
	.loc	7 382 0 is_stmt 1       @ ../Drivers/STM32F7xx_HAL_Driver/Src/stm32f7xx_hal_adc.c:382:0
	.fnstart
	.cfi_startproc
@ %bb.0:
	@DEBUG_VALUE: HAL_ADC_MspInit:hadc <- $r0
	.loc	7 388 1 prologue_end    @ ../Drivers/STM32F7xx_HAL_Driver/Src/stm32f7xx_hal_adc.c:388:1
	bx	lr
.Ltmp30:
.Lfunc_end1:
	.size	HAL_ADC_MspInit, .Lfunc_end1-HAL_ADC_MspInit
	.cfi_endproc
	.cantunwind
	.fnend
                                        @ -- End function
	.section	.text.HAL_ADC_DeInit,"ax",%progbits
	.hidden	HAL_ADC_DeInit          @ -- Begin function HAL_ADC_DeInit
	.globl	HAL_ADC_DeInit
	.p2align	1
	.type	HAL_ADC_DeInit,%function
	.code	16                      @ @HAL_ADC_DeInit
	.thumb_func
HAL_ADC_DeInit:
.Lfunc_begin2:
	.loc	7 335 0                 @ ../Drivers/STM32F7xx_HAL_Driver/Src/stm32f7xx_hal_adc.c:335:0
	.fnstart
	.cfi_startproc
@ %bb.0:
	.save	{r4, lr}
	push	{r4, lr}
	.cfi_def_cfa_offset 8
	.cfi_offset lr, -4
	.cfi_offset r4, -8
	@DEBUG_VALUE: HAL_ADC_DeInit:hadc <- $r0
	mov	r4, r0
.Ltmp31:
	@DEBUG_VALUE: HAL_ADC_DeInit:tmp_hal_status <- 0
	@DEBUG_VALUE: HAL_ADC_DeInit:hadc <- $r4
	.loc	7 339 6 prologue_end    @ ../Drivers/STM32F7xx_HAL_Driver/Src/stm32f7xx_hal_adc.c:339:6
	cbz	r0, .LBB2_4
.Ltmp32:
@ %bb.1:
	@DEBUG_VALUE: HAL_ADC_DeInit:hadc <- $r4
	.loc	7 352 3                 @ ../Drivers/STM32F7xx_HAL_Driver/Src/stm32f7xx_hal_adc.c:352:3
	ldr	r0, [r4]
	.loc	7 348 3                 @ ../Drivers/STM32F7xx_HAL_Driver/Src/stm32f7xx_hal_adc.c:348:3
	ldr	r1, [r4, #64]
	orr	r1, r1, #2
	str	r1, [r4, #64]
	.loc	7 352 3                 @ ../Drivers/STM32F7xx_HAL_Driver/Src/stm32f7xx_hal_adc.c:352:3
	ldr	r1, [r0, #8]
	bic	r1, r1, #1
	str	r1, [r0, #8]
.Ltmp33:
	.loc	7 356 6                 @ ../Drivers/STM32F7xx_HAL_Driver/Src/stm32f7xx_hal_adc.c:356:6
	ldr	r0, [r0, #8]
.Ltmp34:
	.loc	7 356 6 is_stmt 0       @ ../Drivers/STM32F7xx_HAL_Driver/Src/stm32f7xx_hal_adc.c:356:6
	tst.w	r0, #1
	bne	.LBB2_3
.Ltmp35:
@ %bb.2:
	@DEBUG_VALUE: HAL_ADC_DeInit:hadc <- $r4
	.loc	7 359 5 is_stmt 1       @ ../Drivers/STM32F7xx_HAL_Driver/Src/stm32f7xx_hal_adc.c:359:5
	mov	r0, r4
	bl	HAL_ADC_MspDeInit
	movs	r0, #0
	.loc	7 362 5                 @ ../Drivers/STM32F7xx_HAL_Driver/Src/stm32f7xx_hal_adc.c:362:5
	str	r0, [r4, #68]
	.loc	7 365 17                @ ../Drivers/STM32F7xx_HAL_Driver/Src/stm32f7xx_hal_adc.c:365:17
	str	r0, [r4, #64]
.Ltmp36:
.LBB2_3:
	@DEBUG_VALUE: HAL_ADC_DeInit:hadc <- $r4
	.loc	7 0 17 is_stmt 0        @ ../Drivers/STM32F7xx_HAL_Driver/Src/stm32f7xx_hal_adc.c:0:17
	movs	r0, #0
.Ltmp37:
	.loc	7 369 3 is_stmt 1       @ ../Drivers/STM32F7xx_HAL_Driver/Src/stm32f7xx_hal_adc.c:369:3
	strb.w	r0, [r4, #60]
.Ltmp38:
	.loc	7 373 1                 @ ../Drivers/STM32F7xx_HAL_Driver/Src/stm32f7xx_hal_adc.c:373:1
	pop	{r4, pc}
.Ltmp39:
.LBB2_4:
	@DEBUG_VALUE: HAL_ADC_DeInit:hadc <- $r4
	.loc	7 0 1 is_stmt 0         @ ../Drivers/STM32F7xx_HAL_Driver/Src/stm32f7xx_hal_adc.c:0:1
	movs	r0, #1
	.loc	7 373 1                 @ ../Drivers/STM32F7xx_HAL_Driver/Src/stm32f7xx_hal_adc.c:373:1
	pop	{r4, pc}
.Ltmp40:
.Lfunc_end2:
	.size	HAL_ADC_DeInit, .Lfunc_end2-HAL_ADC_DeInit
	.cfi_endproc
	.cantunwind
	.fnend
                                        @ -- End function
	.section	.text.HAL_ADC_MspDeInit,"ax",%progbits
	.hidden	HAL_ADC_MspDeInit       @ -- Begin function HAL_ADC_MspDeInit
	.weak	HAL_ADC_MspDeInit
	.p2align	1
	.type	HAL_ADC_MspDeInit,%function
	.code	16                      @ @HAL_ADC_MspDeInit
	.thumb_func
HAL_ADC_MspDeInit:
.Lfunc_begin3:
	.loc	7 397 0 is_stmt 1       @ ../Drivers/STM32F7xx_HAL_Driver/Src/stm32f7xx_hal_adc.c:397:0
	.fnstart
	.cfi_startproc
@ %bb.0:
	@DEBUG_VALUE: HAL_ADC_MspDeInit:hadc <- $r0
	.loc	7 403 1 prologue_end    @ ../Drivers/STM32F7xx_HAL_Driver/Src/stm32f7xx_hal_adc.c:403:1
	bx	lr
.Ltmp41:
.Lfunc_end3:
	.size	HAL_ADC_MspDeInit, .Lfunc_end3-HAL_ADC_MspDeInit
	.cfi_endproc
	.cantunwind
	.fnend
                                        @ -- End function
	.section	.text.HAL_ADC_Start,"ax",%progbits
	.hidden	HAL_ADC_Start           @ -- Begin function HAL_ADC_Start
	.globl	HAL_ADC_Start
	.p2align	2
	.type	HAL_ADC_Start,%function
	.code	16                      @ @HAL_ADC_Start
	.thumb_func
HAL_ADC_Start:
.Lfunc_begin4:
	.loc	7 436 0                 @ ../Drivers/STM32F7xx_HAL_Driver/Src/stm32f7xx_hal_adc.c:436:0
	.fnstart
	.cfi_startproc
@ %bb.0:
	.pad	#4
	sub	sp, #4
	.cfi_def_cfa_offset 4
	@DEBUG_VALUE: HAL_ADC_Start:hadc <- $r0
	movs	r1, #0
.Ltmp42:
	@DEBUG_VALUE: HAL_ADC_Start:counter <- 0
	@DEBUG_VALUE: HAL_ADC_Start:hadc <- $r0
	.loc	7 437 17 prologue_end   @ ../Drivers/STM32F7xx_HAL_Driver/Src/stm32f7xx_hal_adc.c:437:17
	str	r1, [sp]
.Ltmp43:
	.loc	7 444 3                 @ ../Drivers/STM32F7xx_HAL_Driver/Src/stm32f7xx_hal_adc.c:444:3
	ldrb.w	r1, [r0, #60]
.Ltmp44:
	.loc	7 444 3 is_stmt 0       @ ../Drivers/STM32F7xx_HAL_Driver/Src/stm32f7xx_hal_adc.c:444:3
	cmp	r1, #1
	bne	.LBB4_2
.Ltmp45:
@ %bb.1:
	@DEBUG_VALUE: HAL_ADC_Start:hadc <- $r0
	.loc	7 0 3                   @ ../Drivers/STM32F7xx_HAL_Driver/Src/stm32f7xx_hal_adc.c:0:3
	movs	r0, #2
.Ltmp46:
	b	.LBB4_10
.LBB4_2:
.Ltmp47:
	@DEBUG_VALUE: HAL_ADC_Start:hadc <- $r0
	movs	r1, #1
.Ltmp48:
	.loc	7 444 3                 @ ../Drivers/STM32F7xx_HAL_Driver/Src/stm32f7xx_hal_adc.c:444:3
	strb.w	r1, [r0, #60]
.Ltmp49:
	.loc	7 449 13 is_stmt 1      @ ../Drivers/STM32F7xx_HAL_Driver/Src/stm32f7xx_hal_adc.c:449:13
	ldr	r1, [r0]
	.loc	7 449 23 is_stmt 0      @ ../Drivers/STM32F7xx_HAL_Driver/Src/stm32f7xx_hal_adc.c:449:23
	ldr	r2, [r1, #8]
.Ltmp50:
	.loc	7 449 6                 @ ../Drivers/STM32F7xx_HAL_Driver/Src/stm32f7xx_hal_adc.c:449:6
	tst.w	r2, #1
	bne	.LBB4_6
.Ltmp51:
@ %bb.3:
	@DEBUG_VALUE: HAL_ADC_Start:hadc <- $r0
	.loc	7 452 5 is_stmt 1       @ ../Drivers/STM32F7xx_HAL_Driver/Src/stm32f7xx_hal_adc.c:452:5
	ldr	r2, [r1, #8]
	.loc	7 456 53                @ ../Drivers/STM32F7xx_HAL_Driver/Src/stm32f7xx_hal_adc.c:456:53
	ldr	r3, __arm_cp.4_1
	.loc	7 452 5                 @ ../Drivers/STM32F7xx_HAL_Driver/Src/stm32f7xx_hal_adc.c:452:5
	orr	r2, r2, #1
	str	r2, [r1, #8]
	.loc	7 456 37                @ ../Drivers/STM32F7xx_HAL_Driver/Src/stm32f7xx_hal_adc.c:456:37
	ldr	r2, __arm_cp.4_0
	ldr	r2, [r2]
	.loc	7 456 53 is_stmt 0      @ ../Drivers/STM32F7xx_HAL_Driver/Src/stm32f7xx_hal_adc.c:456:53
	udiv	r2, r2, r3
	.loc	7 456 34                @ ../Drivers/STM32F7xx_HAL_Driver/Src/stm32f7xx_hal_adc.c:456:34
	add.w	r2, r2, r2, lsl #1
	b	.LBB4_5
.Ltmp52:
.LBB4_4:                                @   in Loop: Header=BB4_5 Depth=1
	@DEBUG_VALUE: HAL_ADC_Start:counter <- $r2
	@DEBUG_VALUE: HAL_ADC_Start:hadc <- $r0
	.loc	7 459 14 is_stmt 1      @ ../Drivers/STM32F7xx_HAL_Driver/Src/stm32f7xx_hal_adc.c:459:14
	ldr	r2, [sp]
.Ltmp53:
	@DEBUG_VALUE: HAL_ADC_Start:counter <- $r2
	subs	r2, #1
.Ltmp54:
.LBB4_5:                                @ =>This Inner Loop Header: Depth=1
	@DEBUG_VALUE: HAL_ADC_Start:hadc <- $r0
	@DEBUG_VALUE: HAL_ADC_Start:counter <- $r2
	.loc	7 0 14 is_stmt 0        @ ../Drivers/STM32F7xx_HAL_Driver/Src/stm32f7xx_hal_adc.c:0:14
	str	r2, [sp]
	.loc	7 457 11 is_stmt 1      @ ../Drivers/STM32F7xx_HAL_Driver/Src/stm32f7xx_hal_adc.c:457:11
	ldr	r2, [sp]
.Ltmp55:
	@DEBUG_VALUE: HAL_ADC_Start:counter <- $r2
	.loc	7 457 5 is_stmt 0       @ ../Drivers/STM32F7xx_HAL_Driver/Src/stm32f7xx_hal_adc.c:457:5
	cmp	r2, #0
	bne	.LBB4_4
.Ltmp56:
.LBB4_6:
	@DEBUG_VALUE: HAL_ADC_Start:hadc <- $r0
	.loc	7 464 6 is_stmt 1       @ ../Drivers/STM32F7xx_HAL_Driver/Src/stm32f7xx_hal_adc.c:464:6
	ldr	r2, [r1, #8]
.Ltmp57:
	.loc	7 464 6 is_stmt 0       @ ../Drivers/STM32F7xx_HAL_Driver/Src/stm32f7xx_hal_adc.c:464:6
	tst.w	r2, #1
	beq	.LBB4_9
.Ltmp58:
@ %bb.7:
	@DEBUG_VALUE: HAL_ADC_Start:hadc <- $r0
	.loc	7 469 5 is_stmt 1       @ ../Drivers/STM32F7xx_HAL_Driver/Src/stm32f7xx_hal_adc.c:469:5
	ldr	r2, [r0, #64]
	movw	r3, #1793
	bics	r2, r3
	orr	r2, r2, #256
	str	r2, [r0, #64]
.Ltmp59:
	.loc	7 475 9                 @ ../Drivers/STM32F7xx_HAL_Driver/Src/stm32f7xx_hal_adc.c:475:9
	ldr	r2, [r1, #4]
.Ltmp60:
	.loc	7 475 9 is_stmt 0       @ ../Drivers/STM32F7xx_HAL_Driver/Src/stm32f7xx_hal_adc.c:475:9
	tst.w	r2, #1024
.Ltmp61:
	.loc	7 477 7 is_stmt 1       @ ../Drivers/STM32F7xx_HAL_Driver/Src/stm32f7xx_hal_adc.c:477:7
	itttt	ne
	ldrne	r2, [r0, #64]
	movne	r3, #1
	bfine	r2, r3, #12, #2
	strne	r2, [r0, #64]
.Ltmp62:
	.loc	7 481 9                 @ ../Drivers/STM32F7xx_HAL_Driver/Src/stm32f7xx_hal_adc.c:481:9
	ldr	r3, [r0, #64]
	movs	r2, #0
.Ltmp63:
	.loc	7 481 9 is_stmt 0       @ ../Drivers/STM32F7xx_HAL_Driver/Src/stm32f7xx_hal_adc.c:481:9
	tst.w	r3, #4096
	mov.w	r3, #0
.Ltmp64:
	.loc	7 484 7 is_stmt 1       @ ../Drivers/STM32F7xx_HAL_Driver/Src/stm32f7xx_hal_adc.c:484:7
	itt	ne
	ldrne	r3, [r0, #68]
	bicne	r3, r3, #6
.Ltmp65:
	.loc	7 495 5                 @ ../Drivers/STM32F7xx_HAL_Driver/Src/stm32f7xx_hal_adc.c:495:5
	strb.w	r2, [r0, #60]
	str	r3, [r0, #68]
.Ltmp66:
	.loc	7 499 5                 @ ../Drivers/STM32F7xx_HAL_Driver/Src/stm32f7xx_hal_adc.c:499:5
	mvn	r0, #34
.Ltmp67:
	str	r0, [r1]
	ldr	r0, __arm_cp.4_2
.Ltmp68:
	.loc	7 502 8                 @ ../Drivers/STM32F7xx_HAL_Driver/Src/stm32f7xx_hal_adc.c:502:8
	ldr.w	r2, [r0, #772]
.Ltmp69:
	.loc	7 502 8 is_stmt 0       @ ../Drivers/STM32F7xx_HAL_Driver/Src/stm32f7xx_hal_adc.c:502:8
	tst.w	r2, #31
.Ltmp70:
	.loc	7 514 35 is_stmt 1      @ ../Drivers/STM32F7xx_HAL_Driver/Src/stm32f7xx_hal_adc.c:514:35
	it	ne
	cmpne	r1, r0
	bne	.LBB4_9
.Ltmp71:
@ %bb.8:
	.loc	7 0 35 is_stmt 0        @ ../Drivers/STM32F7xx_HAL_Driver/Src/stm32f7xx_hal_adc.c:0:35
	ldr	r0, [r1, #8]
	tst.w	r0, #805306368
	ittt	eq
	ldreq	r0, [r1, #8]
	orreq	r0, r0, #1073741824
	streq	r0, [r1, #8]
.LBB4_9:
	movs	r0, #0
.LBB4_10:
	.loc	7 524 1 is_stmt 1       @ ../Drivers/STM32F7xx_HAL_Driver/Src/stm32f7xx_hal_adc.c:524:1
	uxtb	r0, r0
	add	sp, #4
	bx	lr
.Ltmp72:
	.p2align	2
@ %bb.11:
	.loc	7 0 1 is_stmt 0         @ ../Drivers/STM32F7xx_HAL_Driver/Src/stm32f7xx_hal_adc.c:0:1
__arm_cp.4_0:
	.long	SystemCoreClock
.Lcpi_end4:
	.size	__arm_cp.4_0, .Lcpi_end4-__arm_cp.4_0
__arm_cp.4_1:
	.long	1000000                 @ 0xf4240
.Lcpi_end5:
	.size	__arm_cp.4_1, .Lcpi_end5-__arm_cp.4_1
__arm_cp.4_2:
	.long	1073815552              @ 0x40012000
.Lcpi_end6:
	.size	__arm_cp.4_2, .Lcpi_end6-__arm_cp.4_2
.Lfunc_end4:
	.size	HAL_ADC_Start, .Lfunc_end4-HAL_ADC_Start
	.cfi_endproc
	.cantunwind
	.fnend
                                        @ -- End function
	.section	.text.HAL_ADC_Stop,"ax",%progbits
	.hidden	HAL_ADC_Stop            @ -- Begin function HAL_ADC_Stop
	.globl	HAL_ADC_Stop
	.p2align	1
	.type	HAL_ADC_Stop,%function
	.code	16                      @ @HAL_ADC_Stop
	.thumb_func
HAL_ADC_Stop:
.Lfunc_begin5:
	.loc	7 537 0 is_stmt 1       @ ../Drivers/STM32F7xx_HAL_Driver/Src/stm32f7xx_hal_adc.c:537:0
	.fnstart
	.cfi_startproc
@ %bb.0:
	@DEBUG_VALUE: HAL_ADC_Stop:hadc <- $r0
	@DEBUG_VALUE: HAL_ADC_Stop:hadc <- $r0
	.loc	7 542 3 prologue_end    @ ../Drivers/STM32F7xx_HAL_Driver/Src/stm32f7xx_hal_adc.c:542:3
	ldrb.w	r1, [r0, #60]
.Ltmp73:
	.loc	7 542 3 is_stmt 0       @ ../Drivers/STM32F7xx_HAL_Driver/Src/stm32f7xx_hal_adc.c:542:3
	cmp	r1, #1
	bne	.LBB5_2
@ %bb.1:
	@DEBUG_VALUE: HAL_ADC_Stop:hadc <- $r0
	.loc	7 0 3                   @ ../Drivers/STM32F7xx_HAL_Driver/Src/stm32f7xx_hal_adc.c:0:3
	movs	r1, #2
	b	.LBB5_5
.LBB5_2:
	@DEBUG_VALUE: HAL_ADC_Stop:hadc <- $r0
	movs	r1, #1
.Ltmp74:
	.loc	7 542 3                 @ ../Drivers/STM32F7xx_HAL_Driver/Src/stm32f7xx_hal_adc.c:542:3
	strb.w	r1, [r0, #60]
.Ltmp75:
	.loc	7 546 3 is_stmt 1       @ ../Drivers/STM32F7xx_HAL_Driver/Src/stm32f7xx_hal_adc.c:546:3
	ldr	r1, [r0]
	ldr	r2, [r1, #8]
	bic	r2, r2, #1
	str	r2, [r1, #8]
.Ltmp76:
	.loc	7 549 6                 @ ../Drivers/STM32F7xx_HAL_Driver/Src/stm32f7xx_hal_adc.c:549:6
	ldr	r1, [r1, #8]
.Ltmp77:
	.loc	7 549 6 is_stmt 0       @ ../Drivers/STM32F7xx_HAL_Driver/Src/stm32f7xx_hal_adc.c:549:6
	tst.w	r1, #1
	bne	.LBB5_4
@ %bb.3:
	@DEBUG_VALUE: HAL_ADC_Stop:hadc <- $r0
.Ltmp78:
	.loc	7 552 5 is_stmt 1       @ ../Drivers/STM32F7xx_HAL_Driver/Src/stm32f7xx_hal_adc.c:552:5
	ldr	r1, [r0, #64]
	movw	r2, #4353
	bics	r1, r2
	orr	r1, r1, #1
	str	r1, [r0, #64]
.Ltmp79:
.LBB5_4:
	@DEBUG_VALUE: HAL_ADC_Stop:hadc <- $r0
	.loc	7 0 5 is_stmt 0         @ ../Drivers/STM32F7xx_HAL_Driver/Src/stm32f7xx_hal_adc.c:0:5
	movs	r1, #0
.Ltmp80:
	.loc	7 558 3 is_stmt 1       @ ../Drivers/STM32F7xx_HAL_Driver/Src/stm32f7xx_hal_adc.c:558:3
	strb.w	r1, [r0, #60]
.Ltmp81:
.LBB5_5:
	@DEBUG_VALUE: HAL_ADC_Stop:hadc <- $r0
	.loc	7 562 1                 @ ../Drivers/STM32F7xx_HAL_Driver/Src/stm32f7xx_hal_adc.c:562:1
	uxtb	r0, r1
	bx	lr
.Ltmp82:
.Lfunc_end5:
	.size	HAL_ADC_Stop, .Lfunc_end5-HAL_ADC_Stop
	.cfi_endproc
	.cantunwind
	.fnend
                                        @ -- End function
	.section	.text.HAL_ADC_PollForConversion,"ax",%progbits
	.hidden	HAL_ADC_PollForConversion @ -- Begin function HAL_ADC_PollForConversion
	.globl	HAL_ADC_PollForConversion
	.p2align	1
	.type	HAL_ADC_PollForConversion,%function
	.code	16                      @ @HAL_ADC_PollForConversion
	.thumb_func
HAL_ADC_PollForConversion:
.Lfunc_begin6:
	.loc	7 580 0                 @ ../Drivers/STM32F7xx_HAL_Driver/Src/stm32f7xx_hal_adc.c:580:0
	.fnstart
	.cfi_startproc
@ %bb.0:
	.save	{r4, r5, r6, r7, lr}
	.pad	#4
	push	{r3, r4, r5, r6, r7, lr}
	.cfi_def_cfa_offset 24
	.cfi_offset lr, -4
	.cfi_offset r7, -8
	.cfi_offset r6, -12
	.cfi_offset r5, -16
	.cfi_offset r4, -20
	@DEBUG_VALUE: HAL_ADC_PollForConversion:hadc <- $r0
	@DEBUG_VALUE: HAL_ADC_PollForConversion:Timeout <- $r1
	mov	r4, r0
.Ltmp83:
	@DEBUG_VALUE: HAL_ADC_PollForConversion:tickstart <- 0
	@DEBUG_VALUE: HAL_ADC_PollForConversion:Timeout <- $r5
	@DEBUG_VALUE: HAL_ADC_PollForConversion:hadc <- $r4
	.loc	7 589 7 prologue_end    @ ../Drivers/STM32F7xx_HAL_Driver/Src/stm32f7xx_hal_adc.c:589:7
	ldr	r0, [r0]
	mov	r5, r1
.Ltmp84:
	ldr	r1, [r0, #8]
	.loc	7 589 57 is_stmt 0      @ ../Drivers/STM32F7xx_HAL_Driver/Src/stm32f7xx_hal_adc.c:589:57
	tst.w	r1, #1024
	.loc	7 590 7 is_stmt 1       @ ../Drivers/STM32F7xx_HAL_Driver/Src/stm32f7xx_hal_adc.c:590:7
	itt	ne
	ldrne	r0, [r0, #8]
.Ltmp85:
	.loc	7 589 7                 @ ../Drivers/STM32F7xx_HAL_Driver/Src/stm32f7xx_hal_adc.c:589:7
	tstne.w	r0, #256
	bne	.LBB6_12
.Ltmp86:
@ %bb.1:
	@DEBUG_VALUE: HAL_ADC_PollForConversion:hadc <- $r4
	.loc	7 602 15                @ ../Drivers/STM32F7xx_HAL_Driver/Src/stm32f7xx_hal_adc.c:602:15
	bl	HAL_GetTick
	mov	r6, r0
.Ltmp87:
	@DEBUG_VALUE: HAL_ADC_PollForConversion:tickstart <- $r6
	.loc	7 0 15 is_stmt 0        @ ../Drivers/STM32F7xx_HAL_Driver/Src/stm32f7xx_hal_adc.c:0:15
	adds	r7, r5, #1
.Ltmp88:
.LBB6_2:                                @ =>This Inner Loop Header: Depth=1
	@DEBUG_VALUE: HAL_ADC_PollForConversion:tickstart <- $r6
	@DEBUG_VALUE: HAL_ADC_PollForConversion:hadc <- $r4
	.loc	7 605 11 is_stmt 1      @ ../Drivers/STM32F7xx_HAL_Driver/Src/stm32f7xx_hal_adc.c:605:11
	ldr	r0, [r4]
	ldr	r1, [r0]
	.loc	7 605 3 is_stmt 0       @ ../Drivers/STM32F7xx_HAL_Driver/Src/stm32f7xx_hal_adc.c:605:3
	tst.w	r1, #2
	bne	.LBB6_7
.Ltmp89:
@ %bb.3:                                @   in Loop: Header=BB6_2 Depth=1
	@DEBUG_VALUE: HAL_ADC_PollForConversion:tickstart <- $r6
	@DEBUG_VALUE: HAL_ADC_PollForConversion:hadc <- $r4
	.loc	7 608 8 is_stmt 1       @ ../Drivers/STM32F7xx_HAL_Driver/Src/stm32f7xx_hal_adc.c:608:8
	cmp	r7, #0
	beq	.LBB6_2
.Ltmp90:
@ %bb.4:                                @   in Loop: Header=BB6_2 Depth=1
	@DEBUG_VALUE: HAL_ADC_PollForConversion:tickstart <- $r6
	@DEBUG_VALUE: HAL_ADC_PollForConversion:hadc <- $r4
	cbz	r5, .LBB6_6
.Ltmp91:
@ %bb.5:                                @   in Loop: Header=BB6_2 Depth=1
	@DEBUG_VALUE: HAL_ADC_PollForConversion:tickstart <- $r6
	@DEBUG_VALUE: HAL_ADC_PollForConversion:hadc <- $r4
	.loc	7 610 30                @ ../Drivers/STM32F7xx_HAL_Driver/Src/stm32f7xx_hal_adc.c:610:30
	bl	HAL_GetTick
	.loc	7 610 44 is_stmt 0      @ ../Drivers/STM32F7xx_HAL_Driver/Src/stm32f7xx_hal_adc.c:610:44
	subs	r0, r0, r6
.Ltmp92:
	.loc	7 610 10                @ ../Drivers/STM32F7xx_HAL_Driver/Src/stm32f7xx_hal_adc.c:610:10
	cmp	r0, r5
	bls	.LBB6_2
.Ltmp93:
.LBB6_6:
	@DEBUG_VALUE: HAL_ADC_PollForConversion:tickstart <- $r6
	@DEBUG_VALUE: HAL_ADC_PollForConversion:hadc <- $r4
	.loc	7 616 9 is_stmt 1       @ ../Drivers/STM32F7xx_HAL_Driver/Src/stm32f7xx_hal_adc.c:616:9
	movs	r0, #0
	strb.w	r0, [r4, #60]
.Ltmp94:
	.loc	7 613 9                 @ ../Drivers/STM32F7xx_HAL_Driver/Src/stm32f7xx_hal_adc.c:613:9
	ldr	r0, [r4, #64]
	orr	r0, r0, #4
	str	r0, [r4, #64]
	movs	r0, #3
	b	.LBB6_13
.Ltmp95:
.LBB6_7:
	@DEBUG_VALUE: HAL_ADC_PollForConversion:tickstart <- $r6
	@DEBUG_VALUE: HAL_ADC_PollForConversion:hadc <- $r4
	.loc	7 624 3                 @ ../Drivers/STM32F7xx_HAL_Driver/Src/stm32f7xx_hal_adc.c:624:3
	mvn	r1, #18
	str	r1, [r0]
	.loc	7 627 3                 @ ../Drivers/STM32F7xx_HAL_Driver/Src/stm32f7xx_hal_adc.c:627:3
	ldr	r1, [r4, #64]
	orr	r1, r1, #512
	str	r1, [r4, #64]
.Ltmp96:
	.loc	7 635 6                 @ ../Drivers/STM32F7xx_HAL_Driver/Src/stm32f7xx_hal_adc.c:635:6
	ldr	r1, [r0, #8]
	.loc	7 635 60 is_stmt 0      @ ../Drivers/STM32F7xx_HAL_Driver/Src/stm32f7xx_hal_adc.c:635:60
	tst.w	r1, #805306368
	bne	.LBB6_11
.Ltmp97:
@ %bb.8:
	@DEBUG_VALUE: HAL_ADC_PollForConversion:tickstart <- $r6
	@DEBUG_VALUE: HAL_ADC_PollForConversion:hadc <- $r4
	.loc	7 636 18 is_stmt 1      @ ../Drivers/STM32F7xx_HAL_Driver/Src/stm32f7xx_hal_adc.c:636:18
	ldr	r1, [r4, #24]
	.loc	7 636 60 is_stmt 0      @ ../Drivers/STM32F7xx_HAL_Driver/Src/stm32f7xx_hal_adc.c:636:60
	cbnz	r1, .LBB6_11
.Ltmp98:
@ %bb.9:
	@DEBUG_VALUE: HAL_ADC_PollForConversion:tickstart <- $r6
	@DEBUG_VALUE: HAL_ADC_PollForConversion:hadc <- $r4
	.loc	7 637 7 is_stmt 1       @ ../Drivers/STM32F7xx_HAL_Driver/Src/stm32f7xx_hal_adc.c:637:7
	ldr	r1, [r0, #44]
	.loc	7 637 56 is_stmt 0      @ ../Drivers/STM32F7xx_HAL_Driver/Src/stm32f7xx_hal_adc.c:637:56
	tst.w	r1, #15728640
	.loc	7 638 7 is_stmt 1       @ ../Drivers/STM32F7xx_HAL_Driver/Src/stm32f7xx_hal_adc.c:638:7
	itt	ne
	ldrne	r0, [r0, #8]
.Ltmp99:
	.loc	7 635 6                 @ ../Drivers/STM32F7xx_HAL_Driver/Src/stm32f7xx_hal_adc.c:635:6
	tstne.w	r0, #1024
	bne	.LBB6_11
.Ltmp100:
@ %bb.10:
	@DEBUG_VALUE: HAL_ADC_PollForConversion:tickstart <- $r6
	@DEBUG_VALUE: HAL_ADC_PollForConversion:hadc <- $r4
	.loc	7 641 5                 @ ../Drivers/STM32F7xx_HAL_Driver/Src/stm32f7xx_hal_adc.c:641:5
	ldr	r0, [r4, #64]
	bic	r0, r0, #256
	str	r0, [r4, #64]
.Ltmp101:
	.loc	7 643 9                 @ ../Drivers/STM32F7xx_HAL_Driver/Src/stm32f7xx_hal_adc.c:643:9
	ldr	r0, [r4, #64]
.Ltmp102:
	.loc	7 643 9 is_stmt 0       @ ../Drivers/STM32F7xx_HAL_Driver/Src/stm32f7xx_hal_adc.c:643:9
	tst.w	r0, #4096
.Ltmp103:
	.loc	7 645 7 is_stmt 1       @ ../Drivers/STM32F7xx_HAL_Driver/Src/stm32f7xx_hal_adc.c:645:7
	ittt	eq
	ldreq	r0, [r4, #64]
	orreq	r0, r0, #1
	streq	r0, [r4, #64]
.Ltmp104:
.LBB6_11:
	@DEBUG_VALUE: HAL_ADC_PollForConversion:tickstart <- $r6
	@DEBUG_VALUE: HAL_ADC_PollForConversion:hadc <- $r4
	.loc	7 0 7 is_stmt 0         @ ../Drivers/STM32F7xx_HAL_Driver/Src/stm32f7xx_hal_adc.c:0:7
	movs	r0, #0
	b	.LBB6_13
.Ltmp105:
.LBB6_12:
	@DEBUG_VALUE: HAL_ADC_PollForConversion:hadc <- $r4
	.loc	7 596 5 is_stmt 1       @ ../Drivers/STM32F7xx_HAL_Driver/Src/stm32f7xx_hal_adc.c:596:5
	movs	r0, #0
	strb.w	r0, [r4, #60]
.Ltmp106:
	.loc	7 593 5                 @ ../Drivers/STM32F7xx_HAL_Driver/Src/stm32f7xx_hal_adc.c:593:5
	ldr	r0, [r4, #64]
	orr	r0, r0, #32
	str	r0, [r4, #64]
	movs	r0, #1
.Ltmp107:
.LBB6_13:
	@DEBUG_VALUE: HAL_ADC_PollForConversion:hadc <- $r4
	.loc	7 651 1                 @ ../Drivers/STM32F7xx_HAL_Driver/Src/stm32f7xx_hal_adc.c:651:1
	uxtb	r0, r0
	add	sp, #4
	pop	{r4, r5, r6, r7, pc}
.Ltmp108:
.Lfunc_end6:
	.size	HAL_ADC_PollForConversion, .Lfunc_end6-HAL_ADC_PollForConversion
	.cfi_endproc
	.cantunwind
	.fnend
                                        @ -- End function
	.section	.text.HAL_ADC_PollForEvent,"ax",%progbits
	.hidden	HAL_ADC_PollForEvent    @ -- Begin function HAL_ADC_PollForEvent
	.globl	HAL_ADC_PollForEvent
	.p2align	1
	.type	HAL_ADC_PollForEvent,%function
	.code	16                      @ @HAL_ADC_PollForEvent
	.thumb_func
HAL_ADC_PollForEvent:
.Lfunc_begin7:
	.loc	7 665 0                 @ ../Drivers/STM32F7xx_HAL_Driver/Src/stm32f7xx_hal_adc.c:665:0
	.fnstart
	.cfi_startproc
@ %bb.0:
	.save	{r4, r5, r6, r7, r8, lr}
	push.w	{r4, r5, r6, r7, r8, lr}
	.cfi_def_cfa_offset 24
	.cfi_offset lr, -4
	.cfi_offset r8, -8
	.cfi_offset r7, -12
	.cfi_offset r6, -16
	.cfi_offset r5, -20
	.cfi_offset r4, -24
	@DEBUG_VALUE: HAL_ADC_PollForEvent:hadc <- $r0
	@DEBUG_VALUE: HAL_ADC_PollForEvent:EventType <- $r1
	@DEBUG_VALUE: HAL_ADC_PollForEvent:Timeout <- $r2
	mov	r6, r2
	mov	r5, r1
	mov	r4, r0
.Ltmp109:
	@DEBUG_VALUE: HAL_ADC_PollForEvent:tickstart <- 0
	@DEBUG_VALUE: HAL_ADC_PollForEvent:Timeout <- $r6
	@DEBUG_VALUE: HAL_ADC_PollForEvent:EventType <- $r5
	@DEBUG_VALUE: HAL_ADC_PollForEvent:hadc <- $r4
	.loc	7 673 15 prologue_end   @ ../Drivers/STM32F7xx_HAL_Driver/Src/stm32f7xx_hal_adc.c:673:15
	bl	HAL_GetTick
	mov	r8, r0
.Ltmp110:
	@DEBUG_VALUE: HAL_ADC_PollForEvent:tickstart <- $r8
	.loc	7 0 15 is_stmt 0        @ ../Drivers/STM32F7xx_HAL_Driver/Src/stm32f7xx_hal_adc.c:0:15
	adds	r7, r6, #1
.Ltmp111:
.LBB7_1:                                @ =>This Inner Loop Header: Depth=1
	@DEBUG_VALUE: HAL_ADC_PollForEvent:tickstart <- $r8
	@DEBUG_VALUE: HAL_ADC_PollForEvent:hadc <- $r4
	@DEBUG_VALUE: HAL_ADC_PollForEvent:EventType <- $r5
	@DEBUG_VALUE: HAL_ADC_PollForEvent:Timeout <- $r6
	.loc	7 676 11 is_stmt 1      @ ../Drivers/STM32F7xx_HAL_Driver/Src/stm32f7xx_hal_adc.c:676:11
	ldr	r0, [r4]
	ldr	r1, [r0]
	ands	r1, r5
	.loc	7 676 3 is_stmt 0       @ ../Drivers/STM32F7xx_HAL_Driver/Src/stm32f7xx_hal_adc.c:676:3
	cmp	r1, r5
	beq	.LBB7_6
.Ltmp112:
@ %bb.2:                                @   in Loop: Header=BB7_1 Depth=1
	@DEBUG_VALUE: HAL_ADC_PollForEvent:tickstart <- $r8
	@DEBUG_VALUE: HAL_ADC_PollForEvent:hadc <- $r4
	@DEBUG_VALUE: HAL_ADC_PollForEvent:EventType <- $r5
	@DEBUG_VALUE: HAL_ADC_PollForEvent:Timeout <- $r6
	.loc	7 679 8 is_stmt 1       @ ../Drivers/STM32F7xx_HAL_Driver/Src/stm32f7xx_hal_adc.c:679:8
	cmp	r7, #0
	beq	.LBB7_1
.Ltmp113:
@ %bb.3:                                @   in Loop: Header=BB7_1 Depth=1
	@DEBUG_VALUE: HAL_ADC_PollForEvent:tickstart <- $r8
	@DEBUG_VALUE: HAL_ADC_PollForEvent:hadc <- $r4
	@DEBUG_VALUE: HAL_ADC_PollForEvent:EventType <- $r5
	@DEBUG_VALUE: HAL_ADC_PollForEvent:Timeout <- $r6
	cbz	r6, .LBB7_5
.Ltmp114:
@ %bb.4:                                @   in Loop: Header=BB7_1 Depth=1
	@DEBUG_VALUE: HAL_ADC_PollForEvent:tickstart <- $r8
	@DEBUG_VALUE: HAL_ADC_PollForEvent:hadc <- $r4
	@DEBUG_VALUE: HAL_ADC_PollForEvent:EventType <- $r5
	@DEBUG_VALUE: HAL_ADC_PollForEvent:Timeout <- $r6
	.loc	7 681 30                @ ../Drivers/STM32F7xx_HAL_Driver/Src/stm32f7xx_hal_adc.c:681:30
	bl	HAL_GetTick
	.loc	7 681 44 is_stmt 0      @ ../Drivers/STM32F7xx_HAL_Driver/Src/stm32f7xx_hal_adc.c:681:44
	sub.w	r0, r0, r8
.Ltmp115:
	.loc	7 681 10                @ ../Drivers/STM32F7xx_HAL_Driver/Src/stm32f7xx_hal_adc.c:681:10
	cmp	r0, r6
	bls	.LBB7_1
.Ltmp116:
.LBB7_5:
	@DEBUG_VALUE: HAL_ADC_PollForEvent:tickstart <- $r8
	@DEBUG_VALUE: HAL_ADC_PollForEvent:hadc <- $r4
	@DEBUG_VALUE: HAL_ADC_PollForEvent:EventType <- $r5
	@DEBUG_VALUE: HAL_ADC_PollForEvent:Timeout <- $r6
	.loc	7 687 9 is_stmt 1       @ ../Drivers/STM32F7xx_HAL_Driver/Src/stm32f7xx_hal_adc.c:687:9
	movs	r0, #0
	strb.w	r0, [r4, #60]
.Ltmp117:
	.loc	7 684 9                 @ ../Drivers/STM32F7xx_HAL_Driver/Src/stm32f7xx_hal_adc.c:684:9
	ldr	r0, [r4, #64]
	orr	r0, r0, #4
	str	r0, [r4, #64]
	movs	r0, #3
	b	.LBB7_10
.Ltmp118:
.LBB7_6:
	@DEBUG_VALUE: HAL_ADC_PollForEvent:tickstart <- $r8
	@DEBUG_VALUE: HAL_ADC_PollForEvent:hadc <- $r4
	@DEBUG_VALUE: HAL_ADC_PollForEvent:EventType <- $r5
	@DEBUG_VALUE: HAL_ADC_PollForEvent:Timeout <- $r6
	.loc	7 0 9 is_stmt 0         @ ../Drivers/STM32F7xx_HAL_Driver/Src/stm32f7xx_hal_adc.c:0:9
	ldr	r1, [r4, #64]
	.loc	7 695 6 is_stmt 1       @ ../Drivers/STM32F7xx_HAL_Driver/Src/stm32f7xx_hal_adc.c:695:6
	cmp	r5, #1
	bne	.LBB7_8
.Ltmp119:
@ %bb.7:
	@DEBUG_VALUE: HAL_ADC_PollForEvent:tickstart <- $r8
	@DEBUG_VALUE: HAL_ADC_PollForEvent:hadc <- $r4
	@DEBUG_VALUE: HAL_ADC_PollForEvent:EventType <- $r5
	@DEBUG_VALUE: HAL_ADC_PollForEvent:Timeout <- $r6
	.loc	7 698 5                 @ ../Drivers/STM32F7xx_HAL_Driver/Src/stm32f7xx_hal_adc.c:698:5
	orr	r1, r1, #65536
	str	r1, [r4, #64]
	.loc	7 701 5                 @ ../Drivers/STM32F7xx_HAL_Driver/Src/stm32f7xx_hal_adc.c:701:5
	mvn	r1, #1
	b	.LBB7_9
.Ltmp120:
.LBB7_8:
	@DEBUG_VALUE: HAL_ADC_PollForEvent:tickstart <- $r8
	@DEBUG_VALUE: HAL_ADC_PollForEvent:hadc <- $r4
	@DEBUG_VALUE: HAL_ADC_PollForEvent:EventType <- $r5
	@DEBUG_VALUE: HAL_ADC_PollForEvent:Timeout <- $r6
	.loc	7 707 5                 @ ../Drivers/STM32F7xx_HAL_Driver/Src/stm32f7xx_hal_adc.c:707:5
	orr	r1, r1, #1024
	str	r1, [r4, #64]
	.loc	7 709 5                 @ ../Drivers/STM32F7xx_HAL_Driver/Src/stm32f7xx_hal_adc.c:709:5
	ldr	r1, [r4, #68]
	orr	r1, r1, #2
	str	r1, [r4, #68]
	.loc	7 712 5                 @ ../Drivers/STM32F7xx_HAL_Driver/Src/stm32f7xx_hal_adc.c:712:5
	mvn	r1, #32
.Ltmp121:
.LBB7_9:
	@DEBUG_VALUE: HAL_ADC_PollForEvent:tickstart <- $r8
	@DEBUG_VALUE: HAL_ADC_PollForEvent:hadc <- $r4
	@DEBUG_VALUE: HAL_ADC_PollForEvent:EventType <- $r5
	@DEBUG_VALUE: HAL_ADC_PollForEvent:Timeout <- $r6
	.loc	7 0 5 is_stmt 0         @ ../Drivers/STM32F7xx_HAL_Driver/Src/stm32f7xx_hal_adc.c:0:5
	str	r1, [r0]
	movs	r0, #0
.Ltmp122:
.LBB7_10:
	@DEBUG_VALUE: HAL_ADC_PollForEvent:tickstart <- $r8
	@DEBUG_VALUE: HAL_ADC_PollForEvent:hadc <- $r4
	@DEBUG_VALUE: HAL_ADC_PollForEvent:EventType <- $r5
	@DEBUG_VALUE: HAL_ADC_PollForEvent:Timeout <- $r6
	.loc	7 717 1 is_stmt 1       @ ../Drivers/STM32F7xx_HAL_Driver/Src/stm32f7xx_hal_adc.c:717:1
	uxtb	r0, r0
	pop.w	{r4, r5, r6, r7, r8, pc}
.Ltmp123:
.Lfunc_end7:
	.size	HAL_ADC_PollForEvent, .Lfunc_end7-HAL_ADC_PollForEvent
	.cfi_endproc
	.cantunwind
	.fnend
                                        @ -- End function
	.section	.text.HAL_ADC_Start_IT,"ax",%progbits
	.hidden	HAL_ADC_Start_IT        @ -- Begin function HAL_ADC_Start_IT
	.globl	HAL_ADC_Start_IT
	.p2align	2
	.type	HAL_ADC_Start_IT,%function
	.code	16                      @ @HAL_ADC_Start_IT
	.thumb_func
HAL_ADC_Start_IT:
.Lfunc_begin8:
	.loc	7 727 0                 @ ../Drivers/STM32F7xx_HAL_Driver/Src/stm32f7xx_hal_adc.c:727:0
	.fnstart
	.cfi_startproc
@ %bb.0:
	.pad	#4
	sub	sp, #4
	.cfi_def_cfa_offset 4
	@DEBUG_VALUE: HAL_ADC_Start_IT:hadc <- $r0
	movs	r1, #0
.Ltmp124:
	@DEBUG_VALUE: HAL_ADC_Start_IT:counter <- 0
	@DEBUG_VALUE: HAL_ADC_Start_IT:hadc <- $r0
	.loc	7 728 17 prologue_end   @ ../Drivers/STM32F7xx_HAL_Driver/Src/stm32f7xx_hal_adc.c:728:17
	str	r1, [sp]
.Ltmp125:
	.loc	7 735 3                 @ ../Drivers/STM32F7xx_HAL_Driver/Src/stm32f7xx_hal_adc.c:735:3
	ldrb.w	r1, [r0, #60]
.Ltmp126:
	.loc	7 735 3 is_stmt 0       @ ../Drivers/STM32F7xx_HAL_Driver/Src/stm32f7xx_hal_adc.c:735:3
	cmp	r1, #1
	bne	.LBB8_2
.Ltmp127:
@ %bb.1:
	@DEBUG_VALUE: HAL_ADC_Start_IT:hadc <- $r0
	.loc	7 0 3                   @ ../Drivers/STM32F7xx_HAL_Driver/Src/stm32f7xx_hal_adc.c:0:3
	movs	r0, #2
.Ltmp128:
	b	.LBB8_10
.LBB8_2:
.Ltmp129:
	@DEBUG_VALUE: HAL_ADC_Start_IT:hadc <- $r0
	movs	r1, #1
.Ltmp130:
	.loc	7 735 3                 @ ../Drivers/STM32F7xx_HAL_Driver/Src/stm32f7xx_hal_adc.c:735:3
	strb.w	r1, [r0, #60]
.Ltmp131:
	.loc	7 740 13 is_stmt 1      @ ../Drivers/STM32F7xx_HAL_Driver/Src/stm32f7xx_hal_adc.c:740:13
	ldr	r1, [r0]
	.loc	7 740 23 is_stmt 0      @ ../Drivers/STM32F7xx_HAL_Driver/Src/stm32f7xx_hal_adc.c:740:23
	ldr	r2, [r1, #8]
.Ltmp132:
	.loc	7 740 6                 @ ../Drivers/STM32F7xx_HAL_Driver/Src/stm32f7xx_hal_adc.c:740:6
	tst.w	r2, #1
	bne	.LBB8_6
.Ltmp133:
@ %bb.3:
	@DEBUG_VALUE: HAL_ADC_Start_IT:hadc <- $r0
	.loc	7 743 5 is_stmt 1       @ ../Drivers/STM32F7xx_HAL_Driver/Src/stm32f7xx_hal_adc.c:743:5
	ldr	r2, [r1, #8]
	.loc	7 747 53                @ ../Drivers/STM32F7xx_HAL_Driver/Src/stm32f7xx_hal_adc.c:747:53
	ldr	r3, __arm_cp.8_1
	.loc	7 743 5                 @ ../Drivers/STM32F7xx_HAL_Driver/Src/stm32f7xx_hal_adc.c:743:5
	orr	r2, r2, #1
	str	r2, [r1, #8]
	.loc	7 747 37                @ ../Drivers/STM32F7xx_HAL_Driver/Src/stm32f7xx_hal_adc.c:747:37
	ldr	r2, __arm_cp.8_0
	ldr	r2, [r2]
	.loc	7 747 53 is_stmt 0      @ ../Drivers/STM32F7xx_HAL_Driver/Src/stm32f7xx_hal_adc.c:747:53
	udiv	r2, r2, r3
	.loc	7 747 34                @ ../Drivers/STM32F7xx_HAL_Driver/Src/stm32f7xx_hal_adc.c:747:34
	add.w	r2, r2, r2, lsl #1
	b	.LBB8_5
.Ltmp134:
.LBB8_4:                                @   in Loop: Header=BB8_5 Depth=1
	@DEBUG_VALUE: HAL_ADC_Start_IT:counter <- $r2
	@DEBUG_VALUE: HAL_ADC_Start_IT:hadc <- $r0
	.loc	7 750 14 is_stmt 1      @ ../Drivers/STM32F7xx_HAL_Driver/Src/stm32f7xx_hal_adc.c:750:14
	ldr	r2, [sp]
.Ltmp135:
	@DEBUG_VALUE: HAL_ADC_Start_IT:counter <- $r2
	subs	r2, #1
.Ltmp136:
.LBB8_5:                                @ =>This Inner Loop Header: Depth=1
	@DEBUG_VALUE: HAL_ADC_Start_IT:hadc <- $r0
	@DEBUG_VALUE: HAL_ADC_Start_IT:counter <- $r2
	.loc	7 0 14 is_stmt 0        @ ../Drivers/STM32F7xx_HAL_Driver/Src/stm32f7xx_hal_adc.c:0:14
	str	r2, [sp]
	.loc	7 748 11 is_stmt 1      @ ../Drivers/STM32F7xx_HAL_Driver/Src/stm32f7xx_hal_adc.c:748:11
	ldr	r2, [sp]
.Ltmp137:
	@DEBUG_VALUE: HAL_ADC_Start_IT:counter <- $r2
	.loc	7 748 5 is_stmt 0       @ ../Drivers/STM32F7xx_HAL_Driver/Src/stm32f7xx_hal_adc.c:748:5
	cmp	r2, #0
	bne	.LBB8_4
.Ltmp138:
.LBB8_6:
	@DEBUG_VALUE: HAL_ADC_Start_IT:hadc <- $r0
	.loc	7 755 6 is_stmt 1       @ ../Drivers/STM32F7xx_HAL_Driver/Src/stm32f7xx_hal_adc.c:755:6
	ldr	r2, [r1, #8]
.Ltmp139:
	.loc	7 755 6 is_stmt 0       @ ../Drivers/STM32F7xx_HAL_Driver/Src/stm32f7xx_hal_adc.c:755:6
	tst.w	r2, #1
	beq	.LBB8_9
.Ltmp140:
@ %bb.7:
	@DEBUG_VALUE: HAL_ADC_Start_IT:hadc <- $r0
	.loc	7 760 5 is_stmt 1       @ ../Drivers/STM32F7xx_HAL_Driver/Src/stm32f7xx_hal_adc.c:760:5
	ldr	r2, [r0, #64]
	movw	r3, #1793
	bics	r2, r3
	orr	r2, r2, #256
	str	r2, [r0, #64]
.Ltmp141:
	.loc	7 766 9                 @ ../Drivers/STM32F7xx_HAL_Driver/Src/stm32f7xx_hal_adc.c:766:9
	ldr	r2, [r1, #4]
.Ltmp142:
	.loc	7 766 9 is_stmt 0       @ ../Drivers/STM32F7xx_HAL_Driver/Src/stm32f7xx_hal_adc.c:766:9
	tst.w	r2, #1024
.Ltmp143:
	.loc	7 768 7 is_stmt 1       @ ../Drivers/STM32F7xx_HAL_Driver/Src/stm32f7xx_hal_adc.c:768:7
	itttt	ne
	ldrne	r2, [r0, #64]
	movne	r3, #1
	bfine	r2, r3, #12, #2
	strne	r2, [r0, #64]
.Ltmp144:
	.loc	7 772 9                 @ ../Drivers/STM32F7xx_HAL_Driver/Src/stm32f7xx_hal_adc.c:772:9
	ldr	r3, [r0, #64]
	movs	r2, #0
.Ltmp145:
	.loc	7 772 9 is_stmt 0       @ ../Drivers/STM32F7xx_HAL_Driver/Src/stm32f7xx_hal_adc.c:772:9
	tst.w	r3, #4096
	mov.w	r3, #0
.Ltmp146:
	.loc	7 775 7 is_stmt 1       @ ../Drivers/STM32F7xx_HAL_Driver/Src/stm32f7xx_hal_adc.c:775:7
	itt	ne
	ldrne	r3, [r0, #68]
	bicne	r3, r3, #6
.Ltmp147:
	.loc	7 786 5                 @ ../Drivers/STM32F7xx_HAL_Driver/Src/stm32f7xx_hal_adc.c:786:5
	strb.w	r2, [r0, #60]
.Ltmp148:
	.loc	7 793 5                 @ ../Drivers/STM32F7xx_HAL_Driver/Src/stm32f7xx_hal_adc.c:793:5
	ldr	r2, __arm_cp.8_2
	str	r3, [r0, #68]
	.loc	7 790 5                 @ ../Drivers/STM32F7xx_HAL_Driver/Src/stm32f7xx_hal_adc.c:790:5
	mvn	r0, #34
.Ltmp149:
	str	r0, [r1]
	.loc	7 793 5                 @ ../Drivers/STM32F7xx_HAL_Driver/Src/stm32f7xx_hal_adc.c:793:5
	ldr	r0, [r1, #4]
	orrs	r0, r2
	str	r0, [r1, #4]
	ldr	r0, __arm_cp.8_3
.Ltmp150:
	.loc	7 796 8                 @ ../Drivers/STM32F7xx_HAL_Driver/Src/stm32f7xx_hal_adc.c:796:8
	ldr.w	r2, [r0, #772]
.Ltmp151:
	.loc	7 796 8 is_stmt 0       @ ../Drivers/STM32F7xx_HAL_Driver/Src/stm32f7xx_hal_adc.c:796:8
	tst.w	r2, #31
.Ltmp152:
	.loc	7 808 35 is_stmt 1      @ ../Drivers/STM32F7xx_HAL_Driver/Src/stm32f7xx_hal_adc.c:808:35
	it	ne
	cmpne	r1, r0
	bne	.LBB8_9
.Ltmp153:
@ %bb.8:
	.loc	7 0 35 is_stmt 0        @ ../Drivers/STM32F7xx_HAL_Driver/Src/stm32f7xx_hal_adc.c:0:35
	ldr	r0, [r1, #8]
	tst.w	r0, #805306368
	ittt	eq
	ldreq	r0, [r1, #8]
	orreq	r0, r0, #1073741824
	streq	r0, [r1, #8]
.LBB8_9:
	movs	r0, #0
.LBB8_10:
	.loc	7 818 1 is_stmt 1       @ ../Drivers/STM32F7xx_HAL_Driver/Src/stm32f7xx_hal_adc.c:818:1
	uxtb	r0, r0
	add	sp, #4
	bx	lr
.Ltmp154:
	.p2align	2
@ %bb.11:
	.loc	7 0 1 is_stmt 0         @ ../Drivers/STM32F7xx_HAL_Driver/Src/stm32f7xx_hal_adc.c:0:1
__arm_cp.8_0:
	.long	SystemCoreClock
.Lcpi_end7:
	.size	__arm_cp.8_0, .Lcpi_end7-__arm_cp.8_0
__arm_cp.8_1:
	.long	1000000                 @ 0xf4240
.Lcpi_end8:
	.size	__arm_cp.8_1, .Lcpi_end8-__arm_cp.8_1
__arm_cp.8_2:
	.long	67108896                @ 0x4000020
.Lcpi_end9:
	.size	__arm_cp.8_2, .Lcpi_end9-__arm_cp.8_2
__arm_cp.8_3:
	.long	1073815552              @ 0x40012000
.Lcpi_end10:
	.size	__arm_cp.8_3, .Lcpi_end10-__arm_cp.8_3
.Lfunc_end8:
	.size	HAL_ADC_Start_IT, .Lfunc_end8-HAL_ADC_Start_IT
	.cfi_endproc
	.cantunwind
	.fnend
                                        @ -- End function
	.section	.text.HAL_ADC_Stop_IT,"ax",%progbits
	.hidden	HAL_ADC_Stop_IT         @ -- Begin function HAL_ADC_Stop_IT
	.globl	HAL_ADC_Stop_IT
	.p2align	2
	.type	HAL_ADC_Stop_IT,%function
	.code	16                      @ @HAL_ADC_Stop_IT
	.thumb_func
HAL_ADC_Stop_IT:
.Lfunc_begin9:
	.loc	7 830 0 is_stmt 1       @ ../Drivers/STM32F7xx_HAL_Driver/Src/stm32f7xx_hal_adc.c:830:0
	.fnstart
	.cfi_startproc
@ %bb.0:
	@DEBUG_VALUE: HAL_ADC_Stop_IT:hadc <- $r0
	@DEBUG_VALUE: HAL_ADC_Stop_IT:hadc <- $r0
	.loc	7 835 3 prologue_end    @ ../Drivers/STM32F7xx_HAL_Driver/Src/stm32f7xx_hal_adc.c:835:3
	ldrb.w	r1, [r0, #60]
.Ltmp155:
	.loc	7 835 3 is_stmt 0       @ ../Drivers/STM32F7xx_HAL_Driver/Src/stm32f7xx_hal_adc.c:835:3
	cmp	r1, #1
	bne	.LBB9_2
@ %bb.1:
	@DEBUG_VALUE: HAL_ADC_Stop_IT:hadc <- $r0
	.loc	7 0 3                   @ ../Drivers/STM32F7xx_HAL_Driver/Src/stm32f7xx_hal_adc.c:0:3
	movs	r1, #2
	b	.LBB9_5
.LBB9_2:
	@DEBUG_VALUE: HAL_ADC_Stop_IT:hadc <- $r0
	movs	r1, #1
.Ltmp156:
	.loc	7 835 3                 @ ../Drivers/STM32F7xx_HAL_Driver/Src/stm32f7xx_hal_adc.c:835:3
	strb.w	r1, [r0, #60]
.Ltmp157:
	.loc	7 839 3 is_stmt 1       @ ../Drivers/STM32F7xx_HAL_Driver/Src/stm32f7xx_hal_adc.c:839:3
	ldr	r1, [r0]
	ldr	r2, [r1, #8]
	bic	r2, r2, #1
	str	r2, [r1, #8]
.Ltmp158:
	.loc	7 842 6                 @ ../Drivers/STM32F7xx_HAL_Driver/Src/stm32f7xx_hal_adc.c:842:6
	ldr	r2, [r1, #8]
.Ltmp159:
	.loc	7 842 6 is_stmt 0       @ ../Drivers/STM32F7xx_HAL_Driver/Src/stm32f7xx_hal_adc.c:842:6
	tst.w	r2, #1
	bne	.LBB9_4
@ %bb.3:
	@DEBUG_VALUE: HAL_ADC_Stop_IT:hadc <- $r0
.Ltmp160:
	.loc	7 845 5 is_stmt 1       @ ../Drivers/STM32F7xx_HAL_Driver/Src/stm32f7xx_hal_adc.c:845:5
	ldr	r2, [r1, #4]
	ldr	r3, __arm_cp.9_0
	ands	r2, r3
	str	r2, [r1, #4]
	.loc	7 848 5                 @ ../Drivers/STM32F7xx_HAL_Driver/Src/stm32f7xx_hal_adc.c:848:5
	movw	r2, #4353
	ldr	r1, [r0, #64]
	bics	r1, r2
	orr	r1, r1, #1
	str	r1, [r0, #64]
.Ltmp161:
.LBB9_4:
	@DEBUG_VALUE: HAL_ADC_Stop_IT:hadc <- $r0
	.loc	7 0 5 is_stmt 0         @ ../Drivers/STM32F7xx_HAL_Driver/Src/stm32f7xx_hal_adc.c:0:5
	movs	r1, #0
.Ltmp162:
	.loc	7 854 3 is_stmt 1       @ ../Drivers/STM32F7xx_HAL_Driver/Src/stm32f7xx_hal_adc.c:854:3
	strb.w	r1, [r0, #60]
.Ltmp163:
.LBB9_5:
	@DEBUG_VALUE: HAL_ADC_Stop_IT:hadc <- $r0
	.loc	7 858 1                 @ ../Drivers/STM32F7xx_HAL_Driver/Src/stm32f7xx_hal_adc.c:858:1
	uxtb	r0, r1
	bx	lr
.Ltmp164:
	.p2align	2
@ %bb.6:
	.loc	7 0 1 is_stmt 0         @ ../Drivers/STM32F7xx_HAL_Driver/Src/stm32f7xx_hal_adc.c:0:1
__arm_cp.9_0:
	.long	4227858399              @ 0xfbffffdf
.Lcpi_end11:
	.size	__arm_cp.9_0, .Lcpi_end11-__arm_cp.9_0
.Lfunc_end9:
	.size	HAL_ADC_Stop_IT, .Lfunc_end9-HAL_ADC_Stop_IT
	.cfi_endproc
	.cantunwind
	.fnend
                                        @ -- End function
	.section	.text.HAL_ADC_IRQHandler,"ax",%progbits
	.hidden	HAL_ADC_IRQHandler      @ -- Begin function HAL_ADC_IRQHandler
	.globl	HAL_ADC_IRQHandler
	.p2align	1
	.type	HAL_ADC_IRQHandler,%function
	.code	16                      @ @HAL_ADC_IRQHandler
	.thumb_func
HAL_ADC_IRQHandler:
.Lfunc_begin10:
	.loc	7 867 0 is_stmt 1       @ ../Drivers/STM32F7xx_HAL_Driver/Src/stm32f7xx_hal_adc.c:867:0
	.fnstart
	.cfi_startproc
@ %bb.0:
	.save	{r4, r5, r7, lr}
	push	{r4, r5, r7, lr}
	.cfi_def_cfa_offset 16
	.cfi_offset lr, -4
	.cfi_offset r7, -8
	.cfi_offset r5, -12
	.cfi_offset r4, -16
	@DEBUG_VALUE: HAL_ADC_IRQHandler:hadc <- $r0
	mov	r4, r0
.Ltmp165:
	@DEBUG_VALUE: HAL_ADC_IRQHandler:tmp2 <- 0
	@DEBUG_VALUE: HAL_ADC_IRQHandler:tmp1 <- 0
	@DEBUG_VALUE: HAL_ADC_IRQHandler:hadc <- $r4
	.loc	7 875 10 prologue_end   @ ../Drivers/STM32F7xx_HAL_Driver/Src/stm32f7xx_hal_adc.c:875:10
	ldr	r0, [r0]
	ldr	r2, [r0]
	.loc	7 876 10                @ ../Drivers/STM32F7xx_HAL_Driver/Src/stm32f7xx_hal_adc.c:876:10
	ldr	r1, [r0, #4]
.Ltmp166:
	.loc	7 878 11                @ ../Drivers/STM32F7xx_HAL_Driver/Src/stm32f7xx_hal_adc.c:878:11
	tst.w	r2, #2
	it	ne
	andsne	r1, r1, #32
	beq	.LBB10_6
.Ltmp167:
@ %bb.1:
	@DEBUG_VALUE: HAL_ADC_IRQHandler:hadc <- $r4
	.loc	7 881 9                 @ ../Drivers/STM32F7xx_HAL_Driver/Src/stm32f7xx_hal_adc.c:881:9
	ldr	r1, [r4, #64]
.Ltmp168:
	.loc	7 881 9 is_stmt 0       @ ../Drivers/STM32F7xx_HAL_Driver/Src/stm32f7xx_hal_adc.c:881:9
	tst.w	r1, #16
.Ltmp169:
	.loc	7 884 7 is_stmt 1       @ ../Drivers/STM32F7xx_HAL_Driver/Src/stm32f7xx_hal_adc.c:884:7
	ittt	eq
	ldreq	r1, [r4, #64]
	orreq	r1, r1, #512
	streq	r1, [r4, #64]
.Ltmp170:
	.loc	7 893 8                 @ ../Drivers/STM32F7xx_HAL_Driver/Src/stm32f7xx_hal_adc.c:893:8
	ldr	r1, [r0, #8]
	.loc	7 893 62 is_stmt 0      @ ../Drivers/STM32F7xx_HAL_Driver/Src/stm32f7xx_hal_adc.c:893:62
	tst.w	r1, #805306368
	bne	.LBB10_5
.Ltmp171:
@ %bb.2:
	@DEBUG_VALUE: HAL_ADC_IRQHandler:hadc <- $r4
	.loc	7 894 20 is_stmt 1      @ ../Drivers/STM32F7xx_HAL_Driver/Src/stm32f7xx_hal_adc.c:894:20
	ldr	r1, [r4, #24]
	.loc	7 894 62 is_stmt 0      @ ../Drivers/STM32F7xx_HAL_Driver/Src/stm32f7xx_hal_adc.c:894:62
	cbnz	r1, .LBB10_5
.Ltmp172:
@ %bb.3:
	@DEBUG_VALUE: HAL_ADC_IRQHandler:hadc <- $r4
	.loc	7 895 9 is_stmt 1       @ ../Drivers/STM32F7xx_HAL_Driver/Src/stm32f7xx_hal_adc.c:895:9
	ldr	r1, [r0, #44]
	.loc	7 895 58 is_stmt 0      @ ../Drivers/STM32F7xx_HAL_Driver/Src/stm32f7xx_hal_adc.c:895:58
	tst.w	r1, #15728640
	.loc	7 896 9 is_stmt 1       @ ../Drivers/STM32F7xx_HAL_Driver/Src/stm32f7xx_hal_adc.c:896:9
	itt	ne
	ldrne	r1, [r0, #8]
.Ltmp173:
	.loc	7 893 8                 @ ../Drivers/STM32F7xx_HAL_Driver/Src/stm32f7xx_hal_adc.c:893:8
	tstne.w	r1, #1024
	bne	.LBB10_5
.Ltmp174:
@ %bb.4:
	@DEBUG_VALUE: HAL_ADC_IRQHandler:hadc <- $r4
	.loc	7 902 7                 @ ../Drivers/STM32F7xx_HAL_Driver/Src/stm32f7xx_hal_adc.c:902:7
	ldr	r1, [r0, #4]
	bic	r1, r1, #32
	str	r1, [r0, #4]
	.loc	7 905 7                 @ ../Drivers/STM32F7xx_HAL_Driver/Src/stm32f7xx_hal_adc.c:905:7
	ldr	r0, [r4, #64]
	bic	r0, r0, #256
	str	r0, [r4, #64]
.Ltmp175:
	.loc	7 907 11                @ ../Drivers/STM32F7xx_HAL_Driver/Src/stm32f7xx_hal_adc.c:907:11
	ldr	r0, [r4, #64]
.Ltmp176:
	.loc	7 907 11 is_stmt 0      @ ../Drivers/STM32F7xx_HAL_Driver/Src/stm32f7xx_hal_adc.c:907:11
	tst.w	r0, #4096
.Ltmp177:
	.loc	7 909 9 is_stmt 1       @ ../Drivers/STM32F7xx_HAL_Driver/Src/stm32f7xx_hal_adc.c:909:9
	ittt	eq
	ldreq	r0, [r4, #64]
	orreq	r0, r0, #1
	streq	r0, [r4, #64]
.Ltmp178:
.LBB10_5:
	@DEBUG_VALUE: HAL_ADC_IRQHandler:hadc <- $r4
	.loc	7 914 5                 @ ../Drivers/STM32F7xx_HAL_Driver/Src/stm32f7xx_hal_adc.c:914:5
	mov	r0, r4
	bl	HAL_ADC_ConvCpltCallback
	.loc	7 917 5                 @ ../Drivers/STM32F7xx_HAL_Driver/Src/stm32f7xx_hal_adc.c:917:5
	ldr	r0, [r4]
	mvn	r1, #18
	str	r1, [r0]
.Ltmp179:
.LBB10_6:
	@DEBUG_VALUE: HAL_ADC_IRQHandler:hadc <- $r4
	.loc	7 920 10                @ ../Drivers/STM32F7xx_HAL_Driver/Src/stm32f7xx_hal_adc.c:920:10
	ldr	r2, [r0]
	.loc	7 921 10                @ ../Drivers/STM32F7xx_HAL_Driver/Src/stm32f7xx_hal_adc.c:921:10
	ldr	r1, [r0, #4]
.Ltmp180:
	.loc	7 923 11                @ ../Drivers/STM32F7xx_HAL_Driver/Src/stm32f7xx_hal_adc.c:923:11
	tst.w	r2, #4
	it	ne
	andsne	r1, r1, #128
	beq	.LBB10_11
.Ltmp181:
@ %bb.7:
	@DEBUG_VALUE: HAL_ADC_IRQHandler:hadc <- $r4
	.loc	7 926 9                 @ ../Drivers/STM32F7xx_HAL_Driver/Src/stm32f7xx_hal_adc.c:926:9
	ldr	r1, [r4, #64]
.Ltmp182:
	.loc	7 926 9 is_stmt 0       @ ../Drivers/STM32F7xx_HAL_Driver/Src/stm32f7xx_hal_adc.c:926:9
	tst.w	r1, #16
.Ltmp183:
	.loc	7 929 7 is_stmt 1       @ ../Drivers/STM32F7xx_HAL_Driver/Src/stm32f7xx_hal_adc.c:929:7
	ittt	eq
	ldreq	r1, [r4, #64]
	orreq	r1, r1, #8192
	streq	r1, [r4, #64]
.Ltmp184:
	.loc	7 936 8                 @ ../Drivers/STM32F7xx_HAL_Driver/Src/stm32f7xx_hal_adc.c:936:8
	ldr	r1, [r0, #8]
	.loc	7 936 64 is_stmt 0      @ ../Drivers/STM32F7xx_HAL_Driver/Src/stm32f7xx_hal_adc.c:936:64
	tst.w	r1, #3145728
	bne	.LBB10_10
.Ltmp185:
@ %bb.8:
	@DEBUG_VALUE: HAL_ADC_IRQHandler:hadc <- $r4
	.loc	7 937 9 is_stmt 1       @ ../Drivers/STM32F7xx_HAL_Driver/Src/stm32f7xx_hal_adc.c:937:9
	ldr	r1, [r0, #56]
	.loc	7 937 59 is_stmt 0      @ ../Drivers/STM32F7xx_HAL_Driver/Src/stm32f7xx_hal_adc.c:937:59
	tst.w	r1, #3145728
	.loc	7 938 9 is_stmt 1       @ ../Drivers/STM32F7xx_HAL_Driver/Src/stm32f7xx_hal_adc.c:938:9
	itt	ne
	ldrne	r1, [r0, #8]
	.loc	7 938 60 is_stmt 0      @ ../Drivers/STM32F7xx_HAL_Driver/Src/stm32f7xx_hal_adc.c:938:60
	tstne.w	r1, #1024
	bne	.LBB10_10
.Ltmp186:
@ %bb.9:
	@DEBUG_VALUE: HAL_ADC_IRQHandler:hadc <- $r4
	.loc	7 939 9 is_stmt 1       @ ../Drivers/STM32F7xx_HAL_Driver/Src/stm32f7xx_hal_adc.c:939:9
	ldr	r1, [r0, #4]
	.loc	7 939 60 is_stmt 0      @ ../Drivers/STM32F7xx_HAL_Driver/Src/stm32f7xx_hal_adc.c:939:60
	tst.w	r1, #1024
	.loc	7 940 9 is_stmt 1       @ ../Drivers/STM32F7xx_HAL_Driver/Src/stm32f7xx_hal_adc.c:940:9
	itt	eq
	ldreq	r1, [r0, #8]
	.loc	7 940 45 is_stmt 0      @ ../Drivers/STM32F7xx_HAL_Driver/Src/stm32f7xx_hal_adc.c:940:45
	tsteq.w	r1, #805306368
	beq	.LBB10_17
.Ltmp187:
.LBB10_10:
	@DEBUG_VALUE: HAL_ADC_IRQHandler:hadc <- $r4
	.loc	7 956 5 is_stmt 1       @ ../Drivers/STM32F7xx_HAL_Driver/Src/stm32f7xx_hal_adc.c:956:5
	mov	r0, r4
	bl	HAL_ADCEx_InjectedConvCpltCallback
	.loc	7 959 5                 @ ../Drivers/STM32F7xx_HAL_Driver/Src/stm32f7xx_hal_adc.c:959:5
	ldr	r0, [r4]
	mvn	r1, #12
	str	r1, [r0]
.Ltmp188:
.LBB10_11:
	@DEBUG_VALUE: HAL_ADC_IRQHandler:hadc <- $r4
	.loc	7 962 10                @ ../Drivers/STM32F7xx_HAL_Driver/Src/stm32f7xx_hal_adc.c:962:10
	ldr	r3, [r0]
	mov	r1, r0
	.loc	7 963 10                @ ../Drivers/STM32F7xx_HAL_Driver/Src/stm32f7xx_hal_adc.c:963:10
	ldr	r2, [r1, #4]!
.Ltmp189:
	.loc	7 965 11                @ ../Drivers/STM32F7xx_HAL_Driver/Src/stm32f7xx_hal_adc.c:965:11
	tst.w	r3, #1
	beq	.LBB10_14
.Ltmp190:
@ %bb.12:
	@DEBUG_VALUE: HAL_ADC_IRQHandler:hadc <- $r4
	.loc	7 0 11 is_stmt 0        @ ../Drivers/STM32F7xx_HAL_Driver/Src/stm32f7xx_hal_adc.c:0:11
	ands	r2, r2, #64
.Ltmp191:
	.loc	7 967 8 is_stmt 1       @ ../Drivers/STM32F7xx_HAL_Driver/Src/stm32f7xx_hal_adc.c:967:8
	itt	ne
	ldrne	r2, [r0]
.Ltmp192:
	.loc	7 967 8 is_stmt 0       @ ../Drivers/STM32F7xx_HAL_Driver/Src/stm32f7xx_hal_adc.c:967:8
	tstne.w	r2, #1
	beq	.LBB10_14
.Ltmp193:
@ %bb.13:
	@DEBUG_VALUE: HAL_ADC_IRQHandler:hadc <- $r4
	.loc	7 970 7 is_stmt 1       @ ../Drivers/STM32F7xx_HAL_Driver/Src/stm32f7xx_hal_adc.c:970:7
	ldr	r0, [r4, #64]
	orr	r0, r0, #65536
	str	r0, [r4, #64]
	.loc	7 973 7                 @ ../Drivers/STM32F7xx_HAL_Driver/Src/stm32f7xx_hal_adc.c:973:7
	mov	r0, r4
	bl	HAL_ADC_LevelOutOfWindowCallback
	.loc	7 976 7                 @ ../Drivers/STM32F7xx_HAL_Driver/Src/stm32f7xx_hal_adc.c:976:7
	ldr	r0, [r4]
	mvn	r2, #1
	mov	r1, r0
	stm	r1!, {r2}
.Ltmp194:
.LBB10_14:
	@DEBUG_VALUE: HAL_ADC_IRQHandler:hadc <- $r4
	.loc	7 980 10                @ ../Drivers/STM32F7xx_HAL_Driver/Src/stm32f7xx_hal_adc.c:980:10
	ldr	r2, [r0]
	.loc	7 981 10                @ ../Drivers/STM32F7xx_HAL_Driver/Src/stm32f7xx_hal_adc.c:981:10
	ldr	r1, [r1]
.Ltmp195:
	.loc	7 983 11                @ ../Drivers/STM32F7xx_HAL_Driver/Src/stm32f7xx_hal_adc.c:983:11
	tst.w	r2, #32
	it	ne
	andsne	r1, r1, #67108864
	bne	.LBB10_16
.Ltmp196:
@ %bb.15:
	@DEBUG_VALUE: HAL_ADC_IRQHandler:hadc <- $r4
	.loc	7 1001 1                @ ../Drivers/STM32F7xx_HAL_Driver/Src/stm32f7xx_hal_adc.c:1001:1
	pop	{r4, r5, r7, pc}
.Ltmp197:
.LBB10_16:
	@DEBUG_VALUE: HAL_ADC_IRQHandler:hadc <- $r4
	.loc	7 990 5                 @ ../Drivers/STM32F7xx_HAL_Driver/Src/stm32f7xx_hal_adc.c:990:5
	ldr	r1, [r4, #68]
	.loc	7 993 5                 @ ../Drivers/STM32F7xx_HAL_Driver/Src/stm32f7xx_hal_adc.c:993:5
	mvn	r5, #32
	.loc	7 990 5                 @ ../Drivers/STM32F7xx_HAL_Driver/Src/stm32f7xx_hal_adc.c:990:5
	orr	r1, r1, #2
	str	r1, [r4, #68]
	.loc	7 993 5                 @ ../Drivers/STM32F7xx_HAL_Driver/Src/stm32f7xx_hal_adc.c:993:5
	str	r5, [r0]
	.loc	7 996 5                 @ ../Drivers/STM32F7xx_HAL_Driver/Src/stm32f7xx_hal_adc.c:996:5
	mov	r0, r4
	bl	HAL_ADC_ErrorCallback
	.loc	7 999 5                 @ ../Drivers/STM32F7xx_HAL_Driver/Src/stm32f7xx_hal_adc.c:999:5
	ldr	r0, [r4]
	str	r5, [r0]
.Ltmp198:
	.loc	7 1001 1                @ ../Drivers/STM32F7xx_HAL_Driver/Src/stm32f7xx_hal_adc.c:1001:1
	pop	{r4, r5, r7, pc}
.Ltmp199:
.LBB10_17:
	@DEBUG_VALUE: HAL_ADC_IRQHandler:hadc <- $r4
	.loc	7 941 20                @ ../Drivers/STM32F7xx_HAL_Driver/Src/stm32f7xx_hal_adc.c:941:20
	ldr	r1, [r4, #24]
.Ltmp200:
	.loc	7 936 8                 @ ../Drivers/STM32F7xx_HAL_Driver/Src/stm32f7xx_hal_adc.c:936:8
	cmp	r1, #0
	bne	.LBB10_10
.Ltmp201:
@ %bb.18:
	@DEBUG_VALUE: HAL_ADC_IRQHandler:hadc <- $r4
	.loc	7 944 7                 @ ../Drivers/STM32F7xx_HAL_Driver/Src/stm32f7xx_hal_adc.c:944:7
	ldr	r1, [r0, #4]
	bic	r1, r1, #128
	str	r1, [r0, #4]
	.loc	7 947 7                 @ ../Drivers/STM32F7xx_HAL_Driver/Src/stm32f7xx_hal_adc.c:947:7
	ldr	r0, [r4, #64]
	bic	r0, r0, #4096
	str	r0, [r4, #64]
.Ltmp202:
	.loc	7 949 11                @ ../Drivers/STM32F7xx_HAL_Driver/Src/stm32f7xx_hal_adc.c:949:11
	ldr	r0, [r4, #64]
.Ltmp203:
	.loc	7 949 11 is_stmt 0      @ ../Drivers/STM32F7xx_HAL_Driver/Src/stm32f7xx_hal_adc.c:949:11
	tst.w	r0, #256
.Ltmp204:
	.loc	7 951 9 is_stmt 1       @ ../Drivers/STM32F7xx_HAL_Driver/Src/stm32f7xx_hal_adc.c:951:9
	ittt	eq
	ldreq	r0, [r4, #64]
	orreq	r0, r0, #1
	streq	r0, [r4, #64]
	b	.LBB10_10
.Ltmp205:
.Lfunc_end10:
	.size	HAL_ADC_IRQHandler, .Lfunc_end10-HAL_ADC_IRQHandler
	.cfi_endproc
	.cantunwind
	.fnend
                                        @ -- End function
	.section	.text.HAL_ADC_ConvCpltCallback,"ax",%progbits
	.hidden	HAL_ADC_ConvCpltCallback @ -- Begin function HAL_ADC_ConvCpltCallback
	.weak	HAL_ADC_ConvCpltCallback
	.p2align	1
	.type	HAL_ADC_ConvCpltCallback,%function
	.code	16                      @ @HAL_ADC_ConvCpltCallback
	.thumb_func
HAL_ADC_ConvCpltCallback:
.Lfunc_begin11:
	.loc	7 1189 0                @ ../Drivers/STM32F7xx_HAL_Driver/Src/stm32f7xx_hal_adc.c:1189:0
	.fnstart
	.cfi_startproc
@ %bb.0:
	@DEBUG_VALUE: HAL_ADC_ConvCpltCallback:hadc <- $r0
	.loc	7 1195 1 prologue_end   @ ../Drivers/STM32F7xx_HAL_Driver/Src/stm32f7xx_hal_adc.c:1195:1
	bx	lr
.Ltmp206:
.Lfunc_end11:
	.size	HAL_ADC_ConvCpltCallback, .Lfunc_end11-HAL_ADC_ConvCpltCallback
	.cfi_endproc
	.cantunwind
	.fnend
                                        @ -- End function
	.section	.text.HAL_ADC_LevelOutOfWindowCallback,"ax",%progbits
	.hidden	HAL_ADC_LevelOutOfWindowCallback @ -- Begin function HAL_ADC_LevelOutOfWindowCallback
	.weak	HAL_ADC_LevelOutOfWindowCallback
	.p2align	1
	.type	HAL_ADC_LevelOutOfWindowCallback,%function
	.code	16                      @ @HAL_ADC_LevelOutOfWindowCallback
	.thumb_func
HAL_ADC_LevelOutOfWindowCallback:
.Lfunc_begin12:
	.loc	7 1219 0                @ ../Drivers/STM32F7xx_HAL_Driver/Src/stm32f7xx_hal_adc.c:1219:0
	.fnstart
	.cfi_startproc
@ %bb.0:
	@DEBUG_VALUE: HAL_ADC_LevelOutOfWindowCallback:hadc <- $r0
	.loc	7 1225 1 prologue_end   @ ../Drivers/STM32F7xx_HAL_Driver/Src/stm32f7xx_hal_adc.c:1225:1
	bx	lr
.Ltmp207:
.Lfunc_end12:
	.size	HAL_ADC_LevelOutOfWindowCallback, .Lfunc_end12-HAL_ADC_LevelOutOfWindowCallback
	.cfi_endproc
	.cantunwind
	.fnend
                                        @ -- End function
	.section	.text.HAL_ADC_ErrorCallback,"ax",%progbits
	.hidden	HAL_ADC_ErrorCallback   @ -- Begin function HAL_ADC_ErrorCallback
	.weak	HAL_ADC_ErrorCallback
	.p2align	1
	.type	HAL_ADC_ErrorCallback,%function
	.code	16                      @ @HAL_ADC_ErrorCallback
	.thumb_func
HAL_ADC_ErrorCallback:
.Lfunc_begin13:
	.loc	7 1240 0                @ ../Drivers/STM32F7xx_HAL_Driver/Src/stm32f7xx_hal_adc.c:1240:0
	.fnstart
	.cfi_startproc
@ %bb.0:
	@DEBUG_VALUE: HAL_ADC_ErrorCallback:hadc <- $r0
	.loc	7 1246 1 prologue_end   @ ../Drivers/STM32F7xx_HAL_Driver/Src/stm32f7xx_hal_adc.c:1246:1
	bx	lr
.Ltmp208:
.Lfunc_end13:
	.size	HAL_ADC_ErrorCallback, .Lfunc_end13-HAL_ADC_ErrorCallback
	.cfi_endproc
	.cantunwind
	.fnend
                                        @ -- End function
	.section	.text.HAL_ADC_Start_DMA,"ax",%progbits
	.hidden	HAL_ADC_Start_DMA       @ -- Begin function HAL_ADC_Start_DMA
	.globl	HAL_ADC_Start_DMA
	.p2align	2
	.type	HAL_ADC_Start_DMA,%function
	.code	16                      @ @HAL_ADC_Start_DMA
	.thumb_func
HAL_ADC_Start_DMA:
.Lfunc_begin14:
	.loc	7 1012 0                @ ../Drivers/STM32F7xx_HAL_Driver/Src/stm32f7xx_hal_adc.c:1012:0
	.fnstart
	.cfi_startproc
@ %bb.0:
	.save	{r4, r5, r7, lr}
	.pad	#8
	push	{r2, r3, r4, r5, r7, lr}
	.cfi_def_cfa_offset 24
	.cfi_offset lr, -4
	.cfi_offset r7, -8
	.cfi_offset r5, -12
	.cfi_offset r4, -16
	@DEBUG_VALUE: HAL_ADC_Start_DMA:hadc <- $r0
	@DEBUG_VALUE: HAL_ADC_Start_DMA:pData <- $r1
	@DEBUG_VALUE: HAL_ADC_Start_DMA:Length <- $r2
	mov	r4, r0
	movs	r0, #0
.Ltmp209:
	@DEBUG_VALUE: HAL_ADC_Start_DMA:counter <- 0
	@DEBUG_VALUE: HAL_ADC_Start_DMA:Length <- $r3
	@DEBUG_VALUE: HAL_ADC_Start_DMA:pData <- $r2
	@DEBUG_VALUE: HAL_ADC_Start_DMA:hadc <- $r4
	mov	r3, r2
.Ltmp210:
	mov	r2, r1
.Ltmp211:
	.loc	7 1013 17 prologue_end  @ ../Drivers/STM32F7xx_HAL_Driver/Src/stm32f7xx_hal_adc.c:1013:17
	str	r0, [sp, #4]
.Ltmp212:
	.loc	7 1020 3                @ ../Drivers/STM32F7xx_HAL_Driver/Src/stm32f7xx_hal_adc.c:1020:3
	ldrb.w	r0, [r4, #60]
.Ltmp213:
	.loc	7 1020 3 is_stmt 0      @ ../Drivers/STM32F7xx_HAL_Driver/Src/stm32f7xx_hal_adc.c:1020:3
	cmp	r0, #1
	bne	.LBB14_2
.Ltmp214:
@ %bb.1:
	@DEBUG_VALUE: HAL_ADC_Start_DMA:hadc <- $r4
	.loc	7 0 3                   @ ../Drivers/STM32F7xx_HAL_Driver/Src/stm32f7xx_hal_adc.c:0:3
	movs	r0, #2
	b	.LBB14_13
.Ltmp215:
.LBB14_2:
	@DEBUG_VALUE: HAL_ADC_Start_DMA:hadc <- $r4
	movs	r0, #1
.Ltmp216:
	.loc	7 1020 3                @ ../Drivers/STM32F7xx_HAL_Driver/Src/stm32f7xx_hal_adc.c:1020:3
	strb.w	r0, [r4, #60]
.Ltmp217:
	.loc	7 1025 13 is_stmt 1     @ ../Drivers/STM32F7xx_HAL_Driver/Src/stm32f7xx_hal_adc.c:1025:13
	ldr	r1, [r4]
	.loc	7 1025 23 is_stmt 0     @ ../Drivers/STM32F7xx_HAL_Driver/Src/stm32f7xx_hal_adc.c:1025:23
	ldr	r0, [r1, #8]
.Ltmp218:
	.loc	7 1025 6                @ ../Drivers/STM32F7xx_HAL_Driver/Src/stm32f7xx_hal_adc.c:1025:6
	tst.w	r0, #1
	bne	.LBB14_6
.Ltmp219:
@ %bb.3:
	@DEBUG_VALUE: HAL_ADC_Start_DMA:hadc <- $r4
	.loc	7 1028 5 is_stmt 1      @ ../Drivers/STM32F7xx_HAL_Driver/Src/stm32f7xx_hal_adc.c:1028:5
	ldr	r0, [r1, #8]
	.loc	7 1032 53               @ ../Drivers/STM32F7xx_HAL_Driver/Src/stm32f7xx_hal_adc.c:1032:53
	ldr	r5, __arm_cp.14_1
	.loc	7 1028 5                @ ../Drivers/STM32F7xx_HAL_Driver/Src/stm32f7xx_hal_adc.c:1028:5
	orr	r0, r0, #1
	str	r0, [r1, #8]
	.loc	7 1032 37               @ ../Drivers/STM32F7xx_HAL_Driver/Src/stm32f7xx_hal_adc.c:1032:37
	ldr	r0, __arm_cp.14_0
	ldr	r0, [r0]
	.loc	7 1032 53 is_stmt 0     @ ../Drivers/STM32F7xx_HAL_Driver/Src/stm32f7xx_hal_adc.c:1032:53
	udiv	r0, r0, r5
	.loc	7 1032 34               @ ../Drivers/STM32F7xx_HAL_Driver/Src/stm32f7xx_hal_adc.c:1032:34
	add.w	r0, r0, r0, lsl #1
	b	.LBB14_5
.Ltmp220:
.LBB14_4:                               @   in Loop: Header=BB14_5 Depth=1
	@DEBUG_VALUE: HAL_ADC_Start_DMA:counter <- $r0
	@DEBUG_VALUE: HAL_ADC_Start_DMA:hadc <- $r4
	.loc	7 1035 14 is_stmt 1     @ ../Drivers/STM32F7xx_HAL_Driver/Src/stm32f7xx_hal_adc.c:1035:14
	ldr	r0, [sp, #4]
.Ltmp221:
	@DEBUG_VALUE: HAL_ADC_Start_DMA:counter <- $r0
	subs	r0, #1
.Ltmp222:
.LBB14_5:                               @ =>This Inner Loop Header: Depth=1
	@DEBUG_VALUE: HAL_ADC_Start_DMA:hadc <- $r4
	@DEBUG_VALUE: HAL_ADC_Start_DMA:counter <- $r0
	.loc	7 0 14 is_stmt 0        @ ../Drivers/STM32F7xx_HAL_Driver/Src/stm32f7xx_hal_adc.c:0:14
	str	r0, [sp, #4]
	.loc	7 1033 11 is_stmt 1     @ ../Drivers/STM32F7xx_HAL_Driver/Src/stm32f7xx_hal_adc.c:1033:11
	ldr	r0, [sp, #4]
.Ltmp223:
	@DEBUG_VALUE: HAL_ADC_Start_DMA:counter <- $r0
	.loc	7 1033 5 is_stmt 0      @ ../Drivers/STM32F7xx_HAL_Driver/Src/stm32f7xx_hal_adc.c:1033:5
	cmp	r0, #0
	bne	.LBB14_4
.Ltmp224:
.LBB14_6:
	@DEBUG_VALUE: HAL_ADC_Start_DMA:hadc <- $r4
	.loc	7 1040 6 is_stmt 1      @ ../Drivers/STM32F7xx_HAL_Driver/Src/stm32f7xx_hal_adc.c:1040:6
	ldr	r0, [r1, #8]
.Ltmp225:
	.loc	7 1040 6 is_stmt 0      @ ../Drivers/STM32F7xx_HAL_Driver/Src/stm32f7xx_hal_adc.c:1040:6
	tst.w	r0, #1
	beq	.LBB14_12
.Ltmp226:
@ %bb.7:
	@DEBUG_VALUE: HAL_ADC_Start_DMA:hadc <- $r4
	.loc	7 1045 5 is_stmt 1      @ ../Drivers/STM32F7xx_HAL_Driver/Src/stm32f7xx_hal_adc.c:1045:5
	ldr	r0, [r4, #64]
	movw	r5, #1793
	mov.w	r12, #0
	bics	r0, r5
	orr	r0, r0, #256
	str	r0, [r4, #64]
.Ltmp227:
	.loc	7 1051 9                @ ../Drivers/STM32F7xx_HAL_Driver/Src/stm32f7xx_hal_adc.c:1051:9
	ldr	r0, [r1, #4]
.Ltmp228:
	.loc	7 1051 9 is_stmt 0      @ ../Drivers/STM32F7xx_HAL_Driver/Src/stm32f7xx_hal_adc.c:1051:9
	tst.w	r0, #1024
.Ltmp229:
	.loc	7 1053 7 is_stmt 1      @ ../Drivers/STM32F7xx_HAL_Driver/Src/stm32f7xx_hal_adc.c:1053:7
	itttt	ne
	ldrne	r0, [r4, #64]
	movne	r5, #1
	bfine	r0, r5, #12, #2
	strne	r0, [r4, #64]
.Ltmp230:
	.loc	7 1057 9                @ ../Drivers/STM32F7xx_HAL_Driver/Src/stm32f7xx_hal_adc.c:1057:9
	ldr	r0, [r4, #64]
.Ltmp231:
	.loc	7 1074 40               @ ../Drivers/STM32F7xx_HAL_Driver/Src/stm32f7xx_hal_adc.c:1074:40
	ldr	r5, __arm_cp.14_3
	.loc	7 1057 9                @ ../Drivers/STM32F7xx_HAL_Driver/Src/stm32f7xx_hal_adc.c:1057:9
	tst.w	r0, #4096
	mov.w	r0, #0
.Ltmp232:
	.loc	7 1060 7                @ ../Drivers/STM32F7xx_HAL_Driver/Src/stm32f7xx_hal_adc.c:1060:7
	itt	ne
	ldrne	r0, [r4, #68]
	bicne	r0, r0, #6
.Ltmp233:
	.loc	7 1071 5                @ ../Drivers/STM32F7xx_HAL_Driver/Src/stm32f7xx_hal_adc.c:1071:5
	strb.w	r12, [r4, #60]
.Ltmp234:
	.loc	7 1077 44               @ ../Drivers/STM32F7xx_HAL_Driver/Src/stm32f7xx_hal_adc.c:1077:44
	ldr.w	r12, __arm_cp.14_2
	str	r0, [r4, #68]
	.loc	7 1074 11               @ ../Drivers/STM32F7xx_HAL_Driver/Src/stm32f7xx_hal_adc.c:1074:11
	ldr	r0, [r4, #56]
	.loc	7 1074 40 is_stmt 0     @ ../Drivers/STM32F7xx_HAL_Driver/Src/stm32f7xx_hal_adc.c:1074:40
	strd	r5, r12, [r0, #60]
	.loc	7 1080 41 is_stmt 1     @ ../Drivers/STM32F7xx_HAL_Driver/Src/stm32f7xx_hal_adc.c:1080:41
	ldr	r5, __arm_cp.14_4
	str	r5, [r0, #76]
	.loc	7 1088 5                @ ../Drivers/STM32F7xx_HAL_Driver/Src/stm32f7xx_hal_adc.c:1088:5
	mvn	r5, #34
	str	r5, [r1]
	.loc	7 1091 5                @ ../Drivers/STM32F7xx_HAL_Driver/Src/stm32f7xx_hal_adc.c:1091:5
	ldr	r5, [r1, #4]
	orr	r5, r5, #67108864
	str	r5, [r1, #4]
	.loc	7 1094 25               @ ../Drivers/STM32F7xx_HAL_Driver/Src/stm32f7xx_hal_adc.c:1094:25
	ldr	r5, [r1, #8]
	orr	r5, r5, #256
	str	r5, [r1, #8]
	.loc	7 1097 67               @ ../Drivers/STM32F7xx_HAL_Driver/Src/stm32f7xx_hal_adc.c:1097:67
	adds	r1, #76
	.loc	7 1097 5 is_stmt 0      @ ../Drivers/STM32F7xx_HAL_Driver/Src/stm32f7xx_hal_adc.c:1097:5
	bl	HAL_DMA_Start_IT
	ldr	r0, __arm_cp.14_5
.Ltmp235:
	.loc	7 1100 8 is_stmt 1      @ ../Drivers/STM32F7xx_HAL_Driver/Src/stm32f7xx_hal_adc.c:1100:8
	ldr.w	r2, [r0, #772]
	ldr	r1, [r4]
.Ltmp236:
	.loc	7 1100 8 is_stmt 0      @ ../Drivers/STM32F7xx_HAL_Driver/Src/stm32f7xx_hal_adc.c:1100:8
	tst.w	r2, #31
	beq	.LBB14_10
.Ltmp237:
@ %bb.8:
	@DEBUG_VALUE: HAL_ADC_Start_DMA:hadc <- $r4
	.loc	7 1112 35 is_stmt 1     @ ../Drivers/STM32F7xx_HAL_Driver/Src/stm32f7xx_hal_adc.c:1112:35
	cmp	r1, r0
	bne	.LBB14_12
.Ltmp238:
@ %bb.9:
	@DEBUG_VALUE: HAL_ADC_Start_DMA:hadc <- $r4
	.loc	7 1112 56 is_stmt 0     @ ../Drivers/STM32F7xx_HAL_Driver/Src/stm32f7xx_hal_adc.c:1112:56
	ldr	r1, [r0, #8]
.Ltmp239:
	.loc	7 1112 10               @ ../Drivers/STM32F7xx_HAL_Driver/Src/stm32f7xx_hal_adc.c:1112:10
	tst.w	r1, #805306368
.Ltmp240:
	.loc	7 1115 31 is_stmt 1     @ ../Drivers/STM32F7xx_HAL_Driver/Src/stm32f7xx_hal_adc.c:1115:31
	ittt	eq
	ldreq	r1, [r0, #8]
	orreq	r1, r1, #1073741824
	streq	r1, [r0, #8]
	b	.LBB14_12
.Ltmp241:
.LBB14_10:
	@DEBUG_VALUE: HAL_ADC_Start_DMA:hadc <- $r4
	.loc	7 1103 27               @ ../Drivers/STM32F7xx_HAL_Driver/Src/stm32f7xx_hal_adc.c:1103:27
	ldr	r0, [r1, #8]
.Ltmp242:
	.loc	7 1103 10 is_stmt 0     @ ../Drivers/STM32F7xx_HAL_Driver/Src/stm32f7xx_hal_adc.c:1103:10
	tst.w	r0, #805306368
	bne	.LBB14_12
.Ltmp243:
@ %bb.11:
	@DEBUG_VALUE: HAL_ADC_Start_DMA:hadc <- $r4
	.loc	7 1106 29 is_stmt 1     @ ../Drivers/STM32F7xx_HAL_Driver/Src/stm32f7xx_hal_adc.c:1106:29
	ldr	r0, [r1, #8]
	orr	r0, r0, #1073741824
	str	r0, [r1, #8]
.Ltmp244:
.LBB14_12:
	@DEBUG_VALUE: HAL_ADC_Start_DMA:hadc <- $r4
	.loc	7 0 29 is_stmt 0        @ ../Drivers/STM32F7xx_HAL_Driver/Src/stm32f7xx_hal_adc.c:0:29
	movs	r0, #0
.Ltmp245:
.LBB14_13:
	@DEBUG_VALUE: HAL_ADC_Start_DMA:hadc <- $r4
	.loc	7 1122 1 is_stmt 1      @ ../Drivers/STM32F7xx_HAL_Driver/Src/stm32f7xx_hal_adc.c:1122:1
	uxtb	r0, r0
	add	sp, #8
	pop	{r4, r5, r7, pc}
.Ltmp246:
	.p2align	2
@ %bb.14:
	.loc	7 0 1 is_stmt 0         @ ../Drivers/STM32F7xx_HAL_Driver/Src/stm32f7xx_hal_adc.c:0:1
__arm_cp.14_0:
	.long	SystemCoreClock
.Lcpi_end12:
	.size	__arm_cp.14_0, .Lcpi_end12-__arm_cp.14_0
__arm_cp.14_1:
	.long	1000000                 @ 0xf4240
.Lcpi_end13:
	.size	__arm_cp.14_1, .Lcpi_end13-__arm_cp.14_1
__arm_cp.14_2:
	.long	ADC_DMAHalfConvCplt
.Lcpi_end14:
	.size	__arm_cp.14_2, .Lcpi_end14-__arm_cp.14_2
__arm_cp.14_3:
	.long	ADC_DMAConvCplt
.Lcpi_end15:
	.size	__arm_cp.14_3, .Lcpi_end15-__arm_cp.14_3
__arm_cp.14_4:
	.long	ADC_DMAError
.Lcpi_end16:
	.size	__arm_cp.14_4, .Lcpi_end16-__arm_cp.14_4
__arm_cp.14_5:
	.long	1073815552              @ 0x40012000
.Lcpi_end17:
	.size	__arm_cp.14_5, .Lcpi_end17-__arm_cp.14_5
.Lfunc_end14:
	.size	HAL_ADC_Start_DMA, .Lfunc_end14-HAL_ADC_Start_DMA
	.cfi_endproc
	.cantunwind
	.fnend
                                        @ -- End function
	.section	.text.ADC_DMAConvCplt,"ax",%progbits
	.p2align	1               @ -- Begin function ADC_DMAConvCplt
	.type	ADC_DMAConvCplt,%function
	.code	16                      @ @ADC_DMAConvCplt
	.thumb_func
ADC_DMAConvCplt:
.Lfunc_begin15:
	.loc	7 1593 0 is_stmt 1      @ ../Drivers/STM32F7xx_HAL_Driver/Src/stm32f7xx_hal_adc.c:1593:0
	.fnstart
	.cfi_startproc
@ %bb.0:
	@DEBUG_VALUE: ADC_DMAConvCplt:hdma <- $r0
	mov	r1, r0
.Ltmp247:
	@DEBUG_VALUE: ADC_DMAConvCplt:hdma <- $r1
	.loc	7 1595 80 prologue_end  @ ../Drivers/STM32F7xx_HAL_Driver/Src/stm32f7xx_hal_adc.c:1595:80
	ldr	r0, [r0, #56]
.Ltmp248:
	@DEBUG_VALUE: ADC_DMAConvCplt:hadc <- $r0
	.loc	7 1598 7                @ ../Drivers/STM32F7xx_HAL_Driver/Src/stm32f7xx_hal_adc.c:1598:7
	ldr	r2, [r0, #64]
.Ltmp249:
	.loc	7 1598 7 is_stmt 0      @ ../Drivers/STM32F7xx_HAL_Driver/Src/stm32f7xx_hal_adc.c:1598:7
	tst.w	r2, #80
	beq	.LBB15_2
.Ltmp250:
@ %bb.1:
	@DEBUG_VALUE: ADC_DMAConvCplt:hadc <- $r0
	@DEBUG_VALUE: ADC_DMAConvCplt:hdma <- $r1
	.loc	7 1635 11 is_stmt 1     @ ../Drivers/STM32F7xx_HAL_Driver/Src/stm32f7xx_hal_adc.c:1635:11
	ldr	r0, [r0, #56]
.Ltmp251:
	.loc	7 1635 23 is_stmt 0     @ ../Drivers/STM32F7xx_HAL_Driver/Src/stm32f7xx_hal_adc.c:1635:23
	ldr	r2, [r0, #76]
	.loc	7 1635 5                @ ../Drivers/STM32F7xx_HAL_Driver/Src/stm32f7xx_hal_adc.c:1635:5
	mov	r0, r1
	bx	r2
.Ltmp252:
.LBB15_2:
	@DEBUG_VALUE: ADC_DMAConvCplt:hadc <- $r0
	@DEBUG_VALUE: ADC_DMAConvCplt:hdma <- $r1
	.loc	7 1609 8 is_stmt 1      @ ../Drivers/STM32F7xx_HAL_Driver/Src/stm32f7xx_hal_adc.c:1609:8
	ldr	r1, [r0]
.Ltmp253:
	.loc	7 1601 5                @ ../Drivers/STM32F7xx_HAL_Driver/Src/stm32f7xx_hal_adc.c:1601:5
	ldr	r2, [r0, #64]
	orr	r2, r2, #512
	str	r2, [r0, #64]
.Ltmp254:
	.loc	7 1609 8                @ ../Drivers/STM32F7xx_HAL_Driver/Src/stm32f7xx_hal_adc.c:1609:8
	ldr	r2, [r1, #8]
	.loc	7 1609 62 is_stmt 0     @ ../Drivers/STM32F7xx_HAL_Driver/Src/stm32f7xx_hal_adc.c:1609:62
	tst.w	r2, #805306368
	bne	.LBB15_5
.Ltmp255:
@ %bb.3:
	@DEBUG_VALUE: ADC_DMAConvCplt:hadc <- $r0
	.loc	7 1610 20 is_stmt 1     @ ../Drivers/STM32F7xx_HAL_Driver/Src/stm32f7xx_hal_adc.c:1610:20
	ldr	r2, [r0, #24]
	.loc	7 1610 62 is_stmt 0     @ ../Drivers/STM32F7xx_HAL_Driver/Src/stm32f7xx_hal_adc.c:1610:62
	cmp	r2, #0
.Ltmp256:
	.loc	7 1630 5 is_stmt 1      @ ../Drivers/STM32F7xx_HAL_Driver/Src/stm32f7xx_hal_adc.c:1630:5
	it	ne
	bne	HAL_ADC_ConvCpltCallback
.Ltmp257:
	.loc	7 1611 9                @ ../Drivers/STM32F7xx_HAL_Driver/Src/stm32f7xx_hal_adc.c:1611:9
	ldr	r2, [r1, #44]
	.loc	7 1611 58 is_stmt 0     @ ../Drivers/STM32F7xx_HAL_Driver/Src/stm32f7xx_hal_adc.c:1611:58
	tst.w	r2, #15728640
	.loc	7 1612 9 is_stmt 1      @ ../Drivers/STM32F7xx_HAL_Driver/Src/stm32f7xx_hal_adc.c:1612:9
	itt	ne
	ldrne	r2, [r1, #8]
.Ltmp258:
	.loc	7 1609 8                @ ../Drivers/STM32F7xx_HAL_Driver/Src/stm32f7xx_hal_adc.c:1609:8
	tstne.w	r2, #1024
	bne	.LBB15_5
.Ltmp259:
@ %bb.4:
	@DEBUG_VALUE: ADC_DMAConvCplt:hadc <- $r0
	.loc	7 1618 7                @ ../Drivers/STM32F7xx_HAL_Driver/Src/stm32f7xx_hal_adc.c:1618:7
	ldr	r2, [r1, #4]
	bic	r2, r2, #32
	str	r2, [r1, #4]
	.loc	7 1621 7                @ ../Drivers/STM32F7xx_HAL_Driver/Src/stm32f7xx_hal_adc.c:1621:7
	ldr	r1, [r0, #64]
	bic	r1, r1, #256
	str	r1, [r0, #64]
.Ltmp260:
	.loc	7 1623 11               @ ../Drivers/STM32F7xx_HAL_Driver/Src/stm32f7xx_hal_adc.c:1623:11
	ldr	r1, [r0, #64]
.Ltmp261:
	.loc	7 1623 11 is_stmt 0     @ ../Drivers/STM32F7xx_HAL_Driver/Src/stm32f7xx_hal_adc.c:1623:11
	tst.w	r1, #4096
.Ltmp262:
	.loc	7 1625 9 is_stmt 1      @ ../Drivers/STM32F7xx_HAL_Driver/Src/stm32f7xx_hal_adc.c:1625:9
	ittt	eq
	ldreq	r1, [r0, #64]
	orreq	r1, r1, #1
	streq	r1, [r0, #64]
.Ltmp263:
.LBB15_5:
	@DEBUG_VALUE: ADC_DMAConvCplt:hadc <- $r0
	.loc	7 1630 5                @ ../Drivers/STM32F7xx_HAL_Driver/Src/stm32f7xx_hal_adc.c:1630:5
	b	HAL_ADC_ConvCpltCallback
.Ltmp264:
.Lfunc_end15:
	.size	ADC_DMAConvCplt, .Lfunc_end15-ADC_DMAConvCplt
	.cfi_endproc
	.cantunwind
	.fnend
                                        @ -- End function
	.section	.text.ADC_DMAHalfConvCplt,"ax",%progbits
	.p2align	1               @ -- Begin function ADC_DMAHalfConvCplt
	.type	ADC_DMAHalfConvCplt,%function
	.code	16                      @ @ADC_DMAHalfConvCplt
	.thumb_func
ADC_DMAHalfConvCplt:
.Lfunc_begin16:
	.loc	7 1646 0                @ ../Drivers/STM32F7xx_HAL_Driver/Src/stm32f7xx_hal_adc.c:1646:0
	.fnstart
	.cfi_startproc
@ %bb.0:
	@DEBUG_VALUE: ADC_DMAHalfConvCplt:hdma <- $r0
	@DEBUG_VALUE: ADC_DMAHalfConvCplt:hdma <- $r0
	.loc	7 1647 80 prologue_end  @ ../Drivers/STM32F7xx_HAL_Driver/Src/stm32f7xx_hal_adc.c:1647:80
	ldr	r0, [r0, #56]
.Ltmp265:
	@DEBUG_VALUE: ADC_DMAHalfConvCplt:hadc <- $r0
	.loc	7 1649 3                @ ../Drivers/STM32F7xx_HAL_Driver/Src/stm32f7xx_hal_adc.c:1649:3
	b	HAL_ADC_ConvHalfCpltCallback
.Ltmp266:
.Lfunc_end16:
	.size	ADC_DMAHalfConvCplt, .Lfunc_end16-ADC_DMAHalfConvCplt
	.cfi_endproc
	.cantunwind
	.fnend
                                        @ -- End function
	.section	.text.ADC_DMAError,"ax",%progbits
	.p2align	1               @ -- Begin function ADC_DMAError
	.type	ADC_DMAError,%function
	.code	16                      @ @ADC_DMAError
	.thumb_func
ADC_DMAError:
.Lfunc_begin17:
	.loc	7 1659 0                @ ../Drivers/STM32F7xx_HAL_Driver/Src/stm32f7xx_hal_adc.c:1659:0
	.fnstart
	.cfi_startproc
@ %bb.0:
	@DEBUG_VALUE: ADC_DMAError:hdma <- $r0
	@DEBUG_VALUE: ADC_DMAError:hdma <- $r0
	.loc	7 1660 80 prologue_end  @ ../Drivers/STM32F7xx_HAL_Driver/Src/stm32f7xx_hal_adc.c:1660:80
	ldr	r0, [r0, #56]
.Ltmp267:
	@DEBUG_VALUE: ADC_DMAError:hadc <- $r0
	.loc	7 0 80 is_stmt 0        @ ../Drivers/STM32F7xx_HAL_Driver/Src/stm32f7xx_hal_adc.c:0:80
	movs	r1, #64
	.loc	7 1661 14 is_stmt 1     @ ../Drivers/STM32F7xx_HAL_Driver/Src/stm32f7xx_hal_adc.c:1661:14
	str	r1, [r0, #64]
	.loc	7 1663 19               @ ../Drivers/STM32F7xx_HAL_Driver/Src/stm32f7xx_hal_adc.c:1663:19
	ldr	r1, [r0, #68]
	orr	r1, r1, #4
	str	r1, [r0, #68]
	.loc	7 1664 3                @ ../Drivers/STM32F7xx_HAL_Driver/Src/stm32f7xx_hal_adc.c:1664:3
	b	HAL_ADC_ErrorCallback
.Ltmp268:
.Lfunc_end17:
	.size	ADC_DMAError, .Lfunc_end17-ADC_DMAError
	.cfi_endproc
	.cantunwind
	.fnend
                                        @ -- End function
	.section	.text.HAL_ADC_Stop_DMA,"ax",%progbits
	.hidden	HAL_ADC_Stop_DMA        @ -- Begin function HAL_ADC_Stop_DMA
	.globl	HAL_ADC_Stop_DMA
	.p2align	1
	.type	HAL_ADC_Stop_DMA,%function
	.code	16                      @ @HAL_ADC_Stop_DMA
	.thumb_func
HAL_ADC_Stop_DMA:
.Lfunc_begin18:
	.loc	7 1131 0                @ ../Drivers/STM32F7xx_HAL_Driver/Src/stm32f7xx_hal_adc.c:1131:0
	.fnstart
	.cfi_startproc
@ %bb.0:
	.save	{r4, r5, r7, lr}
	push	{r4, r5, r7, lr}
	.cfi_def_cfa_offset 16
	.cfi_offset lr, -4
	.cfi_offset r7, -8
	.cfi_offset r5, -12
	.cfi_offset r4, -16
	@DEBUG_VALUE: HAL_ADC_Stop_DMA:hadc <- $r0
	mov	r4, r0
.Ltmp269:
	@DEBUG_VALUE: HAL_ADC_Stop_DMA:tmp_hal_status <- 0
	@DEBUG_VALUE: HAL_ADC_Stop_DMA:hadc <- $r4
	.loc	7 1138 3 prologue_end   @ ../Drivers/STM32F7xx_HAL_Driver/Src/stm32f7xx_hal_adc.c:1138:3
	ldrb.w	r0, [r0, #60]
.Ltmp270:
	.loc	7 1138 3 is_stmt 0      @ ../Drivers/STM32F7xx_HAL_Driver/Src/stm32f7xx_hal_adc.c:1138:3
	cmp	r0, #1
	itt	eq
	moveq	r0, #2
.Ltmp271:
	.loc	7 1168 1 is_stmt 1      @ ../Drivers/STM32F7xx_HAL_Driver/Src/stm32f7xx_hal_adc.c:1168:1
	popeq	{r4, r5, r7, pc}
.Ltmp272:
	.loc	7 0 1 is_stmt 0         @ ../Drivers/STM32F7xx_HAL_Driver/Src/stm32f7xx_hal_adc.c:0:1
	movs	r0, #1
	movs	r5, #0
.Ltmp273:
	.loc	7 1138 3 is_stmt 1      @ ../Drivers/STM32F7xx_HAL_Driver/Src/stm32f7xx_hal_adc.c:1138:3
	strb.w	r0, [r4, #60]
.Ltmp274:
	.loc	7 1142 3                @ ../Drivers/STM32F7xx_HAL_Driver/Src/stm32f7xx_hal_adc.c:1142:3
	ldr	r1, [r4]
	ldr	r0, [r1, #8]
	bic	r0, r0, #1
	str	r0, [r1, #8]
.Ltmp275:
	.loc	7 1145 6                @ ../Drivers/STM32F7xx_HAL_Driver/Src/stm32f7xx_hal_adc.c:1145:6
	ldr	r0, [r1, #8]
.Ltmp276:
	.loc	7 1145 6 is_stmt 0      @ ../Drivers/STM32F7xx_HAL_Driver/Src/stm32f7xx_hal_adc.c:1145:6
	tst.w	r0, #1
	mov.w	r0, #0
	bne	.LBB18_2
@ %bb.1:
.Ltmp277:
	.loc	7 1148 25 is_stmt 1     @ ../Drivers/STM32F7xx_HAL_Driver/Src/stm32f7xx_hal_adc.c:1148:25
	ldr	r0, [r1, #8]
	bic	r0, r0, #256
	str	r0, [r1, #8]
	.loc	7 1152 42               @ ../Drivers/STM32F7xx_HAL_Driver/Src/stm32f7xx_hal_adc.c:1152:42
	ldr	r0, [r4, #56]
	.loc	7 1152 22 is_stmt 0     @ ../Drivers/STM32F7xx_HAL_Driver/Src/stm32f7xx_hal_adc.c:1152:22
	bl	HAL_DMA_Abort
	.loc	7 1155 5 is_stmt 1      @ ../Drivers/STM32F7xx_HAL_Driver/Src/stm32f7xx_hal_adc.c:1155:5
	ldr	r1, [r4]
	ldr	r2, [r1, #4]
	bic	r2, r2, #67108864
	str	r2, [r1, #4]
	.loc	7 1158 5                @ ../Drivers/STM32F7xx_HAL_Driver/Src/stm32f7xx_hal_adc.c:1158:5
	movw	r2, #4353
	ldr	r1, [r4, #64]
	bics	r1, r2
	orr	r1, r1, #1
	str	r1, [r4, #64]
.Ltmp278:
.LBB18_2:
	.loc	7 1164 3                @ ../Drivers/STM32F7xx_HAL_Driver/Src/stm32f7xx_hal_adc.c:1164:3
	strb.w	r5, [r4, #60]
.Ltmp279:
	.loc	7 1168 1                @ ../Drivers/STM32F7xx_HAL_Driver/Src/stm32f7xx_hal_adc.c:1168:1
	pop	{r4, r5, r7, pc}
.Ltmp280:
.Lfunc_end18:
	.size	HAL_ADC_Stop_DMA, .Lfunc_end18-HAL_ADC_Stop_DMA
	.cfi_endproc
	.cantunwind
	.fnend
                                        @ -- End function
	.section	.text.HAL_ADC_GetValue,"ax",%progbits
	.hidden	HAL_ADC_GetValue        @ -- Begin function HAL_ADC_GetValue
	.globl	HAL_ADC_GetValue
	.p2align	1
	.type	HAL_ADC_GetValue,%function
	.code	16                      @ @HAL_ADC_GetValue
	.thumb_func
HAL_ADC_GetValue:
.Lfunc_begin19:
	.loc	7 1177 0                @ ../Drivers/STM32F7xx_HAL_Driver/Src/stm32f7xx_hal_adc.c:1177:0
	.fnstart
	.cfi_startproc
@ %bb.0:
	@DEBUG_VALUE: HAL_ADC_GetValue:hadc <- $r0
	@DEBUG_VALUE: HAL_ADC_GetValue:hadc <- $r0
	.loc	7 1179 16 prologue_end  @ ../Drivers/STM32F7xx_HAL_Driver/Src/stm32f7xx_hal_adc.c:1179:16
	ldr	r0, [r0]
.Ltmp281:
	.loc	7 1179 26 is_stmt 0     @ ../Drivers/STM32F7xx_HAL_Driver/Src/stm32f7xx_hal_adc.c:1179:26
	ldr	r0, [r0, #76]
	.loc	7 1179 3                @ ../Drivers/STM32F7xx_HAL_Driver/Src/stm32f7xx_hal_adc.c:1179:3
	bx	lr
.Ltmp282:
.Lfunc_end19:
	.size	HAL_ADC_GetValue, .Lfunc_end19-HAL_ADC_GetValue
	.cfi_endproc
	.cantunwind
	.fnend
                                        @ -- End function
	.section	.text.HAL_ADC_ConvHalfCpltCallback,"ax",%progbits
	.hidden	HAL_ADC_ConvHalfCpltCallback @ -- Begin function HAL_ADC_ConvHalfCpltCallback
	.weak	HAL_ADC_ConvHalfCpltCallback
	.p2align	1
	.type	HAL_ADC_ConvHalfCpltCallback,%function
	.code	16                      @ @HAL_ADC_ConvHalfCpltCallback
	.thumb_func
HAL_ADC_ConvHalfCpltCallback:
.Lfunc_begin20:
	.loc	7 1204 0 is_stmt 1      @ ../Drivers/STM32F7xx_HAL_Driver/Src/stm32f7xx_hal_adc.c:1204:0
	.fnstart
	.cfi_startproc
@ %bb.0:
	@DEBUG_VALUE: HAL_ADC_ConvHalfCpltCallback:hadc <- $r0
	.loc	7 1210 1 prologue_end   @ ../Drivers/STM32F7xx_HAL_Driver/Src/stm32f7xx_hal_adc.c:1210:1
	bx	lr
.Ltmp283:
.Lfunc_end20:
	.size	HAL_ADC_ConvHalfCpltCallback, .Lfunc_end20-HAL_ADC_ConvHalfCpltCallback
	.cfi_endproc
	.cantunwind
	.fnend
                                        @ -- End function
	.section	.text.HAL_ADC_ConfigChannel,"ax",%progbits
	.hidden	HAL_ADC_ConfigChannel   @ -- Begin function HAL_ADC_ConfigChannel
	.globl	HAL_ADC_ConfigChannel
	.p2align	2
	.type	HAL_ADC_ConfigChannel,%function
	.code	16                      @ @HAL_ADC_ConfigChannel
	.thumb_func
HAL_ADC_ConfigChannel:
.Lfunc_begin21:
	.loc	7 1278 0                @ ../Drivers/STM32F7xx_HAL_Driver/Src/stm32f7xx_hal_adc.c:1278:0
	.fnstart
	.cfi_startproc
@ %bb.0:
	.save	{r4, r5, r6, lr}
	.pad	#4
	push	{r3, r4, r5, r6, lr}
	.cfi_def_cfa_offset 20
	.cfi_offset lr, -4
	.cfi_offset r6, -8
	.cfi_offset r5, -12
	.cfi_offset r4, -16
	@DEBUG_VALUE: HAL_ADC_ConfigChannel:hadc <- $r0
	@DEBUG_VALUE: HAL_ADC_ConfigChannel:sConfig <- $r1
	movs	r2, #0
.Ltmp284:
	@DEBUG_VALUE: HAL_ADC_ConfigChannel:counter <- 0
	@DEBUG_VALUE: HAL_ADC_ConfigChannel:sConfig <- $r1
	@DEBUG_VALUE: HAL_ADC_ConfigChannel:hadc <- $r0
	.loc	7 1279 17 prologue_end  @ ../Drivers/STM32F7xx_HAL_Driver/Src/stm32f7xx_hal_adc.c:1279:17
	str	r2, [sp]
.Ltmp285:
	.loc	7 1287 3                @ ../Drivers/STM32F7xx_HAL_Driver/Src/stm32f7xx_hal_adc.c:1287:3
	ldrb.w	r2, [r0, #60]
.Ltmp286:
	.loc	7 1287 3 is_stmt 0      @ ../Drivers/STM32F7xx_HAL_Driver/Src/stm32f7xx_hal_adc.c:1287:3
	cmp	r2, #1
	bne	.LBB21_2
.Ltmp287:
@ %bb.1:
	@DEBUG_VALUE: HAL_ADC_ConfigChannel:sConfig <- $r1
	@DEBUG_VALUE: HAL_ADC_ConfigChannel:hadc <- $r0
	.loc	7 0 3                   @ ../Drivers/STM32F7xx_HAL_Driver/Src/stm32f7xx_hal_adc.c:0:3
	movs	r1, #2
.Ltmp288:
	b	.LBB21_14
.LBB21_2:
.Ltmp289:
	@DEBUG_VALUE: HAL_ADC_ConfigChannel:sConfig <- $r1
	@DEBUG_VALUE: HAL_ADC_ConfigChannel:hadc <- $r0
	movs	r2, #1
.Ltmp290:
	.loc	7 1287 3                @ ../Drivers/STM32F7xx_HAL_Driver/Src/stm32f7xx_hal_adc.c:1287:3
	strb.w	r2, [r0, #60]
.Ltmp291:
	.loc	7 1290 15 is_stmt 1     @ ../Drivers/STM32F7xx_HAL_Driver/Src/stm32f7xx_hal_adc.c:1290:15
	ldr	r2, [r1]
	uxth.w	r12, r2
.Ltmp292:
	.loc	7 1290 6 is_stmt 0      @ ../Drivers/STM32F7xx_HAL_Driver/Src/stm32f7xx_hal_adc.c:1290:6
	cmp	r2, #10
	lsl.w	r3, r12, #1
	uxtah	r4, r3, r2
	blo	.LBB21_5
.Ltmp293:
@ %bb.3:
	@DEBUG_VALUE: HAL_ADC_ConfigChannel:sConfig <- $r1
	@DEBUG_VALUE: HAL_ADC_ConfigChannel:hadc <- $r0
	.loc	7 1293 9 is_stmt 1      @ ../Drivers/STM32F7xx_HAL_Driver/Src/stm32f7xx_hal_adc.c:1293:9
	ldr.w	lr, [r0]
	.loc	7 1293 29 is_stmt 0     @ ../Drivers/STM32F7xx_HAL_Driver/Src/stm32f7xx_hal_adc.c:1293:29
	subs	r4, #30
	movs	r3, #7
	lsl.w	r5, r3, r4
	.loc	7 1293 25               @ ../Drivers/STM32F7xx_HAL_Driver/Src/stm32f7xx_hal_adc.c:1293:25
	mov	r3, lr
	ldr	r6, [r3, #12]!
	bic.w	r5, r6, r5
	ldr	r6, __arm_cp.21_0
	str	r5, [r3]
	ldr	r5, [r1, #8]
	.loc	7 1295 7 is_stmt 1      @ ../Drivers/STM32F7xx_HAL_Driver/Src/stm32f7xx_hal_adc.c:1295:7
	cmp	r2, r6
	bne	.LBB21_6
.Ltmp294:
@ %bb.4:
	@DEBUG_VALUE: HAL_ADC_ConfigChannel:sConfig <- $r1
	@DEBUG_VALUE: HAL_ADC_ConfigChannel:hadc <- $r0
	.loc	7 1298 29               @ ../Drivers/STM32F7xx_HAL_Driver/Src/stm32f7xx_hal_adc.c:1298:29
	lsls	r4, r5, #24
	b	.LBB21_7
.Ltmp295:
.LBB21_5:
	@DEBUG_VALUE: HAL_ADC_ConfigChannel:sConfig <- $r1
	@DEBUG_VALUE: HAL_ADC_ConfigChannel:hadc <- $r0
	.loc	7 1309 11               @ ../Drivers/STM32F7xx_HAL_Driver/Src/stm32f7xx_hal_adc.c:1309:11
	ldr.w	lr, [r0]
	.loc	7 1309 31 is_stmt 0     @ ../Drivers/STM32F7xx_HAL_Driver/Src/stm32f7xx_hal_adc.c:1309:31
	movs	r3, #7
	lsl.w	r5, r3, r4
	.loc	7 1309 27               @ ../Drivers/STM32F7xx_HAL_Driver/Src/stm32f7xx_hal_adc.c:1309:27
	mov	r3, lr
	ldr	r6, [r3, #16]!
	bic.w	r5, r6, r5
	str	r5, [r3]
	.loc	7 1312 30 is_stmt 1     @ ../Drivers/STM32F7xx_HAL_Driver/Src/stm32f7xx_hal_adc.c:1312:30
	ldr	r5, [r1, #8]
.Ltmp296:
.LBB21_6:
	@DEBUG_VALUE: HAL_ADC_ConfigChannel:sConfig <- $r1
	@DEBUG_VALUE: HAL_ADC_ConfigChannel:hadc <- $r0
	.loc	7 0 30 is_stmt 0        @ ../Drivers/STM32F7xx_HAL_Driver/Src/stm32f7xx_hal_adc.c:0:30
	lsl.w	r4, r5, r4
.Ltmp297:
.LBB21_7:
	@DEBUG_VALUE: HAL_ADC_ConfigChannel:sConfig <- $r1
	@DEBUG_VALUE: HAL_ADC_ConfigChannel:hadc <- $r0
	ldr	r5, [r3]
	orrs	r4, r5
	str	r4, [r3]
.Ltmp298:
	.loc	7 1316 16 is_stmt 1     @ ../Drivers/STM32F7xx_HAL_Driver/Src/stm32f7xx_hal_adc.c:1316:16
	ldr	r3, [r1, #4]
.Ltmp299:
	.loc	7 1316 7 is_stmt 0      @ ../Drivers/STM32F7xx_HAL_Driver/Src/stm32f7xx_hal_adc.c:1316:7
	cmp	r3, #6
	bhi	.LBB21_9
.Ltmp300:
@ %bb.8:
	@DEBUG_VALUE: HAL_ADC_ConfigChannel:sConfig <- $r1
	@DEBUG_VALUE: HAL_ADC_ConfigChannel:hadc <- $r0
	.loc	7 1319 30 is_stmt 1     @ ../Drivers/STM32F7xx_HAL_Driver/Src/stm32f7xx_hal_adc.c:1319:30
	add.w	r3, r3, r3, lsl #2
	.loc	7 1319 21 is_stmt 0     @ ../Drivers/STM32F7xx_HAL_Driver/Src/stm32f7xx_hal_adc.c:1319:21
	add.w	r1, lr, #52
.Ltmp301:
	.loc	7 1319 30               @ ../Drivers/STM32F7xx_HAL_Driver/Src/stm32f7xx_hal_adc.c:1319:30
	subs	r3, #5
	b	.LBB21_12
.Ltmp302:
.LBB21_9:
	@DEBUG_VALUE: HAL_ADC_ConfigChannel:sConfig <- $r1
	@DEBUG_VALUE: HAL_ADC_ConfigChannel:hadc <- $r0
	.loc	7 0 30                  @ ../Drivers/STM32F7xx_HAL_Driver/Src/stm32f7xx_hal_adc.c:0:30
	add.w	r4, r3, r3, lsl #2
	.loc	7 1325 12 is_stmt 1     @ ../Drivers/STM32F7xx_HAL_Driver/Src/stm32f7xx_hal_adc.c:1325:12
	cmp	r3, #12
	bhi	.LBB21_11
.Ltmp303:
@ %bb.10:
	@DEBUG_VALUE: HAL_ADC_ConfigChannel:sConfig <- $r1
	@DEBUG_VALUE: HAL_ADC_ConfigChannel:hadc <- $r0
	.loc	7 1328 21               @ ../Drivers/STM32F7xx_HAL_Driver/Src/stm32f7xx_hal_adc.c:1328:21
	add.w	r1, lr, #48
.Ltmp304:
	.loc	7 1328 30 is_stmt 0     @ ../Drivers/STM32F7xx_HAL_Driver/Src/stm32f7xx_hal_adc.c:1328:30
	sub.w	r3, r4, #35
	b	.LBB21_12
.Ltmp305:
.LBB21_11:
	@DEBUG_VALUE: HAL_ADC_ConfigChannel:sConfig <- $r1
	@DEBUG_VALUE: HAL_ADC_ConfigChannel:hadc <- $r0
	.loc	7 1337 21 is_stmt 1     @ ../Drivers/STM32F7xx_HAL_Driver/Src/stm32f7xx_hal_adc.c:1337:21
	add.w	r1, lr, #44
.Ltmp306:
	.loc	7 1337 30 is_stmt 0     @ ../Drivers/STM32F7xx_HAL_Driver/Src/stm32f7xx_hal_adc.c:1337:30
	sub.w	r3, r4, #65
.Ltmp307:
.LBB21_12:
	@DEBUG_VALUE: HAL_ADC_ConfigChannel:hadc <- $r0
	.loc	7 0 30                  @ ../Drivers/STM32F7xx_HAL_Driver/Src/stm32f7xx_hal_adc.c:0:30
	ldr	r5, [r1]
	movs	r4, #31
	lsls	r4, r3
	lsl.w	r3, r12, r3
	bic.w	r4, r5, r4
	str	r4, [r1]
	ldr	r6, [r1]
	orrs	r3, r6
	str	r3, [r1]
	ldr	r1, __arm_cp.21_1
.Ltmp308:
	.loc	7 1344 23 is_stmt 1     @ ../Drivers/STM32F7xx_HAL_Driver/Src/stm32f7xx_hal_adc.c:1344:23
	sub.w	r3, r1, #772
	.loc	7 1344 32 is_stmt 0     @ ../Drivers/STM32F7xx_HAL_Driver/Src/stm32f7xx_hal_adc.c:1344:32
	cmp	lr, r3
	beq	.LBB21_15
.Ltmp309:
.LBB21_13:
	@DEBUG_VALUE: HAL_ADC_ConfigChannel:hadc <- $r0
	.loc	7 0 32                  @ ../Drivers/STM32F7xx_HAL_Driver/Src/stm32f7xx_hal_adc.c:0:32
	movs	r1, #0
.Ltmp310:
	.loc	7 1369 3 is_stmt 1      @ ../Drivers/STM32F7xx_HAL_Driver/Src/stm32f7xx_hal_adc.c:1369:3
	strb.w	r1, [r0, #60]
.Ltmp311:
.LBB21_14:
	@DEBUG_VALUE: HAL_ADC_ConfigChannel:hadc <- $r0
	.loc	7 1373 1                @ ../Drivers/STM32F7xx_HAL_Driver/Src/stm32f7xx_hal_adc.c:1373:1
	uxtb	r0, r1
	add	sp, #4
	pop	{r4, r5, r6, pc}
.LBB21_15:
	@DEBUG_VALUE: HAL_ADC_ConfigChannel:hadc <- $r0
	.loc	7 1344 7                @ ../Drivers/STM32F7xx_HAL_Driver/Src/stm32f7xx_hal_adc.c:1344:7
	cmp	r2, #17
	itt	ne
	ldrne	r3, __arm_cp.21_0
	cmpne	r2, r3
	bne	.LBB21_20
@ %bb.16:
	@DEBUG_VALUE: HAL_ADC_ConfigChannel:hadc <- $r0
.Ltmp312:
	.loc	7 1354 14               @ ../Drivers/STM32F7xx_HAL_Driver/Src/stm32f7xx_hal_adc.c:1354:14
	ldr	r3, [r1]
	orr	r3, r3, #8388608
	str	r3, [r1]
	ldr	r1, __arm_cp.21_0
	.loc	7 1356 8                @ ../Drivers/STM32F7xx_HAL_Driver/Src/stm32f7xx_hal_adc.c:1356:8
	cmp	r2, r1
	bne	.LBB21_13
@ %bb.17:
	@DEBUG_VALUE: HAL_ADC_ConfigChannel:hadc <- $r0
.Ltmp313:
	.loc	7 1360 45               @ ../Drivers/STM32F7xx_HAL_Driver/Src/stm32f7xx_hal_adc.c:1360:45
	ldr	r1, __arm_cp.21_2
	.loc	7 1360 61 is_stmt 0     @ ../Drivers/STM32F7xx_HAL_Driver/Src/stm32f7xx_hal_adc.c:1360:61
	ldr	r2, __arm_cp.21_3
	.loc	7 1360 45               @ ../Drivers/STM32F7xx_HAL_Driver/Src/stm32f7xx_hal_adc.c:1360:45
	ldr	r1, [r1]
	.loc	7 1360 61               @ ../Drivers/STM32F7xx_HAL_Driver/Src/stm32f7xx_hal_adc.c:1360:61
	udiv	r1, r1, r2
	.loc	7 1360 42               @ ../Drivers/STM32F7xx_HAL_Driver/Src/stm32f7xx_hal_adc.c:1360:42
	add.w	r1, r1, r1, lsl #2
	lsls	r1, r1, #1
	b	.LBB21_19
.LBB21_18:                              @   in Loop: Header=BB21_19 Depth=1
.Ltmp314:
	@DEBUG_VALUE: HAL_ADC_ConfigChannel:counter <- $r1
	@DEBUG_VALUE: HAL_ADC_ConfigChannel:hadc <- $r0
	.loc	7 1363 16 is_stmt 1     @ ../Drivers/STM32F7xx_HAL_Driver/Src/stm32f7xx_hal_adc.c:1363:16
	ldr	r1, [sp]
.Ltmp315:
	@DEBUG_VALUE: HAL_ADC_ConfigChannel:counter <- $r1
	subs	r1, #1
.Ltmp316:
.LBB21_19:                              @ =>This Inner Loop Header: Depth=1
	@DEBUG_VALUE: HAL_ADC_ConfigChannel:hadc <- $r0
	@DEBUG_VALUE: HAL_ADC_ConfigChannel:counter <- $r1
	.loc	7 0 16 is_stmt 0        @ ../Drivers/STM32F7xx_HAL_Driver/Src/stm32f7xx_hal_adc.c:0:16
	str	r1, [sp]
	.loc	7 1361 13 is_stmt 1     @ ../Drivers/STM32F7xx_HAL_Driver/Src/stm32f7xx_hal_adc.c:1361:13
	ldr	r1, [sp]
.Ltmp317:
	@DEBUG_VALUE: HAL_ADC_ConfigChannel:counter <- $r1
	.loc	7 1361 7 is_stmt 0      @ ../Drivers/STM32F7xx_HAL_Driver/Src/stm32f7xx_hal_adc.c:1361:7
	cmp	r1, #0
	bne	.LBB21_18
	b	.LBB21_13
.Ltmp318:
.LBB21_20:
	@DEBUG_VALUE: HAL_ADC_ConfigChannel:hadc <- $r0
	.loc	7 1344 7 is_stmt 1      @ ../Drivers/STM32F7xx_HAL_Driver/Src/stm32f7xx_hal_adc.c:1344:7
	cmp	r2, #18
.Ltmp319:
	.loc	7 1347 14               @ ../Drivers/STM32F7xx_HAL_Driver/Src/stm32f7xx_hal_adc.c:1347:14
	ittt	eq
	ldreq	r2, [r1]
	orreq	r2, r2, #4194304
	streq	r2, [r1]
	b	.LBB21_13
.Ltmp320:
	.p2align	2
@ %bb.21:
	.loc	7 0 14 is_stmt 0        @ ../Drivers/STM32F7xx_HAL_Driver/Src/stm32f7xx_hal_adc.c:0:14
__arm_cp.21_0:
	.long	268435474               @ 0x10000012
.Lcpi_end18:
	.size	__arm_cp.21_0, .Lcpi_end18-__arm_cp.21_0
__arm_cp.21_1:
	.long	1073816324              @ 0x40012304
.Lcpi_end19:
	.size	__arm_cp.21_1, .Lcpi_end19-__arm_cp.21_1
__arm_cp.21_2:
	.long	SystemCoreClock
.Lcpi_end20:
	.size	__arm_cp.21_2, .Lcpi_end20-__arm_cp.21_2
__arm_cp.21_3:
	.long	1000000                 @ 0xf4240
.Lcpi_end21:
	.size	__arm_cp.21_3, .Lcpi_end21-__arm_cp.21_3
.Lfunc_end21:
	.size	HAL_ADC_ConfigChannel, .Lfunc_end21-HAL_ADC_ConfigChannel
	.cfi_endproc
	.cantunwind
	.fnend
                                        @ -- End function
	.section	.text.HAL_ADC_AnalogWDGConfig,"ax",%progbits
	.hidden	HAL_ADC_AnalogWDGConfig @ -- Begin function HAL_ADC_AnalogWDGConfig
	.globl	HAL_ADC_AnalogWDGConfig
	.p2align	2
	.type	HAL_ADC_AnalogWDGConfig,%function
	.code	16                      @ @HAL_ADC_AnalogWDGConfig
	.thumb_func
HAL_ADC_AnalogWDGConfig:
.Lfunc_begin22:
	.loc	7 1392 0 is_stmt 1      @ ../Drivers/STM32F7xx_HAL_Driver/Src/stm32f7xx_hal_adc.c:1392:0
	.fnstart
	.cfi_startproc
@ %bb.0:
	@DEBUG_VALUE: HAL_ADC_AnalogWDGConfig:hadc <- $r0
	@DEBUG_VALUE: HAL_ADC_AnalogWDGConfig:hadc <- $r0
	@DEBUG_VALUE: HAL_ADC_AnalogWDGConfig:AnalogWDGConfig <- $r1
	@DEBUG_VALUE: HAL_ADC_AnalogWDGConfig:AnalogWDGConfig <- $r1
	.loc	7 1409 3 prologue_end   @ ../Drivers/STM32F7xx_HAL_Driver/Src/stm32f7xx_hal_adc.c:1409:3
	ldrb.w	r2, [r0, #60]
.Ltmp321:
	.loc	7 1409 3 is_stmt 0      @ ../Drivers/STM32F7xx_HAL_Driver/Src/stm32f7xx_hal_adc.c:1409:3
	cmp	r2, #1
	bne	.LBB22_2
.Ltmp322:
@ %bb.1:
	@DEBUG_VALUE: HAL_ADC_AnalogWDGConfig:AnalogWDGConfig <- $r1
	@DEBUG_VALUE: HAL_ADC_AnalogWDGConfig:hadc <- $r0
	.loc	7 0 3                   @ ../Drivers/STM32F7xx_HAL_Driver/Src/stm32f7xx_hal_adc.c:0:3
	movs	r1, #2
.Ltmp323:
	b	.LBB22_3
.LBB22_2:
.Ltmp324:
	@DEBUG_VALUE: HAL_ADC_AnalogWDGConfig:AnalogWDGConfig <- $r1
	@DEBUG_VALUE: HAL_ADC_AnalogWDGConfig:hadc <- $r0
	.save	{r4, lr}
	push	{r4, lr}
	.cfi_def_cfa_offset 8
	.cfi_offset lr, -4
	.cfi_offset r4, -8
	movs	r2, #1
	.loc	7 1423 23 is_stmt 1     @ ../Drivers/STM32F7xx_HAL_Driver/Src/stm32f7xx_hal_adc.c:1423:23
	ldr	r4, __arm_cp.22_0
.Ltmp325:
	.loc	7 1409 3                @ ../Drivers/STM32F7xx_HAL_Driver/Src/stm32f7xx_hal_adc.c:1409:3
	strb.w	r2, [r0, #60]
	ldr	r3, [r0]
.Ltmp326:
	.loc	7 1411 23               @ ../Drivers/STM32F7xx_HAL_Driver/Src/stm32f7xx_hal_adc.c:1411:23
	ldr.w	r12, [r1, #16]
	ldr.w	lr, [r3, #4]
.Ltmp327:
	.loc	7 1411 6 is_stmt 0      @ ../Drivers/STM32F7xx_HAL_Driver/Src/stm32f7xx_hal_adc.c:1411:6
	cmp.w	r12, #1
.Ltmp328:
	.loc	7 1419 5 is_stmt 1      @ ../Drivers/STM32F7xx_HAL_Driver/Src/stm32f7xx_hal_adc.c:1419:5
	bic	r2, lr, #64
.Ltmp329:
	.loc	7 1411 6                @ ../Drivers/STM32F7xx_HAL_Driver/Src/stm32f7xx_hal_adc.c:1411:6
	it	eq
	orreq	r2, lr, #64
	str	r2, [r3, #4]
	.loc	7 1423 23               @ ../Drivers/STM32F7xx_HAL_Driver/Src/stm32f7xx_hal_adc.c:1423:23
	ldr	r2, [r3, #4]
	ands	r2, r4
	str	r2, [r3, #4]
	.loc	7 1426 43               @ ../Drivers/STM32F7xx_HAL_Driver/Src/stm32f7xx_hal_adc.c:1426:43
	ldr	r2, [r1]
	.loc	7 1426 23 is_stmt 0     @ ../Drivers/STM32F7xx_HAL_Driver/Src/stm32f7xx_hal_adc.c:1426:23
	ldr	r4, [r3, #4]
	orrs	r2, r4
	str	r2, [r3, #4]
	.loc	7 1429 42 is_stmt 1     @ ../Drivers/STM32F7xx_HAL_Driver/Src/stm32f7xx_hal_adc.c:1429:42
	ldr	r2, [r1, #4]
	.loc	7 1429 23 is_stmt 0     @ ../Drivers/STM32F7xx_HAL_Driver/Src/stm32f7xx_hal_adc.c:1429:23
	str	r2, [r3, #36]
	.loc	7 1432 42 is_stmt 1     @ ../Drivers/STM32F7xx_HAL_Driver/Src/stm32f7xx_hal_adc.c:1432:42
	ldr	r2, [r1, #8]
	.loc	7 1432 23 is_stmt 0     @ ../Drivers/STM32F7xx_HAL_Driver/Src/stm32f7xx_hal_adc.c:1432:23
	str	r2, [r3, #40]
	.loc	7 1435 23 is_stmt 1     @ ../Drivers/STM32F7xx_HAL_Driver/Src/stm32f7xx_hal_adc.c:1435:23
	ldr	r2, [r3, #4]
	bic	r2, r2, #31
	str	r2, [r3, #4]
	.loc	7 1438 65               @ ../Drivers/STM32F7xx_HAL_Driver/Src/stm32f7xx_hal_adc.c:1438:65
	ldrh	r1, [r1, #12]
.Ltmp330:
	.loc	7 1438 23 is_stmt 0     @ ../Drivers/STM32F7xx_HAL_Driver/Src/stm32f7xx_hal_adc.c:1438:23
	ldr	r2, [r3, #4]
	orrs	r1, r2
	str	r1, [r3, #4]
	movs	r1, #0
.Ltmp331:
	.loc	7 1441 3 is_stmt 1      @ ../Drivers/STM32F7xx_HAL_Driver/Src/stm32f7xx_hal_adc.c:1441:3
	strb.w	r1, [r0, #60]
	pop.w	{r4, lr}
.Ltmp332:
.LBB22_3:
	@DEBUG_VALUE: HAL_ADC_AnalogWDGConfig:hadc <- $r0
	.loc	7 1445 1                @ ../Drivers/STM32F7xx_HAL_Driver/Src/stm32f7xx_hal_adc.c:1445:1
	uxtb	r0, r1
	bx	lr
.Ltmp333:
	.p2align	2
@ %bb.4:
	.loc	7 0 1 is_stmt 0         @ ../Drivers/STM32F7xx_HAL_Driver/Src/stm32f7xx_hal_adc.c:0:1
__arm_cp.22_0:
	.long	4282383871              @ 0xff3ffdff
.Lcpi_end22:
	.size	__arm_cp.22_0, .Lcpi_end22-__arm_cp.22_0
.Lfunc_end22:
	.size	HAL_ADC_AnalogWDGConfig, .Lfunc_end22-HAL_ADC_AnalogWDGConfig
	.cfi_endproc
	.cantunwind
	.fnend
                                        @ -- End function
	.section	.text.HAL_ADC_GetState,"ax",%progbits
	.hidden	HAL_ADC_GetState        @ -- Begin function HAL_ADC_GetState
	.globl	HAL_ADC_GetState
	.p2align	1
	.type	HAL_ADC_GetState,%function
	.code	16                      @ @HAL_ADC_GetState
	.thumb_func
HAL_ADC_GetState:
.Lfunc_begin23:
	.loc	7 1474 0 is_stmt 1      @ ../Drivers/STM32F7xx_HAL_Driver/Src/stm32f7xx_hal_adc.c:1474:0
	.fnstart
	.cfi_startproc
@ %bb.0:
	@DEBUG_VALUE: HAL_ADC_GetState:hadc <- $r0
	@DEBUG_VALUE: HAL_ADC_GetState:hadc <- $r0
	.loc	7 1476 16 prologue_end  @ ../Drivers/STM32F7xx_HAL_Driver/Src/stm32f7xx_hal_adc.c:1476:16
	ldr	r0, [r0, #64]
.Ltmp334:
	.loc	7 1476 3 is_stmt 0      @ ../Drivers/STM32F7xx_HAL_Driver/Src/stm32f7xx_hal_adc.c:1476:3
	bx	lr
.Ltmp335:
.Lfunc_end23:
	.size	HAL_ADC_GetState, .Lfunc_end23-HAL_ADC_GetState
	.cfi_endproc
	.cantunwind
	.fnend
                                        @ -- End function
	.section	.text.HAL_ADC_GetError,"ax",%progbits
	.hidden	HAL_ADC_GetError        @ -- Begin function HAL_ADC_GetError
	.globl	HAL_ADC_GetError
	.p2align	1
	.type	HAL_ADC_GetError,%function
	.code	16                      @ @HAL_ADC_GetError
	.thumb_func
HAL_ADC_GetError:
.Lfunc_begin24:
	.loc	7 1486 0 is_stmt 1      @ ../Drivers/STM32F7xx_HAL_Driver/Src/stm32f7xx_hal_adc.c:1486:0
	.fnstart
	.cfi_startproc
@ %bb.0:
	@DEBUG_VALUE: HAL_ADC_GetError:hadc <- $r0
	@DEBUG_VALUE: HAL_ADC_GetError:hadc <- $r0
	.loc	7 1487 16 prologue_end  @ ../Drivers/STM32F7xx_HAL_Driver/Src/stm32f7xx_hal_adc.c:1487:16
	ldr	r0, [r0, #68]
.Ltmp336:
	.loc	7 1487 3 is_stmt 0      @ ../Drivers/STM32F7xx_HAL_Driver/Src/stm32f7xx_hal_adc.c:1487:3
	bx	lr
.Ltmp337:
.Lfunc_end24:
	.size	HAL_ADC_GetError, .Lfunc_end24-HAL_ADC_GetError
	.cfi_endproc
	.cantunwind
	.fnend
                                        @ -- End function
	.section	".note.GNU-stack","",%progbits
	.eabi_attribute	30, 4	@ Tag_ABI_optimization_goals
	.ARM_attribute	16, 1	@ Tag_AV_eba