	.text
	.syntax unified
	.eabi_attribute	67, "2.09"	@ Tag_conformance
	.cpu	cortex-m7
	.eabi_attribute	6, 13	@ Tag_CPU_arch
	.eabi_attribute	7, 77	@ Tag_CPU_arch_profile
	.eabi_attribute	8, 0	@ Tag_ARM_ISA_use
	.eabi_attribute	9, 2	@ Tag_THUMB_ISA_use
	.fpu	fpv5-sp-d16
	.eabi_attribute	27, 1	@ Tag_ABI_HardFP_use
	.eabi_attribute	36, 1	@ Tag_FP_HP_extension
	.eabi_attribute	34, 1	@ Tag_CPU_unaligned_access
	.eabi_attribute	17, 1	@ Tag_ABI_PCS_GOT_use
	.eabi_attribute	20, 2	@ Tag_ABI_FP_denormal
	.eabi_attribute	21, 0	@ Tag_ABI_FP_exceptions
	.eabi_attribute	23, 1	@ Tag_ABI_FP_number_model
	.eabi_attribute	24, 1	@ Tag_ABI_align_needed
	.eabi_attribute	25, 1	@ Tag_ABI_align_preserved
	.eabi_attribute	28, 1	@ Tag_ABI_VFP_args
	.eabi_attribute	38, 1	@ Tag_ABI_FP_16bit_format
	.eabi_attribute	18, 2	@ Tag_ABI_PCS_wchar_t
	.eabi_attribute	26, 1	@ Tag_ABI_enum_size
	.eabi_attribute	14, 0	@ Tag_ABI_PCS_R9_use
	.file	"stm32f7xx_hal_crc.c"
	.file	1 "../Drivers/STM32F7xx_HAL_Driver/Inc" "stm32f7xx_hal_def.h"
	.file	2 "../Drivers/STM32F7xx_HAL_Driver/Inc" "stm32f7xx_hal_crc.h"
	.file	3 "C:\\Keil\\ARM\\ARMCLANG\\Bin\\..\\include" "stdint.h"
	.section	.text.HAL_CRC_Init,"ax",%progbits
	.hidden	HAL_CRC_Init            @ -- Begin function HAL_CRC_Init
	.globl	HAL_CRC_Init
	.p2align	2
	.type	HAL_CRC_Init,%function
	.code	16                      @ @HAL_CRC_Init
	.thumb_func
HAL_CRC_Init:
.Lfunc_begin0:
	.file	4 "../Drivers/STM32F7xx_HAL_Driver/Src" "stm32f7xx_hal_crc.c"
	.loc	4 117 0                 @ ../Drivers/STM32F7xx_HAL_Driver/Src/stm32f7xx_hal_crc.c:117:0
	.fnstart
	.cfi_sections .debug_frame
	.cfi_startproc
@ %bb.0:
	.save	{r4, lr}
	push	{r4, lr}
	.cfi_def_cfa_offset 8
	.cfi_offset lr, -4
	.cfi_offset r4, -8
	@DEBUG_VALUE: HAL_CRC_Init:hcrc <- $r0
	mov	r4, r0
.Ltmp0:
	@DEBUG_VALUE: HAL_CRC_Init:hcrc <- $r4
	.loc	4 119 6 prologue_end    @ ../Drivers/STM32F7xx_HAL_Driver/Src/stm32f7xx_hal_crc.c:119:6
	cbz	r0, .LBB0_5
.Ltmp1:
@ %bb.1:
	@DEBUG_VALUE: HAL_CRC_Init:hcrc <- $r4
	.loc	4 127 12                @ ../Drivers/STM32F7xx_HAL_Driver/Src/stm32f7xx_hal_crc.c:127:12
	ldrb	r0, [r4, #29]
.Ltmp2:
	.loc	4 127 6 is_stmt 0       @ ../Drivers/STM32F7xx_HAL_Driver/Src/stm32f7xx_hal_crc.c:127:6
	cbnz	r0, .LBB0_3
.Ltmp3:
@ %bb.2:
	@DEBUG_VALUE: HAL_CRC_Init:hcrc <- $r4
	.loc	4 130 16 is_stmt 1      @ ../Drivers/STM32F7xx_HAL_Driver/Src/stm32f7xx_hal_crc.c:130:16
	movs	r0, #0
	strb	r0, [r4, #28]
	.loc	4 132 5                 @ ../Drivers/STM32F7xx_HAL_Driver/Src/stm32f7xx_hal_crc.c:132:5
	mov	r0, r4
	bl	HAL_CRC_MspInit
.Ltmp4:
.LBB0_3:
	@DEBUG_VALUE: HAL_CRC_Init:hcrc <- $r4
	.loc	4 136 15                @ ../Drivers/STM32F7xx_HAL_Driver/Src/stm32f7xx_hal_crc.c:136:15
	movs	r0, #2
	strb	r0, [r4, #29]
.Ltmp5:
	.loc	4 141 17                @ ../Drivers/STM32F7xx_HAL_Driver/Src/stm32f7xx_hal_crc.c:141:17
	ldrb	r0, [r4, #4]
.Ltmp6:
	.loc	4 141 6 is_stmt 0       @ ../Drivers/STM32F7xx_HAL_Driver/Src/stm32f7xx_hal_crc.c:141:6
	cbz	r0, .LBB0_6
.Ltmp7:
@ %bb.4:
	@DEBUG_VALUE: HAL_CRC_Init:hcrc <- $r4
	.loc	4 150 50 is_stmt 1      @ ../Drivers/STM32F7xx_HAL_Driver/Src/stm32f7xx_hal_crc.c:150:50
	ldrd	r1, r2, [r4, #8]
	.loc	4 150 8 is_stmt 0       @ ../Drivers/STM32F7xx_HAL_Driver/Src/stm32f7xx_hal_crc.c:150:8
	mov	r0, r4
	bl	HAL_CRCEx_Polynomial_Set
.Ltmp8:
	.loc	4 150 8                 @ ../Drivers/STM32F7xx_HAL_Driver/Src/stm32f7xx_hal_crc.c:150:8
	cbz	r0, .LBB0_7
.Ltmp9:
.LBB0_5:
	@DEBUG_VALUE: HAL_CRC_Init:hcrc <- $r4
	.loc	4 0 8                   @ ../Drivers/STM32F7xx_HAL_Driver/Src/stm32f7xx_hal_crc.c:0:8
	movs	r0, #1
	.loc	4 186 1 is_stmt 1       @ ../Drivers/STM32F7xx_HAL_Driver/Src/stm32f7xx_hal_crc.c:186:1
	pop	{r4, pc}
.Ltmp10:
.LBB0_6:
	@DEBUG_VALUE: HAL_CRC_Init:hcrc <- $r4
	.loc	4 144 5                 @ ../Drivers/STM32F7xx_HAL_Driver/Src/stm32f7xx_hal_crc.c:144:5
	ldr	r0, [r4]
	ldr	r1, __arm_cp.0_0
	str	r1, [r0, #20]
	.loc	4 145 5                 @ ../Drivers/STM32F7xx_HAL_Driver/Src/stm32f7xx_hal_crc.c:145:5
	ldr	r1, [r0, #8]
	bic	r1, r1, #24
	str	r1, [r0, #8]
.Ltmp11:
.LBB0_7:
	@DEBUG_VALUE: HAL_CRC_Init:hcrc <- $r4
	.loc	4 159 17                @ ../Drivers/STM32F7xx_HAL_Driver/Src/stm32f7xx_hal_crc.c:159:17
	ldrb	r0, [r4, #5]
.Ltmp12:
	.loc	4 159 6 is_stmt 0       @ ../Drivers/STM32F7xx_HAL_Driver/Src/stm32f7xx_hal_crc.c:159:6
	cmp	r0, #0
.Ltmp13:
	.loc	4 165 5 is_stmt 1       @ ../Drivers/STM32F7xx_HAL_Driver/Src/stm32f7xx_hal_crc.c:165:5
	ite	ne
	ldrne	r0, [r4, #16]
	moveq.w	r0, #-1
	ldr	r1, [r4]
	str	r0, [r1, #16]
.Ltmp14:
	.loc	4 171 3                 @ ../Drivers/STM32F7xx_HAL_Driver/Src/stm32f7xx_hal_crc.c:171:3
	ldr	r0, [r1, #8]
	ldr	r2, [r4, #20]
	bic	r0, r0, #96
	orrs	r0, r2
	str	r0, [r1, #8]
	.loc	4 175 3                 @ ../Drivers/STM32F7xx_HAL_Driver/Src/stm32f7xx_hal_crc.c:175:3
	ldr	r0, [r1, #8]
	ldr	r2, [r4, #24]
	bic	r0, r0, #128
	orrs	r0, r2
	str	r0, [r1, #8]
	.loc	4 182 15                @ ../Drivers/STM32F7xx_HAL_Driver/Src/stm32f7xx_hal_crc.c:182:15
	movs	r0, #1
	strb	r0, [r4, #29]
	movs	r0, #0
	.loc	4 186 1                 @ ../Drivers/STM32F7xx_HAL_Driver/Src/stm32f7xx_hal_crc.c:186:1
	pop	{r4, pc}
.Ltmp15:
	.p2align	2
@ %bb.8:
	.loc	4 0 1 is_stmt 0         @ ../Drivers/STM32F7xx_HAL_Driver/Src/stm32f7xx_hal_crc.c:0:1
__arm_cp.0_0:
	.long	79764919                @ 0x4c11db7
.Lcpi_end0:
	.size	__arm_cp.0_0, .Lcpi_end0-__arm_cp.0_0
.Lfunc_end0:
	.size	HAL_CRC_Init, .Lfunc_end0-HAL_CRC_Init
	.cfi_endproc
	.cantunwind
	.fnend
                                        @ -- End function
	.section	.text.HAL_CRC_MspInit,"ax",%progbits
	.hidden	HAL_CRC_MspInit         @ -- Begin function HAL_CRC_MspInit
	.weak	HAL_CRC_MspInit
	.p2align	1
	.type	HAL_CRC_MspInit,%function
	.code	16                      @ @HAL_CRC_MspInit
	.thumb_func
HAL_CRC_MspInit:
.Lfunc_begin1:
	.loc	4 238 0 is_stmt 1       @ ../Drivers/STM32F7xx_HAL_Driver/Src/stm32f7xx_hal_crc.c:238:0
	.fnstart
	.cfi_startproc
@ %bb.0:
	@DEBUG_VALUE: HAL_CRC_MspInit:hcrc <- $r0
	.loc	4 245 1 prologue_end    @ ../Drivers/STM32F7xx_HAL_Driver/Src/stm32f7xx_hal_crc.c:245:1
	bx	lr
.Ltmp16:
.Lfunc_end1:
	.size	HAL_CRC_MspInit, .Lfunc_end1-HAL_CRC_MspInit
	.cfi_endproc
	.cantunwind
	.fnend
                                        @ -- End function
	.section	.text.HAL_CRC_DeInit,"ax",%progbits
	.hidden	HAL_CRC_DeInit          @ -- Begin function HAL_CRC_DeInit
	.globl	HAL_CRC_DeInit
	.p2align	1
	.type	HAL_CRC_DeInit,%function
	.code	16                      @ @HAL_CRC_DeInit
	.thumb_func
HAL_CRC_DeInit:
.Lfunc_begin2:
	.loc	4 194 0                 @ ../Drivers/STM32F7xx_HAL_Driver/Src/stm32f7xx_hal_crc.c:194:0
	.fnstart
	.cfi_startproc
@ %bb.0:
	.save	{r4, r5, r7, lr}
	push	{r4, r5, r7, lr}
	.cfi_def_cfa_offset 16
	.cfi_offset lr, -4
	.cfi_offset r7, -8
	.cfi_offset r5, -12
	.cfi_offset r4, -16
	@DEBUG_VALUE: HAL_CRC_DeInit:hcrc <- $r0
	mov	r4, r0
.Ltmp17:
	@DEBUG_VALUE: HAL_CRC_DeInit:hcrc <- $r4
	.loc	4 196 6 prologue_end    @ ../Drivers/STM32F7xx_HAL_Driver/Src/stm32f7xx_hal_crc.c:196:6
	cbz	r0, .LBB2_3
.Ltmp18:
@ %bb.1:
	@DEBUG_VALUE: HAL_CRC_DeInit:hcrc <- $r4
	.loc	4 205 12                @ ../Drivers/STM32F7xx_HAL_Driver/Src/stm32f7xx_hal_crc.c:205:12
	ldrb	r0, [r4, #29]
	movs	r5, #2
.Ltmp19:
	.loc	4 205 6 is_stmt 0       @ ../Drivers/STM32F7xx_HAL_Driver/Src/stm32f7xx_hal_crc.c:205:6
	cmp	r0, #2
	beq	.LBB2_4
.Ltmp20:
@ %bb.2:
	@DEBUG_VALUE: HAL_CRC_DeInit:hcrc <- $r4
	.loc	4 211 15 is_stmt 1      @ ../Drivers/STM32F7xx_HAL_Driver/Src/stm32f7xx_hal_crc.c:211:15
	strb	r5, [r4, #29]
	movs	r5, #0
	.loc	4 214 3                 @ ../Drivers/STM32F7xx_HAL_Driver/Src/stm32f7xx_hal_crc.c:214:3
	ldr	r0, [r4]
	ldr	r1, [r0, #8]
	orr	r1, r1, #1
	str	r1, [r0, #8]
	.loc	4 217 3                 @ ../Drivers/STM32F7xx_HAL_Driver/Src/stm32f7xx_hal_crc.c:217:3
	ldrb	r1, [r0, #4]
	strb	r5, [r0, #4]
	.loc	4 220 3                 @ ../Drivers/STM32F7xx_HAL_Driver/Src/stm32f7xx_hal_crc.c:220:3
	mov	r0, r4
	bl	HAL_CRC_MspDeInit
.Ltmp21:
	.loc	4 226 3                 @ ../Drivers/STM32F7xx_HAL_Driver/Src/stm32f7xx_hal_crc.c:226:3
	strb	r5, [r4, #28]
.Ltmp22:
	.loc	4 223 15                @ ../Drivers/STM32F7xx_HAL_Driver/Src/stm32f7xx_hal_crc.c:223:15
	strb	r5, [r4, #29]
	b	.LBB2_4
.Ltmp23:
.LBB2_3:
	@DEBUG_VALUE: HAL_CRC_DeInit:hcrc <- $r4
	.loc	4 0 15 is_stmt 0        @ ../Drivers/STM32F7xx_HAL_Driver/Src/stm32f7xx_hal_crc.c:0:15
	movs	r5, #1
.Ltmp24:
.LBB2_4:
	@DEBUG_VALUE: HAL_CRC_DeInit:hcrc <- $r4
	.loc	4 230 1 is_stmt 1       @ ../Drivers/STM32F7xx_HAL_Driver/Src/stm32f7xx_hal_crc.c:230:1
	uxtb	r0, r5
	pop	{r4, r5, r7, pc}
.Ltmp25:
.Lfunc_end2:
	.size	HAL_CRC_DeInit, .Lfunc_end2-HAL_CRC_DeInit
	.cfi_endproc
	.cantunwind
	.fnend
                                        @ -- End function
	.section	.text.HAL_CRC_MspDeInit,"ax",%progbits
	.hidden	HAL_CRC_MspDeInit       @ -- Begin function HAL_CRC_MspDeInit
	.weak	HAL_CRC_MspDeInit
	.p2align	1
	.type	HAL_CRC_MspDeInit,%function
	.code	16                      @ @HAL_CRC_MspDeInit
	.thumb_func
HAL_CRC_MspDeInit:
.Lfunc_begin3:
	.loc	4 253 0                 @ ../Drivers/STM32F7xx_HAL_Driver/Src/stm32f7xx_hal_crc.c:253:0
	.fnstart
	.cfi_startproc
@ %bb.0:
	@DEBUG_VALUE: HAL_CRC_MspDeInit:hcrc <- $r0
	.loc	4 260 1 prologue_end    @ ../Drivers/STM32F7xx_HAL_Driver/Src/stm32f7xx_hal_crc.c:260:1
	bx	lr
.Ltmp26:
.Lfunc_end3:
	.size	HAL_CRC_MspDeInit, .Lfunc_end3-HAL_CRC_MspDeInit
	.cfi_endproc
	.cantunwind
	.fnend
                                        @ -- End function
	.section	.text.HAL_CRC_Accumulate,"ax",%progbits
	.hidden	HAL_CRC_Accumulate      @ -- Begin function HAL_CRC_Accumulate
	.globl	HAL_CRC_Accumulate
	.p2align	1
	.type	HAL_CRC_Accumulate,%function
	.code	16                      @ @HAL_CRC_Accumulate
	.thumb_func
HAL_CRC_Accumulate:
.Lfunc_begin4:
	.loc	4 302 0                 @ ../Drivers/STM32F7xx_HAL_Driver/Src/stm32f7xx_hal_crc.c:302:0
	.fnstart
	.cfi_startproc
@ %bb.0:
	.save	{r4, lr}
	push	{r4, lr}
	.cfi_def_cfa_offset 8
	.cfi_offset lr, -4
	.cfi_offset r4, -8
	@DEBUG_VALUE: HAL_CRC_Accumulate:hcrc <- $r0
	@DEBUG_VALUE: HAL_CRC_Accumulate:pBuffer <- $r1
	@DEBUG_VALUE: HAL_CRC_Accumulate:BufferLength <- $r2
.Ltmp27:
	.loc	4 307 3 prologue_end    @ ../Drivers/STM32F7xx_HAL_Driver/Src/stm32f7xx_hal_crc.c:307:3
	ldrb	r3, [r0, #28]
	mov	r4, r0
.Ltmp28:
	@DEBUG_VALUE: HAL_CRC_Accumulate:temp <- 0
	@DEBUG_VALUE: HAL_CRC_Accumulate:index <- 0
	@DEBUG_VALUE: HAL_CRC_Accumulate:BufferLength <- $r2
	@DEBUG_VALUE: HAL_CRC_Accumulate:pBuffer <- $r1
	@DEBUG_VALUE: HAL_CRC_Accumulate:hcrc <- $r4
	.loc	4 0 3 is_stmt 0         @ ../Drivers/STM32F7xx_HAL_Driver/Src/stm32f7xx_hal_crc.c:0:3
	movs	r0, #2
.Ltmp29:
	.loc	4 307 3                 @ ../Drivers/STM32F7xx_HAL_Driver/Src/stm32f7xx_hal_crc.c:307:3
	cmp	r3, #1
.Ltmp30:
	.loc	4 342 1 is_stmt 1       @ ../Drivers/STM32F7xx_HAL_Driver/Src/stm32f7xx_hal_crc.c:342:1
	it	eq
	popeq	{r4, pc}
.Ltmp31:
	.loc	4 310 15                @ ../Drivers/STM32F7xx_HAL_Driver/Src/stm32f7xx_hal_crc.c:310:15
	strb	r0, [r4, #29]
	movs	r0, #1
.Ltmp32:
	.loc	4 307 3                 @ ../Drivers/STM32F7xx_HAL_Driver/Src/stm32f7xx_hal_crc.c:307:3
	strb	r0, [r4, #28]
.Ltmp33:
	.loc	4 312 17                @ ../Drivers/STM32F7xx_HAL_Driver/Src/stm32f7xx_hal_crc.c:312:17
	ldr	r0, [r4, #32]
	.loc	4 312 3 is_stmt 0       @ ../Drivers/STM32F7xx_HAL_Driver/Src/stm32f7xx_hal_crc.c:312:3
	cmp	r0, #1
	beq	.LBB4_7
.Ltmp34:
@ %bb.1:
	@DEBUG_VALUE: HAL_CRC_Accumulate:BufferLength <- $r2
	@DEBUG_VALUE: HAL_CRC_Accumulate:pBuffer <- $r1
	cmp	r0, #2
	beq	.LBB4_8
.Ltmp35:
@ %bb.2:
	@DEBUG_VALUE: HAL_CRC_Accumulate:BufferLength <- $r2
	@DEBUG_VALUE: HAL_CRC_Accumulate:pBuffer <- $r1
	cmp	r0, #3
	beq	.LBB4_5
.Ltmp36:
@ %bb.3:
	@DEBUG_VALUE: HAL_CRC_Accumulate:BufferLength <- $r2
	@DEBUG_VALUE: HAL_CRC_Accumulate:pBuffer <- $r1
	.loc	4 0 3                   @ ../Drivers/STM32F7xx_HAL_Driver/Src/stm32f7xx_hal_crc.c:0:3
	movs	r0, #0
	b	.LBB4_9
.Ltmp37:
.LBB4_4:                                @   in Loop: Header=BB4_5 Depth=1
	@DEBUG_VALUE: HAL_CRC_Accumulate:BufferLength <- $r2
	@DEBUG_VALUE: HAL_CRC_Accumulate:pBuffer <- $r1
	.loc	4 318 15 is_stmt 1      @ ../Drivers/STM32F7xx_HAL_Driver/Src/stm32f7xx_hal_crc.c:318:15
	ldr	r0, [r4]
	.loc	4 318 30 is_stmt 0      @ ../Drivers/STM32F7xx_HAL_Driver/Src/stm32f7xx_hal_crc.c:318:30
	ldm	r1!, {r3}
.Ltmp38:
	.loc	4 316 7 is_stmt 1       @ ../Drivers/STM32F7xx_HAL_Driver/Src/stm32f7xx_hal_crc.c:316:7
	subs	r2, #1
.Ltmp39:
	.loc	4 318 28                @ ../Drivers/STM32F7xx_HAL_Driver/Src/stm32f7xx_hal_crc.c:318:28
	str	r3, [r0]
.Ltmp40:
.LBB4_5:                                @ =>This Inner Loop Header: Depth=1
	@DEBUG_VALUE: HAL_CRC_Accumulate:BufferLength <- $r2
	@DEBUG_VALUE: HAL_CRC_Accumulate:pBuffer <- $r1
	.loc	4 316 7                 @ ../Drivers/STM32F7xx_HAL_Driver/Src/stm32f7xx_hal_crc.c:316:7
	cmp	r2, #0
	bne	.LBB4_4
.Ltmp41:
@ %bb.6:
	@DEBUG_VALUE: HAL_CRC_Accumulate:BufferLength <- $r2
	@DEBUG_VALUE: HAL_CRC_Accumulate:pBuffer <- $r1
	.loc	4 320 20                @ ../Drivers/STM32F7xx_HAL_Driver/Src/stm32f7xx_hal_crc.c:320:20
	ldr	r0, [r4]
	.loc	4 320 30 is_stmt 0      @ ../Drivers/STM32F7xx_HAL_Driver/Src/stm32f7xx_hal_crc.c:320:30
	ldr	r0, [r0]
.Ltmp42:
	@DEBUG_VALUE: HAL_CRC_Accumulate:temp <- $r0
	.loc	4 0 30                  @ ../Drivers/STM32F7xx_HAL_Driver/Src/stm32f7xx_hal_crc.c:0:30
	b	.LBB4_9
.Ltmp43:
.LBB4_7:
	@DEBUG_VALUE: HAL_CRC_Accumulate:BufferLength <- $r2
	@DEBUG_VALUE: HAL_CRC_Accumulate:pBuffer <- $r1
	.loc	4 324 14 is_stmt 1      @ ../Drivers/STM32F7xx_HAL_Driver/Src/stm32f7xx_hal_crc.c:324:14
	mov	r0, r4
	bl	CRC_Handle_8
.Ltmp44:
	@DEBUG_VALUE: HAL_CRC_Accumulate:temp <- $r0
	.loc	4 0 14 is_stmt 0        @ ../Drivers/STM32F7xx_HAL_Driver/Src/stm32f7xx_hal_crc.c:0:14
	b	.LBB4_9
.Ltmp45:
.LBB4_8:
	@DEBUG_VALUE: HAL_CRC_Accumulate:BufferLength <- $r2
	@DEBUG_VALUE: HAL_CRC_Accumulate:pBuffer <- $r1
	.loc	4 328 14 is_stmt 1      @ ../Drivers/STM32F7xx_HAL_Driver/Src/stm32f7xx_hal_crc.c:328:14
	mov	r0, r4
	bl	CRC_Handle_16
.Ltmp46:
	@DEBUG_VALUE: HAL_CRC_Accumulate:temp <- $r0
.LBB4_9:
	.loc	4 338 3                 @ ../Drivers/STM32F7xx_HAL_Driver/Src/stm32f7xx_hal_crc.c:338:3
	movs	r1, #0
	strb	r1, [r4, #28]
.Ltmp47:
	.loc	4 335 15                @ ../Drivers/STM32F7xx_HAL_Driver/Src/stm32f7xx_hal_crc.c:335:15
	movs	r1, #1
	strb	r1, [r4, #29]
	.loc	4 342 1                 @ ../Drivers/STM32F7xx_HAL_Driver/Src/stm32f7xx_hal_crc.c:342:1
	pop	{r4, pc}
.Ltmp48:
.Lfunc_end4:
	.size	HAL_CRC_Accumulate, .Lfunc_end4-HAL_CRC_Accumulate
	.cfi_endproc
	.cantunwind
	.fnend
                                        @ -- End function
	.section	.text.CRC_Handle_8,"ax",%progbits
	.p2align	1               @ -- Begin function CRC_Handle_8
	.type	CRC_Handle_8,%function
	.code	16                      @ @CRC_Handle_8
	.thumb_func
CRC_Handle_8:
.Lfunc_begin5:
	.loc	4 417 0                 @ ../Drivers/STM32F7xx_HAL_Driver/Src/stm32f7xx_hal_crc.c:417:0
	.fnstart
	.cfi_startproc
@ %bb.0:
	.save	{r4, lr}
	push	{r4, lr}
	.cfi_def_cfa_offset 8
	.cfi_offset lr, -4
	.cfi_offset r4, -8
	@DEBUG_VALUE: CRC_Handle_8:hcrc <- $r0
	@DEBUG_VALUE: CRC_Handle_8:hcrc <- $r0
	@DEBUG_VALUE: CRC_Handle_8:pBuffer <- $r1
	@DEBUG_VALUE: CRC_Handle_8:pBuffer <- $r1
	@DEBUG_VALUE: CRC_Handle_8:BufferLength <- $r2
	@DEBUG_VALUE: CRC_Handle_8:BufferLength <- $r2
.Ltmp49:
	@DEBUG_VALUE: CRC_Handle_8:i <- 0
	.loc	4 423 8 prologue_end    @ ../Drivers/STM32F7xx_HAL_Driver/Src/stm32f7xx_hal_crc.c:423:8
	add.w	r12, r1, #1
	lsr.w	lr, r2, #2
	b	.LBB5_2
.Ltmp50:
.LBB5_1:                                @   in Loop: Header=BB5_2 Depth=1
	@DEBUG_VALUE: CRC_Handle_8:BufferLength <- $r2
	@DEBUG_VALUE: CRC_Handle_8:pBuffer <- $r1
	@DEBUG_VALUE: CRC_Handle_8:hcrc <- $r0
	.loc	4 425 138               @ ../Drivers/STM32F7xx_HAL_Driver/Src/stm32f7xx_hal_crc.c:425:138
	ldr	r4, [r12, #-1]
	.loc	4 425 12 is_stmt 0      @ ../Drivers/STM32F7xx_HAL_Driver/Src/stm32f7xx_hal_crc.c:425:12
	ldr	r3, [r0]
.Ltmp51:
	.loc	4 423 4 is_stmt 1       @ ../Drivers/STM32F7xx_HAL_Driver/Src/stm32f7xx_hal_crc.c:423:4
	add.w	r12, r12, #4
	sub.w	lr, lr, #1
.Ltmp52:
	.loc	4 425 138               @ ../Drivers/STM32F7xx_HAL_Driver/Src/stm32f7xx_hal_crc.c:425:138
	rev	r4, r4
	.loc	4 425 25 is_stmt 0      @ ../Drivers/STM32F7xx_HAL_Driver/Src/stm32f7xx_hal_crc.c:425:25
	str	r4, [r3]
.Ltmp53:
.LBB5_2:                                @ =>This Inner Loop Header: Depth=1
	@DEBUG_VALUE: CRC_Handle_8:BufferLength <- $r2
	@DEBUG_VALUE: CRC_Handle_8:pBuffer <- $r1
	@DEBUG_VALUE: CRC_Handle_8:hcrc <- $r0
	.loc	4 423 4 is_stmt 1       @ ../Drivers/STM32F7xx_HAL_Driver/Src/stm32f7xx_hal_crc.c:423:4
	cmp.w	lr, #0
	bne	.LBB5_1
.Ltmp54:
@ %bb.3:
	@DEBUG_VALUE: CRC_Handle_8:BufferLength <- $r2
	@DEBUG_VALUE: CRC_Handle_8:pBuffer <- $r1
	@DEBUG_VALUE: CRC_Handle_8:hcrc <- $r0
	.loc	4 428 7                 @ ../Drivers/STM32F7xx_HAL_Driver/Src/stm32f7xx_hal_crc.c:428:7
	ands	r3, r2, #3
	beq	.LBB5_9
.Ltmp55:
@ %bb.4:
	@DEBUG_VALUE: CRC_Handle_8:BufferLength <- $r2
	@DEBUG_VALUE: CRC_Handle_8:pBuffer <- $r1
	@DEBUG_VALUE: CRC_Handle_8:hcrc <- $r0
	.loc	4 436 92                @ ../Drivers/STM32F7xx_HAL_Driver/Src/stm32f7xx_hal_crc.c:436:92
	bic	r2, r2, #3
.Ltmp56:
	.loc	4 428 7                 @ ../Drivers/STM32F7xx_HAL_Driver/Src/stm32f7xx_hal_crc.c:428:7
	cmp	r3, #2
	beq	.LBB5_7
.Ltmp57:
@ %bb.5:
	@DEBUG_VALUE: CRC_Handle_8:pBuffer <- $r1
	@DEBUG_VALUE: CRC_Handle_8:hcrc <- $r0
	cmp	r3, #1
	bne	.LBB5_8
.Ltmp58:
@ %bb.6:
	@DEBUG_VALUE: CRC_Handle_8:pBuffer <- $r1
	@DEBUG_VALUE: CRC_Handle_8:hcrc <- $r0
	.loc	4 432 49                @ ../Drivers/STM32F7xx_HAL_Driver/Src/stm32f7xx_hal_crc.c:432:49
	ldrb	r1, [r1, r2]
.Ltmp59:
	.loc	4 432 33 is_stmt 0      @ ../Drivers/STM32F7xx_HAL_Driver/Src/stm32f7xx_hal_crc.c:432:33
	ldr	r2, [r0]
	.loc	4 432 47                @ ../Drivers/STM32F7xx_HAL_Driver/Src/stm32f7xx_hal_crc.c:432:47
	strb	r1, [r2]
	b	.LBB5_9
.Ltmp60:
.LBB5_7:
	@DEBUG_VALUE: CRC_Handle_8:pBuffer <- $r1
	@DEBUG_VALUE: CRC_Handle_8:hcrc <- $r0
	.loc	4 436 72 is_stmt 1      @ ../Drivers/STM32F7xx_HAL_Driver/Src/stm32f7xx_hal_crc.c:436:72
	ldrb	r3, [r1, r2]
	.loc	4 436 125 is_stmt 0     @ ../Drivers/STM32F7xx_HAL_Driver/Src/stm32f7xx_hal_crc.c:436:125
	orr	r2, r2, #1
	.loc	4 436 103               @ ../Drivers/STM32F7xx_HAL_Driver/Src/stm32f7xx_hal_crc.c:436:103
	ldrb	r1, [r1, r2]
.Ltmp61:
	.loc	4 436 34                @ ../Drivers/STM32F7xx_HAL_Driver/Src/stm32f7xx_hal_crc.c:436:34
	ldr	r2, [r0]
	.loc	4 436 101               @ ../Drivers/STM32F7xx_HAL_Driver/Src/stm32f7xx_hal_crc.c:436:101
	orr.w	r1, r1, r3, lsl #8
	.loc	4 436 48                @ ../Drivers/STM32F7xx_HAL_Driver/Src/stm32f7xx_hal_crc.c:436:48
	strh	r1, [r2]
	b	.LBB5_9
.Ltmp62:
.LBB5_8:
	@DEBUG_VALUE: CRC_Handle_8:pBuffer <- $r1
	@DEBUG_VALUE: CRC_Handle_8:hcrc <- $r0
	.loc	4 440 125 is_stmt 1     @ ../Drivers/STM32F7xx_HAL_Driver/Src/stm32f7xx_hal_crc.c:440:125
	orr	r4, r2, #1
	.loc	4 440 72 is_stmt 0      @ ../Drivers/STM32F7xx_HAL_Driver/Src/stm32f7xx_hal_crc.c:440:72
	ldrb	r3, [r1, r2]
	.loc	4 441 60 is_stmt 1      @ ../Drivers/STM32F7xx_HAL_Driver/Src/stm32f7xx_hal_crc.c:441:60
	orr	r2, r2, #2
	.loc	4 440 103               @ ../Drivers/STM32F7xx_HAL_Driver/Src/stm32f7xx_hal_crc.c:440:103
	ldrb	r4, [r1, r4]
	.loc	4 440 101 is_stmt 0     @ ../Drivers/STM32F7xx_HAL_Driver/Src/stm32f7xx_hal_crc.c:440:101
	orr.w	r3, r4, r3, lsl #8
	.loc	4 440 34                @ ../Drivers/STM32F7xx_HAL_Driver/Src/stm32f7xx_hal_crc.c:440:34
	ldr	r4, [r0]
	.loc	4 440 48                @ ../Drivers/STM32F7xx_HAL_Driver/Src/stm32f7xx_hal_crc.c:440:48
	strh	r3, [r4]
	.loc	4 441 49 is_stmt 1      @ ../Drivers/STM32F7xx_HAL_Driver/Src/stm32f7xx_hal_crc.c:441:49
	ldrb	r1, [r1, r2]
.Ltmp63:
	.loc	4 441 47 is_stmt 0      @ ../Drivers/STM32F7xx_HAL_Driver/Src/stm32f7xx_hal_crc.c:441:47
	strb	r1, [r4]
.Ltmp64:
.LBB5_9:
	@DEBUG_VALUE: CRC_Handle_8:hcrc <- $r0
	.loc	4 446 16 is_stmt 1      @ ../Drivers/STM32F7xx_HAL_Driver/Src/stm32f7xx_hal_crc.c:446:16
	ldr	r0, [r0]
.Ltmp65:
	.loc	4 446 26 is_stmt 0      @ ../Drivers/STM32F7xx_HAL_Driver/Src/stm32f7xx_hal_crc.c:446:26
	ldr	r0, [r0]
	.loc	4 446 3                 @ ../Drivers/STM32F7xx_HAL_Driver/Src/stm32f7xx_hal_crc.c:446:3
	pop	{r4, pc}
.Ltmp66:
.Lfunc_end5:
	.size	CRC_Handle_8, .Lfunc_end5-CRC_Handle_8
	.cfi_endproc
	.cantunwind
	.fnend
                                        @ -- End function
	.section	.text.CRC_Handle_16,"ax",%progbits
	.p2align	2               @ -- Begin function CRC_Handle_16
	.type	CRC_Handle_16,%function
	.code	16                      @ @CRC_Handle_16
	.thumb_func
CRC_Handle_16:
.Lfunc_begin6:
	.loc	4 458 0 is_stmt 1       @ ../Drivers/STM32F7xx_HAL_Driver/Src/stm32f7xx_hal_crc.c:458:0
	.fnstart
	.cfi_startproc
@ %bb.0:
	.save	{r4, lr}
	push	{r4, lr}
	.cfi_def_cfa_offset 8
	.cfi_offset lr, -4
	.cfi_offset r4, -8
	@DEBUG_VALUE: CRC_Handle_16:hcrc <- $r0
	@DEBUG_VALUE: CRC_Handle_16:hcrc <- $r0
	@DEBUG_VALUE: CRC_Handle_16:pBuffer <- $r1
	@DEBUG_VALUE: CRC_Handle_16:pBuffer <- $r1
	@DEBUG_VALUE: CRC_Handle_16:BufferLength <- $r2
	@DEBUG_VALUE: CRC_Handle_16:BufferLength <- $r2
.Ltmp67:
	@DEBUG_VALUE: CRC_Handle_16:i <- 0
	.loc	4 464 7 prologue_end    @ ../Drivers/STM32F7xx_HAL_Driver/Src/stm32f7xx_hal_crc.c:464:7
	adds	r3, r1, #2
	lsr.w	r12, r2, #1
	b	.LBB6_2
.Ltmp68:
.LBB6_1:                                @   in Loop: Header=BB6_2 Depth=1
	@DEBUG_VALUE: CRC_Handle_16:BufferLength <- $r2
	@DEBUG_VALUE: CRC_Handle_16:pBuffer <- $r1
	@DEBUG_VALUE: CRC_Handle_16:hcrc <- $r0
	.loc	4 466 28                @ ../Drivers/STM32F7xx_HAL_Driver/Src/stm32f7xx_hal_crc.c:466:28
	ldrh	lr, [r3, #-2]
	.loc	4 466 60 is_stmt 0      @ ../Drivers/STM32F7xx_HAL_Driver/Src/stm32f7xx_hal_crc.c:466:60
	ldrh	r4, [r3]
.Ltmp69:
	.loc	4 464 3 is_stmt 1       @ ../Drivers/STM32F7xx_HAL_Driver/Src/stm32f7xx_hal_crc.c:464:3
	adds	r3, #4
	sub.w	r12, r12, #1
.Ltmp70:
	.loc	4 466 58                @ ../Drivers/STM32F7xx_HAL_Driver/Src/stm32f7xx_hal_crc.c:466:58
	orr.w	lr, r4, lr, lsl #16
	.loc	4 466 11 is_stmt 0      @ ../Drivers/STM32F7xx_HAL_Driver/Src/stm32f7xx_hal_crc.c:466:11
	ldr	r4, [r0]
	.loc	4 466 24                @ ../Drivers/STM32F7xx_HAL_Driver/Src/stm32f7xx_hal_crc.c:466:24
	str.w	lr, [r4]
.Ltmp71:
.LBB6_2:                                @ =>This Inner Loop Header: Depth=1
	@DEBUG_VALUE: CRC_Handle_16:BufferLength <- $r2
	@DEBUG_VALUE: CRC_Handle_16:pBuffer <- $r1
	@DEBUG_VALUE: CRC_Handle_16:hcrc <- $r0
	.loc	4 464 3 is_stmt 1       @ ../Drivers/STM32F7xx_HAL_Driver/Src/stm32f7xx_hal_crc.c:464:3
	cmp.w	r12, #0
	bne	.LBB6_1
.Ltmp72:
@ %bb.3:
	@DEBUG_VALUE: CRC_Handle_16:BufferLength <- $r2
	@DEBUG_VALUE: CRC_Handle_16:pBuffer <- $r1
	@DEBUG_VALUE: CRC_Handle_16:hcrc <- $r0
	.loc	4 468 6                 @ ../Drivers/STM32F7xx_HAL_Driver/Src/stm32f7xx_hal_crc.c:468:6
	lsls	r3, r2, #31
	bne	.LBB6_5
.Ltmp73:
@ %bb.4:
	@DEBUG_VALUE: CRC_Handle_16:BufferLength <- $r2
	@DEBUG_VALUE: CRC_Handle_16:pBuffer <- $r1
	@DEBUG_VALUE: CRC_Handle_16:hcrc <- $r0
	.loc	4 474 16                @ ../Drivers/STM32F7xx_HAL_Driver/Src/stm32f7xx_hal_crc.c:474:16
	ldr	r0, [r0]
.Ltmp74:
	.loc	4 0 16 is_stmt 0        @ ../Drivers/STM32F7xx_HAL_Driver/Src/stm32f7xx_hal_crc.c:0:16
	b	.LBB6_6
.Ltmp75:
.LBB6_5:
	@DEBUG_VALUE: CRC_Handle_16:BufferLength <- $r2
	@DEBUG_VALUE: CRC_Handle_16:pBuffer <- $r1
	@DEBUG_VALUE: CRC_Handle_16:hcrc <- $r0
	.loc	4 470 57 is_stmt 1      @ ../Drivers/STM32F7xx_HAL_Driver/Src/stm32f7xx_hal_crc.c:470:57
	ldr	r3, __arm_cp.6_0
	.loc	4 470 32 is_stmt 0      @ ../Drivers/STM32F7xx_HAL_Driver/Src/stm32f7xx_hal_crc.c:470:32
	ldr	r0, [r0]
.Ltmp76:
	.loc	4 470 57                @ ../Drivers/STM32F7xx_HAL_Driver/Src/stm32f7xx_hal_crc.c:470:57
	ands	r2, r3
.Ltmp77:
	.loc	4 470 48                @ ../Drivers/STM32F7xx_HAL_Driver/Src/stm32f7xx_hal_crc.c:470:48
	ldrh.w	r1, [r1, r2, lsl #1]
.Ltmp78:
	.loc	4 470 46                @ ../Drivers/STM32F7xx_HAL_Driver/Src/stm32f7xx_hal_crc.c:470:46
	strh	r1, [r0]
.Ltmp79:
.LBB6_6:
	.loc	4 474 26 is_stmt 1      @ ../Drivers/STM32F7xx_HAL_Driver/Src/stm32f7xx_hal_crc.c:474:26
	ldr	r0, [r0]
	.loc	4 474 3 is_stmt 0       @ ../Drivers/STM32F7xx_HAL_Driver/Src/stm32f7xx_hal_crc.c:474:3
	pop	{r4, pc}
.Ltmp80:
	.p2align	2
@ %bb.7:
	.loc	4 0 3                   @ ../Drivers/STM32F7xx_HAL_Driver/Src/stm32f7xx_hal_crc.c:0:3
__arm_cp.6_0:
	.long	2147483646              @ 0x7ffffffe
.Lcpi_end1:
	.size	__arm_cp.6_0, .Lcpi_end1-__arm_cp.6_0
.Lfunc_end6:
	.size	CRC_Handle_16, .Lfunc_end6-CRC_Handle_16
	.cfi_endproc
	.cantunwind
	.fnend
                                        @ -- End function
	.section	.text.HAL_CRC_Calculate,"ax",%progbits
	.hidden	HAL_CRC_Calculate       @ -- Begin function HAL_CRC_Calculate
	.globl	HAL_CRC_Calculate
	.p2align	1
	.type	HAL_CRC_Calculate,%function
	.code	16                      @ @HAL_CRC_Calculate
	.thumb_func
HAL_CRC_Calculate:
.Lfunc_begin7:
	.loc	4 360 0 is_stmt 1       @ ../Drivers/STM32F7xx_HAL_Driver/Src/stm32f7xx_hal_crc.c:360:0
	.fnstart
	.cfi_startproc
@ %bb.0:
	.save	{r4, lr}
	push	{r4, lr}
	.cfi_def_cfa_offset 8
	.cfi_offset lr, -4
	.cfi_offset r4, -8
	@DEBUG_VALUE: HAL_CRC_Calculate:hcrc <- $r0
	@DEBUG_VALUE: HAL_CRC_Calculate:pBuffer <- $r1
	@DEBUG_VALUE: HAL_CRC_Calculate:BufferLength <- $r2
.Ltmp81:
	.loc	4 365 3 prologue_end    @ ../Drivers/STM32F7xx_HAL_Driver/Src/stm32f7xx_hal_crc.c:365:3
	ldrb	r3, [r0, #28]
	mov	r4, r0
.Ltmp82:
	@DEBUG_VALUE: HAL_CRC_Calculate:temp <- 0
	@DEBUG_VALUE: HAL_CRC_Calculate:index <- 0
	@DEBUG_VALUE: HAL_CRC_Calculate:BufferLength <- $r2
	@DEBUG_VALUE: HAL_CRC_Calculate:pBuffer <- $r1
	@DEBUG_VALUE: HAL_CRC_Calculate:hcrc <- $r4
	.loc	4 0 3 is_stmt 0         @ ../Drivers/STM32F7xx_HAL_Driver/Src/stm32f7xx_hal_crc.c:0:3
	movs	r0, #2
.Ltmp83:
	.loc	4 365 3                 @ ../Drivers/STM32F7xx_HAL_Driver/Src/stm32f7xx_hal_crc.c:365:3
	cmp	r3, #1
.Ltmp84:
	.loc	4 406 1 is_stmt 1       @ ../Drivers/STM32F7xx_HAL_Driver/Src/stm32f7xx_hal_crc.c:406:1
	it	eq
	popeq	{r4, pc}
.Ltmp85:
	.loc	4 368 15                @ ../Drivers/STM32F7xx_HAL_Driver/Src/stm32f7xx_hal_crc.c:368:15
	strb	r0, [r4, #29]
	movs	r0, #1
.Ltmp86:
	.loc	4 365 3                 @ ../Drivers/STM32F7xx_HAL_Driver/Src/stm32f7xx_hal_crc.c:365:3
	strb	r0, [r4, #28]
.Ltmp87:
	.loc	4 372 3                 @ ../Drivers/STM32F7xx_HAL_Driver/Src/stm32f7xx_hal_crc.c:372:3
	ldr	r0, [r4]
	ldr	r3, [r0, #8]
	orr	r3, r3, #1
	str	r3, [r0, #8]
	.loc	4 374 17                @ ../Drivers/STM32F7xx_HAL_Driver/Src/stm32f7xx_hal_crc.c:374:17
	ldr	r3, [r4, #32]
	.loc	4 374 3 is_stmt 0       @ ../Drivers/STM32F7xx_HAL_Driver/Src/stm32f7xx_hal_crc.c:374:3
	cmp	r3, #1
	beq	.LBB7_7
.Ltmp88:
@ %bb.1:
	@DEBUG_VALUE: HAL_CRC_Calculate:BufferLength <- $r2
	@DEBUG_VALUE: HAL_CRC_Calculate:pBuffer <- $r1
	cmp	r3, #2
	beq	.LBB7_8
.Ltmp89:
@ %bb.2:
	@DEBUG_VALUE: HAL_CRC_Calculate:BufferLength <- $r2
	@DEBUG_VALUE: HAL_CRC_Calculate:pBuffer <- $r1
	cmp	r3, #3
	beq	.LBB7_5
.Ltmp90:
@ %bb.3:
	@DEBUG_VALUE: HAL_CRC_Calculate:BufferLength <- $r2
	@DEBUG_VALUE: HAL_CRC_Calculate:pBuffer <- $r1
	.loc	4 0 3                   @ ../Drivers/STM32F7xx_HAL_Driver/Src/stm32f7xx_hal_crc.c:0:3
	movs	r0, #0
	b	.LBB7_9
.Ltmp91:
.LBB7_4:                                @   in Loop: Header=BB7_5 Depth=1
	@DEBUG_VALUE: HAL_CRC_Calculate:BufferLength <- $r2
	@DEBUG_VALUE: HAL_CRC_Calculate:pBuffer <- $r1
	.loc	4 380 30 is_stmt 1      @ ../Drivers/STM32F7xx_HAL_Driver/Src/stm32f7xx_hal_crc.c:380:30
	ldm	r1!, {r3}
.Ltmp92:
	.loc	4 378 7                 @ ../Drivers/STM32F7xx_HAL_Driver/Src/stm32f7xx_hal_crc.c:378:7
	subs	r2, #1
.Ltmp93:
	.loc	4 380 28                @ ../Drivers/STM32F7xx_HAL_Driver/Src/stm32f7xx_hal_crc.c:380:28
	str	r3, [r0]
.Ltmp94:
.LBB7_5:                                @ =>This Inner Loop Header: Depth=1
	@DEBUG_VALUE: HAL_CRC_Calculate:BufferLength <- $r2
	@DEBUG_VALUE: HAL_CRC_Calculate:pBuffer <- $r1
	.loc	4 378 7                 @ ../Drivers/STM32F7xx_HAL_Driver/Src/stm32f7xx_hal_crc.c:378:7
	cmp	r2, #0
	bne	.LBB7_4
.Ltmp95:
@ %bb.6:
	@DEBUG_VALUE: HAL_CRC_Calculate:BufferLength <- $r2
	@DEBUG_VALUE: HAL_CRC_Calculate:pBuffer <- $r1
	.loc	4 382 30                @ ../Drivers/STM32F7xx_HAL_Driver/Src/stm32f7xx_hal_crc.c:382:30
	ldr	r0, [r0]
.Ltmp96:
	@DEBUG_VALUE: HAL_CRC_Calculate:temp <- $r0
	.loc	4 0 30 is_stmt 0        @ ../Drivers/STM32F7xx_HAL_Driver/Src/stm32f7xx_hal_crc.c:0:30
	b	.LBB7_9
.Ltmp97:
.LBB7_7:
	@DEBUG_VALUE: HAL_CRC_Calculate:BufferLength <- $r2
	@DEBUG_VALUE: HAL_CRC_Calculate:pBuffer <- $r1
	.loc	4 387 14 is_stmt 1      @ ../Drivers/STM32F7xx_HAL_Driver/Src/stm32f7xx_hal_crc.c:387:14
	mov	r0, r4
	bl	CRC_Handle_8
.Ltmp98:
	@DEBUG_VALUE: HAL_CRC_Calculate:temp <- $r0
	.loc	4 0 14 is_stmt 0        @ ../Drivers/STM32F7xx_HAL_Driver/Src/stm32f7xx_hal_crc.c:0:14
	b	.LBB7_9
.Ltmp99:
.LBB7_8:
	@DEBUG_VALUE: HAL_CRC_Calculate:BufferLength <- $r2
	@DEBUG_VALUE: HAL_CRC_Calculate:pBuffer <- $r1
	.loc	4 392 14 is_stmt 1      @ ../Drivers/STM32F7xx_HAL_Driver/Src/stm32f7xx_hal_crc.c:392:14
	mov	r0, r4
	bl	CRC_Handle_16
.Ltmp100:
	@DEBUG_VALUE: HAL_CRC_Calculate:temp <- $r0
.LBB7_9:
	.loc	4 402 3                 @ ../Drivers/STM32F7xx_HAL_Driver/Src/stm32f7xx_hal_crc.c:402:3
	movs	r1, #0
	strb	r1, [r4, #28]
.Ltmp101:
	.loc	4 399 15                @ ../Drivers/STM32F7xx_HAL_Driver/Src/stm32f7xx_hal_crc.c:399:15
	movs	r1, #1
	strb	r1, [r4, #29]
	.loc	4 406 1                 @ ../Drivers/STM32F7xx_HAL_Driver/Src/stm32f7xx_hal_crc.c:406:1
	pop	{r4, pc}
.Ltmp102:
.Lfunc_end7:
	.size	HAL_CRC_Calculate, .Lfunc_end7-HAL_CRC_Calculate
	.cfi_endproc
	.cantunwind
	.fnend
                                        @ -- End function
	.section	.text.HAL_CRC_GetState,"ax",%progbits
	.hidden	HAL_CRC_GetState        @ -- Begin function HAL_CRC_GetState
	.globl	HAL_CRC_GetState
	.p2align	1
	.type	HAL_CRC_GetState,%function
	.code	16                      @ @HAL_CRC_GetState
	.thumb_func
HAL_CRC_GetState:
.Lfunc_begin8:
	.loc	4 502 0                 @ ../Drivers/STM32F7xx_HAL_Driver/Src/stm32f7xx_hal_crc.c:502:0
	.fnstart
	.cfi_startproc
@ %bb.0:
	@DEBUG_VALUE: HAL_CRC_GetState:hcrc <- $r0
	@DEBUG_VALUE: HAL_CRC_GetState:hcrc <- $r0
	.loc	4 503 3 prologue_end    @ ../Drivers/STM32F7xx_HAL_Driver/Src/stm32f7xx_hal_crc.c:503:3
	ldrb	r0, [r0, #29]
	bx	lr
.Ltmp103:
.Lfunc_end8:
	.size	HAL_CRC_GetState, .Lfunc_end8-HAL_CRC_GetState
	.cfi_endproc
	.cantunwind
	.fnend
                                        @ -- End function
	.file	5 "../Drivers/CMSIS/Device/ST/STM32F7xx/Include" "stm32f746xx.h"
	.section	".note.GNU-stack","",%progbits
	.eabi_attribute	30, 4	@ Tag_ABI_optimization_goals
	.ARM_attribute	16, 1	@ Tag_AV_eba