	.text
	.syntax unified
	.eabi_attribute	67, "2.09"	@ Tag_conformance
	.cpu	cortex-m7
	.eabi_attribute	6, 13	@ Tag_CPU_arch
	.eabi_attribute	7, 77	@ Tag_CPU_arch_profile
	.eabi_attribute	8, 0	@ Tag_ARM_ISA_use
	.eabi_attribute	9, 2	@ Tag_THUMB_ISA_use
	.fpu	fpv5-sp-d16
	.eabi_attribute	27, 1	@ Tag_ABI_HardFP_use
	.eabi_attribute	36, 1	@ Tag_FP_HP_extension
	.eabi_attribute	34, 1	@ Tag_CPU_unaligned_access
	.eabi_attribute	17, 1	@ Tag_ABI_PCS_GOT_use
	.eabi_attribute	20, 2	@ Tag_ABI_FP_denormal
	.eabi_attribute	21, 0	@ Tag_ABI_FP_exceptions
	.eabi_attribute	23, 1	@ Tag_ABI_FP_number_model
	.eabi_attribute	24, 1	@ Tag_ABI_align_needed
	.eabi_attribute	25, 1	@ Tag_ABI_align_preserved
	.eabi_attribute	28, 1	@ Tag_ABI_VFP_args
	.eabi_attribute	38, 1	@ Tag_ABI_FP_16bit_format
	.eabi_attribute	18, 2	@ Tag_ABI_PCS_wchar_t
	.eabi_attribute	26, 1	@ Tag_ABI_enum_size
	.eabi_attribute	14, 0	@ Tag_ABI_PCS_R9_use
	.file	"stm32f7xx_hal_rtc.c"
	.file	1 "../Drivers/STM32F7xx_HAL_Driver/Inc" "stm32f7xx_hal_def.h"
	.file	2 "../Drivers/STM32F7xx_HAL_Driver/Inc" "stm32f7xx_hal_rtc.h"
	.file	3 "../Drivers/CMSIS/Device/ST/STM32F7xx/Include" "stm32f7xx.h"
	.file	4 "C:\\Keil\\ARM\\ARMCLANG\\Bin\\..\\include" "stdint.h"
	.file	5 "../Drivers/CMSIS/Device/ST/STM32F7xx/Include" "stm32f746xx.h"
	.section	.text.HAL_RTC_Init,"ax",%progbits
	.hidden	HAL_RTC_Init            @ -- Begin function HAL_RTC_Init
	.globl	HAL_RTC_Init
	.p2align	2
	.type	HAL_RTC_Init,%function
	.code	16                      @ @HAL_RTC_Init
	.thumb_func
HAL_RTC_Init:
.Lfunc_begin0:
	.file	6 "../Drivers/STM32F7xx_HAL_Driver/Src" "stm32f7xx_hal_rtc.c"
	.loc	6 203 0                 @ ../Drivers/STM32F7xx_HAL_Driver/Src/stm32f7xx_hal_rtc.c:203:0
	.fnstart
	.cfi_sections .debug_frame
	.cfi_startproc
@ %bb.0:
	.save	{r4, lr}
	push	{r4, lr}
	.cfi_def_cfa_offset 8
	.cfi_offset lr, -4
	.cfi_offset r4, -8
	@DEBUG_VALUE: HAL_RTC_Init:hrtc <- $r0
	mov	r4, r0
.Ltmp0:
	@DEBUG_VALUE: HAL_RTC_Init:hrtc <- $r4
	.loc	6 205 6 prologue_end    @ ../Drivers/STM32F7xx_HAL_Driver/Src/stm32f7xx_hal_rtc.c:205:6
	cbz	r0, .LBB0_5
.Ltmp1:
@ %bb.1:
	@DEBUG_VALUE: HAL_RTC_Init:hrtc <- $r4
	.loc	6 219 12                @ ../Drivers/STM32F7xx_HAL_Driver/Src/stm32f7xx_hal_rtc.c:219:12
	ldrb	r0, [r4, #29]
.Ltmp2:
	.loc	6 219 6 is_stmt 0       @ ../Drivers/STM32F7xx_HAL_Driver/Src/stm32f7xx_hal_rtc.c:219:6
	cbnz	r0, .LBB0_3
.Ltmp3:
@ %bb.2:
	@DEBUG_VALUE: HAL_RTC_Init:hrtc <- $r4
	.loc	6 222 16 is_stmt 1      @ ../Drivers/STM32F7xx_HAL_Driver/Src/stm32f7xx_hal_rtc.c:222:16
	movs	r0, #0
	strb	r0, [r4, #28]
	.loc	6 224 5                 @ ../Drivers/STM32F7xx_HAL_Driver/Src/stm32f7xx_hal_rtc.c:224:5
	mov	r0, r4
	bl	HAL_RTC_MspInit
.Ltmp4:
.LBB0_3:
	@DEBUG_VALUE: HAL_RTC_Init:hrtc <- $r4
	.loc	6 228 15                @ ../Drivers/STM32F7xx_HAL_Driver/Src/stm32f7xx_hal_rtc.c:228:15
	movs	r0, #2
.Ltmp5:
	.loc	6 231 3                 @ ../Drivers/STM32F7xx_HAL_Driver/Src/stm32f7xx_hal_rtc.c:231:3
	movs	r1, #202
.Ltmp6:
	.loc	6 228 15                @ ../Drivers/STM32F7xx_HAL_Driver/Src/stm32f7xx_hal_rtc.c:228:15
	strb	r0, [r4, #29]
.Ltmp7:
	.loc	6 231 3                 @ ../Drivers/STM32F7xx_HAL_Driver/Src/stm32f7xx_hal_rtc.c:231:3
	ldr	r0, [r4]
	str	r1, [r0, #36]
	movs	r1, #83
	str	r1, [r0, #36]
.Ltmp8:
	.loc	6 234 6                 @ ../Drivers/STM32F7xx_HAL_Driver/Src/stm32f7xx_hal_rtc.c:234:6
	mov	r0, r4
	bl	RTC_EnterInitMode
	ldr	r1, [r4]
.Ltmp9:
	.loc	6 234 6 is_stmt 0       @ ../Drivers/STM32F7xx_HAL_Driver/Src/stm32f7xx_hal_rtc.c:234:6
	cbz	r0, .LBB0_6
.Ltmp10:
@ %bb.4:
	@DEBUG_VALUE: HAL_RTC_Init:hrtc <- $r4
	.loc	6 0 6                   @ ../Drivers/STM32F7xx_HAL_Driver/Src/stm32f7xx_hal_rtc.c:0:6
	movs	r0, #1
	movs	r2, #4
	b	.LBB0_7
.Ltmp11:
.LBB0_5:
	@DEBUG_VALUE: HAL_RTC_Init:hrtc <- $r4
	movs	r0, #1
	.loc	6 269 1 is_stmt 1       @ ../Drivers/STM32F7xx_HAL_Driver/Src/stm32f7xx_hal_rtc.c:269:1
	pop	{r4, pc}
.Ltmp12:
.LBB0_6:
	@DEBUG_VALUE: HAL_RTC_Init:hrtc <- $r4
	.loc	6 247 24                @ ../Drivers/STM32F7xx_HAL_Driver/Src/stm32f7xx_hal_rtc.c:247:24
	ldr	r0, [r1, #8]
	ldr	r2, __arm_cp.0_0
	ands	r0, r2
	str	r0, [r1, #8]
	.loc	6 249 49                @ ../Drivers/STM32F7xx_HAL_Driver/Src/stm32f7xx_hal_rtc.c:249:49
	ldr	r0, [r4, #4]
	.loc	6 249 73 is_stmt 0      @ ../Drivers/STM32F7xx_HAL_Driver/Src/stm32f7xx_hal_rtc.c:249:73
	ldrd	r2, r3, [r4, #16]
	.loc	6 249 60                @ ../Drivers/STM32F7xx_HAL_Driver/Src/stm32f7xx_hal_rtc.c:249:60
	orrs	r0, r2
	.loc	6 249 24                @ ../Drivers/STM32F7xx_HAL_Driver/Src/stm32f7xx_hal_rtc.c:249:24
	ldr	r2, [r1, #8]
	.loc	6 249 80                @ ../Drivers/STM32F7xx_HAL_Driver/Src/stm32f7xx_hal_rtc.c:249:80
	orrs	r0, r3
	.loc	6 249 24                @ ../Drivers/STM32F7xx_HAL_Driver/Src/stm32f7xx_hal_rtc.c:249:24
	orrs	r0, r2
	str	r0, [r1, #8]
	.loc	6 252 50 is_stmt 1      @ ../Drivers/STM32F7xx_HAL_Driver/Src/stm32f7xx_hal_rtc.c:252:50
	ldr	r0, [r4, #12]
	.loc	6 252 26 is_stmt 0      @ ../Drivers/STM32F7xx_HAL_Driver/Src/stm32f7xx_hal_rtc.c:252:26
	str	r0, [r1, #16]
	.loc	6 253 51 is_stmt 1      @ ../Drivers/STM32F7xx_HAL_Driver/Src/stm32f7xx_hal_rtc.c:253:51
	ldr	r0, [r4, #8]
	.loc	6 253 26 is_stmt 0      @ ../Drivers/STM32F7xx_HAL_Driver/Src/stm32f7xx_hal_rtc.c:253:26
	ldr	r2, [r1, #16]
	orr.w	r0, r2, r0, lsl #16
	str	r0, [r1, #16]
	.loc	6 256 25 is_stmt 1      @ ../Drivers/STM32F7xx_HAL_Driver/Src/stm32f7xx_hal_rtc.c:256:25
	ldr	r0, [r1, #12]
	bic	r0, r0, #128
	str	r0, [r1, #12]
	.loc	6 258 24                @ ../Drivers/STM32F7xx_HAL_Driver/Src/stm32f7xx_hal_rtc.c:258:24
	ldr	r0, [r1, #76]
	bic	r0, r0, #8
	str	r0, [r1, #76]
	.loc	6 259 49                @ ../Drivers/STM32F7xx_HAL_Driver/Src/stm32f7xx_hal_rtc.c:259:49
	ldr	r0, [r4, #24]
	.loc	6 259 24 is_stmt 0      @ ../Drivers/STM32F7xx_HAL_Driver/Src/stm32f7xx_hal_rtc.c:259:24
	ldr	r2, [r1, #76]
	orrs	r0, r2
	movs	r2, #1
	str	r0, [r1, #76]
	movs	r0, #0
.Ltmp13:
.LBB0_7:
	@DEBUG_VALUE: HAL_RTC_Init:hrtc <- $r4
	.loc	6 0 24                  @ ../Drivers/STM32F7xx_HAL_Driver/Src/stm32f7xx_hal_rtc.c:0:24
	movs	r3, #255
	str	r3, [r1, #36]
	strb	r2, [r4, #29]
	.loc	6 269 1 is_stmt 1       @ ../Drivers/STM32F7xx_HAL_Driver/Src/stm32f7xx_hal_rtc.c:269:1
	pop	{r4, pc}
.Ltmp14:
	.p2align	2
@ %bb.8:
	.loc	6 0 1 is_stmt 0         @ ../Drivers/STM32F7xx_HAL_Driver/Src/stm32f7xx_hal_rtc.c:0:1
__arm_cp.0_0:
	.long	4287627199              @ 0xff8fffbf
.Lcpi_end0:
	.size	__arm_cp.0_0, .Lcpi_end0-__arm_cp.0_0
.Lfunc_end0:
	.size	HAL_RTC_Init, .Lfunc_end0-HAL_RTC_Init
	.cfi_endproc
	.cantunwind
	.fnend
                                        @ -- End function
	.section	.text.HAL_RTC_MspInit,"ax",%progbits
	.hidden	HAL_RTC_MspInit         @ -- Begin function HAL_RTC_MspInit
	.weak	HAL_RTC_MspInit
	.p2align	1
	.type	HAL_RTC_MspInit,%function
	.code	16                      @ @HAL_RTC_MspInit
	.thumb_func
HAL_RTC_MspInit:
.Lfunc_begin1:
	.loc	6 384 0 is_stmt 1       @ ../Drivers/STM32F7xx_HAL_Driver/Src/stm32f7xx_hal_rtc.c:384:0
	.fnstart
	.cfi_startproc
@ %bb.0:
	@DEBUG_VALUE: HAL_RTC_MspInit:hrtc <- $r0
	.loc	6 391 1 prologue_end    @ ../Drivers/STM32F7xx_HAL_Driver/Src/stm32f7xx_hal_rtc.c:391:1
	bx	lr
.Ltmp15:
.Lfunc_end1:
	.size	HAL_RTC_MspInit, .Lfunc_end1-HAL_RTC_MspInit
	.cfi_endproc
	.cantunwind
	.fnend
                                        @ -- End function
	.section	.text.RTC_EnterInitMode,"ax",%progbits
	.hidden	RTC_EnterInitMode       @ -- Begin function RTC_EnterInitMode
	.globl	RTC_EnterInitMode
	.p2align	1
	.type	RTC_EnterInitMode,%function
	.code	16                      @ @RTC_EnterInitMode
	.thumb_func
RTC_EnterInitMode:
.Lfunc_begin2:
	.loc	6 1496 0                @ ../Drivers/STM32F7xx_HAL_Driver/Src/stm32f7xx_hal_rtc.c:1496:0
	.fnstart
	.cfi_startproc
@ %bb.0:
	.save	{r4, r5, r7, lr}
	push	{r4, r5, r7, lr}
	.cfi_def_cfa_offset 16
	.cfi_offset lr, -4
	.cfi_offset r7, -8
	.cfi_offset r5, -12
	.cfi_offset r4, -16
	@DEBUG_VALUE: RTC_EnterInitMode:hrtc <- $r0
	mov	r4, r0
.Ltmp16:
	@DEBUG_VALUE: RTC_EnterInitMode:tickstart <- 0
	@DEBUG_VALUE: RTC_EnterInitMode:hrtc <- $r4
	.loc	6 1500 13 prologue_end  @ ../Drivers/STM32F7xx_HAL_Driver/Src/stm32f7xx_hal_rtc.c:1500:13
	ldr	r0, [r0]
	.loc	6 1500 23 is_stmt 0     @ ../Drivers/STM32F7xx_HAL_Driver/Src/stm32f7xx_hal_rtc.c:1500:23
	ldr	r1, [r0, #12]
.Ltmp17:
	.loc	6 1500 6                @ ../Drivers/STM32F7xx_HAL_Driver/Src/stm32f7xx_hal_rtc.c:1500:6
	tst.w	r1, #64
	bne	.LBB2_5
.Ltmp18:
@ %bb.1:
	@DEBUG_VALUE: RTC_EnterInitMode:hrtc <- $r4
	.loc	6 1503 25 is_stmt 1     @ ../Drivers/STM32F7xx_HAL_Driver/Src/stm32f7xx_hal_rtc.c:1503:25
	mov.w	r1, #-1
	str	r1, [r0, #12]
	.loc	6 1506 17               @ ../Drivers/STM32F7xx_HAL_Driver/Src/stm32f7xx_hal_rtc.c:1506:17
	bl	HAL_GetTick
	mov	r5, r0
.Ltmp19:
	@DEBUG_VALUE: RTC_EnterInitMode:tickstart <- $r5
.LBB2_2:                                @ =>This Inner Loop Header: Depth=1
	@DEBUG_VALUE: RTC_EnterInitMode:tickstart <- $r5
	@DEBUG_VALUE: RTC_EnterInitMode:hrtc <- $r4
	.loc	6 1509 18               @ ../Drivers/STM32F7xx_HAL_Driver/Src/stm32f7xx_hal_rtc.c:1509:18
	ldr	r0, [r4]
	.loc	6 1509 28 is_stmt 0     @ ../Drivers/STM32F7xx_HAL_Driver/Src/stm32f7xx_hal_rtc.c:1509:28
	ldr	r0, [r0, #12]
	.loc	6 1509 5                @ ../Drivers/STM32F7xx_HAL_Driver/Src/stm32f7xx_hal_rtc.c:1509:5
	tst.w	r0, #64
	bne	.LBB2_5
.Ltmp20:
@ %bb.3:                                @   in Loop: Header=BB2_2 Depth=1
	@DEBUG_VALUE: RTC_EnterInitMode:tickstart <- $r5
	@DEBUG_VALUE: RTC_EnterInitMode:hrtc <- $r4
	.loc	6 1511 11 is_stmt 1     @ ../Drivers/STM32F7xx_HAL_Driver/Src/stm32f7xx_hal_rtc.c:1511:11
	bl	HAL_GetTick
	.loc	6 1511 25 is_stmt 0     @ ../Drivers/STM32F7xx_HAL_Driver/Src/stm32f7xx_hal_rtc.c:1511:25
	subs	r0, r0, r5
.Ltmp21:
	.loc	6 1511 10               @ ../Drivers/STM32F7xx_HAL_Driver/Src/stm32f7xx_hal_rtc.c:1511:10
	cmp.w	r0, #1000
	bls	.LBB2_2
.Ltmp22:
@ %bb.4:
	@DEBUG_VALUE: RTC_EnterInitMode:tickstart <- $r5
	@DEBUG_VALUE: RTC_EnterInitMode:hrtc <- $r4
	.loc	6 0 10                  @ ../Drivers/STM32F7xx_HAL_Driver/Src/stm32f7xx_hal_rtc.c:0:10
	movs	r0, #3
	b	.LBB2_6
.Ltmp23:
.LBB2_5:
	@DEBUG_VALUE: RTC_EnterInitMode:hrtc <- $r4
	movs	r0, #0
.Ltmp24:
.LBB2_6:
	@DEBUG_VALUE: RTC_EnterInitMode:hrtc <- $r4
	.loc	6 1519 1 is_stmt 1      @ ../Drivers/STM32F7xx_HAL_Driver/Src/stm32f7xx_hal_rtc.c:1519:1
	uxtb	r0, r0
	pop	{r4, r5, r7, pc}
.Ltmp25:
.Lfunc_end2:
	.size	RTC_EnterInitMode, .Lfunc_end2-RTC_EnterInitMode
	.cfi_endproc
	.cantunwind
	.fnend
                                        @ -- End function
	.section	.text.HAL_RTC_DeInit,"ax",%progbits
	.hidden	HAL_RTC_DeInit          @ -- Begin function HAL_RTC_DeInit
	.globl	HAL_RTC_DeInit
	.p2align	2
	.type	HAL_RTC_DeInit,%function
	.code	16                      @ @HAL_RTC_DeInit
	.thumb_func
HAL_RTC_DeInit:
.Lfunc_begin3:
	.loc	6 279 0                 @ ../Drivers/STM32F7xx_HAL_Driver/Src/stm32f7xx_hal_rtc.c:279:0
	.fnstart
	.cfi_startproc
@ %bb.0:
	.save	{r4, r5, r7, lr}
	push	{r4, r5, r7, lr}
	.cfi_def_cfa_offset 16
	.cfi_offset lr, -4
	.cfi_offset r7, -8
	.cfi_offset r5, -12
	.cfi_offset r4, -16
	@DEBUG_VALUE: HAL_RTC_DeInit:hrtc <- $r0
	mov	r4, r0
.Ltmp26:
	@DEBUG_VALUE: HAL_RTC_DeInit:tickstart <- 0
	@DEBUG_VALUE: HAL_RTC_DeInit:hrtc <- $r4
	.loc	6 286 15 prologue_end   @ ../Drivers/STM32F7xx_HAL_Driver/Src/stm32f7xx_hal_rtc.c:286:15
	movs	r0, #2
.Ltmp27:
	.loc	6 289 3                 @ ../Drivers/STM32F7xx_HAL_Driver/Src/stm32f7xx_hal_rtc.c:289:3
	movs	r1, #202
.Ltmp28:
	.loc	6 286 15                @ ../Drivers/STM32F7xx_HAL_Driver/Src/stm32f7xx_hal_rtc.c:286:15
	strb	r0, [r4, #29]
.Ltmp29:
	.loc	6 289 3                 @ ../Drivers/STM32F7xx_HAL_Driver/Src/stm32f7xx_hal_rtc.c:289:3
	ldr	r0, [r4]
	str	r1, [r0, #36]
	movs	r1, #83
	str	r1, [r0, #36]
.Ltmp30:
	.loc	6 292 6                 @ ../Drivers/STM32F7xx_HAL_Driver/Src/stm32f7xx_hal_rtc.c:292:6
	mov	r0, r4
	bl	RTC_EnterInitMode
	ldr	r1, [r4]
.Ltmp31:
	.loc	6 292 6 is_stmt 0       @ ../Drivers/STM32F7xx_HAL_Driver/Src/stm32f7xx_hal_rtc.c:292:6
	cbz	r0, .LBB3_2
.Ltmp32:
.LBB3_1:
	@DEBUG_VALUE: HAL_RTC_DeInit:hrtc <- $r4
	.loc	6 0 6                   @ ../Drivers/STM32F7xx_HAL_Driver/Src/stm32f7xx_hal_rtc.c:0:6
	movs	r0, #255
	movs	r5, #1
	str	r0, [r1, #36]
	movs	r0, #4
	strb	r0, [r4, #29]
	b	.LBB3_10
.Ltmp33:
.LBB3_2:
	@DEBUG_VALUE: HAL_RTC_DeInit:hrtc <- $r4
	movs	r0, #0
.Ltmp34:
	.loc	6 305 24 is_stmt 1      @ ../Drivers/STM32F7xx_HAL_Driver/Src/stm32f7xx_hal_rtc.c:305:24
	str	r0, [r1]
	.loc	6 306 24                @ ../Drivers/STM32F7xx_HAL_Driver/Src/stm32f7xx_hal_rtc.c:306:24
	movw	r0, #8449
	str	r0, [r1, #4]
	.loc	6 308 24                @ ../Drivers/STM32F7xx_HAL_Driver/Src/stm32f7xx_hal_rtc.c:308:24
	ldr	r0, [r1, #8]
	and	r0, r0, #7
	str	r0, [r1, #8]
	.loc	6 311 17                @ ../Drivers/STM32F7xx_HAL_Driver/Src/stm32f7xx_hal_rtc.c:311:17
	bl	HAL_GetTick
	mov	r5, r0
.Ltmp35:
	@DEBUG_VALUE: HAL_RTC_DeInit:tickstart <- $r5
.LBB3_3:                                @ =>This Inner Loop Header: Depth=1
	@DEBUG_VALUE: HAL_RTC_DeInit:tickstart <- $r5
	@DEBUG_VALUE: HAL_RTC_DeInit:hrtc <- $r4
	.loc	6 314 19                @ ../Drivers/STM32F7xx_HAL_Driver/Src/stm32f7xx_hal_rtc.c:314:19
	ldr	r1, [r4]
	.loc	6 314 29 is_stmt 0      @ ../Drivers/STM32F7xx_HAL_Driver/Src/stm32f7xx_hal_rtc.c:314:29
	ldr	r0, [r1, #12]
	.loc	6 314 5                 @ ../Drivers/STM32F7xx_HAL_Driver/Src/stm32f7xx_hal_rtc.c:314:5
	tst.w	r0, #4
	bne	.LBB3_6
.Ltmp36:
@ %bb.4:                                @   in Loop: Header=BB3_3 Depth=1
	@DEBUG_VALUE: HAL_RTC_DeInit:tickstart <- $r5
	@DEBUG_VALUE: HAL_RTC_DeInit:hrtc <- $r4
	.loc	6 316 11 is_stmt 1      @ ../Drivers/STM32F7xx_HAL_Driver/Src/stm32f7xx_hal_rtc.c:316:11
	bl	HAL_GetTick
	.loc	6 316 25 is_stmt 0      @ ../Drivers/STM32F7xx_HAL_Driver/Src/stm32f7xx_hal_rtc.c:316:25
	subs	r0, r0, r5
.Ltmp37:
	.loc	6 316 10                @ ../Drivers/STM32F7xx_HAL_Driver/Src/stm32f7xx_hal_rtc.c:316:10
	cmp.w	r0, #1000
	bls	.LBB3_3
.Ltmp38:
@ %bb.5:
	@DEBUG_VALUE: HAL_RTC_DeInit:tickstart <- $r5
	@DEBUG_VALUE: HAL_RTC_DeInit:hrtc <- $r4
	.loc	6 319 9 is_stmt 1       @ ../Drivers/STM32F7xx_HAL_Driver/Src/stm32f7xx_hal_rtc.c:319:9
	ldr	r0, [r4]
	movs	r1, #255
	movs	r5, #3
.Ltmp39:
	str	r1, [r0, #36]
	b	.LBB3_9
.Ltmp40:
.LBB3_6:
	@DEBUG_VALUE: HAL_RTC_DeInit:tickstart <- $r5
	@DEBUG_VALUE: HAL_RTC_DeInit:hrtc <- $r4
	.loc	6 329 24                @ ../Drivers/STM32F7xx_HAL_Driver/Src/stm32f7xx_hal_rtc.c:329:24
	ldr	r0, [r1, #8]
	movs	r5, #0
.Ltmp41:
	.loc	6 330 26                @ ../Drivers/STM32F7xx_HAL_Driver/Src/stm32f7xx_hal_rtc.c:330:26
	movw	r0, #65535
	.loc	6 329 24                @ ../Drivers/STM32F7xx_HAL_Driver/Src/stm32f7xx_hal_rtc.c:329:24
	str	r5, [r1, #8]
	.loc	6 330 26                @ ../Drivers/STM32F7xx_HAL_Driver/Src/stm32f7xx_hal_rtc.c:330:26
	str	r0, [r1, #20]
	.loc	6 331 26                @ ../Drivers/STM32F7xx_HAL_Driver/Src/stm32f7xx_hal_rtc.c:331:26
	ldr	r0, __arm_cp.3_0
	str	r0, [r1, #16]
	.loc	6 332 28                @ ../Drivers/STM32F7xx_HAL_Driver/Src/stm32f7xx_hal_rtc.c:332:28
	str	r5, [r1, #28]
	.loc	6 333 28                @ ../Drivers/STM32F7xx_HAL_Driver/Src/stm32f7xx_hal_rtc.c:333:28
	str	r5, [r1, #32]
	.loc	6 334 28                @ ../Drivers/STM32F7xx_HAL_Driver/Src/stm32f7xx_hal_rtc.c:334:28
	str	r5, [r1, #44]
	.loc	6 335 26                @ ../Drivers/STM32F7xx_HAL_Driver/Src/stm32f7xx_hal_rtc.c:335:26
	str	r5, [r1, #60]
	.loc	6 336 30                @ ../Drivers/STM32F7xx_HAL_Driver/Src/stm32f7xx_hal_rtc.c:336:30
	str	r5, [r1, #68]
	.loc	6 337 30                @ ../Drivers/STM32F7xx_HAL_Driver/Src/stm32f7xx_hal_rtc.c:337:30
	str	r5, [r1, #72]
	.loc	6 340 25                @ ../Drivers/STM32F7xx_HAL_Driver/Src/stm32f7xx_hal_rtc.c:340:25
	str	r5, [r1, #12]
	.loc	6 343 28                @ ../Drivers/STM32F7xx_HAL_Driver/Src/stm32f7xx_hal_rtc.c:343:28
	str	r5, [r1, #64]
	.loc	6 346 24                @ ../Drivers/STM32F7xx_HAL_Driver/Src/stm32f7xx_hal_rtc.c:346:24
	str	r5, [r1, #76]
.Ltmp42:
	.loc	6 349 25                @ ../Drivers/STM32F7xx_HAL_Driver/Src/stm32f7xx_hal_rtc.c:349:25
	ldr	r0, [r1, #8]
.Ltmp43:
	.loc	6 349 8 is_stmt 0       @ ../Drivers/STM32F7xx_HAL_Driver/Src/stm32f7xx_hal_rtc.c:349:8
	tst.w	r0, #32
	bne	.LBB3_8
.Ltmp44:
@ %bb.7:
	@DEBUG_VALUE: HAL_RTC_DeInit:hrtc <- $r4
	.loc	6 351 10 is_stmt 1      @ ../Drivers/STM32F7xx_HAL_Driver/Src/stm32f7xx_hal_rtc.c:351:10
	mov	r0, r4
	bl	HAL_RTC_WaitForSynchro
	ldr	r1, [r4]
.Ltmp45:
	.loc	6 351 10 is_stmt 0      @ ../Drivers/STM32F7xx_HAL_Driver/Src/stm32f7xx_hal_rtc.c:351:10
	cmp	r0, #0
	bne	.LBB3_1
.Ltmp46:
.LBB3_8:
	@DEBUG_VALUE: HAL_RTC_DeInit:hrtc <- $r4
	.loc	6 364 3 is_stmt 1       @ ../Drivers/STM32F7xx_HAL_Driver/Src/stm32f7xx_hal_rtc.c:364:3
	movs	r0, #255
	str	r0, [r1, #36]
.Ltmp47:
	.loc	6 367 3                 @ ../Drivers/STM32F7xx_HAL_Driver/Src/stm32f7xx_hal_rtc.c:367:3
	mov	r0, r4
	bl	HAL_RTC_MspDeInit
.Ltmp48:
	.loc	6 372 3                 @ ../Drivers/STM32F7xx_HAL_Driver/Src/stm32f7xx_hal_rtc.c:372:3
	strb	r5, [r4, #28]
.Ltmp49:
.LBB3_9:
	@DEBUG_VALUE: HAL_RTC_DeInit:hrtc <- $r4
	.loc	6 0 3 is_stmt 0         @ ../Drivers/STM32F7xx_HAL_Driver/Src/stm32f7xx_hal_rtc.c:0:3
	strb	r5, [r4, #29]
.Ltmp50:
.LBB3_10:
	@DEBUG_VALUE: HAL_RTC_DeInit:hrtc <- $r4
	.loc	6 375 1 is_stmt 1       @ ../Drivers/STM32F7xx_HAL_Driver/Src/stm32f7xx_hal_rtc.c:375:1
	uxtb	r0, r5
	pop	{r4, r5, r7, pc}
.Ltmp51:
	.p2align	2
@ %bb.11:
	.loc	6 0 1 is_stmt 0         @ ../Drivers/STM32F7xx_HAL_Driver/Src/stm32f7xx_hal_rtc.c:0:1
__arm_cp.3_0:
	.long	8323327                 @ 0x7f00ff
.Lcpi_end1:
	.size	__arm_cp.3_0, .Lcpi_end1-__arm_cp.3_0
.Lfunc_end3:
	.size	HAL_RTC_DeInit, .Lfunc_end3-HAL_RTC_DeInit
	.cfi_endproc
	.cantunwind
	.fnend
                                        @ -- End function
	.section	.text.HAL_RTC_WaitForSynchro,"ax",%progbits
	.hidden	HAL_RTC_WaitForSynchro  @ -- Begin function HAL_RTC_WaitForSynchro
	.globl	HAL_RTC_WaitForSynchro
	.p2align	1
	.type	HAL_RTC_WaitForSynchro,%function
	.code	16                      @ @HAL_RTC_WaitForSynchro
	.thumb_func
HAL_RTC_WaitForSynchro:
.Lfunc_begin4:
	.loc	6 1433 0 is_stmt 1      @ ../Drivers/STM32F7xx_HAL_Driver/Src/stm32f7xx_hal_rtc.c:1433:0
	.fnstart
	.cfi_startproc
@ %bb.0:
	.save	{r4, r5, r7, lr}
	push	{r4, r5, r7, lr}
	.cfi_def_cfa_offset 16
	.cfi_offset lr, -4
	.cfi_offset r7, -8
	.cfi_offset r5, -12
	.cfi_offset r4, -16
	@DEBUG_VALUE: HAL_RTC_WaitForSynchro:hrtc <- $r0
	mov	r4, r0
.Ltmp52:
	@DEBUG_VALUE: HAL_RTC_WaitForSynchro:tickstart <- 0
	@DEBUG_VALUE: HAL_RTC_WaitForSynchro:hrtc <- $r4
	.loc	6 1437 9 prologue_end   @ ../Drivers/STM32F7xx_HAL_Driver/Src/stm32f7xx_hal_rtc.c:1437:9
	ldr	r0, [r0]
	.loc	6 1437 23 is_stmt 0     @ ../Drivers/STM32F7xx_HAL_Driver/Src/stm32f7xx_hal_rtc.c:1437:23
	ldr	r1, [r0, #12]
	bic	r1, r1, #160
	str	r1, [r0, #12]
	.loc	6 1440 17 is_stmt 1     @ ../Drivers/STM32F7xx_HAL_Driver/Src/stm32f7xx_hal_rtc.c:1440:17
	bl	HAL_GetTick
	mov	r5, r0
.Ltmp53:
	@DEBUG_VALUE: HAL_RTC_WaitForSynchro:tickstart <- $r5
.LBB4_1:                                @ =>This Inner Loop Header: Depth=1
	@DEBUG_VALUE: HAL_RTC_WaitForSynchro:tickstart <- $r5
	@DEBUG_VALUE: HAL_RTC_WaitForSynchro:hrtc <- $r4
	.loc	6 1443 16               @ ../Drivers/STM32F7xx_HAL_Driver/Src/stm32f7xx_hal_rtc.c:1443:16
	ldr	r0, [r4]
	.loc	6 1443 26 is_stmt 0     @ ../Drivers/STM32F7xx_HAL_Driver/Src/stm32f7xx_hal_rtc.c:1443:26
	ldr	r0, [r0, #12]
	.loc	6 1443 3                @ ../Drivers/STM32F7xx_HAL_Driver/Src/stm32f7xx_hal_rtc.c:1443:3
	tst.w	r0, #32
	bne	.LBB4_4
.Ltmp54:
@ %bb.2:                                @   in Loop: Header=BB4_1 Depth=1
	@DEBUG_VALUE: HAL_RTC_WaitForSynchro:tickstart <- $r5
	@DEBUG_VALUE: HAL_RTC_WaitForSynchro:hrtc <- $r4
	.loc	6 1445 9 is_stmt 1      @ ../Drivers/STM32F7xx_HAL_Driver/Src/stm32f7xx_hal_rtc.c:1445:9
	bl	HAL_GetTick
	.loc	6 1445 23 is_stmt 0     @ ../Drivers/STM32F7xx_HAL_Driver/Src/stm32f7xx_hal_rtc.c:1445:23
	subs	r0, r0, r5
.Ltmp55:
	.loc	6 1445 8                @ ../Drivers/STM32F7xx_HAL_Driver/Src/stm32f7xx_hal_rtc.c:1445:8
	cmp.w	r0, #1000
	bls	.LBB4_1
.Ltmp56:
@ %bb.3:
	@DEBUG_VALUE: HAL_RTC_WaitForSynchro:tickstart <- $r5
	@DEBUG_VALUE: HAL_RTC_WaitForSynchro:hrtc <- $r4
	.loc	6 0 8                   @ ../Drivers/STM32F7xx_HAL_Driver/Src/stm32f7xx_hal_rtc.c:0:8
	movs	r0, #3
	b	.LBB4_5
.Ltmp57:
.LBB4_4:
	@DEBUG_VALUE: HAL_RTC_WaitForSynchro:tickstart <- $r5
	@DEBUG_VALUE: HAL_RTC_WaitForSynchro:hrtc <- $r4
	movs	r0, #0
.Ltmp58:
.LBB4_5:
	@DEBUG_VALUE: HAL_RTC_WaitForSynchro:tickstart <- $r5
	@DEBUG_VALUE: HAL_RTC_WaitForSynchro:hrtc <- $r4
	.loc	6 1452 1 is_stmt 1      @ ../Drivers/STM32F7xx_HAL_Driver/Src/stm32f7xx_hal_rtc.c:1452:1
	uxtb	r0, r0
	pop	{r4, r5, r7, pc}
.Ltmp59:
.Lfunc_end4:
	.size	HAL_RTC_WaitForSynchro, .Lfunc_end4-HAL_RTC_WaitForSynchro
	.cfi_endproc
	.cantunwind
	.fnend
                                        @ -- End function
	.section	.text.HAL_RTC_MspDeInit,"ax",%progbits
	.hidden	HAL_RTC_MspDeInit       @ -- Begin function HAL_RTC_MspDeInit
	.weak	HAL_RTC_MspDeInit
	.p2align	1
	.type	HAL_RTC_MspDeInit,%function
	.code	16                      @ @HAL_RTC_MspDeInit
	.thumb_func
HAL_RTC_MspDeInit:
.Lfunc_begin5:
	.loc	6 400 0                 @ ../Drivers/STM32F7xx_HAL_Driver/Src/stm32f7xx_hal_rtc.c:400:0
	.fnstart
	.cfi_startproc
@ %bb.0:
	@DEBUG_VALUE: HAL_RTC_MspDeInit:hrtc <- $r0
	.loc	6 407 1 prologue_end    @ ../Drivers/STM32F7xx_HAL_Driver/Src/stm32f7xx_hal_rtc.c:407:1
	bx	lr
.Ltmp60:
.Lfunc_end5:
	.size	HAL_RTC_MspDeInit, .Lfunc_end5-HAL_RTC_MspDeInit
	.cfi_endproc
	.cantunwind
	.fnend
                                        @ -- End function
	.section	.text.HAL_RTC_SetTime,"ax",%progbits
	.hidden	HAL_RTC_SetTime         @ -- Begin function HAL_RTC_SetTime
	.globl	HAL_RTC_SetTime
	.p2align	2
	.type	HAL_RTC_SetTime,%function
	.code	16                      @ @HAL_RTC_SetTime
	.thumb_func
HAL_RTC_SetTime:
.Lfunc_begin6:
	.loc	6 439 0                 @ ../Drivers/STM32F7xx_HAL_Driver/Src/stm32f7xx_hal_rtc.c:439:0
	.fnstart
	.cfi_startproc
@ %bb.0:
	.save	{r4, r5, r6, r7, r8, r9, r10, lr}
	push.w	{r4, r5, r6, r7, r8, r9, r10, lr}
	.cfi_def_cfa_offset 32
	.cfi_offset lr, -4
	.cfi_offset r10, -8
	.cfi_offset r9, -12
	.cfi_offset r8, -16
	.cfi_offset r7, -20
	.cfi_offset r6, -24
	.cfi_offset r5, -28
	.cfi_offset r4, -32
	@DEBUG_VALUE: HAL_RTC_SetTime:hrtc <- $r0
	@DEBUG_VALUE: HAL_RTC_SetTime:sTime <- $r1
	@DEBUG_VALUE: HAL_RTC_SetTime:Format <- $r2
	mov	r5, r1
.Ltmp61:
	.loc	6 448 3 prologue_end    @ ../Drivers/STM32F7xx_HAL_Driver/Src/stm32f7xx_hal_rtc.c:448:3
	ldrb	r1, [r0, #28]
.Ltmp62:
	.loc	6 0 3 is_stmt 0         @ ../Drivers/STM32F7xx_HAL_Driver/Src/stm32f7xx_hal_rtc.c:0:3
	mov	r4, r0
.Ltmp63:
	@DEBUG_VALUE: HAL_RTC_SetTime:tmpreg <- 0
	@DEBUG_VALUE: HAL_RTC_SetTime:Format <- $r2
	@DEBUG_VALUE: HAL_RTC_SetTime:sTime <- $r5
	@DEBUG_VALUE: HAL_RTC_SetTime:hrtc <- $r4
	movs	r0, #2
.Ltmp64:
	.loc	6 448 3                 @ ../Drivers/STM32F7xx_HAL_Driver/Src/stm32f7xx_hal_rtc.c:448:3
	cmp	r1, #1
	beq	.LBB6_17
.Ltmp65:
@ %bb.1:
	@DEBUG_VALUE: HAL_RTC_SetTime:hrtc <- $r4
	@DEBUG_VALUE: HAL_RTC_SetTime:sTime <- $r5
	@DEBUG_VALUE: HAL_RTC_SetTime:Format <- $r2
	.loc	6 450 15 is_stmt 1      @ ../Drivers/STM32F7xx_HAL_Driver/Src/stm32f7xx_hal_rtc.c:450:15
	strb	r0, [r4, #29]
	movs	r0, #1
	.loc	6 452 6                 @ ../Drivers/STM32F7xx_HAL_Driver/Src/stm32f7xx_hal_rtc.c:452:6
	cmp	r2, #0
.Ltmp66:
	.loc	6 448 3                 @ ../Drivers/STM32F7xx_HAL_Driver/Src/stm32f7xx_hal_rtc.c:448:3
	strb	r0, [r4, #28]
	ldr	r7, [r4]
	ldr	r0, [r7, #8]
	and	r0, r0, #64
.Ltmp67:
	.loc	6 452 6                 @ ../Drivers/STM32F7xx_HAL_Driver/Src/stm32f7xx_hal_rtc.c:452:6
	beq	.LBB6_4
.Ltmp68:
@ %bb.2:
	@DEBUG_VALUE: HAL_RTC_SetTime:hrtc <- $r4
	@DEBUG_VALUE: HAL_RTC_SetTime:sTime <- $r5
	@DEBUG_VALUE: HAL_RTC_SetTime:Format <- $r2
	.loc	6 474 8                 @ ../Drivers/STM32F7xx_HAL_Driver/Src/stm32f7xx_hal_rtc.c:474:8
	cbz	r0, .LBB6_6
.Ltmp69:
@ %bb.3:
	@DEBUG_VALUE: HAL_RTC_SetTime:hrtc <- $r4
	@DEBUG_VALUE: HAL_RTC_SetTime:sTime <- $r5
	@DEBUG_VALUE: HAL_RTC_SetTime:Format <- $r2
	ldrb	r0, [r5, #12]
	lsl.w	r8, r0, #16
	b	.LBB6_7
.Ltmp70:
.LBB6_4:
	@DEBUG_VALUE: HAL_RTC_SetTime:hrtc <- $r4
	@DEBUG_VALUE: HAL_RTC_SetTime:sTime <- $r5
	@DEBUG_VALUE: HAL_RTC_SetTime:Format <- $r2
	.loc	6 454 8                 @ ../Drivers/STM32F7xx_HAL_Driver/Src/stm32f7xx_hal_rtc.c:454:8
	cbz	r0, .LBB6_8
.Ltmp71:
@ %bb.5:
	@DEBUG_VALUE: HAL_RTC_SetTime:hrtc <- $r4
	@DEBUG_VALUE: HAL_RTC_SetTime:sTime <- $r5
	@DEBUG_VALUE: HAL_RTC_SetTime:Format <- $r2
	ldrb	r0, [r5, #12]
	lsl.w	r8, r0, #16
	b	.LBB6_9
.Ltmp72:
.LBB6_6:
	@DEBUG_VALUE: HAL_RTC_SetTime:hrtc <- $r4
	@DEBUG_VALUE: HAL_RTC_SetTime:sTime <- $r5
	@DEBUG_VALUE: HAL_RTC_SetTime:Format <- $r2
	.loc	6 0 8 is_stmt 0         @ ../Drivers/STM32F7xx_HAL_Driver/Src/stm32f7xx_hal_rtc.c:0:8
	mov.w	r8, #0
.Ltmp73:
	.loc	6 482 25 is_stmt 1      @ ../Drivers/STM32F7xx_HAL_Driver/Src/stm32f7xx_hal_rtc.c:482:25
	strb.w	r8, [r5, #12]
.Ltmp74:
.LBB6_7:
	@DEBUG_VALUE: HAL_RTC_SetTime:hrtc <- $r4
	@DEBUG_VALUE: HAL_RTC_SetTime:sTime <- $r5
	@DEBUG_VALUE: HAL_RTC_SetTime:Format <- $r2
	.loc	6 488 16                @ ../Drivers/STM32F7xx_HAL_Driver/Src/stm32f7xx_hal_rtc.c:488:16
	ldrb	r1, [r5, #1]
	.loc	6 487 16                @ ../Drivers/STM32F7xx_HAL_Driver/Src/stm32f7xx_hal_rtc.c:487:16
	ldrb	r0, [r5]
	.loc	6 489 33                @ ../Drivers/STM32F7xx_HAL_Driver/Src/stm32f7xx_hal_rtc.c:489:33
	ldrb	r6, [r5, #2]
	.loc	6 488 43                @ ../Drivers/STM32F7xx_HAL_Driver/Src/stm32f7xx_hal_rtc.c:488:43
	lsls	r1, r1, #8
	.loc	6 487 48                @ ../Drivers/STM32F7xx_HAL_Driver/Src/stm32f7xx_hal_rtc.c:487:48
	orr.w	r9, r1, r0, lsl #16
	b	.LBB6_10
.Ltmp75:
.LBB6_8:
	@DEBUG_VALUE: HAL_RTC_SetTime:hrtc <- $r4
	@DEBUG_VALUE: HAL_RTC_SetTime:sTime <- $r5
	@DEBUG_VALUE: HAL_RTC_SetTime:Format <- $r2
	.loc	6 0 48 is_stmt 0        @ ../Drivers/STM32F7xx_HAL_Driver/Src/stm32f7xx_hal_rtc.c:0:48
	mov.w	r8, #0
.Ltmp76:
	.loc	6 461 25 is_stmt 1      @ ../Drivers/STM32F7xx_HAL_Driver/Src/stm32f7xx_hal_rtc.c:461:25
	strb.w	r8, [r5, #12]
.Ltmp77:
.LBB6_9:
	@DEBUG_VALUE: HAL_RTC_SetTime:hrtc <- $r4
	@DEBUG_VALUE: HAL_RTC_SetTime:sTime <- $r5
	@DEBUG_VALUE: HAL_RTC_SetTime:Format <- $r2
	.loc	6 467 36                @ ../Drivers/STM32F7xx_HAL_Driver/Src/stm32f7xx_hal_rtc.c:467:36
	ldrb	r0, [r5]
	ldr.w	r10, __arm_cp.6_0
	blx	r10
.Ltmp78:
	mov	r6, r0
	.loc	6 468 36                @ ../Drivers/STM32F7xx_HAL_Driver/Src/stm32f7xx_hal_rtc.c:468:36
	ldrb	r0, [r5, #1]
	blx	r10
	.loc	6 468 67 is_stmt 0      @ ../Drivers/STM32F7xx_HAL_Driver/Src/stm32f7xx_hal_rtc.c:468:67
	lsls	r0, r0, #8
	.loc	6 467 72 is_stmt 1      @ ../Drivers/STM32F7xx_HAL_Driver/Src/stm32f7xx_hal_rtc.c:467:72
	orr.w	r9, r0, r6, lsl #16
	.loc	6 469 36                @ ../Drivers/STM32F7xx_HAL_Driver/Src/stm32f7xx_hal_rtc.c:469:36
	ldrb	r0, [r5, #2]
	blx	r10
	mov	r6, r0
.Ltmp79:
.LBB6_10:
	@DEBUG_VALUE: HAL_RTC_SetTime:hrtc <- $r4
	@DEBUG_VALUE: HAL_RTC_SetTime:sTime <- $r5
	.loc	6 494 3                 @ ../Drivers/STM32F7xx_HAL_Driver/Src/stm32f7xx_hal_rtc.c:494:3
	movs	r0, #202
	str	r0, [r7, #36]
	movs	r0, #83
	str	r0, [r7, #36]
.Ltmp80:
	.loc	6 497 6                 @ ../Drivers/STM32F7xx_HAL_Driver/Src/stm32f7xx_hal_rtc.c:497:6
	mov	r0, r4
	bl	RTC_EnterInitMode
.Ltmp81:
	.loc	6 497 6 is_stmt 0       @ ../Drivers/STM32F7xx_HAL_Driver/Src/stm32f7xx_hal_rtc.c:497:6
	cbz	r0, .LBB6_13
.Ltmp82:
@ %bb.11:
	@DEBUG_VALUE: HAL_RTC_SetTime:hrtc <- $r4
	@DEBUG_VALUE: HAL_RTC_SetTime:sTime <- $r5
	.loc	6 500 5 is_stmt 1       @ ../Drivers/STM32F7xx_HAL_Driver/Src/stm32f7xx_hal_rtc.c:500:5
	ldr	r1, [r4]
.Ltmp83:
.LBB6_12:
	@DEBUG_VALUE: HAL_RTC_SetTime:hrtc <- $r4
	@DEBUG_VALUE: HAL_RTC_SetTime:sTime <- $r5
	.loc	6 0 5 is_stmt 0         @ ../Drivers/STM32F7xx_HAL_Driver/Src/stm32f7xx_hal_rtc.c:0:5
	movs	r0, #1
	movs	r2, #4
	b	.LBB6_16
.Ltmp84:
.LBB6_13:
	@DEBUG_VALUE: HAL_RTC_SetTime:hrtc <- $r4
	@DEBUG_VALUE: HAL_RTC_SetTime:sTime <- $r5
	.loc	6 513 44 is_stmt 1      @ ../Drivers/STM32F7xx_HAL_Driver/Src/stm32f7xx_hal_rtc.c:513:44
	ldr	r1, __arm_cp.6_1
	orr.w	r0, r9, r6
	orr.w	r0, r0, r8
.Ltmp85:
	@DEBUG_VALUE: HAL_RTC_SetTime:tmpreg <- $r0
	ands	r0, r1
.Ltmp86:
	.loc	6 513 11 is_stmt 0      @ ../Drivers/STM32F7xx_HAL_Driver/Src/stm32f7xx_hal_rtc.c:513:11
	ldr	r1, [r4]
	.loc	6 513 24                @ ../Drivers/STM32F7xx_HAL_Driver/Src/stm32f7xx_hal_rtc.c:513:24
	str	r0, [r1]
	.loc	6 516 24 is_stmt 1      @ ../Drivers/STM32F7xx_HAL_Driver/Src/stm32f7xx_hal_rtc.c:516:24
	ldr	r0, [r1, #8]
	bic	r0, r0, #262144
	str	r0, [r1, #8]
	.loc	6 519 45                @ ../Drivers/STM32F7xx_HAL_Driver/Src/stm32f7xx_hal_rtc.c:519:45
	ldrd	r0, r2, [r5, #16]
	.loc	6 519 24 is_stmt 0      @ ../Drivers/STM32F7xx_HAL_Driver/Src/stm32f7xx_hal_rtc.c:519:24
	ldr	r3, [r1, #8]
	.loc	6 519 60                @ ../Drivers/STM32F7xx_HAL_Driver/Src/stm32f7xx_hal_rtc.c:519:60
	orrs	r0, r2
	.loc	6 519 24                @ ../Drivers/STM32F7xx_HAL_Driver/Src/stm32f7xx_hal_rtc.c:519:24
	orrs	r0, r3
	str	r0, [r1, #8]
	.loc	6 522 25 is_stmt 1      @ ../Drivers/STM32F7xx_HAL_Driver/Src/stm32f7xx_hal_rtc.c:522:25
	ldr	r0, [r1, #12]
	bic	r0, r0, #128
	str	r0, [r1, #12]
.Ltmp87:
	.loc	6 525 25                @ ../Drivers/STM32F7xx_HAL_Driver/Src/stm32f7xx_hal_rtc.c:525:25
	ldr	r0, [r1, #8]
.Ltmp88:
	.loc	6 525 8 is_stmt 0       @ ../Drivers/STM32F7xx_HAL_Driver/Src/stm32f7xx_hal_rtc.c:525:8
	tst.w	r0, #32
	bne	.LBB6_15
.Ltmp89:
@ %bb.14:
	@DEBUG_VALUE: HAL_RTC_SetTime:hrtc <- $r4
	@DEBUG_VALUE: HAL_RTC_SetTime:sTime <- $r5
	.loc	6 527 10 is_stmt 1      @ ../Drivers/STM32F7xx_HAL_Driver/Src/stm32f7xx_hal_rtc.c:527:10
	mov	r0, r4
	bl	HAL_RTC_WaitForSynchro
	ldr	r1, [r4]
.Ltmp90:
	.loc	6 527 10 is_stmt 0      @ ../Drivers/STM32F7xx_HAL_Driver/Src/stm32f7xx_hal_rtc.c:527:10
	cmp	r0, #0
	bne	.LBB6_12
.Ltmp91:
.LBB6_15:
	@DEBUG_VALUE: HAL_RTC_SetTime:hrtc <- $r4
	@DEBUG_VALUE: HAL_RTC_SetTime:sTime <- $r5
	.loc	6 0 10                  @ ../Drivers/STM32F7xx_HAL_Driver/Src/stm32f7xx_hal_rtc.c:0:10
	movs	r0, #0
	movs	r2, #1
.Ltmp92:
.LBB6_16:
	@DEBUG_VALUE: HAL_RTC_SetTime:hrtc <- $r4
	@DEBUG_VALUE: HAL_RTC_SetTime:sTime <- $r5
	movs	r3, #255
	str	r3, [r1, #36]
	movs	r1, #0
	strb	r1, [r4, #28]
	strb	r2, [r4, #29]
.Ltmp93:
.LBB6_17:
	@DEBUG_VALUE: HAL_RTC_SetTime:hrtc <- $r4
	@DEBUG_VALUE: HAL_RTC_SetTime:sTime <- $r5
	.loc	6 550 1 is_stmt 1       @ ../Drivers/STM32F7xx_HAL_Driver/Src/stm32f7xx_hal_rtc.c:550:1
	uxtb	r0, r0
	pop.w	{r4, r5, r6, r7, r8, r9, r10, pc}
.Ltmp94:
	.p2align	2
@ %bb.18:
	.loc	6 0 1 is_stmt 0         @ ../Drivers/STM32F7xx_HAL_Driver/Src/stm32f7xx_hal_rtc.c:0:1
__arm_cp.6_0:
	.long	RTC_ByteToBcd2
.Lcpi_end2:
	.size	__arm_cp.6_0, .Lcpi_end2-__arm_cp.6_0
__arm_cp.6_1:
	.long	8355711                 @ 0x7f7f7f
.Lcpi_end3:
	.size	__arm_cp.6_1, .Lcpi_end3-__arm_cp.6_1
.Lfunc_end6:
	.size	HAL_RTC_SetTime, .Lfunc_end6-HAL_RTC_SetTime
	.cfi_endproc
	.cantunwind
	.fnend
                                        @ -- End function
	.section	.text.RTC_ByteToBcd2,"ax",%progbits
	.hidden	RTC_ByteToBcd2          @ -- Begin function RTC_ByteToBcd2
	.globl	RTC_ByteToBcd2
	.p2align	1
	.type	RTC_ByteToBcd2,%function
	.code	16                      @ @RTC_ByteToBcd2
	.thumb_func
RTC_ByteToBcd2:
.Lfunc_begin7:
	.loc	6 1528 0 is_stmt 1      @ ../Drivers/STM32F7xx_HAL_Driver/Src/stm32f7xx_hal_rtc.c:1528:0
	.fnstart
	.cfi_startproc
@ %bb.0:
	@DEBUG_VALUE: RTC_ByteToBcd2:Value <- $r0
	@DEBUG_VALUE: RTC_ByteToBcd2:Value <- $r0
	@DEBUG_VALUE: RTC_ByteToBcd2:bcdhigh <- 0
	.loc	6 1531 3 prologue_end   @ ../Drivers/STM32F7xx_HAL_Driver/Src/stm32f7xx_hal_rtc.c:1531:3
	mvns	r1, r0
	uxtb	r2, r1
	cmp	r2, #246
	mov.w	r2, #10
	it	ls
	mvnls	r1, #9
	add	r1, r0
	adds	r1, #10
	uxtb	r1, r1
	udiv	r1, r1, r2
	add.w	r2, r1, r1, lsl #2
	sub.w	r0, r0, r2, lsl #1
.Ltmp95:
	.loc	6 1537 11               @ ../Drivers/STM32F7xx_HAL_Driver/Src/stm32f7xx_hal_rtc.c:1537:11
	orr.w	r0, r0, r1, lsl #4
	.loc	6 1537 3 is_stmt 0      @ ../Drivers/STM32F7xx_HAL_Driver/Src/stm32f7xx_hal_rtc.c:1537:3
	uxtb	r0, r0
	bx	lr
.Ltmp96:
.Lfunc_end7:
	.size	RTC_ByteToBcd2, .Lfunc_end7-RTC_ByteToBcd2
	.cfi_endproc
	.cantunwind
	.fnend
                                        @ -- End function
	.section	.text.RTC_Bcd2ToByte,"ax",%progbits
	.hidden	RTC_Bcd2ToByte          @ -- Begin function RTC_Bcd2ToByte
	.globl	RTC_Bcd2ToByte
	.p2align	1
	.type	RTC_Bcd2ToByte,%function
	.code	16                      @ @RTC_Bcd2ToByte
	.thumb_func
RTC_Bcd2ToByte:
.Lfunc_begin8:
	.loc	6 1546 0 is_stmt 1      @ ../Drivers/STM32F7xx_HAL_Driver/Src/stm32f7xx_hal_rtc.c:1546:0
	.fnstart
	.cfi_startproc
@ %bb.0:
	@DEBUG_VALUE: RTC_Bcd2ToByte:Value <- $r0
	@DEBUG_VALUE: RTC_Bcd2ToByte:Value <- $r0
	@DEBUG_VALUE: RTC_Bcd2ToByte:tmp <- 0
	.loc	6 1549 24 prologue_end  @ ../Drivers/STM32F7xx_HAL_Driver/Src/stm32f7xx_hal_rtc.c:1549:24
	and	r1, r0, #15
	.loc	6 1548 43               @ ../Drivers/STM32F7xx_HAL_Driver/Src/stm32f7xx_hal_rtc.c:1548:43
	lsrs	r0, r0, #4
.Ltmp97:
	.loc	6 1548 60 is_stmt 0     @ ../Drivers/STM32F7xx_HAL_Driver/Src/stm32f7xx_hal_rtc.c:1548:60
	add.w	r0, r0, r0, lsl #2
	.loc	6 1549 15 is_stmt 1     @ ../Drivers/STM32F7xx_HAL_Driver/Src/stm32f7xx_hal_rtc.c:1549:15
	add.w	r0, r1, r0, lsl #1
	.loc	6 1549 3 is_stmt 0      @ ../Drivers/STM32F7xx_HAL_Driver/Src/stm32f7xx_hal_rtc.c:1549:3
	uxtb	r0, r0
	bx	lr
.Ltmp98:
.Lfunc_end8:
	.size	RTC_Bcd2ToByte, .Lfunc_end8-RTC_Bcd2ToByte
	.cfi_endproc
	.cantunwind
	.fnend
                                        @ -- End function
	.section	.text.HAL_RTC_GetTime,"ax",%progbits
	.hidden	HAL_RTC_GetTime         @ -- Begin function HAL_RTC_GetTime
	.globl	HAL_RTC_GetTime
	.p2align	1
	.type	HAL_RTC_GetTime,%function
	.code	16                      @ @HAL_RTC_GetTime
	.thumb_func
HAL_RTC_GetTime:
.Lfunc_begin9:
	.loc	6 574 0 is_stmt 1       @ ../Drivers/STM32F7xx_HAL_Driver/Src/stm32f7xx_hal_rtc.c:574:0
	.fnstart
	.cfi_startproc
@ %bb.0:
	.save	{r4, lr}
	push	{r4, lr}
	.cfi_def_cfa_offset 8
	.cfi_offset lr, -4
	.cfi_offset r4, -8
	@DEBUG_VALUE: HAL_RTC_GetTime:hrtc <- $r0
	@DEBUG_VALUE: HAL_RTC_GetTime:hrtc <- $r0
	@DEBUG_VALUE: HAL_RTC_GetTime:sTime <- $r1
	@DEBUG_VALUE: HAL_RTC_GetTime:sTime <- $r1
	@DEBUG_VALUE: HAL_RTC_GetTime:Format <- $r2
	@DEBUG_VALUE: HAL_RTC_GetTime:Format <- $r2
.Ltmp99:
	@DEBUG_VALUE: HAL_RTC_GetTime:tmpreg <- 0
	.loc	6 581 40 prologue_end   @ ../Drivers/STM32F7xx_HAL_Driver/Src/stm32f7xx_hal_rtc.c:581:40
	ldr	r0, [r0]
.Ltmp100:
	.loc	6 593 23                @ ../Drivers/STM32F7xx_HAL_Driver/Src/stm32f7xx_hal_rtc.c:593:23
	movs	r4, #64
	.loc	6 596 6                 @ ../Drivers/STM32F7xx_HAL_Driver/Src/stm32f7xx_hal_rtc.c:596:6
	cmp	r2, #0
	.loc	6 581 50                @ ../Drivers/STM32F7xx_HAL_Driver/Src/stm32f7xx_hal_rtc.c:581:50
	ldr	r3, [r0, #40]
	.loc	6 581 21 is_stmt 0      @ ../Drivers/STM32F7xx_HAL_Driver/Src/stm32f7xx_hal_rtc.c:581:21
	str	r3, [r1, #4]
	.loc	6 584 54 is_stmt 1      @ ../Drivers/STM32F7xx_HAL_Driver/Src/stm32f7xx_hal_rtc.c:584:54
	ldr	r3, [r0, #16]
	.loc	6 584 59 is_stmt 0      @ ../Drivers/STM32F7xx_HAL_Driver/Src/stm32f7xx_hal_rtc.c:584:59
	bfc	r3, #15, #17
	.loc	6 584 25                @ ../Drivers/STM32F7xx_HAL_Driver/Src/stm32f7xx_hal_rtc.c:584:25
	str	r3, [r1, #8]
	.loc	6 587 39 is_stmt 1      @ ../Drivers/STM32F7xx_HAL_Driver/Src/stm32f7xx_hal_rtc.c:587:39
	ldr	r0, [r0]
	.loc	6 591 20                @ ../Drivers/STM32F7xx_HAL_Driver/Src/stm32f7xx_hal_rtc.c:591:20
	ubfx	r3, r0, #8, #7
	.loc	6 592 20                @ ../Drivers/STM32F7xx_HAL_Driver/Src/stm32f7xx_hal_rtc.c:592:20
	and	r12, r0, #127
	.loc	6 593 23                @ ../Drivers/STM32F7xx_HAL_Driver/Src/stm32f7xx_hal_rtc.c:593:23
	and.w	r4, r4, r0, lsr #16
	.loc	6 591 18                @ ../Drivers/STM32F7xx_HAL_Driver/Src/stm32f7xx_hal_rtc.c:591:18
	strb	r3, [r1, #1]
	.loc	6 590 18                @ ../Drivers/STM32F7xx_HAL_Driver/Src/stm32f7xx_hal_rtc.c:590:18
	ubfx	lr, r0, #16, #6
	.loc	6 590 16 is_stmt 0      @ ../Drivers/STM32F7xx_HAL_Driver/Src/stm32f7xx_hal_rtc.c:590:16
	strb.w	lr, [r1]
	.loc	6 592 18 is_stmt 1      @ ../Drivers/STM32F7xx_HAL_Driver/Src/stm32f7xx_hal_rtc.c:592:18
	strb.w	r12, [r1, #2]
	.loc	6 593 21                @ ../Drivers/STM32F7xx_HAL_Driver/Src/stm32f7xx_hal_rtc.c:593:21
	strb	r4, [r1, #12]
	.loc	6 596 6                 @ ../Drivers/STM32F7xx_HAL_Driver/Src/stm32f7xx_hal_rtc.c:596:6
	bne	.LBB9_2
.Ltmp101:
@ %bb.1:
	@DEBUG_VALUE: HAL_RTC_GetTime:Format <- $r2
	@DEBUG_VALUE: HAL_RTC_GetTime:sTime <- $r1
	.loc	6 0 6 is_stmt 0         @ ../Drivers/STM32F7xx_HAL_Driver/Src/stm32f7xx_hal_rtc.c:0:6
	lsrs	r2, r0, #8
.Ltmp102:
	.loc	6 1548 43 is_stmt 1     @ ../Drivers/STM32F7xx_HAL_Driver/Src/stm32f7xx_hal_rtc.c:1548:43
	ubfx	r3, r3, #4, #4
	lsrs	r4, r0, #16
.Ltmp103:
	@DEBUG_VALUE: RTC_Bcd2ToByte:tmp <- 0
	.loc	6 1549 24               @ ../Drivers/STM32F7xx_HAL_Driver/Src/stm32f7xx_hal_rtc.c:1549:24
	and	r0, r0, #15
.Ltmp104:
	.loc	6 1549 24 is_stmt 0     @ ../Drivers/STM32F7xx_HAL_Driver/Src/stm32f7xx_hal_rtc.c:1549:24
	and	r2, r2, #15
	.loc	6 1548 60 is_stmt 1     @ ../Drivers/STM32F7xx_HAL_Driver/Src/stm32f7xx_hal_rtc.c:1548:60
	add.w	r3, r3, r3, lsl #2
	.loc	6 1549 15               @ ../Drivers/STM32F7xx_HAL_Driver/Src/stm32f7xx_hal_rtc.c:1549:15
	add.w	r2, r2, r3, lsl #1
.Ltmp105:
	.loc	6 600 20                @ ../Drivers/STM32F7xx_HAL_Driver/Src/stm32f7xx_hal_rtc.c:600:20
	strb	r2, [r1, #1]
.Ltmp106:
	@DEBUG_VALUE: RTC_Bcd2ToByte:tmp <- 0
	.loc	6 1548 43               @ ../Drivers/STM32F7xx_HAL_Driver/Src/stm32f7xx_hal_rtc.c:1548:43
	ubfx	r3, lr, #4, #4
	.loc	6 1549 24               @ ../Drivers/STM32F7xx_HAL_Driver/Src/stm32f7xx_hal_rtc.c:1549:24
	and	r2, r4, #15
	.loc	6 1548 60               @ ../Drivers/STM32F7xx_HAL_Driver/Src/stm32f7xx_hal_rtc.c:1548:60
	add.w	r3, r3, r3, lsl #2
	.loc	6 1549 15               @ ../Drivers/STM32F7xx_HAL_Driver/Src/stm32f7xx_hal_rtc.c:1549:15
	add.w	r2, r2, r3, lsl #1
.Ltmp107:
	.loc	6 599 18                @ ../Drivers/STM32F7xx_HAL_Driver/Src/stm32f7xx_hal_rtc.c:599:18
	strb	r2, [r1]
.Ltmp108:
	@DEBUG_VALUE: RTC_Bcd2ToByte:tmp <- 0
	.loc	6 1548 43               @ ../Drivers/STM32F7xx_HAL_Driver/Src/stm32f7xx_hal_rtc.c:1548:43
	ubfx	r2, r12, #4, #4
	.loc	6 1548 60 is_stmt 0     @ ../Drivers/STM32F7xx_HAL_Driver/Src/stm32f7xx_hal_rtc.c:1548:60
	add.w	r2, r2, r2, lsl #2
	.loc	6 1549 15 is_stmt 1     @ ../Drivers/STM32F7xx_HAL_Driver/Src/stm32f7xx_hal_rtc.c:1549:15
	add.w	r0, r0, r2, lsl #1
.Ltmp109:
	.loc	6 601 20                @ ../Drivers/STM32F7xx_HAL_Driver/Src/stm32f7xx_hal_rtc.c:601:20
	strb	r0, [r1, #2]
.Ltmp110:
.LBB9_2:
	@DEBUG_VALUE: HAL_RTC_GetTime:sTime <- $r1
	.loc	6 604 3                 @ ../Drivers/STM32F7xx_HAL_Driver/Src/stm32f7xx_hal_rtc.c:604:3
	movs	r0, #0
	pop	{r4, pc}
.Ltmp111:
.Lfunc_end9:
	.size	HAL_RTC_GetTime, .Lfunc_end9-HAL_RTC_GetTime
	.cfi_endproc
	.cantunwind
	.fnend
                                        @ -- End function
	.section	.text.HAL_RTC_SetDate,"ax",%progbits
	.hidden	HAL_RTC_SetDate         @ -- Begin function HAL_RTC_SetDate
	.globl	HAL_RTC_SetDate
	.p2align	2
	.type	HAL_RTC_SetDate,%function
	.code	16                      @ @HAL_RTC_SetDate
	.thumb_func
HAL_RTC_SetDate:
.Lfunc_begin10:
	.loc	6 619 0                 @ ../Drivers/STM32F7xx_HAL_Driver/Src/stm32f7xx_hal_rtc.c:619:0
	.fnstart
	.cfi_startproc
@ %bb.0:
	.save	{r4, r5, r6, r7, r8, lr}
	push.w	{r4, r5, r6, r7, r8, lr}
	.cfi_def_cfa_offset 24
	.cfi_offset lr, -4
	.cfi_offset r8, -8
	.cfi_offset r7, -12
	.cfi_offset r6, -16
	.cfi_offset r5, -20
	.cfi_offset r4, -24
	@DEBUG_VALUE: HAL_RTC_SetDate:hrtc <- $r0
	@DEBUG_VALUE: HAL_RTC_SetDate:sDate <- $r1
	@DEBUG_VALUE: HAL_RTC_SetDate:Format <- $r2
	mov	r5, r1
.Ltmp112:
	.loc	6 626 2 prologue_end    @ ../Drivers/STM32F7xx_HAL_Driver/Src/stm32f7xx_hal_rtc.c:626:2
	ldrb	r1, [r0, #28]
.Ltmp113:
	.loc	6 0 2 is_stmt 0         @ ../Drivers/STM32F7xx_HAL_Driver/Src/stm32f7xx_hal_rtc.c:0:2
	mov	r4, r0
.Ltmp114:
	@DEBUG_VALUE: HAL_RTC_SetDate:datetmpreg <- 0
	@DEBUG_VALUE: HAL_RTC_SetDate:Format <- $r2
	@DEBUG_VALUE: HAL_RTC_SetDate:sDate <- $r5
	@DEBUG_VALUE: HAL_RTC_SetDate:hrtc <- $r4
	movs	r0, #2
.Ltmp115:
	.loc	6 626 2                 @ ../Drivers/STM32F7xx_HAL_Driver/Src/stm32f7xx_hal_rtc.c:626:2
	cmp	r1, #1
	beq	.LBB10_11
.Ltmp116:
@ %bb.1:
	@DEBUG_VALUE: HAL_RTC_SetDate:hrtc <- $r4
	@DEBUG_VALUE: HAL_RTC_SetDate:sDate <- $r5
	@DEBUG_VALUE: HAL_RTC_SetDate:Format <- $r2
	.loc	6 628 15 is_stmt 1      @ ../Drivers/STM32F7xx_HAL_Driver/Src/stm32f7xx_hal_rtc.c:628:15
	strb	r0, [r4, #29]
	movs	r0, #1
.Ltmp117:
	.loc	6 630 33                @ ../Drivers/STM32F7xx_HAL_Driver/Src/stm32f7xx_hal_rtc.c:630:33
	cmp	r2, #0
.Ltmp118:
	.loc	6 626 2                 @ ../Drivers/STM32F7xx_HAL_Driver/Src/stm32f7xx_hal_rtc.c:626:2
	strb	r0, [r4, #28]
	ldrb	r7, [r5, #1]
.Ltmp119:
	.loc	6 630 33                @ ../Drivers/STM32F7xx_HAL_Driver/Src/stm32f7xx_hal_rtc.c:630:33
	beq	.LBB10_3
.Ltmp120:
@ %bb.2:
	@DEBUG_VALUE: HAL_RTC_SetDate:hrtc <- $r4
	@DEBUG_VALUE: HAL_RTC_SetDate:sDate <- $r5
	@DEBUG_VALUE: HAL_RTC_SetDate:Format <- $r2
	.loc	6 656 21                @ ../Drivers/STM32F7xx_HAL_Driver/Src/stm32f7xx_hal_rtc.c:656:21
	ldrb	r0, [r5, #3]
	.loc	6 658 37                @ ../Drivers/STM32F7xx_HAL_Driver/Src/stm32f7xx_hal_rtc.c:658:37
	ldrb	r6, [r5, #2]
	.loc	6 656 44                @ ../Drivers/STM32F7xx_HAL_Driver/Src/stm32f7xx_hal_rtc.c:656:44
	lsls	r0, r0, #16
	.loc	6 656 51 is_stmt 0      @ ../Drivers/STM32F7xx_HAL_Driver/Src/stm32f7xx_hal_rtc.c:656:51
	orr.w	r7, r0, r7, lsl #8
	b	.LBB10_4
.Ltmp121:
.LBB10_3:
	@DEBUG_VALUE: HAL_RTC_SetDate:hrtc <- $r4
	@DEBUG_VALUE: HAL_RTC_SetDate:sDate <- $r5
	@DEBUG_VALUE: HAL_RTC_SetDate:Format <- $r2
	.loc	6 630 6 is_stmt 1       @ ../Drivers/STM32F7xx_HAL_Driver/Src/stm32f7xx_hal_rtc.c:630:6
	lsls	r0, r7, #27
.Ltmp122:
	.loc	6 643 29                @ ../Drivers/STM32F7xx_HAL_Driver/Src/stm32f7xx_hal_rtc.c:643:29
	ldr.w	r8, __arm_cp.10_0
.Ltmp123:
	.loc	6 632 44                @ ../Drivers/STM32F7xx_HAL_Driver/Src/stm32f7xx_hal_rtc.c:632:44
	ittt	mi
	andmi	r0, r7, #239
	.loc	6 632 65 is_stmt 0      @ ../Drivers/STM32F7xx_HAL_Driver/Src/stm32f7xx_hal_rtc.c:632:65
	addmi.w	r7, r0, #10
	.loc	6 632 18                @ ../Drivers/STM32F7xx_HAL_Driver/Src/stm32f7xx_hal_rtc.c:632:18
	strbmi	r7, [r5, #1]
.Ltmp124:
	.loc	6 643 29 is_stmt 1      @ ../Drivers/STM32F7xx_HAL_Driver/Src/stm32f7xx_hal_rtc.c:643:29
	ldrb	r0, [r5, #3]
	blx	r8
.Ltmp125:
	mov	r6, r0
	.loc	6 644 29                @ ../Drivers/STM32F7xx_HAL_Driver/Src/stm32f7xx_hal_rtc.c:644:29
	uxtb	r0, r7
	blx	r8
	.loc	6 644 58 is_stmt 0      @ ../Drivers/STM32F7xx_HAL_Driver/Src/stm32f7xx_hal_rtc.c:644:58
	lsls	r0, r0, #8
	.loc	6 643 64 is_stmt 1      @ ../Drivers/STM32F7xx_HAL_Driver/Src/stm32f7xx_hal_rtc.c:643:64
	orr.w	r7, r0, r6, lsl #16
	.loc	6 645 29                @ ../Drivers/STM32F7xx_HAL_Driver/Src/stm32f7xx_hal_rtc.c:645:29
	ldrb	r0, [r5, #2]
	blx	r8
	mov	r6, r0
.Ltmp126:
.LBB10_4:
	@DEBUG_VALUE: HAL_RTC_SetDate:hrtc <- $r4
	@DEBUG_VALUE: HAL_RTC_SetDate:sDate <- $r5
	.loc	6 663 3                 @ ../Drivers/STM32F7xx_HAL_Driver/Src/stm32f7xx_hal_rtc.c:663:3
	ldr	r0, [r4]
	ldrb	r5, [r5]
.Ltmp127:
	movs	r1, #202
	str	r1, [r0, #36]
	movs	r1, #83
	str	r1, [r0, #36]
.Ltmp128:
	.loc	6 666 6                 @ ../Drivers/STM32F7xx_HAL_Driver/Src/stm32f7xx_hal_rtc.c:666:6
	mov	r0, r4
	bl	RTC_EnterInitMode
.Ltmp129:
	.loc	6 666 6 is_stmt 0       @ ../Drivers/STM32F7xx_HAL_Driver/Src/stm32f7xx_hal_rtc.c:666:6
	cbz	r0, .LBB10_7
.Ltmp130:
@ %bb.5:
	@DEBUG_VALUE: HAL_RTC_SetDate:hrtc <- $r4
	.loc	6 669 5 is_stmt 1       @ ../Drivers/STM32F7xx_HAL_Driver/Src/stm32f7xx_hal_rtc.c:669:5
	ldr	r1, [r4]
.Ltmp131:
.LBB10_6:
	@DEBUG_VALUE: HAL_RTC_SetDate:hrtc <- $r4
	.loc	6 0 5 is_stmt 0         @ ../Drivers/STM32F7xx_HAL_Driver/Src/stm32f7xx_hal_rtc.c:0:5
	movs	r0, #1
	movs	r2, #4
	b	.LBB10_10
.Ltmp132:
.LBB10_7:
	@DEBUG_VALUE: HAL_RTC_SetDate:hrtc <- $r4
	.loc	6 682 48 is_stmt 1      @ ../Drivers/STM32F7xx_HAL_Driver/Src/stm32f7xx_hal_rtc.c:682:48
	ldr	r1, __arm_cp.10_1
	orr.w	r0, r7, r6
	ands	r0, r1
	.loc	6 682 11 is_stmt 0      @ ../Drivers/STM32F7xx_HAL_Driver/Src/stm32f7xx_hal_rtc.c:682:11
	ldr	r1, [r4]
	.loc	6 682 48                @ ../Drivers/STM32F7xx_HAL_Driver/Src/stm32f7xx_hal_rtc.c:682:48
	orr.w	r0, r0, r5, lsl #13
	.loc	6 682 24                @ ../Drivers/STM32F7xx_HAL_Driver/Src/stm32f7xx_hal_rtc.c:682:24
	str	r0, [r1, #4]
	.loc	6 685 25 is_stmt 1      @ ../Drivers/STM32F7xx_HAL_Driver/Src/stm32f7xx_hal_rtc.c:685:25
	ldr	r0, [r1, #12]
	bic	r0, r0, #128
	str	r0, [r1, #12]
.Ltmp133:
	.loc	6 688 25                @ ../Drivers/STM32F7xx_HAL_Driver/Src/stm32f7xx_hal_rtc.c:688:25
	ldr	r0, [r1, #8]
.Ltmp134:
	.loc	6 688 8 is_stmt 0       @ ../Drivers/STM32F7xx_HAL_Driver/Src/stm32f7xx_hal_rtc.c:688:8
	tst.w	r0, #32
	bne	.LBB10_9
.Ltmp135:
@ %bb.8:
	@DEBUG_VALUE: HAL_RTC_SetDate:hrtc <- $r4
	.loc	6 690 10 is_stmt 1      @ ../Drivers/STM32F7xx_HAL_Driver/Src/stm32f7xx_hal_rtc.c:690:10
	mov	r0, r4
	bl	HAL_RTC_WaitForSynchro
	ldr	r1, [r4]
.Ltmp136:
	.loc	6 690 10 is_stmt 0      @ ../Drivers/STM32F7xx_HAL_Driver/Src/stm32f7xx_hal_rtc.c:690:10
	cmp	r0, #0
	bne	.LBB10_6
.Ltmp137:
.LBB10_9:
	@DEBUG_VALUE: HAL_RTC_SetDate:hrtc <- $r4
	.loc	6 0 10                  @ ../Drivers/STM32F7xx_HAL_Driver/Src/stm32f7xx_hal_rtc.c:0:10
	movs	r0, #0
	movs	r2, #1
.Ltmp138:
.LBB10_10:
	@DEBUG_VALUE: HAL_RTC_SetDate:hrtc <- $r4
	movs	r3, #255
	str	r3, [r1, #36]
	movs	r1, #0
	strb	r1, [r4, #28]
	strb	r2, [r4, #29]
.Ltmp139:
.LBB10_11:
	@DEBUG_VALUE: HAL_RTC_SetDate:hrtc <- $r4
	.loc	6 714 1 is_stmt 1       @ ../Drivers/STM32F7xx_HAL_Driver/Src/stm32f7xx_hal_rtc.c:714:1
	uxtb	r0, r0
	pop.w	{r4, r5, r6, r7, r8, pc}
.Ltmp140:
	.p2align	2
@ %bb.12:
	.loc	6 0 1 is_stmt 0         @ ../Drivers/STM32F7xx_HAL_Driver/Src/stm32f7xx_hal_rtc.c:0:1
__arm_cp.10_0:
	.long	RTC_ByteToBcd2
.Lcpi_end4:
	.size	__arm_cp.10_0, .Lcpi_end4-__arm_cp.10_0
__arm_cp.10_1:
	.long	16777023                @ 0xffff3f
.Lcpi_end5:
	.size	__arm_cp.10_1, .Lcpi_end5-__arm_cp.10_1
.Lfunc_end10:
	.size	HAL_RTC_SetDate, .Lfunc_end10-HAL_RTC_SetDate
	.cfi_endproc
	.cantunwind
	.fnend
                                        @ -- End function
	.section	.text.HAL_RTC_GetDate,"ax",%progbits
	.hidden	HAL_RTC_GetDate         @ -- Begin function HAL_RTC_GetDate
	.globl	HAL_RTC_GetDate
	.p2align	1
	.type	HAL_RTC_GetDate,%function
	.code	16                      @ @HAL_RTC_GetDate
	.thumb_func
HAL_RTC_GetDate:
.Lfunc_begin11:
	.loc	6 731 0 is_stmt 1       @ ../Drivers/STM32F7xx_HAL_Driver/Src/stm32f7xx_hal_rtc.c:731:0
	.fnstart
	.cfi_startproc
@ %bb.0:
	.save	{r4, lr}
	push	{r4, lr}
	.cfi_def_cfa_offset 8
	.cfi_offset lr, -4
	.cfi_offset r4, -8
	@DEBUG_VALUE: HAL_RTC_GetDate:hrtc <- $r0
	@DEBUG_VALUE: HAL_RTC_GetDate:hrtc <- $r0
	@DEBUG_VALUE: HAL_RTC_GetDate:sDate <- $r1
	@DEBUG_VALUE: HAL_RTC_GetDate:sDate <- $r1
	@DEBUG_VALUE: HAL_RTC_GetDate:Format <- $r2
	@DEBUG_VALUE: HAL_RTC_GetDate:Format <- $r2
.Ltmp141:
	@DEBUG_VALUE: HAL_RTC_GetDate:datetmpreg <- 0
	.loc	6 738 33 prologue_end   @ ../Drivers/STM32F7xx_HAL_Driver/Src/stm32f7xx_hal_rtc.c:738:33
	ldr	r0, [r0]
.Ltmp142:
	.loc	6 747 6                 @ ../Drivers/STM32F7xx_HAL_Driver/Src/stm32f7xx_hal_rtc.c:747:6
	cmp	r2, #0
	.loc	6 738 43                @ ../Drivers/STM32F7xx_HAL_Driver/Src/stm32f7xx_hal_rtc.c:738:43
	ldr	r0, [r0, #4]
	.loc	6 742 18                @ ../Drivers/STM32F7xx_HAL_Driver/Src/stm32f7xx_hal_rtc.c:742:18
	ubfx	r3, r0, #8, #5
	.loc	6 741 66                @ ../Drivers/STM32F7xx_HAL_Driver/Src/stm32f7xx_hal_rtc.c:741:66
	lsr.w	lr, r0, #16
	.loc	6 743 17                @ ../Drivers/STM32F7xx_HAL_Driver/Src/stm32f7xx_hal_rtc.c:743:17
	and	r12, r0, #63
	.loc	6 742 16                @ ../Drivers/STM32F7xx_HAL_Driver/Src/stm32f7xx_hal_rtc.c:742:16
	strb	r3, [r1, #1]
	.loc	6 741 15                @ ../Drivers/STM32F7xx_HAL_Driver/Src/stm32f7xx_hal_rtc.c:741:15
	strb.w	lr, [r1, #3]
	.loc	6 743 15                @ ../Drivers/STM32F7xx_HAL_Driver/Src/stm32f7xx_hal_rtc.c:743:15
	strb.w	r12, [r1, #2]
	.loc	6 744 20                @ ../Drivers/STM32F7xx_HAL_Driver/Src/stm32f7xx_hal_rtc.c:744:20
	ubfx	r4, r0, #13, #3
	.loc	6 744 18 is_stmt 0      @ ../Drivers/STM32F7xx_HAL_Driver/Src/stm32f7xx_hal_rtc.c:744:18
	strb	r4, [r1]
	.loc	6 747 6 is_stmt 1       @ ../Drivers/STM32F7xx_HAL_Driver/Src/stm32f7xx_hal_rtc.c:747:6
	bne	.LBB11_2
.Ltmp143:
@ %bb.1:
	@DEBUG_VALUE: HAL_RTC_GetDate:Format <- $r2
	@DEBUG_VALUE: HAL_RTC_GetDate:sDate <- $r1
	.loc	6 1548 60               @ ../Drivers/STM32F7xx_HAL_Driver/Src/stm32f7xx_hal_rtc.c:1548:60
	movs	r4, #0
.Ltmp144:
	@DEBUG_VALUE: RTC_Bcd2ToByte:tmp <- 0
	.loc	6 0 60 is_stmt 0        @ ../Drivers/STM32F7xx_HAL_Driver/Src/stm32f7xx_hal_rtc.c:0:60
	lsrs	r2, r0, #8
.Ltmp145:
	.loc	6 1548 60               @ ../Drivers/STM32F7xx_HAL_Driver/Src/stm32f7xx_hal_rtc.c:1548:60
	sub.w	r3, r4, r3, lsr #4
	.loc	6 1549 24 is_stmt 1     @ ../Drivers/STM32F7xx_HAL_Driver/Src/stm32f7xx_hal_rtc.c:1549:24
	and	r2, r2, #15
	.loc	6 1548 60               @ ../Drivers/STM32F7xx_HAL_Driver/Src/stm32f7xx_hal_rtc.c:1548:60
	and	r3, r3, #10
	.loc	6 1549 15               @ ../Drivers/STM32F7xx_HAL_Driver/Src/stm32f7xx_hal_rtc.c:1549:15
	add	r2, r3
.Ltmp146:
	.loc	6 751 18                @ ../Drivers/STM32F7xx_HAL_Driver/Src/stm32f7xx_hal_rtc.c:751:18
	strb	r2, [r1, #1]
.Ltmp147:
	.loc	6 1548 43               @ ../Drivers/STM32F7xx_HAL_Driver/Src/stm32f7xx_hal_rtc.c:1548:43
	ubfx	r3, r0, #20, #4
	.loc	6 1549 24               @ ../Drivers/STM32F7xx_HAL_Driver/Src/stm32f7xx_hal_rtc.c:1549:24
	and	r2, lr, #15
.Ltmp148:
	@DEBUG_VALUE: RTC_Bcd2ToByte:tmp <- 0
	.loc	6 1549 24 is_stmt 0     @ ../Drivers/STM32F7xx_HAL_Driver/Src/stm32f7xx_hal_rtc.c:1549:24
	and	r0, r0, #15
.Ltmp149:
	.loc	6 1548 60 is_stmt 1     @ ../Drivers/STM32F7xx_HAL_Driver/Src/stm32f7xx_hal_rtc.c:1548:60
	add.w	r3, r3, r3, lsl #2
	.loc	6 1549 15               @ ../Drivers/STM32F7xx_HAL_Driver/Src/stm32f7xx_hal_rtc.c:1549:15
	add.w	r2, r2, r3, lsl #1
.Ltmp150:
	.loc	6 750 17                @ ../Drivers/STM32F7xx_HAL_Driver/Src/stm32f7xx_hal_rtc.c:750:17
	strb	r2, [r1, #3]
.Ltmp151:
	@DEBUG_VALUE: RTC_Bcd2ToByte:tmp <- 0
	.loc	6 1548 43               @ ../Drivers/STM32F7xx_HAL_Driver/Src/stm32f7xx_hal_rtc.c:1548:43
	ubfx	r2, r12, #4, #4
	.loc	6 1548 60 is_stmt 0     @ ../Drivers/STM32F7xx_HAL_Driver/Src/stm32f7xx_hal_rtc.c:1548:60
	add.w	r2, r2, r2, lsl #2
	.loc	6 1549 15 is_stmt 1     @ ../Drivers/STM32F7xx_HAL_Driver/Src/stm32f7xx_hal_rtc.c:1549:15
	add.w	r0, r0, r2, lsl #1
.Ltmp152:
	.loc	6 752 17                @ ../Drivers/STM32F7xx_HAL_Driver/Src/stm32f7xx_hal_rtc.c:752:17
	strb	r0, [r1, #2]
.Ltmp153:
.LBB11_2:
	@DEBUG_VALUE: HAL_RTC_GetDate:sDate <- $r1
	.loc	6 754 3                 @ ../Drivers/STM32F7xx_HAL_Driver/Src/stm32f7xx_hal_rtc.c:754:3
	movs	r0, #0
	pop	{r4, pc}
.Ltmp154:
.Lfunc_end11:
	.size	HAL_RTC_GetDate, .Lfunc_end11-HAL_RTC_GetDate
	.cfi_endproc
	.cantunwind
	.fnend
                                        @ -- End function
	.section	.text.HAL_RTC_SetAlarm,"ax",%progbits
	.hidden	HAL_RTC_SetAlarm        @ -- Begin function HAL_RTC_SetAlarm
	.globl	HAL_RTC_SetAlarm
	.p2align	2
	.type	HAL_RTC_SetAlarm,%function
	.code	16                      @ @HAL_RTC_SetAlarm
	.thumb_func
HAL_RTC_SetAlarm:
.Lfunc_begin12:
	.loc	6 786 0                 @ ../Drivers/STM32F7xx_HAL_Driver/Src/stm32f7xx_hal_rtc.c:786:0
	.fnstart
	.cfi_startproc
@ %bb.0:
	.save	{r4, r5, r6, r7, r8, r9, lr}
	.pad	#4
	push.w	{r3, r4, r5, r6, r7, r8, r9, lr}
	.cfi_def_cfa_offset 32
	.cfi_offset lr, -4
	.cfi_offset r9, -8
	.cfi_offset r8, -12
	.cfi_offset r7, -16
	.cfi_offset r6, -20
	.cfi_offset r5, -24
	.cfi_offset r4, -28
	@DEBUG_VALUE: HAL_RTC_SetAlarm:hrtc <- $r0
	@DEBUG_VALUE: HAL_RTC_SetAlarm:sAlarm <- $r1
	@DEBUG_VALUE: HAL_RTC_SetAlarm:Format <- $r2
	mov	r4, r0
.Ltmp155:
	@DEBUG_VALUE: HAL_RTC_SetAlarm:subsecondtmpreg <- 0
	@DEBUG_VALUE: HAL_RTC_SetAlarm:tmpreg <- 0
	@DEBUG_VALUE: HAL_RTC_SetAlarm:tickstart <- 0
	@DEBUG_VALUE: HAL_RTC_SetAlarm:Format <- $r2
	@DEBUG_VALUE: HAL_RTC_SetAlarm:sAlarm <- $r5
	@DEBUG_VALUE: HAL_RTC_SetAlarm:hrtc <- $r4
	.loc	6 799 3 prologue_end    @ ../Drivers/STM32F7xx_HAL_Driver/Src/stm32f7xx_hal_rtc.c:799:3
	ldrb	r0, [r0, #28]
	mov	r5, r1
.Ltmp156:
	.loc	6 0 3 is_stmt 0         @ ../Drivers/STM32F7xx_HAL_Driver/Src/stm32f7xx_hal_rtc.c:0:3
	movs	r1, #2
.Ltmp157:
	.loc	6 799 3                 @ ../Drivers/STM32F7xx_HAL_Driver/Src/stm32f7xx_hal_rtc.c:799:3
	cmp	r0, #1
	beq.w	.LBB12_22
.Ltmp158:
@ %bb.1:
	@DEBUG_VALUE: HAL_RTC_SetAlarm:hrtc <- $r4
	@DEBUG_VALUE: HAL_RTC_SetAlarm:Format <- $r2
	.loc	6 0 3                   @ ../Drivers/STM32F7xx_HAL_Driver/Src/stm32f7xx_hal_rtc.c:0:3
	movs	r0, #1
	.loc	6 801 15 is_stmt 1      @ ../Drivers/STM32F7xx_HAL_Driver/Src/stm32f7xx_hal_rtc.c:801:15
	strb	r1, [r4, #29]
	.loc	6 803 6                 @ ../Drivers/STM32F7xx_HAL_Driver/Src/stm32f7xx_hal_rtc.c:803:6
	cmp	r2, #0
.Ltmp159:
	.loc	6 799 3                 @ ../Drivers/STM32F7xx_HAL_Driver/Src/stm32f7xx_hal_rtc.c:799:3
	strb	r0, [r4, #28]
	ldr	r7, [r4]
	ldr	r0, [r7, #8]
	and	r0, r0, #64
.Ltmp160:
	.loc	6 803 6                 @ ../Drivers/STM32F7xx_HAL_Driver/Src/stm32f7xx_hal_rtc.c:803:6
	beq	.LBB12_4
.Ltmp161:
@ %bb.2:
	@DEBUG_VALUE: HAL_RTC_SetAlarm:hrtc <- $r4
	@DEBUG_VALUE: HAL_RTC_SetAlarm:Format <- $r2
	.loc	6 837 8                 @ ../Drivers/STM32F7xx_HAL_Driver/Src/stm32f7xx_hal_rtc.c:837:8
	cbz	r0, .LBB12_6
.Ltmp162:
@ %bb.3:
	@DEBUG_VALUE: HAL_RTC_SetAlarm:hrtc <- $r4
	@DEBUG_VALUE: HAL_RTC_SetAlarm:Format <- $r2
	ldrb	r0, [r5, #12]
	lsls	r1, r0, #16
	b	.LBB12_7
.Ltmp163:
.LBB12_4:
	@DEBUG_VALUE: HAL_RTC_SetAlarm:hrtc <- $r4
	@DEBUG_VALUE: HAL_RTC_SetAlarm:Format <- $r2
	.loc	6 805 8                 @ ../Drivers/STM32F7xx_HAL_Driver/Src/stm32f7xx_hal_rtc.c:805:8
	cbz	r0, .LBB12_8
.Ltmp164:
@ %bb.5:
	@DEBUG_VALUE: HAL_RTC_SetAlarm:hrtc <- $r4
	@DEBUG_VALUE: HAL_RTC_SetAlarm:Format <- $r2
	ldrb	r0, [r5, #12]
	lsl.w	r8, r0, #16
	b	.LBB12_9
.Ltmp165:
.LBB12_6:
	@DEBUG_VALUE: HAL_RTC_SetAlarm:hrtc <- $r4
	@DEBUG_VALUE: HAL_RTC_SetAlarm:Format <- $r2
	.loc	6 0 8 is_stmt 0         @ ../Drivers/STM32F7xx_HAL_Driver/Src/stm32f7xx_hal_rtc.c:0:8
	movs	r1, #0
.Ltmp166:
	.loc	6 845 36 is_stmt 1      @ ../Drivers/STM32F7xx_HAL_Driver/Src/stm32f7xx_hal_rtc.c:845:36
	strb	r1, [r5, #12]
.Ltmp167:
.LBB12_7:
	@DEBUG_VALUE: HAL_RTC_SetAlarm:hrtc <- $r4
	@DEBUG_VALUE: HAL_RTC_SetAlarm:Format <- $r2
	.loc	6 864 16                @ ../Drivers/STM32F7xx_HAL_Driver/Src/stm32f7xx_hal_rtc.c:864:16
	ldrb	r3, [r5, #1]
	.loc	6 863 16                @ ../Drivers/STM32F7xx_HAL_Driver/Src/stm32f7xx_hal_rtc.c:863:16
	ldrb	r2, [r5]
.Ltmp168:
	.loc	6 865 16                @ ../Drivers/STM32F7xx_HAL_Driver/Src/stm32f7xx_hal_rtc.c:865:16
	ldrb	r6, [r5, #2]
	.loc	6 867 35                @ ../Drivers/STM32F7xx_HAL_Driver/Src/stm32f7xx_hal_rtc.c:867:35
	ldrb.w	r0, [r5, #36]
	.loc	6 864 54                @ ../Drivers/STM32F7xx_HAL_Driver/Src/stm32f7xx_hal_rtc.c:864:54
	lsls	r3, r3, #8
	.loc	6 863 59                @ ../Drivers/STM32F7xx_HAL_Driver/Src/stm32f7xx_hal_rtc.c:863:59
	orr.w	r2, r3, r2, lsl #16
	.loc	6 864 60                @ ../Drivers/STM32F7xx_HAL_Driver/Src/stm32f7xx_hal_rtc.c:864:60
	orrs	r2, r6
	.loc	6 865 54                @ ../Drivers/STM32F7xx_HAL_Driver/Src/stm32f7xx_hal_rtc.c:865:54
	orr.w	r6, r2, r1
	b	.LBB12_10
.Ltmp169:
.LBB12_8:
	@DEBUG_VALUE: HAL_RTC_SetAlarm:hrtc <- $r4
	@DEBUG_VALUE: HAL_RTC_SetAlarm:Format <- $r2
	.loc	6 0 54 is_stmt 0        @ ../Drivers/STM32F7xx_HAL_Driver/Src/stm32f7xx_hal_rtc.c:0:54
	mov.w	r8, #0
.Ltmp170:
	.loc	6 812 36 is_stmt 1      @ ../Drivers/STM32F7xx_HAL_Driver/Src/stm32f7xx_hal_rtc.c:812:36
	strb.w	r8, [r5, #12]
.Ltmp171:
.LBB12_9:
	@DEBUG_VALUE: HAL_RTC_SetAlarm:hrtc <- $r4
	@DEBUG_VALUE: HAL_RTC_SetAlarm:Format <- $r2
	.loc	6 827 26                @ ../Drivers/STM32F7xx_HAL_Driver/Src/stm32f7xx_hal_rtc.c:827:26
	ldrb	r0, [r5]
	ldr.w	r9, __arm_cp.12_0
	blx	r9
.Ltmp172:
	mov	r6, r0
	.loc	6 828 26                @ ../Drivers/STM32F7xx_HAL_Driver/Src/stm32f7xx_hal_rtc.c:828:26
	ldrb	r0, [r5, #1]
	blx	r9
	.loc	6 828 68 is_stmt 0      @ ../Drivers/STM32F7xx_HAL_Driver/Src/stm32f7xx_hal_rtc.c:828:68
	lsls	r0, r0, #8
	.loc	6 827 73 is_stmt 1      @ ../Drivers/STM32F7xx_HAL_Driver/Src/stm32f7xx_hal_rtc.c:827:73
	orr.w	r6, r0, r6, lsl #16
	.loc	6 829 26                @ ../Drivers/STM32F7xx_HAL_Driver/Src/stm32f7xx_hal_rtc.c:829:26
	ldrb	r0, [r5, #2]
	blx	r9
	.loc	6 828 74                @ ../Drivers/STM32F7xx_HAL_Driver/Src/stm32f7xx_hal_rtc.c:828:74
	orrs	r0, r6
	.loc	6 829 69                @ ../Drivers/STM32F7xx_HAL_Driver/Src/stm32f7xx_hal_rtc.c:829:69
	orr.w	r6, r0, r8
	.loc	6 831 26                @ ../Drivers/STM32F7xx_HAL_Driver/Src/stm32f7xx_hal_rtc.c:831:26
	ldrb.w	r0, [r5, #36]
	blx	r9
.Ltmp173:
.LBB12_10:
	@DEBUG_VALUE: HAL_RTC_SetAlarm:hrtc <- $r4
	.loc	6 873 61                @ ../Drivers/STM32F7xx_HAL_Driver/Src/stm32f7xx_hal_rtc.c:873:61
	ldr.w	r8, [r5, #4]
	ldrd	r1, r9, [r5, #24]
	ldr	r2, [r5, #32]
.Ltmp174:
	.loc	6 876 3                 @ ../Drivers/STM32F7xx_HAL_Driver/Src/stm32f7xx_hal_rtc.c:876:3
	movs	r3, #202
	str	r3, [r7, #36]
	movs	r3, #83
	str	r3, [r7, #36]
	orrs	r2, r6
	orr.w	r0, r2, r0, lsl #24
	orr.w	r6, r0, r1
.Ltmp175:
	@DEBUG_VALUE: HAL_RTC_SetAlarm:tmpreg <- $r6
	.loc	6 879 14                @ ../Drivers/STM32F7xx_HAL_Driver/Src/stm32f7xx_hal_rtc.c:879:14
	ldr	r1, [r5, #40]
	ldr	r0, [r7, #8]
.Ltmp176:
	.loc	6 879 6 is_stmt 0       @ ../Drivers/STM32F7xx_HAL_Driver/Src/stm32f7xx_hal_rtc.c:879:6
	cmp.w	r1, #256
	bne	.LBB12_14
.Ltmp177:
@ %bb.11:
	@DEBUG_VALUE: HAL_RTC_SetAlarm:tmpreg <- $r6
	@DEBUG_VALUE: HAL_RTC_SetAlarm:hrtc <- $r4
	.loc	6 882 5 is_stmt 1       @ ../Drivers/STM32F7xx_HAL_Driver/Src/stm32f7xx_hal_rtc.c:882:5
	bic	r0, r0, #256
	str	r0, [r7, #8]
	.loc	6 885 5                 @ ../Drivers/STM32F7xx_HAL_Driver/Src/stm32f7xx_hal_rtc.c:885:5
	ldr	r0, [r7, #8]
	bic	r0, r0, #4096
	str	r0, [r7, #8]
	.loc	6 888 17                @ ../Drivers/STM32F7xx_HAL_Driver/Src/stm32f7xx_hal_rtc.c:888:17
	bl	HAL_GetTick
	mov	r5, r0
.Ltmp178:
	@DEBUG_VALUE: HAL_RTC_SetAlarm:tickstart <- $r5
.LBB12_12:                              @ =>This Inner Loop Header: Depth=1
	@DEBUG_VALUE: HAL_RTC_SetAlarm:tickstart <- $r5
	@DEBUG_VALUE: HAL_RTC_SetAlarm:tmpreg <- $r6
	@DEBUG_VALUE: HAL_RTC_SetAlarm:hrtc <- $r4
	.loc	6 891 11                @ ../Drivers/STM32F7xx_HAL_Driver/Src/stm32f7xx_hal_rtc.c:891:11
	ldr	r0, [r4]
	ldr	r1, [r0, #12]
	.loc	6 891 5 is_stmt 0       @ ../Drivers/STM32F7xx_HAL_Driver/Src/stm32f7xx_hal_rtc.c:891:5
	tst.w	r1, #1
	bne	.LBB12_18
.Ltmp179:
@ %bb.13:                               @   in Loop: Header=BB12_12 Depth=1
	@DEBUG_VALUE: HAL_RTC_SetAlarm:tickstart <- $r5
	@DEBUG_VALUE: HAL_RTC_SetAlarm:tmpreg <- $r6
	@DEBUG_VALUE: HAL_RTC_SetAlarm:hrtc <- $r4
	.loc	6 893 11 is_stmt 1      @ ../Drivers/STM32F7xx_HAL_Driver/Src/stm32f7xx_hal_rtc.c:893:11
	bl	HAL_GetTick
	.loc	6 893 25 is_stmt 0      @ ../Drivers/STM32F7xx_HAL_Driver/Src/stm32f7xx_hal_rtc.c:893:25
	subs	r0, r0, r5
.Ltmp180:
	.loc	6 893 10                @ ../Drivers/STM32F7xx_HAL_Driver/Src/stm32f7xx_hal_rtc.c:893:10
	cmp.w	r0, #1000
	bls	.LBB12_12
	b	.LBB12_17
.Ltmp181:
.LBB12_14:
	@DEBUG_VALUE: HAL_RTC_SetAlarm:tmpreg <- $r6
	@DEBUG_VALUE: HAL_RTC_SetAlarm:hrtc <- $r4
	.loc	6 916 5 is_stmt 1       @ ../Drivers/STM32F7xx_HAL_Driver/Src/stm32f7xx_hal_rtc.c:916:5
	bic	r0, r0, #512
	str	r0, [r7, #8]
	.loc	6 919 5                 @ ../Drivers/STM32F7xx_HAL_Driver/Src/stm32f7xx_hal_rtc.c:919:5
	ldr	r0, [r7, #8]
	bic	r0, r0, #8192
	str	r0, [r7, #8]
	.loc	6 922 17                @ ../Drivers/STM32F7xx_HAL_Driver/Src/stm32f7xx_hal_rtc.c:922:17
	bl	HAL_GetTick
	mov	r5, r0
.Ltmp182:
	@DEBUG_VALUE: HAL_RTC_SetAlarm:tickstart <- $r5
.LBB12_15:                              @ =>This Inner Loop Header: Depth=1
	@DEBUG_VALUE: HAL_RTC_SetAlarm:tickstart <- $r5
	@DEBUG_VALUE: HAL_RTC_SetAlarm:tmpreg <- $r6
	@DEBUG_VALUE: HAL_RTC_SetAlarm:hrtc <- $r4
	.loc	6 925 11                @ ../Drivers/STM32F7xx_HAL_Driver/Src/stm32f7xx_hal_rtc.c:925:11
	ldr	r0, [r4]
	ldr	r1, [r0, #12]
	.loc	6 925 5 is_stmt 0       @ ../Drivers/STM32F7xx_HAL_Driver/Src/stm32f7xx_hal_rtc.c:925:5
	tst.w	r1, #2
	bne	.LBB12_19
.Ltmp183:
@ %bb.16:                               @   in Loop: Header=BB12_15 Depth=1
	@DEBUG_VALUE: HAL_RTC_SetAlarm:tickstart <- $r5
	@DEBUG_VALUE: HAL_RTC_SetAlarm:tmpreg <- $r6
	@DEBUG_VALUE: HAL_RTC_SetAlarm:hrtc <- $r4
	.loc	6 927 11 is_stmt 1      @ ../Drivers/STM32F7xx_HAL_Driver/Src/stm32f7xx_hal_rtc.c:927:11
	bl	HAL_GetTick
	.loc	6 927 25 is_stmt 0      @ ../Drivers/STM32F7xx_HAL_Driver/Src/stm32f7xx_hal_rtc.c:927:25
	subs	r0, r0, r5
.Ltmp184:
	.loc	6 927 10                @ ../Drivers/STM32F7xx_HAL_Driver/Src/stm32f7xx_hal_rtc.c:927:10
	cmp.w	r0, #1000
	bls	.LBB12_15
.Ltmp185:
.LBB12_17:
	@DEBUG_VALUE: HAL_RTC_SetAlarm:tickstart <- $r5
	@DEBUG_VALUE: HAL_RTC_SetAlarm:tmpreg <- $r6
	@DEBUG_VALUE: HAL_RTC_SetAlarm:hrtc <- $r4
	.loc	6 0 10                  @ ../Drivers/STM32F7xx_HAL_Driver/Src/stm32f7xx_hal_rtc.c:0:10
	ldr	r0, [r4]
	movs	r2, #3
	movs	r1, #3
	b	.LBB12_21
.Ltmp186:
.LBB12_18:
	@DEBUG_VALUE: HAL_RTC_SetAlarm:tickstart <- $r5
	@DEBUG_VALUE: HAL_RTC_SetAlarm:tmpreg <- $r6
	@DEBUG_VALUE: HAL_RTC_SetAlarm:hrtc <- $r4
	.loc	6 907 28 is_stmt 1      @ ../Drivers/STM32F7xx_HAL_Driver/Src/stm32f7xx_hal_rtc.c:907:28
	str	r6, [r0, #28]
	.loc	6 909 21                @ ../Drivers/STM32F7xx_HAL_Driver/Src/stm32f7xx_hal_rtc.c:909:21
	add.w	r1, r0, #68
	mov.w	r2, #256
	b	.LBB12_20
.Ltmp187:
.LBB12_19:
	@DEBUG_VALUE: HAL_RTC_SetAlarm:tickstart <- $r5
	@DEBUG_VALUE: HAL_RTC_SetAlarm:tmpreg <- $r6
	@DEBUG_VALUE: HAL_RTC_SetAlarm:hrtc <- $r4
	.loc	6 943 21                @ ../Drivers/STM32F7xx_HAL_Driver/Src/stm32f7xx_hal_rtc.c:943:21
	add.w	r1, r0, #72
	mov.w	r2, #512
	.loc	6 941 28                @ ../Drivers/STM32F7xx_HAL_Driver/Src/stm32f7xx_hal_rtc.c:941:28
	str	r6, [r0, #32]
.Ltmp188:
.LBB12_20:
	@DEBUG_VALUE: HAL_RTC_SetAlarm:tickstart <- $r5
	@DEBUG_VALUE: HAL_RTC_SetAlarm:tmpreg <- $r6
	@DEBUG_VALUE: HAL_RTC_SetAlarm:hrtc <- $r4
	.loc	6 0 28 is_stmt 0        @ ../Drivers/STM32F7xx_HAL_Driver/Src/stm32f7xx_hal_rtc.c:0:28
	orr.w	r3, r9, r8
.Ltmp189:
	@DEBUG_VALUE: HAL_RTC_SetAlarm:subsecondtmpreg <- $r3
	str	r3, [r1]
	ldr	r1, [r0, #8]
	orrs	r1, r2
	movs	r2, #1
	str	r1, [r0, #8]
	movs	r1, #0
.Ltmp190:
.LBB12_21:
	@DEBUG_VALUE: HAL_RTC_SetAlarm:tickstart <- $r5
	@DEBUG_VALUE: HAL_RTC_SetAlarm:tmpreg <- $r6
	@DEBUG_VALUE: HAL_RTC_SetAlarm:hrtc <- $r4
	movs	r3, #255
	str	r3, [r0, #36]
	movs	r0, #0
	strb	r0, [r4, #28]
	strb	r2, [r4, #29]
.Ltmp191:
.LBB12_22:
	@DEBUG_VALUE: HAL_RTC_SetAlarm:hrtc <- $r4
	.loc	6 958 1 is_stmt 1       @ ../Drivers/STM32F7xx_HAL_Driver/Src/stm32f7xx_hal_rtc.c:958:1
	uxtb	r0, r1
	add	sp, #4
	pop.w	{r4, r5, r6, r7, r8, r9, pc}
.Ltmp192:
	.p2align	2
@ %bb.23:
	.loc	6 0 1 is_stmt 0         @ ../Drivers/STM32F7xx_HAL_Driver/Src/stm32f7xx_hal_rtc.c:0:1
__arm_cp.12_0:
	.long	RTC_ByteToBcd2
.Lcpi_end6:
	.size	__arm_cp.12_0, .Lcpi_end6-__arm_cp.12_0
.Lfunc_end12:
	.size	HAL_RTC_SetAlarm, .Lfunc_end12-HAL_RTC_SetAlarm
	.cfi_endproc
	.cantunwind
	.fnend
                                        @ -- End function
	.section	.text.HAL_RTC_SetAlarm_IT,"ax",%progbits
	.hidden	HAL_RTC_SetAlarm_IT     @ -- Begin function HAL_RTC_SetAlarm_IT
	.globl	HAL_RTC_SetAlarm_IT
	.p2align	2
	.type	HAL_RTC_SetAlarm_IT,%function
	.code	16                      @ @HAL_RTC_SetAlarm_IT
	.thumb_func
HAL_RTC_SetAlarm_IT:
.Lfunc_begin13:
	.loc	6 975 0 is_stmt 1       @ ../Drivers/STM32F7xx_HAL_Driver/Src/stm32f7xx_hal_rtc.c:975:0
	.fnstart
	.cfi_startproc
@ %bb.0:
	.save	{r4, r5, r6, r7, r8, r9, lr}
	.pad	#4
	push.w	{r3, r4, r5, r6, r7, r8, r9, lr}
	.cfi_def_cfa_offset 32
	.cfi_offset lr, -4
	.cfi_offset r9, -8
	.cfi_offset r8, -12
	.cfi_offset r7, -16
	.cfi_offset r6, -20
	.cfi_offset r5, -24
	.cfi_offset r4, -28
	@DEBUG_VALUE: HAL_RTC_SetAlarm_IT:hrtc <- $r0
	@DEBUG_VALUE: HAL_RTC_SetAlarm_IT:sAlarm <- $r1
	@DEBUG_VALUE: HAL_RTC_SetAlarm_IT:Format <- $r2
	mov	r4, r0
.Ltmp193:
	@DEBUG_VALUE: HAL_RTC_SetAlarm_IT:subsecondtmpreg <- 0
	@DEBUG_VALUE: HAL_RTC_SetAlarm_IT:tmpreg <- 0
	@DEBUG_VALUE: HAL_RTC_SetAlarm_IT:tickstart <- 0
	@DEBUG_VALUE: HAL_RTC_SetAlarm_IT:Format <- $r2
	@DEBUG_VALUE: HAL_RTC_SetAlarm_IT:sAlarm <- $r5
	@DEBUG_VALUE: HAL_RTC_SetAlarm_IT:hrtc <- $r4
	.loc	6 988 3 prologue_end    @ ../Drivers/STM32F7xx_HAL_Driver/Src/stm32f7xx_hal_rtc.c:988:3
	ldrb	r0, [r0, #28]
	mov	r5, r1
.Ltmp194:
	.loc	6 0 3 is_stmt 0         @ ../Drivers/STM32F7xx_HAL_Driver/Src/stm32f7xx_hal_rtc.c:0:3
	movs	r1, #2
.Ltmp195:
	.loc	6 988 3                 @ ../Drivers/STM32F7xx_HAL_Driver/Src/stm32f7xx_hal_rtc.c:988:3
	cmp	r0, #1
	beq.w	.LBB13_22
.Ltmp196:
@ %bb.1:
	@DEBUG_VALUE: HAL_RTC_SetAlarm_IT:hrtc <- $r4
	@DEBUG_VALUE: HAL_RTC_SetAlarm_IT:Format <- $r2
	.loc	6 0 3                   @ ../Drivers/STM32F7xx_HAL_Driver/Src/stm32f7xx_hal_rtc.c:0:3
	movs	r0, #1
	.loc	6 990 15 is_stmt 1      @ ../Drivers/STM32F7xx_HAL_Driver/Src/stm32f7xx_hal_rtc.c:990:15
	strb	r1, [r4, #29]
	.loc	6 992 6                 @ ../Drivers/STM32F7xx_HAL_Driver/Src/stm32f7xx_hal_rtc.c:992:6
	cmp	r2, #0
.Ltmp197:
	.loc	6 988 3                 @ ../Drivers/STM32F7xx_HAL_Driver/Src/stm32f7xx_hal_rtc.c:988:3
	strb	r0, [r4, #28]
	ldr	r7, [r4]
	ldr	r0, [r7, #8]
	and	r0, r0, #64
.Ltmp198:
	.loc	6 992 6                 @ ../Drivers/STM32F7xx_HAL_Driver/Src/stm32f7xx_hal_rtc.c:992:6
	beq	.LBB13_4
.Ltmp199:
@ %bb.2:
	@DEBUG_VALUE: HAL_RTC_SetAlarm_IT:hrtc <- $r4
	@DEBUG_VALUE: HAL_RTC_SetAlarm_IT:Format <- $r2
	.loc	6 1025 8                @ ../Drivers/STM32F7xx_HAL_Driver/Src/stm32f7xx_hal_rtc.c:1025:8
	cbz	r0, .LBB13_6
.Ltmp200:
@ %bb.3:
	@DEBUG_VALUE: HAL_RTC_SetAlarm_IT:hrtc <- $r4
	@DEBUG_VALUE: HAL_RTC_SetAlarm_IT:Format <- $r2
	ldrb	r0, [r5, #12]
	lsls	r1, r0, #16
	b	.LBB13_7
.Ltmp201:
.LBB13_4:
	@DEBUG_VALUE: HAL_RTC_SetAlarm_IT:hrtc <- $r4
	@DEBUG_VALUE: HAL_RTC_SetAlarm_IT:Format <- $r2
	.loc	6 994 8                 @ ../Drivers/STM32F7xx_HAL_Driver/Src/stm32f7xx_hal_rtc.c:994:8
	cbz	r0, .LBB13_8
.Ltmp202:
@ %bb.5:
	@DEBUG_VALUE: HAL_RTC_SetAlarm_IT:hrtc <- $r4
	@DEBUG_VALUE: HAL_RTC_SetAlarm_IT:Format <- $r2
	ldrb	r0, [r5, #12]
	lsl.w	r8, r0, #16
	b	.LBB13_9
.Ltmp203:
.LBB13_6:
	@DEBUG_VALUE: HAL_RTC_SetAlarm_IT:hrtc <- $r4
	@DEBUG_VALUE: HAL_RTC_SetAlarm_IT:Format <- $r2
	.loc	6 0 8 is_stmt 0         @ ../Drivers/STM32F7xx_HAL_Driver/Src/stm32f7xx_hal_rtc.c:0:8
	movs	r1, #0
.Ltmp204:
	.loc	6 1033 36 is_stmt 1     @ ../Drivers/STM32F7xx_HAL_Driver/Src/stm32f7xx_hal_rtc.c:1033:36
	strb	r1, [r5, #12]
.Ltmp205:
.LBB13_7:
	@DEBUG_VALUE: HAL_RTC_SetAlarm_IT:hrtc <- $r4
	@DEBUG_VALUE: HAL_RTC_SetAlarm_IT:Format <- $r2
	.loc	6 1051 16               @ ../Drivers/STM32F7xx_HAL_Driver/Src/stm32f7xx_hal_rtc.c:1051:16
	ldrb	r3, [r5, #1]
	.loc	6 1050 16               @ ../Drivers/STM32F7xx_HAL_Driver/Src/stm32f7xx_hal_rtc.c:1050:16
	ldrb	r2, [r5]
.Ltmp206:
	.loc	6 1052 16               @ ../Drivers/STM32F7xx_HAL_Driver/Src/stm32f7xx_hal_rtc.c:1052:16
	ldrb	r6, [r5, #2]
	.loc	6 1054 35               @ ../Drivers/STM32F7xx_HAL_Driver/Src/stm32f7xx_hal_rtc.c:1054:35
	ldrb.w	r0, [r5, #36]
	.loc	6 1051 54               @ ../Drivers/STM32F7xx_HAL_Driver/Src/stm32f7xx_hal_rtc.c:1051:54
	lsls	r3, r3, #8
	.loc	6 1050 59               @ ../Drivers/STM32F7xx_HAL_Driver/Src/stm32f7xx_hal_rtc.c:1050:59
	orr.w	r2, r3, r2, lsl #16
	.loc	6 1051 60               @ ../Drivers/STM32F7xx_HAL_Driver/Src/stm32f7xx_hal_rtc.c:1051:60
	orrs	r2, r6
	.loc	6 1052 54               @ ../Drivers/STM32F7xx_HAL_Driver/Src/stm32f7xx_hal_rtc.c:1052:54
	orr.w	r6, r2, r1
	b	.LBB13_10
.Ltmp207:
.LBB13_8:
	@DEBUG_VALUE: HAL_RTC_SetAlarm_IT:hrtc <- $r4
	@DEBUG_VALUE: HAL_RTC_SetAlarm_IT:Format <- $r2
	.loc	6 0 54 is_stmt 0        @ ../Drivers/STM32F7xx_HAL_Driver/Src/stm32f7xx_hal_rtc.c:0:54
	mov.w	r8, #0
.Ltmp208:
	.loc	6 1001 36 is_stmt 1     @ ../Drivers/STM32F7xx_HAL_Driver/Src/stm32f7xx_hal_rtc.c:1001:36
	strb.w	r8, [r5, #12]
.Ltmp209:
.LBB13_9:
	@DEBUG_VALUE: HAL_RTC_SetAlarm_IT:hrtc <- $r4
	@DEBUG_VALUE: HAL_RTC_SetAlarm_IT:Format <- $r2
	.loc	6 1015 26               @ ../Drivers/STM32F7xx_HAL_Driver/Src/stm32f7xx_hal_rtc.c:1015:26
	ldrb	r0, [r5]
	ldr.w	r9, __arm_cp.13_0
	blx	r9
.Ltmp210:
	mov	r6, r0
	.loc	6 1016 26               @ ../Drivers/STM32F7xx_HAL_Driver/Src/stm32f7xx_hal_rtc.c:1016:26
	ldrb	r0, [r5, #1]
	blx	r9
	.loc	6 1016 68 is_stmt 0     @ ../Drivers/STM32F7xx_HAL_Driver/Src/stm32f7xx_hal_rtc.c:1016:68
	lsls	r0, r0, #8
	.loc	6 1015 73 is_stmt 1     @ ../Drivers/STM32F7xx_HAL_Driver/Src/stm32f7xx_hal_rtc.c:1015:73
	orr.w	r6, r0, r6, lsl #16
	.loc	6 1017 26               @ ../Drivers/STM32F7xx_HAL_Driver/Src/stm32f7xx_hal_rtc.c:1017:26
	ldrb	r0, [r5, #2]
	blx	r9
	.loc	6 1016 74               @ ../Drivers/STM32F7xx_HAL_Driver/Src/stm32f7xx_hal_rtc.c:1016:74
	orrs	r0, r6
	.loc	6 1017 69               @ ../Drivers/STM32F7xx_HAL_Driver/Src/stm32f7xx_hal_rtc.c:1017:69
	orr.w	r6, r0, r8
	.loc	6 1019 26               @ ../Drivers/STM32F7xx_HAL_Driver/Src/stm32f7xx_hal_rtc.c:1019:26
	ldrb.w	r0, [r5, #36]
	blx	r9
.Ltmp211:
.LBB13_10:
	@DEBUG_VALUE: HAL_RTC_SetAlarm_IT:hrtc <- $r4
	.loc	6 1059 61               @ ../Drivers/STM32F7xx_HAL_Driver/Src/stm32f7xx_hal_rtc.c:1059:61
	ldr.w	r8, [r5, #4]
	ldrd	r1, r9, [r5, #24]
	ldr	r2, [r5, #32]
.Ltmp212:
	.loc	6 1062 3                @ ../Drivers/STM32F7xx_HAL_Driver/Src/stm32f7xx_hal_rtc.c:1062:3
	movs	r3, #202
	str	r3, [r7, #36]
	movs	r3, #83
	str	r3, [r7, #36]
	orrs	r2, r6
	orr.w	r0, r2, r0, lsl #24
	orr.w	r6, r0, r1
.Ltmp213:
	@DEBUG_VALUE: HAL_RTC_SetAlarm_IT:tmpreg <- $r6
	.loc	6 1065 14               @ ../Drivers/STM32F7xx_HAL_Driver/Src/stm32f7xx_hal_rtc.c:1065:14
	ldr	r1, [r5, #40]
	ldr	r0, [r7, #8]
.Ltmp214:
	.loc	6 1065 6 is_stmt 0      @ ../Drivers/STM32F7xx_HAL_Driver/Src/stm32f7xx_hal_rtc.c:1065:6
	cmp.w	r1, #256
	bne	.LBB13_14
.Ltmp215:
@ %bb.11:
	@DEBUG_VALUE: HAL_RTC_SetAlarm_IT:tmpreg <- $r6
	@DEBUG_VALUE: HAL_RTC_SetAlarm_IT:hrtc <- $r4
	.loc	6 1068 5 is_stmt 1      @ ../Drivers/STM32F7xx_HAL_Driver/Src/stm32f7xx_hal_rtc.c:1068:5
	bic	r0, r0, #256
	str	r0, [r7, #8]
	.loc	6 1071 5                @ ../Drivers/STM32F7xx_HAL_Driver/Src/stm32f7xx_hal_rtc.c:1071:5
	ldr	r0, [r7, #12]
	and	r0, r0, #128
	orn	r0, r0, #384
	str	r0, [r7, #12]
	.loc	6 1074 17               @ ../Drivers/STM32F7xx_HAL_Driver/Src/stm32f7xx_hal_rtc.c:1074:17
	bl	HAL_GetTick
	mov	r5, r0
.Ltmp216:
	@DEBUG_VALUE: HAL_RTC_SetAlarm_IT:tickstart <- $r5
.LBB13_12:                              @ =>This Inner Loop Header: Depth=1
	@DEBUG_VALUE: HAL_RTC_SetAlarm_IT:tickstart <- $r5
	@DEBUG_VALUE: HAL_RTC_SetAlarm_IT:tmpreg <- $r6
	@DEBUG_VALUE: HAL_RTC_SetAlarm_IT:hrtc <- $r4
	.loc	6 1077 11               @ ../Drivers/STM32F7xx_HAL_Driver/Src/stm32f7xx_hal_rtc.c:1077:11
	ldr	r0, [r4]
	ldr	r1, [r0, #12]
	.loc	6 1077 5 is_stmt 0      @ ../Drivers/STM32F7xx_HAL_Driver/Src/stm32f7xx_hal_rtc.c:1077:5
	tst.w	r1, #1
	bne	.LBB13_18
.Ltmp217:
@ %bb.13:                               @   in Loop: Header=BB13_12 Depth=1
	@DEBUG_VALUE: HAL_RTC_SetAlarm_IT:tickstart <- $r5
	@DEBUG_VALUE: HAL_RTC_SetAlarm_IT:tmpreg <- $r6
	@DEBUG_VALUE: HAL_RTC_SetAlarm_IT:hrtc <- $r4
	.loc	6 1079 11 is_stmt 1     @ ../Drivers/STM32F7xx_HAL_Driver/Src/stm32f7xx_hal_rtc.c:1079:11
	bl	HAL_GetTick
	.loc	6 1079 25 is_stmt 0     @ ../Drivers/STM32F7xx_HAL_Driver/Src/stm32f7xx_hal_rtc.c:1079:25
	subs	r0, r0, r5
.Ltmp218:
	.loc	6 1079 10               @ ../Drivers/STM32F7xx_HAL_Driver/Src/stm32f7xx_hal_rtc.c:1079:10
	cmp.w	r0, #1000
	bls	.LBB13_12
	b	.LBB13_17
.Ltmp219:
.LBB13_14:
	@DEBUG_VALUE: HAL_RTC_SetAlarm_IT:tmpreg <- $r6
	@DEBUG_VALUE: HAL_RTC_SetAlarm_IT:hrtc <- $r4
	.loc	6 1104 5 is_stmt 1      @ ../Drivers/STM32F7xx_HAL_Driver/Src/stm32f7xx_hal_rtc.c:1104:5
	bic	r0, r0, #512
	str	r0, [r7, #8]
	.loc	6 1107 5                @ ../Drivers/STM32F7xx_HAL_Driver/Src/stm32f7xx_hal_rtc.c:1107:5
	ldr	r0, [r7, #12]
	and	r0, r0, #128
	orn	r0, r0, #640
	str	r0, [r7, #12]
	.loc	6 1110 17               @ ../Drivers/STM32F7xx_HAL_Driver/Src/stm32f7xx_hal_rtc.c:1110:17
	bl	HAL_GetTick
	mov	r5, r0
.Ltmp220:
	@DEBUG_VALUE: HAL_RTC_SetAlarm_IT:tickstart <- $r5
.LBB13_15:                              @ =>This Inner Loop Header: Depth=1
	@DEBUG_VALUE: HAL_RTC_SetAlarm_IT:tickstart <- $r5
	@DEBUG_VALUE: HAL_RTC_SetAlarm_IT:tmpreg <- $r6
	@DEBUG_VALUE: HAL_RTC_SetAlarm_IT:hrtc <- $r4
	.loc	6 1113 11               @ ../Drivers/STM32F7xx_HAL_Driver/Src/stm32f7xx_hal_rtc.c:1113:11
	ldr	r0, [r4]
	ldr	r1, [r0, #12]
	.loc	6 1113 5 is_stmt 0      @ ../Drivers/STM32F7xx_HAL_Driver/Src/stm32f7xx_hal_rtc.c:1113:5
	tst.w	r1, #2
	bne	.LBB13_19
.Ltmp221:
@ %bb.16:                               @   in Loop: Header=BB13_15 Depth=1
	@DEBUG_VALUE: HAL_RTC_SetAlarm_IT:tickstart <- $r5
	@DEBUG_VALUE: HAL_RTC_SetAlarm_IT:tmpreg <- $r6
	@DEBUG_VALUE: HAL_RTC_SetAlarm_IT:hrtc <- $r4
	.loc	6 1115 11 is_stmt 1     @ ../Drivers/STM32F7xx_HAL_Driver/Src/stm32f7xx_hal_rtc.c:1115:11
	bl	HAL_GetTick
	.loc	6 1115 25 is_stmt 0     @ ../Drivers/STM32F7xx_HAL_Driver/Src/stm32f7xx_hal_rtc.c:1115:25
	subs	r0, r0, r5
.Ltmp222:
	.loc	6 1115 10               @ ../Drivers/STM32F7xx_HAL_Driver/Src/stm32f7xx_hal_rtc.c:1115:10
	cmp.w	r0, #1000
	bls	.LBB13_15
.Ltmp223:
.LBB13_17:
	@DEBUG_VALUE: HAL_RTC_SetAlarm_IT:tickstart <- $r5
	@DEBUG_VALUE: HAL_RTC_SetAlarm_IT:tmpreg <- $r6
	@DEBUG_VALUE: HAL_RTC_SetAlarm_IT:hrtc <- $r4
	.loc	6 0 10                  @ ../Drivers/STM32F7xx_HAL_Driver/Src/stm32f7xx_hal_rtc.c:0:10
	ldr	r0, [r4]
	movs	r2, #3
	movs	r1, #3
	b	.LBB13_21
.Ltmp224:
.LBB13_18:
	@DEBUG_VALUE: HAL_RTC_SetAlarm_IT:tickstart <- $r5
	@DEBUG_VALUE: HAL_RTC_SetAlarm_IT:tmpreg <- $r6
	@DEBUG_VALUE: HAL_RTC_SetAlarm_IT:hrtc <- $r4
	.loc	6 1093 28 is_stmt 1     @ ../Drivers/STM32F7xx_HAL_Driver/Src/stm32f7xx_hal_rtc.c:1093:28
	str	r6, [r0, #28]
	.loc	6 1095 21               @ ../Drivers/STM32F7xx_HAL_Driver/Src/stm32f7xx_hal_rtc.c:1095:21
	add.w	r2, r0, #68
	mov.w	r1, #4096
	mov.w	r3, #256
	b	.LBB13_20
.Ltmp225:
.LBB13_19:
	@DEBUG_VALUE: HAL_RTC_SetAlarm_IT:tickstart <- $r5
	@DEBUG_VALUE: HAL_RTC_SetAlarm_IT:tmpreg <- $r6
	@DEBUG_VALUE: HAL_RTC_SetAlarm_IT:hrtc <- $r4
	.loc	6 1131 21               @ ../Drivers/STM32F7xx_HAL_Driver/Src/stm32f7xx_hal_rtc.c:1131:21
	add.w	r2, r0, #72
	mov.w	r1, #8192
	mov.w	r3, #512
	.loc	6 1129 28               @ ../Drivers/STM32F7xx_HAL_Driver/Src/stm32f7xx_hal_rtc.c:1129:28
	str	r6, [r0, #32]
.Ltmp226:
.LBB13_20:
	@DEBUG_VALUE: HAL_RTC_SetAlarm_IT:tickstart <- $r5
	@DEBUG_VALUE: HAL_RTC_SetAlarm_IT:tmpreg <- $r6
	@DEBUG_VALUE: HAL_RTC_SetAlarm_IT:hrtc <- $r4
	.loc	6 0 28 is_stmt 0        @ ../Drivers/STM32F7xx_HAL_Driver/Src/stm32f7xx_hal_rtc.c:0:28
	orr.w	r7, r9, r8
.Ltmp227:
	@DEBUG_VALUE: HAL_RTC_SetAlarm_IT:subsecondtmpreg <- $r7
	str	r7, [r2]
	ldr	r2, [r0, #8]
	orrs	r2, r3
	str	r2, [r0, #8]
	ldr	r2, [r0, #8]
	orrs	r1, r2
	str	r1, [r0, #8]
	ldr	r1, __arm_cp.13_1
	.loc	6 1139 3 is_stmt 1      @ ../Drivers/STM32F7xx_HAL_Driver/Src/stm32f7xx_hal_rtc.c:1139:3
	ldr	r2, [r1]
	orr	r2, r2, #131072
	str	r2, [r1]
	.loc	6 1141 14               @ ../Drivers/STM32F7xx_HAL_Driver/Src/stm32f7xx_hal_rtc.c:1141:14
	ldr	r2, [r1, #8]
	orr	r2, r2, #131072
	str	r2, [r1, #8]
	movs	r1, #0
	movs	r2, #1
.Ltmp228:
.LBB13_21:
	@DEBUG_VALUE: HAL_RTC_SetAlarm_IT:tickstart <- $r5
	@DEBUG_VALUE: HAL_RTC_SetAlarm_IT:tmpreg <- $r6
	@DEBUG_VALUE: HAL_RTC_SetAlarm_IT:hrtc <- $r4
	.loc	6 0 14 is_stmt 0        @ ../Drivers/STM32F7xx_HAL_Driver/Src/stm32f7xx_hal_rtc.c:0:14
	movs	r3, #255
	str	r3, [r0, #36]
	movs	r0, #0
	strb	r0, [r4, #28]
	strb	r2, [r4, #29]
.Ltmp229:
.LBB13_22:
	@DEBUG_VALUE: HAL_RTC_SetAlarm_IT:hrtc <- $r4
	.loc	6 1152 1 is_stmt 1      @ ../Drivers/STM32F7xx_HAL_Driver/Src/stm32f7xx_hal_rtc.c:1152:1
	uxtb	r0, r1
	add	sp, #4
	pop.w	{r4, r5, r6, r7, r8, r9, pc}
.Ltmp230:
	.p2align	2
@ %bb.23:
	.loc	6 0 1 is_stmt 0         @ ../Drivers/STM32F7xx_HAL_Driver/Src/stm32f7xx_hal_rtc.c:0:1
__arm_cp.13_0:
	.long	RTC_ByteToBcd2
.Lcpi_end7:
	.size	__arm_cp.13_0, .Lcpi_end7-__arm_cp.13_0
__arm_cp.13_1:
	.long	1073822720              @ 0x40013c00
.Lcpi_end8:
	.size	__arm_cp.13_1, .Lcpi_end8-__arm_cp.13_1
.Lfunc_end13:
	.size	HAL_RTC_SetAlarm_IT, .Lfunc_end13-HAL_RTC_SetAlarm_IT
	.cfi_endproc
	.cantunwind
	.fnend
                                        @ -- End function
	.section	.text.HAL_RTC_DeactivateAlarm,"ax",%progbits
	.hidden	HAL_RTC_DeactivateAlarm @ -- Begin function HAL_RTC_DeactivateAlarm
	.globl	HAL_RTC_DeactivateAlarm
	.p2align	1
	.type	HAL_RTC_DeactivateAlarm,%function
	.code	16                      @ @HAL_RTC_DeactivateAlarm
	.thumb_func
HAL_RTC_DeactivateAlarm:
.Lfunc_begin14:
	.loc	6 1165 0 is_stmt 1      @ ../Drivers/STM32F7xx_HAL_Driver/Src/stm32f7xx_hal_rtc.c:1165:0
	.fnstart
	.cfi_startproc
@ %bb.0:
	.save	{r4, r5, r7, lr}
	push	{r4, r5, r7, lr}
	.cfi_def_cfa_offset 16
	.cfi_offset lr, -4
	.cfi_offset r7, -8
	.cfi_offset r5, -12
	.cfi_offset r4, -16
	@DEBUG_VALUE: HAL_RTC_DeactivateAlarm:hrtc <- $r0
	@DEBUG_VALUE: HAL_RTC_DeactivateAlarm:Alarm <- $r1
	mov	r4, r0
.Ltmp231:
	@DEBUG_VALUE: HAL_RTC_DeactivateAlarm:tickstart <- 0
	@DEBUG_VALUE: HAL_RTC_DeactivateAlarm:Alarm <- $r1
	@DEBUG_VALUE: HAL_RTC_DeactivateAlarm:hrtc <- $r4
	.loc	6 1172 3 prologue_end   @ ../Drivers/STM32F7xx_HAL_Driver/Src/stm32f7xx_hal_rtc.c:1172:3
	ldrb	r0, [r0, #28]
	movs	r2, #2
.Ltmp232:
	.loc	6 1172 3 is_stmt 0      @ ../Drivers/STM32F7xx_HAL_Driver/Src/stm32f7xx_hal_rtc.c:1172:3
	cmp	r0, #1
	beq	.LBB14_11
.Ltmp233:
@ %bb.1:
	@DEBUG_VALUE: HAL_RTC_DeactivateAlarm:hrtc <- $r4
	@DEBUG_VALUE: HAL_RTC_DeactivateAlarm:Alarm <- $r1
	.loc	6 0 3                   @ ../Drivers/STM32F7xx_HAL_Driver/Src/stm32f7xx_hal_rtc.c:0:3
	movs	r0, #1
	.loc	6 1174 15 is_stmt 1     @ ../Drivers/STM32F7xx_HAL_Driver/Src/stm32f7xx_hal_rtc.c:1174:15
	strb	r2, [r4, #29]
.Ltmp234:
	.loc	6 1177 3                @ ../Drivers/STM32F7xx_HAL_Driver/Src/stm32f7xx_hal_rtc.c:1177:3
	movs	r2, #202
.Ltmp235:
	.loc	6 1179 6                @ ../Drivers/STM32F7xx_HAL_Driver/Src/stm32f7xx_hal_rtc.c:1179:6
	cmp.w	r1, #256
.Ltmp236:
	.loc	6 1172 3                @ ../Drivers/STM32F7xx_HAL_Driver/Src/stm32f7xx_hal_rtc.c:1172:3
	strb	r0, [r4, #28]
.Ltmp237:
	.loc	6 1177 3                @ ../Drivers/STM32F7xx_HAL_Driver/Src/stm32f7xx_hal_rtc.c:1177:3
	ldr	r0, [r4]
	str	r2, [r0, #36]
	mov.w	r2, #83
	str	r2, [r0, #36]
	ldr	r2, [r0, #8]
.Ltmp238:
	.loc	6 1179 6                @ ../Drivers/STM32F7xx_HAL_Driver/Src/stm32f7xx_hal_rtc.c:1179:6
	bne	.LBB14_5
.Ltmp239:
@ %bb.2:
	@DEBUG_VALUE: HAL_RTC_DeactivateAlarm:hrtc <- $r4
	@DEBUG_VALUE: HAL_RTC_DeactivateAlarm:Alarm <- $r1
	.loc	6 1182 5                @ ../Drivers/STM32F7xx_HAL_Driver/Src/stm32f7xx_hal_rtc.c:1182:5
	bic	r1, r2, #256
.Ltmp240:
	str	r1, [r0, #8]
	.loc	6 1185 5                @ ../Drivers/STM32F7xx_HAL_Driver/Src/stm32f7xx_hal_rtc.c:1185:5
	ldr	r1, [r0, #8]
	bic	r1, r1, #4096
	str	r1, [r0, #8]
	.loc	6 1188 17               @ ../Drivers/STM32F7xx_HAL_Driver/Src/stm32f7xx_hal_rtc.c:1188:17
	bl	HAL_GetTick
	mov	r5, r0
.Ltmp241:
	@DEBUG_VALUE: HAL_RTC_DeactivateAlarm:tickstart <- $r5
.LBB14_3:                               @ =>This Inner Loop Header: Depth=1
	@DEBUG_VALUE: HAL_RTC_DeactivateAlarm:tickstart <- $r5
	@DEBUG_VALUE: HAL_RTC_DeactivateAlarm:hrtc <- $r4
	.loc	6 1191 11               @ ../Drivers/STM32F7xx_HAL_Driver/Src/stm32f7xx_hal_rtc.c:1191:11
	ldr	r0, [r4]
	ldr	r1, [r0, #12]
	.loc	6 1191 5 is_stmt 0      @ ../Drivers/STM32F7xx_HAL_Driver/Src/stm32f7xx_hal_rtc.c:1191:5
	tst.w	r1, #1
	bne	.LBB14_9
.Ltmp242:
@ %bb.4:                                @   in Loop: Header=BB14_3 Depth=1
	@DEBUG_VALUE: HAL_RTC_DeactivateAlarm:tickstart <- $r5
	@DEBUG_VALUE: HAL_RTC_DeactivateAlarm:hrtc <- $r4
	.loc	6 1193 11 is_stmt 1     @ ../Drivers/STM32F7xx_HAL_Driver/Src/stm32f7xx_hal_rtc.c:1193:11
	bl	HAL_GetTick
	.loc	6 1193 25 is_stmt 0     @ ../Drivers/STM32F7xx_HAL_Driver/Src/stm32f7xx_hal_rtc.c:1193:25
	subs	r0, r0, r5
.Ltmp243:
	.loc	6 1193 10               @ ../Drivers/STM32F7xx_HAL_Driver/Src/stm32f7xx_hal_rtc.c:1193:10
	cmp.w	r0, #1000
	bls	.LBB14_3
	b	.LBB14_8
.Ltmp244:
.LBB14_5:
	@DEBUG_VALUE: HAL_RTC_DeactivateAlarm:hrtc <- $r4
	@DEBUG_VALUE: HAL_RTC_DeactivateAlarm:Alarm <- $r1
	.loc	6 1210 5 is_stmt 1      @ ../Drivers/STM32F7xx_HAL_Driver/Src/stm32f7xx_hal_rtc.c:1210:5
	bic	r1, r2, #512
.Ltmp245:
	str	r1, [r0, #8]
	.loc	6 1213 5                @ ../Drivers/STM32F7xx_HAL_Driver/Src/stm32f7xx_hal_rtc.c:1213:5
	ldr	r1, [r0, #8]
	bic	r1, r1, #8192
	str	r1, [r0, #8]
	.loc	6 1216 17               @ ../Drivers/STM32F7xx_HAL_Driver/Src/stm32f7xx_hal_rtc.c:1216:17
	bl	HAL_GetTick
	mov	r5, r0
.Ltmp246:
	@DEBUG_VALUE: HAL_RTC_DeactivateAlarm:tickstart <- $r5
.LBB14_6:                               @ =>This Inner Loop Header: Depth=1
	@DEBUG_VALUE: HAL_RTC_DeactivateAlarm:tickstart <- $r5
	@DEBUG_VALUE: HAL_RTC_DeactivateAlarm:hrtc <- $r4
	.loc	6 1219 11               @ ../Drivers/STM32F7xx_HAL_Driver/Src/stm32f7xx_hal_rtc.c:1219:11
	ldr	r0, [r4]
	ldr	r1, [r0, #12]
	.loc	6 1219 5 is_stmt 0      @ ../Drivers/STM32F7xx_HAL_Driver/Src/stm32f7xx_hal_rtc.c:1219:5
	tst.w	r1, #2
	bne	.LBB14_9
.Ltmp247:
@ %bb.7:                                @   in Loop: Header=BB14_6 Depth=1
	@DEBUG_VALUE: HAL_RTC_DeactivateAlarm:tickstart <- $r5
	@DEBUG_VALUE: HAL_RTC_DeactivateAlarm:hrtc <- $r4
	.loc	6 1221 11 is_stmt 1     @ ../Drivers/STM32F7xx_HAL_Driver/Src/stm32f7xx_hal_rtc.c:1221:11
	bl	HAL_GetTick
	.loc	6 1221 25 is_stmt 0     @ ../Drivers/STM32F7xx_HAL_Driver/Src/stm32f7xx_hal_rtc.c:1221:25
	subs	r0, r0, r5
.Ltmp248:
	.loc	6 1221 10               @ ../Drivers/STM32F7xx_HAL_Driver/Src/stm32f7xx_hal_rtc.c:1221:10
	cmp.w	r0, #1000
	bls	.LBB14_6
.Ltmp249:
.LBB14_8:
	@DEBUG_VALUE: HAL_RTC_DeactivateAlarm:tickstart <- $r5
	@DEBUG_VALUE: HAL_RTC_DeactivateAlarm:hrtc <- $r4
	.loc	6 0 10                  @ ../Drivers/STM32F7xx_HAL_Driver/Src/stm32f7xx_hal_rtc.c:0:10
	ldr	r0, [r4]
	movs	r1, #3
	movs	r2, #3
	b	.LBB14_10
.Ltmp250:
.LBB14_9:
	@DEBUG_VALUE: HAL_RTC_DeactivateAlarm:tickstart <- $r5
	@DEBUG_VALUE: HAL_RTC_DeactivateAlarm:hrtc <- $r4
	movs	r2, #0
	movs	r1, #1
.Ltmp251:
.LBB14_10:
	@DEBUG_VALUE: HAL_RTC_DeactivateAlarm:tickstart <- $r5
	@DEBUG_VALUE: HAL_RTC_DeactivateAlarm:hrtc <- $r4
	movs	r3, #255
	str	r3, [r0, #36]
	movs	r0, #0
	strb	r0, [r4, #28]
	strb	r1, [r4, #29]
.Ltmp252:
.LBB14_11:
	@DEBUG_VALUE: HAL_RTC_DeactivateAlarm:hrtc <- $r4
	.loc	6 1244 1 is_stmt 1      @ ../Drivers/STM32F7xx_HAL_Driver/Src/stm32f7xx_hal_rtc.c:1244:1
	uxtb	r0, r2
	pop	{r4, r5, r7, pc}
.Ltmp253:
.Lfunc_end14:
	.size	HAL_RTC_DeactivateAlarm, .Lfunc_end14-HAL_RTC_DeactivateAlarm
	.cfi_endproc
	.cantunwind
	.fnend
                                        @ -- End function
	.section	.text.HAL_RTC_GetAlarm,"ax",%progbits
	.hidden	HAL_RTC_GetAlarm        @ -- Begin function HAL_RTC_GetAlarm
	.globl	HAL_RTC_GetAlarm
	.p2align	1
	.type	HAL_RTC_GetAlarm,%function
	.code	16                      @ @HAL_RTC_GetAlarm
	.thumb_func
HAL_RTC_GetAlarm:
.Lfunc_begin15:
	.loc	6 1262 0                @ ../Drivers/STM32F7xx_HAL_Driver/Src/stm32f7xx_hal_rtc.c:1262:0
	.fnstart
	.cfi_startproc
@ %bb.0:
	@DEBUG_VALUE: HAL_RTC_GetAlarm:hrtc <- $r0
	@DEBUG_VALUE: HAL_RTC_GetAlarm:hrtc <- $r0
	@DEBUG_VALUE: HAL_RTC_GetAlarm:sAlarm <- $r1
	@DEBUG_VALUE: HAL_RTC_GetAlarm:sAlarm <- $r1
	@DEBUG_VALUE: HAL_RTC_GetAlarm:Alarm <- $r2
	@DEBUG_VALUE: HAL_RTC_GetAlarm:Alarm <- $r2
	@DEBUG_VALUE: HAL_RTC_GetAlarm:Format <- $r3
	@DEBUG_VALUE: HAL_RTC_GetAlarm:Format <- $r3
	@DEBUG_VALUE: HAL_RTC_GetAlarm:tmpreg <- 0
	@DEBUG_VALUE: HAL_RTC_GetAlarm:subsecondtmpreg <- 0
	.loc	6 1269 6 prologue_end   @ ../Drivers/STM32F7xx_HAL_Driver/Src/stm32f7xx_hal_rtc.c:1269:6
	cmp.w	r2, #256
	bne	.LBB15_2
.Ltmp254:
@ %bb.1:
	@DEBUG_VALUE: HAL_RTC_GetAlarm:Format <- $r3
	@DEBUG_VALUE: HAL_RTC_GetAlarm:Alarm <- $r2
	@DEBUG_VALUE: HAL_RTC_GetAlarm:sAlarm <- $r1
	@DEBUG_VALUE: HAL_RTC_GetAlarm:hrtc <- $r0
	.loc	6 1272 19               @ ../Drivers/STM32F7xx_HAL_Driver/Src/stm32f7xx_hal_rtc.c:1272:19
	mov.w	r2, #256
.Ltmp255:
	str	r2, [r1, #40]
	.loc	6 1274 31               @ ../Drivers/STM32F7xx_HAL_Driver/Src/stm32f7xx_hal_rtc.c:1274:31
	ldr	r0, [r0]
.Ltmp256:
	.loc	6 1275 51               @ ../Drivers/STM32F7xx_HAL_Driver/Src/stm32f7xx_hal_rtc.c:1275:51
	add.w	r2, r0, #68
	.loc	6 1274 41               @ ../Drivers/STM32F7xx_HAL_Driver/Src/stm32f7xx_hal_rtc.c:1274:41
	adds	r0, #28
.Ltmp257:
	@DEBUG_VALUE: HAL_RTC_GetAlarm:tmpreg <- [DW_OP_deref] $r0
	.loc	6 0 41 is_stmt 0        @ ../Drivers/STM32F7xx_HAL_Driver/Src/stm32f7xx_hal_rtc.c:0:41
	b	.LBB15_3
.Ltmp258:
.LBB15_2:
	@DEBUG_VALUE: HAL_RTC_GetAlarm:Format <- $r3
	@DEBUG_VALUE: HAL_RTC_GetAlarm:Alarm <- $r2
	@DEBUG_VALUE: HAL_RTC_GetAlarm:sAlarm <- $r1
	@DEBUG_VALUE: HAL_RTC_GetAlarm:hrtc <- $r0
	.loc	6 1279 19 is_stmt 1     @ ../Drivers/STM32F7xx_HAL_Driver/Src/stm32f7xx_hal_rtc.c:1279:19
	mov.w	r2, #512
.Ltmp259:
	str	r2, [r1, #40]
	.loc	6 1281 31               @ ../Drivers/STM32F7xx_HAL_Driver/Src/stm32f7xx_hal_rtc.c:1281:31
	ldr	r0, [r0]
.Ltmp260:
	.loc	6 1282 51               @ ../Drivers/STM32F7xx_HAL_Driver/Src/stm32f7xx_hal_rtc.c:1282:51
	add.w	r2, r0, #72
	.loc	6 1281 41               @ ../Drivers/STM32F7xx_HAL_Driver/Src/stm32f7xx_hal_rtc.c:1281:41
	adds	r0, #32
.Ltmp261:
	@DEBUG_VALUE: HAL_RTC_GetAlarm:tmpreg <- [DW_OP_deref] $r0
.LBB15_3:
	@DEBUG_VALUE: HAL_RTC_GetAlarm:tmpreg <- [DW_OP_deref] $r0
	@DEBUG_VALUE: HAL_RTC_GetAlarm:Format <- $r3
	@DEBUG_VALUE: HAL_RTC_GetAlarm:sAlarm <- $r1
	.loc	6 0 41 is_stmt 0        @ ../Drivers/STM32F7xx_HAL_Driver/Src/stm32f7xx_hal_rtc.c:0:41
	.save	{r4, r5, r6, lr}
	push	{r4, r5, r6, lr}
	.cfi_def_cfa_offset 16
	.cfi_offset lr, -4
	.cfi_offset r6, -8
	.cfi_offset r5, -12
	.cfi_offset r4, -16
	ldr	r0, [r0]
.Ltmp262:
	@DEBUG_VALUE: HAL_RTC_GetAlarm:tmpreg <- $r0
	ldr	r5, [r2]
	.loc	6 1289 34 is_stmt 1     @ ../Drivers/STM32F7xx_HAL_Driver/Src/stm32f7xx_hal_rtc.c:1289:34
	movs	r2, #64
	.loc	6 1295 6                @ ../Drivers/STM32F7xx_HAL_Driver/Src/stm32f7xx_hal_rtc.c:1295:6
	cmp	r3, #0
	.loc	6 1287 31               @ ../Drivers/STM32F7xx_HAL_Driver/Src/stm32f7xx_hal_rtc.c:1287:31
	ubfx	r4, r0, #8, #7
	.loc	6 1288 31               @ ../Drivers/STM32F7xx_HAL_Driver/Src/stm32f7xx_hal_rtc.c:1288:31
	and	lr, r0, #127
	.loc	6 1289 34               @ ../Drivers/STM32F7xx_HAL_Driver/Src/stm32f7xx_hal_rtc.c:1289:34
	and.w	r2, r2, r0, lsr #16
	bfc	r5, #15, #17
.Ltmp263:
	@DEBUG_VALUE: HAL_RTC_GetAlarm:subsecondtmpreg <- $r5
	.loc	6 1287 29               @ ../Drivers/STM32F7xx_HAL_Driver/Src/stm32f7xx_hal_rtc.c:1287:29
	strb	r4, [r1, #1]
	.loc	6 1286 29               @ ../Drivers/STM32F7xx_HAL_Driver/Src/stm32f7xx_hal_rtc.c:1286:29
	ubfx	r6, r0, #16, #6
	.loc	6 1286 27 is_stmt 0     @ ../Drivers/STM32F7xx_HAL_Driver/Src/stm32f7xx_hal_rtc.c:1286:27
	strb	r6, [r1]
	.loc	6 1288 29 is_stmt 1     @ ../Drivers/STM32F7xx_HAL_Driver/Src/stm32f7xx_hal_rtc.c:1288:29
	strb.w	lr, [r1, #2]
	.loc	6 1289 32               @ ../Drivers/STM32F7xx_HAL_Driver/Src/stm32f7xx_hal_rtc.c:1289:32
	strb	r2, [r1, #12]
	.loc	6 1291 30               @ ../Drivers/STM32F7xx_HAL_Driver/Src/stm32f7xx_hal_rtc.c:1291:30
	ubfx	r12, r0, #24, #6
	.loc	6 1292 51               @ ../Drivers/STM32F7xx_HAL_Driver/Src/stm32f7xx_hal_rtc.c:1292:51
	and	r2, r0, #1073741824
	.loc	6 1291 28               @ ../Drivers/STM32F7xx_HAL_Driver/Src/stm32f7xx_hal_rtc.c:1291:28
	strb.w	r12, [r1, #36]
	.loc	6 1292 31               @ ../Drivers/STM32F7xx_HAL_Driver/Src/stm32f7xx_hal_rtc.c:1292:31
	str	r2, [r1, #32]
	.loc	6 1293 41               @ ../Drivers/STM32F7xx_HAL_Driver/Src/stm32f7xx_hal_rtc.c:1293:41
	bic	r2, r0, #2139062143
	.loc	6 1293 21 is_stmt 0     @ ../Drivers/STM32F7xx_HAL_Driver/Src/stm32f7xx_hal_rtc.c:1293:21
	str	r2, [r1, #24]
	.loc	6 1290 32 is_stmt 1     @ ../Drivers/STM32F7xx_HAL_Driver/Src/stm32f7xx_hal_rtc.c:1290:32
	str	r5, [r1, #4]
	.loc	6 1295 6                @ ../Drivers/STM32F7xx_HAL_Driver/Src/stm32f7xx_hal_rtc.c:1295:6
	bne	.LBB15_5
.Ltmp264:
@ %bb.4:
	@DEBUG_VALUE: HAL_RTC_GetAlarm:subsecondtmpreg <- $r5
	@DEBUG_VALUE: HAL_RTC_GetAlarm:tmpreg <- [DW_OP_deref] $r0
	@DEBUG_VALUE: HAL_RTC_GetAlarm:Format <- $r3
	@DEBUG_VALUE: HAL_RTC_GetAlarm:sAlarm <- $r1
	.loc	6 0 6 is_stmt 0         @ ../Drivers/STM32F7xx_HAL_Driver/Src/stm32f7xx_hal_rtc.c:0:6
	lsrs	r3, r0, #8
.Ltmp265:
	.loc	6 1548 43 is_stmt 1     @ ../Drivers/STM32F7xx_HAL_Driver/Src/stm32f7xx_hal_rtc.c:1548:43
	ubfx	r4, r4, #4, #4
	lsrs	r5, r0, #16
.Ltmp266:
	@DEBUG_VALUE: RTC_Bcd2ToByte:tmp <- 0
	.loc	6 0 43 is_stmt 0        @ ../Drivers/STM32F7xx_HAL_Driver/Src/stm32f7xx_hal_rtc.c:0:43
	lsrs	r2, r0, #24
.Ltmp267:
	.loc	6 1549 24 is_stmt 1     @ ../Drivers/STM32F7xx_HAL_Driver/Src/stm32f7xx_hal_rtc.c:1549:24
	and	r0, r0, #15
.Ltmp268:
	.loc	6 1549 24 is_stmt 0     @ ../Drivers/STM32F7xx_HAL_Driver/Src/stm32f7xx_hal_rtc.c:1549:24
	and	r3, r3, #15
	.loc	6 1548 60 is_stmt 1     @ ../Drivers/STM32F7xx_HAL_Driver/Src/stm32f7xx_hal_rtc.c:1548:60
	add.w	r4, r4, r4, lsl #2
	.loc	6 1549 15               @ ../Drivers/STM32F7xx_HAL_Driver/Src/stm32f7xx_hal_rtc.c:1549:15
	add.w	r3, r3, r4, lsl #1
.Ltmp269:
	.loc	6 1298 31               @ ../Drivers/STM32F7xx_HAL_Driver/Src/stm32f7xx_hal_rtc.c:1298:31
	strb	r3, [r1, #1]
.Ltmp270:
	@DEBUG_VALUE: RTC_Bcd2ToByte:tmp <- 0
	.loc	6 1548 43               @ ../Drivers/STM32F7xx_HAL_Driver/Src/stm32f7xx_hal_rtc.c:1548:43
	ubfx	r4, r6, #4, #4
	.loc	6 1549 24               @ ../Drivers/STM32F7xx_HAL_Driver/Src/stm32f7xx_hal_rtc.c:1549:24
	and	r3, r5, #15
	.loc	6 1548 60               @ ../Drivers/STM32F7xx_HAL_Driver/Src/stm32f7xx_hal_rtc.c:1548:60
	add.w	r4, r4, r4, lsl #2
	.loc	6 1549 15               @ ../Drivers/STM32F7xx_HAL_Driver/Src/stm32f7xx_hal_rtc.c:1549:15
	add.w	r3, r3, r4, lsl #1
.Ltmp271:
	.loc	6 1297 29               @ ../Drivers/STM32F7xx_HAL_Driver/Src/stm32f7xx_hal_rtc.c:1297:29
	strb	r3, [r1]
.Ltmp272:
	@DEBUG_VALUE: RTC_Bcd2ToByte:tmp <- 0
	.loc	6 1548 43               @ ../Drivers/STM32F7xx_HAL_Driver/Src/stm32f7xx_hal_rtc.c:1548:43
	ubfx	r3, lr, #4, #4
	.loc	6 1548 60 is_stmt 0     @ ../Drivers/STM32F7xx_HAL_Driver/Src/stm32f7xx_hal_rtc.c:1548:60
	add.w	r3, r3, r3, lsl #2
	.loc	6 1549 15 is_stmt 1     @ ../Drivers/STM32F7xx_HAL_Driver/Src/stm32f7xx_hal_rtc.c:1549:15
	add.w	r0, r0, r3, lsl #1
.Ltmp273:
	.loc	6 1299 31               @ ../Drivers/STM32F7xx_HAL_Driver/Src/stm32f7xx_hal_rtc.c:1299:31
	strb	r0, [r1, #2]
.Ltmp274:
	@DEBUG_VALUE: RTC_Bcd2ToByte:tmp <- 0
	.loc	6 1549 24               @ ../Drivers/STM32F7xx_HAL_Driver/Src/stm32f7xx_hal_rtc.c:1549:24
	and	r0, r2, #15
	.loc	6 1548 43               @ ../Drivers/STM32F7xx_HAL_Driver/Src/stm32f7xx_hal_rtc.c:1548:43
	ubfx	r2, r12, #4, #4
	.loc	6 1548 60 is_stmt 0     @ ../Drivers/STM32F7xx_HAL_Driver/Src/stm32f7xx_hal_rtc.c:1548:60
	add.w	r2, r2, r2, lsl #2
	.loc	6 1549 15 is_stmt 1     @ ../Drivers/STM32F7xx_HAL_Driver/Src/stm32f7xx_hal_rtc.c:1549:15
	add.w	r0, r0, r2, lsl #1
.Ltmp275:
	.loc	6 1300 30               @ ../Drivers/STM32F7xx_HAL_Driver/Src/stm32f7xx_hal_rtc.c:1300:30
	strb.w	r0, [r1, #36]
.Ltmp276:
.LBB15_5:
	@DEBUG_VALUE: HAL_RTC_GetAlarm:sAlarm <- $r1
	.loc	6 1303 3                @ ../Drivers/STM32F7xx_HAL_Driver/Src/stm32f7xx_hal_rtc.c:1303:3
	movs	r0, #0
	pop	{r4, r5, r6, pc}
.Ltmp277:
.Lfunc_end15:
	.size	HAL_RTC_GetAlarm, .Lfunc_end15-HAL_RTC_GetAlarm
	.cfi_endproc
	.cantunwind
	.fnend
                                        @ -- End function
	.section	.text.HAL_RTC_AlarmIRQHandler,"ax",%progbits
	.hidden	HAL_RTC_AlarmIRQHandler @ -- Begin function HAL_RTC_AlarmIRQHandler
	.globl	HAL_RTC_AlarmIRQHandler
	.p2align	2
	.type	HAL_RTC_AlarmIRQHandler,%function
	.code	16                      @ @HAL_RTC_AlarmIRQHandler
	.thumb_func
HAL_RTC_AlarmIRQHandler:
.Lfunc_begin16:
	.loc	6 1313 0                @ ../Drivers/STM32F7xx_HAL_Driver/Src/stm32f7xx_hal_rtc.c:1313:0
	.fnstart
	.cfi_startproc
@ %bb.0:
	.save	{r4, lr}
	push	{r4, lr}
	.cfi_def_cfa_offset 8
	.cfi_offset lr, -4
	.cfi_offset r4, -8
	@DEBUG_VALUE: HAL_RTC_AlarmIRQHandler:hrtc <- $r0
	mov	r4, r0
.Ltmp278:
	@DEBUG_VALUE: HAL_RTC_AlarmIRQHandler:hrtc <- $r4
	.loc	6 1314 6 prologue_end   @ ../Drivers/STM32F7xx_HAL_Driver/Src/stm32f7xx_hal_rtc.c:1314:6
	ldr	r0, [r0]
	ldr	r1, [r0, #12]
.Ltmp279:
	.loc	6 1314 6 is_stmt 0      @ ../Drivers/STM32F7xx_HAL_Driver/Src/stm32f7xx_hal_rtc.c:1314:6
	tst.w	r1, #256
.Ltmp280:
	.loc	6 1317 35 is_stmt 1     @ ../Drivers/STM32F7xx_HAL_Driver/Src/stm32f7xx_hal_rtc.c:1317:35
	itt	ne
	ldrne	r1, [r0, #8]
.Ltmp281:
	.loc	6 1317 8 is_stmt 0      @ ../Drivers/STM32F7xx_HAL_Driver/Src/stm32f7xx_hal_rtc.c:1317:8
	tstne.w	r1, #4096
	bne	.LBB16_3
.Ltmp282:
.LBB16_1:
	@DEBUG_VALUE: HAL_RTC_AlarmIRQHandler:hrtc <- $r4
	.loc	6 1327 6 is_stmt 1      @ ../Drivers/STM32F7xx_HAL_Driver/Src/stm32f7xx_hal_rtc.c:1327:6
	ldr	r1, [r0, #12]
.Ltmp283:
	.loc	6 1327 6 is_stmt 0      @ ../Drivers/STM32F7xx_HAL_Driver/Src/stm32f7xx_hal_rtc.c:1327:6
	tst.w	r1, #512
.Ltmp284:
	.loc	6 1330 35 is_stmt 1     @ ../Drivers/STM32F7xx_HAL_Driver/Src/stm32f7xx_hal_rtc.c:1330:35
	itt	ne
	ldrne	r0, [r0, #8]
.Ltmp285:
	.loc	6 1330 8 is_stmt 0      @ ../Drivers/STM32F7xx_HAL_Driver/Src/stm32f7xx_hal_rtc.c:1330:8
	tstne.w	r0, #8192
	bne	.LBB16_4
.Ltmp286:
.LBB16_2:
	@DEBUG_VALUE: HAL_RTC_AlarmIRQHandler:hrtc <- $r4
	.loc	6 1341 3 is_stmt 1      @ ../Drivers/STM32F7xx_HAL_Driver/Src/stm32f7xx_hal_rtc.c:1341:3
	ldr	r0, __arm_cp.16_0
	mov.w	r1, #131072
	str	r1, [r0]
	.loc	6 1344 15               @ ../Drivers/STM32F7xx_HAL_Driver/Src/stm32f7xx_hal_rtc.c:1344:15
	movs	r0, #1
	strb	r0, [r4, #29]
	.loc	6 1345 1                @ ../Drivers/STM32F7xx_HAL_Driver/Src/stm32f7xx_hal_rtc.c:1345:1
	pop	{r4, pc}
.Ltmp287:
.LBB16_3:
	@DEBUG_VALUE: HAL_RTC_AlarmIRQHandler:hrtc <- $r4
	.loc	6 1320 7                @ ../Drivers/STM32F7xx_HAL_Driver/Src/stm32f7xx_hal_rtc.c:1320:7
	mov	r0, r4
	bl	HAL_RTC_AlarmAEventCallback
	.loc	6 1323 7                @ ../Drivers/STM32F7xx_HAL_Driver/Src/stm32f7xx_hal_rtc.c:1323:7
	ldr	r0, [r4]
	ldr	r1, [r0, #12]
	and	r1, r1, #128
	orn	r1, r1, #384
	str	r1, [r0, #12]
	b	.LBB16_1
.Ltmp288:
.LBB16_4:
	@DEBUG_VALUE: HAL_RTC_AlarmIRQHandler:hrtc <- $r4
	.loc	6 1333 7                @ ../Drivers/STM32F7xx_HAL_Driver/Src/stm32f7xx_hal_rtc.c:1333:7
	mov	r0, r4
	bl	HAL_RTCEx_AlarmBEventCallback
	.loc	6 1336 7                @ ../Drivers/STM32F7xx_HAL_Driver/Src/stm32f7xx_hal_rtc.c:1336:7
	ldr	r0, [r4]
	ldr	r1, [r0, #12]
	and	r1, r1, #128
	orn	r1, r1, #640
	str	r1, [r0, #12]
	b	.LBB16_2
.Ltmp289:
	.p2align	2
@ %bb.5:
	.loc	6 0 7 is_stmt 0         @ ../Drivers/STM32F7xx_HAL_Driver/Src/stm32f7xx_hal_rtc.c:0:7
__arm_cp.16_0:
	.long	1073822740              @ 0x40013c14
.Lcpi_end9:
	.size	__arm_cp.16_0, .Lcpi_end9-__arm_cp.16_0
.Lfunc_end16:
	.size	HAL_RTC_AlarmIRQHandler, .Lfunc_end16-HAL_RTC_AlarmIRQHandler
	.cfi_endproc
	.cantunwind
	.fnend
                                        @ -- End function
	.section	.text.HAL_RTC_AlarmAEventCallback,"ax",%progbits
	.hidden	HAL_RTC_AlarmAEventCallback @ -- Begin function HAL_RTC_AlarmAEventCallback
	.weak	HAL_RTC_AlarmAEventCallback
	.p2align	1
	.type	HAL_RTC_AlarmAEventCallback,%function
	.code	16                      @ @HAL_RTC_AlarmAEventCallback
	.thumb_func
HAL_RTC_AlarmAEventCallback:
.Lfunc_begin17:
	.loc	6 1354 0 is_stmt 1      @ ../Drivers/STM32F7xx_HAL_Driver/Src/stm32f7xx_hal_rtc.c:1354:0
	.fnstart
	.cfi_startproc
@ %bb.0:
	@DEBUG_VALUE: HAL_RTC_AlarmAEventCallback:hrtc <- $r0
	.loc	6 1361 1 prologue_end   @ ../Drivers/STM32F7xx_HAL_Driver/Src/stm32f7xx_hal_rtc.c:1361:1
	bx	lr
.Ltmp290:
.Lfunc_end17:
	.size	HAL_RTC_AlarmAEventCallback, .Lfunc_end17-HAL_RTC_AlarmAEventCallback
	.cfi_endproc
	.cantunwind
	.fnend
                                        @ -- End function
	.section	.text.HAL_RTC_PollForAlarmAEvent,"ax",%progbits
	.hidden	HAL_RTC_PollForAlarmAEvent @ -- Begin function HAL_RTC_PollForAlarmAEvent
	.globl	HAL_RTC_PollForAlarmAEvent
	.p2align	1
	.type	HAL_RTC_PollForAlarmAEvent,%function
	.code	16                      @ @HAL_RTC_PollForAlarmAEvent
	.thumb_func
HAL_RTC_PollForAlarmAEvent:
.Lfunc_begin18:
	.loc	6 1371 0                @ ../Drivers/STM32F7xx_HAL_Driver/Src/stm32f7xx_hal_rtc.c:1371:0
	.fnstart
	.cfi_startproc
@ %bb.0:
	.save	{r4, r5, r6, r7, lr}
	.pad	#4
	push	{r3, r4, r5, r6, r7, lr}
	.cfi_def_cfa_offset 24
	.cfi_offset lr, -4
	.cfi_offset r7, -8
	.cfi_offset r6, -12
	.cfi_offset r5, -16
	.cfi_offset r4, -20
	@DEBUG_VALUE: HAL_RTC_PollForAlarmAEvent:hrtc <- $r0
	@DEBUG_VALUE: HAL_RTC_PollForAlarmAEvent:Timeout <- $r1
	mov	r5, r1
	mov	r4, r0
.Ltmp291:
	@DEBUG_VALUE: HAL_RTC_PollForAlarmAEvent:tickstart <- 0
	@DEBUG_VALUE: HAL_RTC_PollForAlarmAEvent:Timeout <- $r5
	@DEBUG_VALUE: HAL_RTC_PollForAlarmAEvent:hrtc <- $r4
	.loc	6 1375 17 prologue_end  @ ../Drivers/STM32F7xx_HAL_Driver/Src/stm32f7xx_hal_rtc.c:1375:17
	bl	HAL_GetTick
	mov	r6, r0
.Ltmp292:
	@DEBUG_VALUE: HAL_RTC_PollForAlarmAEvent:tickstart <- $r6
	.loc	6 0 17 is_stmt 0        @ ../Drivers/STM32F7xx_HAL_Driver/Src/stm32f7xx_hal_rtc.c:0:17
	adds	r7, r5, #1
.Ltmp293:
.LBB18_1:                               @ =>This Inner Loop Header: Depth=1
	@DEBUG_VALUE: HAL_RTC_PollForAlarmAEvent:tickstart <- $r6
	@DEBUG_VALUE: HAL_RTC_PollForAlarmAEvent:hrtc <- $r4
	@DEBUG_VALUE: HAL_RTC_PollForAlarmAEvent:Timeout <- $r5
	.loc	6 1377 9 is_stmt 1      @ ../Drivers/STM32F7xx_HAL_Driver/Src/stm32f7xx_hal_rtc.c:1377:9
	ldr	r0, [r4]
	ldr	r1, [r0, #12]
	.loc	6 1377 3 is_stmt 0      @ ../Drivers/STM32F7xx_HAL_Driver/Src/stm32f7xx_hal_rtc.c:1377:3
	tst.w	r1, #256
	bne	.LBB18_6
.Ltmp294:
@ %bb.2:                                @   in Loop: Header=BB18_1 Depth=1
	@DEBUG_VALUE: HAL_RTC_PollForAlarmAEvent:tickstart <- $r6
	@DEBUG_VALUE: HAL_RTC_PollForAlarmAEvent:hrtc <- $r4
	@DEBUG_VALUE: HAL_RTC_PollForAlarmAEvent:Timeout <- $r5
	.loc	6 1379 8 is_stmt 1      @ ../Drivers/STM32F7xx_HAL_Driver/Src/stm32f7xx_hal_rtc.c:1379:8
	cmp	r7, #0
	beq	.LBB18_1
.Ltmp295:
@ %bb.3:                                @   in Loop: Header=BB18_1 Depth=1
	@DEBUG_VALUE: HAL_RTC_PollForAlarmAEvent:tickstart <- $r6
	@DEBUG_VALUE: HAL_RTC_PollForAlarmAEvent:hrtc <- $r4
	@DEBUG_VALUE: HAL_RTC_PollForAlarmAEvent:Timeout <- $r5
	cbz	r5, .LBB18_5
.Ltmp296:
@ %bb.4:                                @   in Loop: Header=BB18_1 Depth=1
	@DEBUG_VALUE: HAL_RTC_PollForAlarmAEvent:tickstart <- $r6
	@DEBUG_VALUE: HAL_RTC_PollForAlarmAEvent:hrtc <- $r4
	@DEBUG_VALUE: HAL_RTC_PollForAlarmAEvent:Timeout <- $r5
	.loc	6 1381 28               @ ../Drivers/STM32F7xx_HAL_Driver/Src/stm32f7xx_hal_rtc.c:1381:28
	bl	HAL_GetTick
	.loc	6 1381 42 is_stmt 0     @ ../Drivers/STM32F7xx_HAL_Driver/Src/stm32f7xx_hal_rtc.c:1381:42
	subs	r0, r0, r6
.Ltmp297:
	.loc	6 1381 10               @ ../Drivers/STM32F7xx_HAL_Driver/Src/stm32f7xx_hal_rtc.c:1381:10
	cmp	r0, r5
	bls	.LBB18_1
.Ltmp298:
.LBB18_5:
	@DEBUG_VALUE: HAL_RTC_PollForAlarmAEvent:tickstart <- $r6
	@DEBUG_VALUE: HAL_RTC_PollForAlarmAEvent:hrtc <- $r4
	@DEBUG_VALUE: HAL_RTC_PollForAlarmAEvent:Timeout <- $r5
	.loc	6 0 10                  @ ../Drivers/STM32F7xx_HAL_Driver/Src/stm32f7xx_hal_rtc.c:0:10
	movs	r0, #3
	movs	r1, #3
	b	.LBB18_7
.Ltmp299:
.LBB18_6:
	@DEBUG_VALUE: HAL_RTC_PollForAlarmAEvent:tickstart <- $r6
	@DEBUG_VALUE: HAL_RTC_PollForAlarmAEvent:hrtc <- $r4
	@DEBUG_VALUE: HAL_RTC_PollForAlarmAEvent:Timeout <- $r5
	.loc	6 1390 3 is_stmt 1      @ ../Drivers/STM32F7xx_HAL_Driver/Src/stm32f7xx_hal_rtc.c:1390:3
	ldr	r1, [r0, #12]
	and	r1, r1, #128
	orn	r1, r1, #384
	str	r1, [r0, #12]
	movs	r1, #0
	movs	r0, #1
.Ltmp300:
.LBB18_7:
	@DEBUG_VALUE: HAL_RTC_PollForAlarmAEvent:tickstart <- $r6
	@DEBUG_VALUE: HAL_RTC_PollForAlarmAEvent:hrtc <- $r4
	@DEBUG_VALUE: HAL_RTC_PollForAlarmAEvent:Timeout <- $r5
	.loc	6 0 3 is_stmt 0         @ ../Drivers/STM32F7xx_HAL_Driver/Src/stm32f7xx_hal_rtc.c:0:3
	strb	r0, [r4, #29]
	.loc	6 1396 1 is_stmt 1      @ ../Drivers/STM32F7xx_HAL_Driver/Src/stm32f7xx_hal_rtc.c:1396:1
	uxtb	r0, r1
	add	sp, #4
	pop	{r4, r5, r6, r7, pc}
.Ltmp301:
.Lfunc_end18:
	.size	HAL_RTC_PollForAlarmAEvent, .Lfunc_end18-HAL_RTC_PollForAlarmAEvent
	.cfi_endproc
	.cantunwind
	.fnend
                                        @ -- End function
	.section	.text.HAL_RTC_GetState,"ax",%progbits
	.hidden	HAL_RTC_GetState        @ -- Begin function HAL_RTC_GetState
	.globl	HAL_RTC_GetState
	.p2align	1
	.type	HAL_RTC_GetState,%function
	.code	16                      @ @HAL_RTC_GetState
	.thumb_func
HAL_RTC_GetState:
.Lfunc_begin19:
	.loc	6 1479 0                @ ../Drivers/STM32F7xx_HAL_Driver/Src/stm32f7xx_hal_rtc.c:1479:0
	.fnstart
	.cfi_startproc
@ %bb.0:
	@DEBUG_VALUE: HAL_RTC_GetState:hrtc <- $r0
	@DEBUG_VALUE: HAL_RTC_GetState:hrtc <- $r0
	.loc	6 1480 3 prologue_end   @ ../Drivers/STM32F7xx_HAL_Driver/Src/stm32f7xx_hal_rtc.c:1480:3
	ldrb	r0, [r0, #29]
	bx	lr
.Ltmp302:
.Lfunc_end19:
	.size	HAL_RTC_GetState, .Lfunc_end19-HAL_RTC_GetState
	.cfi_endproc
	.cantunwind
	.fnend
                                        @ -- End function
	.section	".note.GNU-stack","",%progbits
	.eabi_attribute	30, 4	@ Tag_ABI_optimization_goals
	.ARM_attribute	16, 1	@ Tag_AV_eba