	.text
	.syntax unified
	.eabi_attribute	67, "2.09"	@ Tag_conformance
	.cpu	cortex-m7
	.eabi_attribute	6, 13	@ Tag_CPU_arch
	.eabi_attribute	7, 77	@ Tag_CPU_arch_profile
	.eabi_attribute	8, 0	@ Tag_ARM_ISA_use
	.eabi_attribute	9, 2	@ Tag_THUMB_ISA_use
	.fpu	fpv5-sp-d16
	.eabi_attribute	27, 1	@ Tag_ABI_HardFP_use
	.eabi_attribute	36, 1	@ Tag_FP_HP_extension
	.eabi_attribute	34, 1	@ Tag_CPU_unaligned_access
	.eabi_attribute	17, 1	@ Tag_ABI_PCS_GOT_use
	.eabi_attribute	20, 2	@ Tag_ABI_FP_denormal
	.eabi_attribute	21, 0	@ Tag_ABI_FP_exceptions
	.eabi_attribute	23, 1	@ Tag_ABI_FP_number_model
	.eabi_attribute	24, 1	@ Tag_ABI_align_needed
	.eabi_attribute	25, 1	@ Tag_ABI_align_preserved
	.eabi_attribute	28, 1	@ Tag_ABI_VFP_args
	.eabi_attribute	38, 1	@ Tag_ABI_FP_16bit_format
	.eabi_attribute	18, 2	@ Tag_ABI_PCS_wchar_t
	.eabi_attribute	26, 1	@ Tag_ABI_enum_size
	.eabi_attribute	14, 0	@ Tag_ABI_PCS_R9_use
	.file	"stm32f7xx_hal_gpio.c"
	.file	1 "../Drivers/STM32F7xx_HAL_Driver/Inc" "stm32f7xx_hal_gpio.h"
	.file	2 "../Drivers/STM32F7xx_HAL_Driver/Inc" "stm32f7xx_hal_def.h"
	.file	3 "../Drivers/CMSIS/Device/ST/STM32F7xx/Include" "stm32f7xx.h"
	.file	4 "C:\\Keil\\ARM\\ARMCLANG\\Bin\\..\\include" "stdint.h"
	.file	5 "../Drivers/CMSIS/Device/ST/STM32F7xx/Include" "stm32f746xx.h"
	.section	.text.HAL_GPIO_Init,"ax",%progbits
	.hidden	HAL_GPIO_Init           @ -- Begin function HAL_GPIO_Init
	.globl	HAL_GPIO_Init
	.p2align	2
	.type	HAL_GPIO_Init,%function
	.code	16                      @ @HAL_GPIO_Init
	.thumb_func
HAL_GPIO_Init:
.Lfunc_begin0:
	.file	6 "../Drivers/STM32F7xx_HAL_Driver/Src" "stm32f7xx_hal_gpio.c"
	.loc	6 186 0                 @ ../Drivers/STM32F7xx_HAL_Driver/Src/stm32f7xx_hal_gpio.c:186:0
	.fnstart
	.cfi_sections .debug_frame
	.cfi_startproc
@ %bb.0:
	.save	{r4, r5, r6, r7, r8, r9, r10, r11, lr}
	.pad	#4
	push.w	{r3, r4, r5, r6, r7, r8, r9, r10, r11, lr}
	.cfi_def_cfa_offset 40
	.cfi_offset lr, -4
	.cfi_offset r11, -8
	.cfi_offset r10, -12
	.cfi_offset r9, -16
	.cfi_offset r8, -20
	.cfi_offset r7, -24
	.cfi_offset r6, -28
	.cfi_offset r5, -32
	.cfi_offset r4, -36
	@DEBUG_VALUE: HAL_GPIO_Init:GPIOx <- $r0
	@DEBUG_VALUE: HAL_GPIO_Init:GPIOx <- $r0
	@DEBUG_VALUE: HAL_GPIO_Init:GPIO_Init <- $r1
	@DEBUG_VALUE: HAL_GPIO_Init:GPIO_Init <- $r1
	ldr	r2, __arm_cp.0_0
	mov.w	r8, #10
	mov.w	r12, #0
	mov.w	r9, #1
	mov.w	r10, #0
	cmp	r0, r2
	ldr	r2, __arm_cp.0_1
.Ltmp0:
	@DEBUG_VALUE: HAL_GPIO_Init:temp <- 0
	@DEBUG_VALUE: HAL_GPIO_Init:iocurrent <- 0
	@DEBUG_VALUE: HAL_GPIO_Init:ioposition <- 0
	@DEBUG_VALUE: HAL_GPIO_Init:position <- 0
	it	eq
	moveq.w	r8, #9
	add	r2, r0
	ror.w	r3, r2, #10
	cmp	r3, #9
	it	lo
	rorlo.w	r8, r2, #10
	movs	r2, #0
.LBB0_1:                                @ =>This Inner Loop Header: Depth=1
	@DEBUG_VALUE: HAL_GPIO_Init:GPIO_Init <- $r1
	@DEBUG_VALUE: HAL_GPIO_Init:GPIOx <- $r0
.Ltmp1:
	@DEBUG_VALUE: HAL_GPIO_Init:position <- $r2
	.loc	6 199 3 prologue_end    @ ../Drivers/STM32F7xx_HAL_Driver/Src/stm32f7xx_hal_gpio.c:199:3
	cmp	r2, #16
.Ltmp2:
	.loc	6 301 1                 @ ../Drivers/STM32F7xx_HAL_Driver/Src/stm32f7xx_hal_gpio.c:301:1
	it	eq
	popeq.w	{r3, r4, r5, r6, r7, r8, r9, r10, r11, pc}
.Ltmp3:
	.loc	6 204 39                @ ../Drivers/STM32F7xx_HAL_Driver/Src/stm32f7xx_hal_gpio.c:204:39
	ldr	r4, [r1]
	.loc	6 202 35                @ ../Drivers/STM32F7xx_HAL_Driver/Src/stm32f7xx_hal_gpio.c:202:35
	lsl.w	r6, r9, r2
.Ltmp4:
	@DEBUG_VALUE: HAL_GPIO_Init:ioposition <- $r6
	.loc	6 206 8                 @ ../Drivers/STM32F7xx_HAL_Driver/Src/stm32f7xx_hal_gpio.c:206:8
	tst	r4, r6
	beq.w	.LBB0_8
.Ltmp5:
@ %bb.2:                                @   in Loop: Header=BB0_1 Depth=1
	@DEBUG_VALUE: HAL_GPIO_Init:ioposition <- $r6
	@DEBUG_VALUE: HAL_GPIO_Init:position <- $r2
	@DEBUG_VALUE: HAL_GPIO_Init:GPIO_Init <- $r1
	@DEBUG_VALUE: HAL_GPIO_Init:GPIOx <- $r0
	.loc	6 210 22                @ ../Drivers/STM32F7xx_HAL_Driver/Src/stm32f7xx_hal_gpio.c:210:22
	ldr	r5, [r1, #4]
	.loc	6 210 47 is_stmt 0      @ ../Drivers/STM32F7xx_HAL_Driver/Src/stm32f7xx_hal_gpio.c:210:47
	orr	r4, r5, #16
	cmp	r4, #18
	bne	.LBB0_4
.Ltmp6:
@ %bb.3:                                @   in Loop: Header=BB0_1 Depth=1
	@DEBUG_VALUE: HAL_GPIO_Init:ioposition <- $r6
	@DEBUG_VALUE: HAL_GPIO_Init:position <- $r2
	@DEBUG_VALUE: HAL_GPIO_Init:GPIO_Init <- $r1
	@DEBUG_VALUE: HAL_GPIO_Init:GPIOx <- $r0
	.loc	6 217 75 is_stmt 1      @ ../Drivers/STM32F7xx_HAL_Driver/Src/stm32f7xx_hal_gpio.c:217:75
	and	r4, r10, #28
	.loc	6 217 33 is_stmt 0      @ ../Drivers/STM32F7xx_HAL_Driver/Src/stm32f7xx_hal_gpio.c:217:33
	movs	r3, #15
	lsl.w	r11, r3, r4
	.loc	6 216 36 is_stmt 1      @ ../Drivers/STM32F7xx_HAL_Driver/Src/stm32f7xx_hal_gpio.c:216:36
	ldr	r3, __arm_cp.0_5
	and.w	r7, r3, r2, lsr #1
	.loc	6 216 16 is_stmt 0      @ ../Drivers/STM32F7xx_HAL_Driver/Src/stm32f7xx_hal_gpio.c:216:16
	add	r7, r0
	ldr	r5, [r7, #32]
.Ltmp7:
	@DEBUG_VALUE: HAL_GPIO_Init:temp <- $r5
	.loc	6 218 40 is_stmt 1      @ ../Drivers/STM32F7xx_HAL_Driver/Src/stm32f7xx_hal_gpio.c:218:40
	ldr	r3, [r1, #16]
	.loc	6 217 14                @ ../Drivers/STM32F7xx_HAL_Driver/Src/stm32f7xx_hal_gpio.c:217:14
	bic.w	r5, r5, r11
.Ltmp8:
	@DEBUG_VALUE: HAL_GPIO_Init:temp <- $r5
	.loc	6 218 51                @ ../Drivers/STM32F7xx_HAL_Driver/Src/stm32f7xx_hal_gpio.c:218:51
	lsls	r3, r4
	.loc	6 218 14 is_stmt 0      @ ../Drivers/STM32F7xx_HAL_Driver/Src/stm32f7xx_hal_gpio.c:218:14
	orrs	r3, r5
.Ltmp9:
	@DEBUG_VALUE: HAL_GPIO_Init:temp <- $r3
	.loc	6 219 35 is_stmt 1      @ ../Drivers/STM32F7xx_HAL_Driver/Src/stm32f7xx_hal_gpio.c:219:35
	str	r3, [r7, #32]
.Ltmp10:
	.loc	6 225 28                @ ../Drivers/STM32F7xx_HAL_Driver/Src/stm32f7xx_hal_gpio.c:225:28
	ldr	r5, [r1, #4]
.Ltmp11:
.LBB0_4:                                @   in Loop: Header=BB0_1 Depth=1
	@DEBUG_VALUE: HAL_GPIO_Init:ioposition <- $r6
	@DEBUG_VALUE: HAL_GPIO_Init:position <- $r2
	@DEBUG_VALUE: HAL_GPIO_Init:GPIO_Init <- $r1
	@DEBUG_VALUE: HAL_GPIO_Init:GPIOx <- $r0
	.loc	6 223 21                @ ../Drivers/STM32F7xx_HAL_Driver/Src/stm32f7xx_hal_gpio.c:223:21
	ldr	r7, [r0]
.Ltmp12:
	@DEBUG_VALUE: HAL_GPIO_Init:temp <- $r7
	.loc	6 224 35                @ ../Drivers/STM32F7xx_HAL_Driver/Src/stm32f7xx_hal_gpio.c:224:35
	movs	r4, #3
	.loc	6 225 33                @ ../Drivers/STM32F7xx_HAL_Driver/Src/stm32f7xx_hal_gpio.c:225:33
	and	r3, r5, #3
.Ltmp13:
	.loc	6 229 51                @ ../Drivers/STM32F7xx_HAL_Driver/Src/stm32f7xx_hal_gpio.c:229:51
	cmp	r5, #18
.Ltmp14:
	.loc	6 224 35                @ ../Drivers/STM32F7xx_HAL_Driver/Src/stm32f7xx_hal_gpio.c:224:35
	lsl.w	r4, r4, r12
	.loc	6 225 46                @ ../Drivers/STM32F7xx_HAL_Driver/Src/stm32f7xx_hal_gpio.c:225:46
	lsl.w	r3, r3, r12
	.loc	6 224 12                @ ../Drivers/STM32F7xx_HAL_Driver/Src/stm32f7xx_hal_gpio.c:224:12
	bic.w	r7, r7, r4
.Ltmp15:
	@DEBUG_VALUE: HAL_GPIO_Init:temp <- $r7
	.loc	6 224 15 is_stmt 0      @ ../Drivers/STM32F7xx_HAL_Driver/Src/stm32f7xx_hal_gpio.c:224:15
	mvn.w	r4, r4
	.loc	6 225 12 is_stmt 1      @ ../Drivers/STM32F7xx_HAL_Driver/Src/stm32f7xx_hal_gpio.c:225:12
	orr.w	r3, r3, r7
.Ltmp16:
	@DEBUG_VALUE: HAL_GPIO_Init:temp <- $r3
	.loc	6 226 20                @ ../Drivers/STM32F7xx_HAL_Driver/Src/stm32f7xx_hal_gpio.c:226:20
	str	r3, [r0]
.Ltmp17:
	.loc	6 229 51                @ ../Drivers/STM32F7xx_HAL_Driver/Src/stm32f7xx_hal_gpio.c:229:51
	bhi	.LBB0_6
.Ltmp18:
@ %bb.5:                                @   in Loop: Header=BB0_1 Depth=1
	@DEBUG_VALUE: HAL_GPIO_Init:temp <- $r3
	@DEBUG_VALUE: HAL_GPIO_Init:ioposition <- $r6
	@DEBUG_VALUE: HAL_GPIO_Init:position <- $r2
	@DEBUG_VALUE: HAL_GPIO_Init:GPIO_Init <- $r1
	@DEBUG_VALUE: HAL_GPIO_Init:GPIOx <- $r0
	.loc	6 0 51 is_stmt 0        @ ../Drivers/STM32F7xx_HAL_Driver/Src/stm32f7xx_hal_gpio.c:0:51
	lsl.w	r3, r9, r5
.Ltmp19:
	tst.w	r3, #393222
.Ltmp20:
	.loc	6 235 23 is_stmt 1      @ ../Drivers/STM32F7xx_HAL_Driver/Src/stm32f7xx_hal_gpio.c:235:23
	itttt	ne
	ldrne	r3, [r0, #8]
.Ltmp21:
	@DEBUG_VALUE: HAL_GPIO_Init:temp <- $r3
	.loc	6 236 14                @ ../Drivers/STM32F7xx_HAL_Driver/Src/stm32f7xx_hal_gpio.c:236:14
	andne	r3, r4
.Ltmp22:
	@DEBUG_VALUE: HAL_GPIO_Init:temp <- $r3
	.loc	6 237 29                @ ../Drivers/STM32F7xx_HAL_Driver/Src/stm32f7xx_hal_gpio.c:237:29
	ldrne	r7, [r1, #12]
	.loc	6 237 35 is_stmt 0      @ ../Drivers/STM32F7xx_HAL_Driver/Src/stm32f7xx_hal_gpio.c:237:35
	lslne.w	r7, r7, r12
	.loc	6 237 14                @ ../Drivers/STM32F7xx_HAL_Driver/Src/stm32f7xx_hal_gpio.c:237:14
	itttt	ne
	orrne	r3, r7
.Ltmp23:
	@DEBUG_VALUE: HAL_GPIO_Init:temp <- $r3
	.loc	6 238 24 is_stmt 1      @ ../Drivers/STM32F7xx_HAL_Driver/Src/stm32f7xx_hal_gpio.c:238:24
	strne	r3, [r0, #8]
	.loc	6 243 56                @ ../Drivers/STM32F7xx_HAL_Driver/Src/stm32f7xx_hal_gpio.c:243:56
	ubfxne	r3, r5, #4, #1
.Ltmp24:
	.loc	6 243 62 is_stmt 0      @ ../Drivers/STM32F7xx_HAL_Driver/Src/stm32f7xx_hal_gpio.c:243:62
	lslne	r3, r2
	.loc	6 241 23 is_stmt 1      @ ../Drivers/STM32F7xx_HAL_Driver/Src/stm32f7xx_hal_gpio.c:241:23
	itttt	ne
	ldrne	r7, [r0, #4]
.Ltmp25:
	@DEBUG_VALUE: HAL_GPIO_Init:temp <- $r7
	.loc	6 242 14                @ ../Drivers/STM32F7xx_HAL_Driver/Src/stm32f7xx_hal_gpio.c:242:14
	bicne	r7, r6
.Ltmp26:
	@DEBUG_VALUE: HAL_GPIO_Init:temp <- $r7
	.loc	6 243 14                @ ../Drivers/STM32F7xx_HAL_Driver/Src/stm32f7xx_hal_gpio.c:243:14
	orrne	r3, r7
.Ltmp27:
	@DEBUG_VALUE: HAL_GPIO_Init:temp <- $r3
	.loc	6 244 23                @ ../Drivers/STM32F7xx_HAL_Driver/Src/stm32f7xx_hal_gpio.c:244:23
	strne	r3, [r0, #4]
.Ltmp28:
.LBB0_6:                                @   in Loop: Header=BB0_1 Depth=1
	@DEBUG_VALUE: HAL_GPIO_Init:temp <- $r3
	@DEBUG_VALUE: HAL_GPIO_Init:ioposition <- $r6
	@DEBUG_VALUE: HAL_GPIO_Init:position <- $r2
	@DEBUG_VALUE: HAL_GPIO_Init:GPIO_Init <- $r1
	@DEBUG_VALUE: HAL_GPIO_Init:GPIOx <- $r0
	.loc	6 248 21                @ ../Drivers/STM32F7xx_HAL_Driver/Src/stm32f7xx_hal_gpio.c:248:21
	ldr	r3, [r0, #12]
.Ltmp29:
	@DEBUG_VALUE: HAL_GPIO_Init:temp <- $r3
	.loc	6 249 12                @ ../Drivers/STM32F7xx_HAL_Driver/Src/stm32f7xx_hal_gpio.c:249:12
	ands	r3, r4
.Ltmp30:
	@DEBUG_VALUE: HAL_GPIO_Init:temp <- $r3
	.loc	6 250 28                @ ../Drivers/STM32F7xx_HAL_Driver/Src/stm32f7xx_hal_gpio.c:250:28
	ldr	r4, [r1, #8]
	.loc	6 250 34 is_stmt 0      @ ../Drivers/STM32F7xx_HAL_Driver/Src/stm32f7xx_hal_gpio.c:250:34
	lsl.w	r4, r4, r12
	.loc	6 250 12                @ ../Drivers/STM32F7xx_HAL_Driver/Src/stm32f7xx_hal_gpio.c:250:12
	orrs	r3, r4
.Ltmp31:
	@DEBUG_VALUE: HAL_GPIO_Init:temp <- $r3
	.loc	6 251 20 is_stmt 1      @ ../Drivers/STM32F7xx_HAL_Driver/Src/stm32f7xx_hal_gpio.c:251:20
	str	r3, [r0, #12]
	.loc	6 255 10                @ ../Drivers/STM32F7xx_HAL_Driver/Src/stm32f7xx_hal_gpio.c:255:10
	lsls	r3, r5, #3
.Ltmp32:
	bpl	.LBB0_8
.Ltmp33:
@ %bb.7:                                @   in Loop: Header=BB0_1 Depth=1
	@DEBUG_VALUE: HAL_GPIO_Init:ioposition <- $r6
	@DEBUG_VALUE: HAL_GPIO_Init:position <- $r2
	@DEBUG_VALUE: HAL_GPIO_Init:GPIO_Init <- $r1
	@DEBUG_VALUE: HAL_GPIO_Init:GPIOx <- $r0
	.loc	6 0 10 is_stmt 0        @ ../Drivers/STM32F7xx_HAL_Driver/Src/stm32f7xx_hal_gpio.c:0:10
	ldr	r3, __arm_cp.0_4
.Ltmp34:
	.loc	6 261 42 is_stmt 1      @ ../Drivers/STM32F7xx_HAL_Driver/Src/stm32f7xx_hal_gpio.c:261:42
	and	r5, r10, #12
	.loc	6 261 36 is_stmt 0      @ ../Drivers/STM32F7xx_HAL_Driver/Src/stm32f7xx_hal_gpio.c:261:36
	movs	r7, #15
	lsls	r7, r5
	.loc	6 262 52 is_stmt 1      @ ../Drivers/STM32F7xx_HAL_Driver/Src/stm32f7xx_hal_gpio.c:262:52
	lsl.w	r5, r8, r5
	mov	r4, r3
.Ltmp35:
	.loc	6 258 9                 @ ../Drivers/STM32F7xx_HAL_Driver/Src/stm32f7xx_hal_gpio.c:258:9
	ldr	r3, [r3]
	orr	r3, r3, #16384
	str	r3, [r4]
	ldr	r3, [r4]
	ldr	r4, __arm_cp.0_2
	and	r3, r3, #16384
.Ltmp36:
	@DEBUG_VALUE: tmpreg <- $r3
	.loc	6 0 9 is_stmt 0         @ ../Drivers/STM32F7xx_HAL_Driver/Src/stm32f7xx_hal_gpio.c:0:9
	mov	r11, r4
	.loc	6 258 9                 @ ../Drivers/STM32F7xx_HAL_Driver/Src/stm32f7xx_hal_gpio.c:258:9
	str	r3, [sp]
.Ltmp37:
	.loc	6 260 40 is_stmt 1      @ ../Drivers/STM32F7xx_HAL_Driver/Src/stm32f7xx_hal_gpio.c:260:40
	bic	r3, r2, #3
.Ltmp38:
	.loc	6 260 16 is_stmt 0      @ ../Drivers/STM32F7xx_HAL_Driver/Src/stm32f7xx_hal_gpio.c:260:16
	add	r3, r4
.Ltmp39:
	.loc	6 258 9 is_stmt 1       @ ../Drivers/STM32F7xx_HAL_Driver/Src/stm32f7xx_hal_gpio.c:258:9
	ldr	r4, [sp]
.Ltmp40:
	@DEBUG_VALUE: tmpreg <- $r4
	.loc	6 0 9 is_stmt 0         @ ../Drivers/STM32F7xx_HAL_Driver/Src/stm32f7xx_hal_gpio.c:0:9
	ldr	r4, __arm_cp.0_6
.Ltmp41:
	mov	lr, r4
.Ltmp42:
	.loc	6 260 16 is_stmt 1      @ ../Drivers/STM32F7xx_HAL_Driver/Src/stm32f7xx_hal_gpio.c:260:16
	ldr	r4, [r3, r4]
.Ltmp43:
	@DEBUG_VALUE: HAL_GPIO_Init:temp <- $r4
	.loc	6 261 14                @ ../Drivers/STM32F7xx_HAL_Driver/Src/stm32f7xx_hal_gpio.c:261:14
	bics	r4, r7
.Ltmp44:
	@DEBUG_VALUE: HAL_GPIO_Init:temp <- $r4
	.loc	6 262 14                @ ../Drivers/STM32F7xx_HAL_Driver/Src/stm32f7xx_hal_gpio.c:262:14
	orrs	r4, r5
.Ltmp45:
	@DEBUG_VALUE: HAL_GPIO_Init:temp <- $r4
	.loc	6 263 39                @ ../Drivers/STM32F7xx_HAL_Driver/Src/stm32f7xx_hal_gpio.c:263:39
	str.w	r4, [r3, lr]
	.loc	6 266 22                @ ../Drivers/STM32F7xx_HAL_Driver/Src/stm32f7xx_hal_gpio.c:266:22
	ldr.w	r3, [r11]
.Ltmp46:
	@DEBUG_VALUE: HAL_GPIO_Init:temp <- undef
	.loc	6 268 24                @ ../Drivers/STM32F7xx_HAL_Driver/Src/stm32f7xx_hal_gpio.c:268:24
	ldr	r5, [r1, #4]
.Ltmp47:
	.loc	6 270 16                @ ../Drivers/STM32F7xx_HAL_Driver/Src/stm32f7xx_hal_gpio.c:270:16
	orr.w	r4, r3, r6
.Ltmp48:
	.loc	6 268 12                @ ../Drivers/STM32F7xx_HAL_Driver/Src/stm32f7xx_hal_gpio.c:268:12
	tst.w	r5, #65536
	it	eq
	biceq.w	r4, r3, r6
.Ltmp49:
	@DEBUG_VALUE: HAL_GPIO_Init:temp <- $r4
	.loc	6 276 12                @ ../Drivers/STM32F7xx_HAL_Driver/Src/stm32f7xx_hal_gpio.c:276:12
	tst.w	r5, #131072
	.loc	6 272 19                @ ../Drivers/STM32F7xx_HAL_Driver/Src/stm32f7xx_hal_gpio.c:272:19
	str.w	r4, [r11]
	.loc	6 274 22                @ ../Drivers/STM32F7xx_HAL_Driver/Src/stm32f7xx_hal_gpio.c:274:22
	ldr.w	r3, [r11, #4]
.Ltmp50:
	@DEBUG_VALUE: HAL_GPIO_Init:temp <- undef
	.loc	6 278 16                @ ../Drivers/STM32F7xx_HAL_Driver/Src/stm32f7xx_hal_gpio.c:278:16
	orr.w	r4, r3, r6
.Ltmp51:
	@DEBUG_VALUE: HAL_GPIO_Init:temp <- $r4
	.loc	6 276 12                @ ../Drivers/STM32F7xx_HAL_Driver/Src/stm32f7xx_hal_gpio.c:276:12
	it	eq
	biceq.w	r4, r3, r6
.Ltmp52:
	@DEBUG_VALUE: HAL_GPIO_Init:temp <- $r4
	.loc	6 285 12                @ ../Drivers/STM32F7xx_HAL_Driver/Src/stm32f7xx_hal_gpio.c:285:12
	tst.w	r5, #1048576
	.loc	6 280 19                @ ../Drivers/STM32F7xx_HAL_Driver/Src/stm32f7xx_hal_gpio.c:280:19
	str.w	r4, [r11, #4]
	.loc	6 283 22                @ ../Drivers/STM32F7xx_HAL_Driver/Src/stm32f7xx_hal_gpio.c:283:22
	ldr.w	r3, [r11, #8]
.Ltmp53:
	@DEBUG_VALUE: HAL_GPIO_Init:temp <- undef
	.loc	6 287 16                @ ../Drivers/STM32F7xx_HAL_Driver/Src/stm32f7xx_hal_gpio.c:287:16
	orr.w	r4, r3, r6
.Ltmp54:
	.loc	6 285 12                @ ../Drivers/STM32F7xx_HAL_Driver/Src/stm32f7xx_hal_gpio.c:285:12
	it	eq
	biceq.w	r4, r3, r6
.Ltmp55:
	@DEBUG_VALUE: HAL_GPIO_Init:temp <- $r4
	.loc	6 0 12 is_stmt 0        @ ../Drivers/STM32F7xx_HAL_Driver/Src/stm32f7xx_hal_gpio.c:0:12
	ldr	r3, __arm_cp.0_3
	.loc	6 293 12 is_stmt 1      @ ../Drivers/STM32F7xx_HAL_Driver/Src/stm32f7xx_hal_gpio.c:293:12
	tst.w	r5, #2097152
	.loc	6 289 20                @ ../Drivers/STM32F7xx_HAL_Driver/Src/stm32f7xx_hal_gpio.c:289:20
	str.w	r4, [r11, #8]
	mov	r7, r3
	.loc	6 291 22                @ ../Drivers/STM32F7xx_HAL_Driver/Src/stm32f7xx_hal_gpio.c:291:22
	ldr	r3, [r3]
.Ltmp56:
	@DEBUG_VALUE: HAL_GPIO_Init:temp <- undef
	.loc	6 295 16                @ ../Drivers/STM32F7xx_HAL_Driver/Src/stm32f7xx_hal_gpio.c:295:16
	orr.w	r4, r3, r6
.Ltmp57:
	@DEBUG_VALUE: HAL_GPIO_Init:temp <- $r4
	.loc	6 293 12                @ ../Drivers/STM32F7xx_HAL_Driver/Src/stm32f7xx_hal_gpio.c:293:12
	it	eq
	biceq.w	r4, r3, r6
.Ltmp58:
	@DEBUG_VALUE: HAL_GPIO_Init:temp <- $r4
	.loc	6 297 20                @ ../Drivers/STM32F7xx_HAL_Driver/Src/stm32f7xx_hal_gpio.c:297:20
	str	r4, [r7]
.Ltmp59:
.LBB0_8:                                @   in Loop: Header=BB0_1 Depth=1
	@DEBUG_VALUE: HAL_GPIO_Init:ioposition <- $r6
	@DEBUG_VALUE: HAL_GPIO_Init:position <- $r2
	@DEBUG_VALUE: HAL_GPIO_Init:GPIO_Init <- $r1
	@DEBUG_VALUE: HAL_GPIO_Init:GPIOx <- $r0
	.loc	6 199 3                 @ ../Drivers/STM32F7xx_HAL_Driver/Src/stm32f7xx_hal_gpio.c:199:3
	add.w	r12, r12, #2
	add.w	r10, r10, #4
	.loc	6 199 53 is_stmt 0      @ ../Drivers/STM32F7xx_HAL_Driver/Src/stm32f7xx_hal_gpio.c:199:53
	adds	r2, #1
.Ltmp60:
	@DEBUG_VALUE: HAL_GPIO_Init:position <- $r2
	.loc	6 0 53                  @ ../Drivers/STM32F7xx_HAL_Driver/Src/stm32f7xx_hal_gpio.c:0:53
	b	.LBB0_1
.Ltmp61:
	.p2align	2
@ %bb.9:
__arm_cp.0_0:
	.long	1073882112              @ 0x40022400
.Lcpi_end0:
	.size	__arm_cp.0_0, .Lcpi_end0-__arm_cp.0_0
__arm_cp.0_1:
	.long	3221094400              @ 0xbffe0000
.Lcpi_end1:
	.size	__arm_cp.0_1, .Lcpi_end1-__arm_cp.0_1
__arm_cp.0_2:
	.long	1073822720              @ 0x40013c00
.Lcpi_end2:
	.size	__arm_cp.0_2, .Lcpi_end2-__arm_cp.0_2
__arm_cp.0_3:
	.long	1073822732              @ 0x40013c0c
.Lcpi_end3:
	.size	__arm_cp.0_3, .Lcpi_end3-__arm_cp.0_3
__arm_cp.0_4:
	.long	1073887300              @ 0x40023844
.Lcpi_end4:
	.size	__arm_cp.0_4, .Lcpi_end4-__arm_cp.0_4
__arm_cp.0_5:
	.long	2147483644              @ 0x7ffffffc
.Lcpi_end5:
	.size	__arm_cp.0_5, .Lcpi_end5-__arm_cp.0_5
__arm_cp.0_6:
	.long	4294966280              @ 0xfffffc08
.Lcpi_end6:
	.size	__arm_cp.0_6, .Lcpi_end6-__arm_cp.0_6
.Lfunc_end0:
	.size	HAL_GPIO_Init, .Lfunc_end0-HAL_GPIO_Init
	.cfi_endproc
	.cantunwind
	.fnend
                                        @ -- End function
	.section	.text.HAL_GPIO_DeInit,"ax",%progbits
	.hidden	HAL_GPIO_DeInit         @ -- Begin function HAL_GPIO_DeInit
	.globl	HAL_GPIO_DeInit
	.p2align	2
	.type	HAL_GPIO_DeInit,%function
	.code	16                      @ @HAL_GPIO_DeInit
	.thumb_func
HAL_GPIO_DeInit:
.Lfunc_begin1:
	.loc	6 311 0 is_stmt 1       @ ../Drivers/STM32F7xx_HAL_Driver/Src/stm32f7xx_hal_gpio.c:311:0
	.fnstart
	.cfi_startproc
@ %bb.0:
	.save	{r4, r5, r6, r7, r8, r9, r10, r11, lr}
	push.w	{r4, r5, r6, r7, r8, r9, r10, r11, lr}
	.cfi_def_cfa_offset 36
	.cfi_offset lr, -4
	.cfi_offset r11, -8
	.cfi_offset r10, -12
	.cfi_offset r9, -16
	.cfi_offset r8, -20
	.cfi_offset r7, -24
	.cfi_offset r6, -28
	.cfi_offset r5, -32
	.cfi_offset r4, -36
	@DEBUG_VALUE: HAL_GPIO_DeInit:GPIOx <- $r0
	@DEBUG_VALUE: HAL_GPIO_DeInit:GPIOx <- $r0
	@DEBUG_VALUE: HAL_GPIO_DeInit:GPIO_Pin <- $r1
	@DEBUG_VALUE: HAL_GPIO_DeInit:GPIO_Pin <- $r1
	ldr	r2, __arm_cp.1_0
	mov.w	r9, #10
	mov.w	r11, #0
	mov.w	r12, #1
	mov.w	r8, #15
	mov.w	lr, #0
	movs	r7, #0
	cmp	r0, r2
	ldr	r2, __arm_cp.1_1
.Ltmp62:
	@DEBUG_VALUE: HAL_GPIO_DeInit:position <- 0
	@DEBUG_VALUE: HAL_GPIO_DeInit:tmp <- 0
	@DEBUG_VALUE: HAL_GPIO_DeInit:iocurrent <- 0
	@DEBUG_VALUE: HAL_GPIO_DeInit:ioposition <- 0
	it	eq
	moveq.w	r9, #9
	add	r2, r0
	ror.w	r3, r2, #10
	cmp	r3, #9
	it	lo
	rorlo.w	r9, r2, #10
	ldr	r2, __arm_cp.1_2
	sub.w	r10, r2, #1016
.LBB1_1:                                @ =>This Inner Loop Header: Depth=1
	@DEBUG_VALUE: HAL_GPIO_DeInit:GPIO_Pin <- $r1
	@DEBUG_VALUE: HAL_GPIO_DeInit:GPIOx <- $r0
.Ltmp63:
	@DEBUG_VALUE: HAL_GPIO_DeInit:position <- $r7
	.loc	6 321 3 prologue_end    @ ../Drivers/STM32F7xx_HAL_Driver/Src/stm32f7xx_hal_gpio.c:321:3
	cmp	r7, #16
.Ltmp64:
	.loc	6 365 1                 @ ../Drivers/STM32F7xx_HAL_Driver/Src/stm32f7xx_hal_gpio.c:365:1
	it	eq
	popeq.w	{r4, r5, r6, r7, r8, r9, r10, r11, pc}
.Ltmp65:
	.loc	6 324 35                @ ../Drivers/STM32F7xx_HAL_Driver/Src/stm32f7xx_hal_gpio.c:324:35
	lsl.w	r2, r12, r7
.Ltmp66:
	@DEBUG_VALUE: HAL_GPIO_DeInit:ioposition <- $r2
	.loc	6 328 8                 @ ../Drivers/STM32F7xx_HAL_Driver/Src/stm32f7xx_hal_gpio.c:328:8
	tst	r2, r1
	beq	.LBB1_4
.Ltmp67:
@ %bb.2:                                @   in Loop: Header=BB1_1 Depth=1
	@DEBUG_VALUE: HAL_GPIO_DeInit:ioposition <- $r2
	@DEBUG_VALUE: HAL_GPIO_DeInit:GPIO_Pin <- $r1
	@DEBUG_VALUE: HAL_GPIO_DeInit:GPIOx <- $r0
	.loc	6 332 43                @ ../Drivers/STM32F7xx_HAL_Driver/Src/stm32f7xx_hal_gpio.c:332:43
	movs	r3, #3
	.loc	6 332 20 is_stmt 0      @ ../Drivers/STM32F7xx_HAL_Driver/Src/stm32f7xx_hal_gpio.c:332:20
	ldr	r6, [r0]
	.loc	6 348 38 is_stmt 1      @ ../Drivers/STM32F7xx_HAL_Driver/Src/stm32f7xx_hal_gpio.c:348:38
	and	r5, lr, #12
	.loc	6 332 43                @ ../Drivers/STM32F7xx_HAL_Driver/Src/stm32f7xx_hal_gpio.c:332:43
	lsl.w	r4, r3, r11
	.loc	6 335 27                @ ../Drivers/STM32F7xx_HAL_Driver/Src/stm32f7xx_hal_gpio.c:335:27
	ldr	r3, __arm_cp.1_4
	.loc	6 332 20                @ ../Drivers/STM32F7xx_HAL_Driver/Src/stm32f7xx_hal_gpio.c:332:20
	bics	r6, r4
	.loc	6 335 27                @ ../Drivers/STM32F7xx_HAL_Driver/Src/stm32f7xx_hal_gpio.c:335:27
	and.w	r3, r3, r7, lsr #1
	.loc	6 332 20                @ ../Drivers/STM32F7xx_HAL_Driver/Src/stm32f7xx_hal_gpio.c:332:20
	str	r6, [r0]
	.loc	6 335 94                @ ../Drivers/STM32F7xx_HAL_Driver/Src/stm32f7xx_hal_gpio.c:335:94
	and	r6, lr, #28
	.loc	6 335 7 is_stmt 0       @ ../Drivers/STM32F7xx_HAL_Driver/Src/stm32f7xx_hal_gpio.c:335:7
	add	r3, r0
	.loc	6 335 52                @ ../Drivers/STM32F7xx_HAL_Driver/Src/stm32f7xx_hal_gpio.c:335:52
	lsl.w	r6, r8, r6
	.loc	6 335 33                @ ../Drivers/STM32F7xx_HAL_Driver/Src/stm32f7xx_hal_gpio.c:335:33
	ldr.w	r12, [r3, #32]
	bic.w	r6, r12, r6
	mov.w	r12, #1
	str	r6, [r3, #32]
	.loc	6 348 32 is_stmt 1      @ ../Drivers/STM32F7xx_HAL_Driver/Src/stm32f7xx_hal_gpio.c:348:32
	lsl.w	r6, r8, r5
.Ltmp68:
	@DEBUG_VALUE: HAL_GPIO_DeInit:tmp <- $r6
	.loc	6 349 52                @ ../Drivers/STM32F7xx_HAL_Driver/Src/stm32f7xx_hal_gpio.c:349:52
	lsl.w	r5, r9, r5
.Ltmp69:
	.loc	6 338 22                @ ../Drivers/STM32F7xx_HAL_Driver/Src/stm32f7xx_hal_gpio.c:338:22
	ldr	r3, [r0, #8]
	bics	r3, r4
	str	r3, [r0, #8]
	.loc	6 341 22                @ ../Drivers/STM32F7xx_HAL_Driver/Src/stm32f7xx_hal_gpio.c:341:22
	ldr	r3, [r0, #4]
	bics	r3, r2
	str	r3, [r0, #4]
	.loc	6 344 20                @ ../Drivers/STM32F7xx_HAL_Driver/Src/stm32f7xx_hal_gpio.c:344:20
	ldr	r3, [r0, #12]
	bics	r3, r4
	.loc	6 347 37                @ ../Drivers/STM32F7xx_HAL_Driver/Src/stm32f7xx_hal_gpio.c:347:37
	lsrs	r4, r7, #2
	.loc	6 344 20                @ ../Drivers/STM32F7xx_HAL_Driver/Src/stm32f7xx_hal_gpio.c:344:20
	str	r3, [r0, #12]
	.loc	6 347 13                @ ../Drivers/STM32F7xx_HAL_Driver/Src/stm32f7xx_hal_gpio.c:347:13
	ldr.w	r3, [r10, r4, lsl #2]
.Ltmp70:
	@DEBUG_VALUE: HAL_GPIO_DeInit:tmp <- $r3
	.loc	6 348 11                @ ../Drivers/STM32F7xx_HAL_Driver/Src/stm32f7xx_hal_gpio.c:348:11
	ands	r3, r6
.Ltmp71:
	@DEBUG_VALUE: HAL_GPIO_DeInit:tmp <- $r3
	.loc	6 349 10                @ ../Drivers/STM32F7xx_HAL_Driver/Src/stm32f7xx_hal_gpio.c:349:10
	cmp	r3, r5
	bne	.LBB1_4
.Ltmp72:
@ %bb.3:                                @   in Loop: Header=BB1_1 Depth=1
	@DEBUG_VALUE: HAL_GPIO_DeInit:tmp <- $r3
	@DEBUG_VALUE: HAL_GPIO_DeInit:ioposition <- $r2
	@DEBUG_VALUE: HAL_GPIO_DeInit:GPIO_Pin <- $r1
	@DEBUG_VALUE: HAL_GPIO_DeInit:GPIOx <- $r0
	.loc	6 353 39                @ ../Drivers/STM32F7xx_HAL_Driver/Src/stm32f7xx_hal_gpio.c:353:39
	ldr.w	r3, [r10, r4, lsl #2]
.Ltmp73:
	.loc	6 0 39 is_stmt 0        @ ../Drivers/STM32F7xx_HAL_Driver/Src/stm32f7xx_hal_gpio.c:0:39
	mvns	r2, r2
.Ltmp74:
	.loc	6 353 39                @ ../Drivers/STM32F7xx_HAL_Driver/Src/stm32f7xx_hal_gpio.c:353:39
	bics	r3, r6
	str.w	r3, [r10, r4, lsl #2]
	ldr	r3, __arm_cp.1_2
	mov	r6, r3
	.loc	6 356 19 is_stmt 1      @ ../Drivers/STM32F7xx_HAL_Driver/Src/stm32f7xx_hal_gpio.c:356:19
	ldr	r3, [r3]
	ands	r3, r2
	str	r3, [r6]
	.loc	6 357 19                @ ../Drivers/STM32F7xx_HAL_Driver/Src/stm32f7xx_hal_gpio.c:357:19
	ldr	r3, [r6, #4]
	ands	r3, r2
	str	r3, [r6, #4]
	.loc	6 360 20                @ ../Drivers/STM32F7xx_HAL_Driver/Src/stm32f7xx_hal_gpio.c:360:20
	ldr	r3, [r6, #8]
	ands	r3, r2
	str	r3, [r6, #8]
	ldr	r3, __arm_cp.1_3
	mov	r6, r3
	.loc	6 361 20                @ ../Drivers/STM32F7xx_HAL_Driver/Src/stm32f7xx_hal_gpio.c:361:20
	ldr	r3, [r3]
	ands	r2, r3
	str	r2, [r6]
.Ltmp75:
.LBB1_4:                                @   in Loop: Header=BB1_1 Depth=1
	@DEBUG_VALUE: HAL_GPIO_DeInit:GPIO_Pin <- $r1
	@DEBUG_VALUE: HAL_GPIO_DeInit:GPIOx <- $r0
	.loc	6 321 3                 @ ../Drivers/STM32F7xx_HAL_Driver/Src/stm32f7xx_hal_gpio.c:321:3
	add.w	r11, r11, #2
	add.w	lr, lr, #4
	.loc	6 321 53 is_stmt 0      @ ../Drivers/STM32F7xx_HAL_Driver/Src/stm32f7xx_hal_gpio.c:321:53
	adds	r7, #1
.Ltmp76:
	@DEBUG_VALUE: HAL_GPIO_DeInit:position <- $r7
	.loc	6 0 53                  @ ../Drivers/STM32F7xx_HAL_Driver/Src/stm32f7xx_hal_gpio.c:0:53
	b	.LBB1_1
.Ltmp77:
	.p2align	2
@ %bb.5:
__arm_cp.1_0:
	.long	1073882112              @ 0x40022400
.Lcpi_end7:
	.size	__arm_cp.1_0, .Lcpi_end7-__arm_cp.1_0
__arm_cp.1_1:
	.long	3221094400              @ 0xbffe0000
.Lcpi_end8:
	.size	__arm_cp.1_1, .Lcpi_end8-__arm_cp.1_1
__arm_cp.1_2:
	.long	1073822720              @ 0x40013c00
.Lcpi_end9:
	.size	__arm_cp.1_2, .Lcpi_end9-__arm_cp.1_2
__arm_cp.1_3:
	.long	1073822732              @ 0x40013c0c
.Lcpi_end10:
	.size	__arm_cp.1_3, .Lcpi_end10-__arm_cp.1_3
__arm_cp.1_4:
	.long	2147483644              @ 0x7ffffffc
.Lcpi_end11:
	.size	__arm_cp.1_4, .Lcpi_end11-__arm_cp.1_4
.Lfunc_end1:
	.size	HAL_GPIO_DeInit, .Lfunc_end1-HAL_GPIO_DeInit
	.cfi_endproc
	.cantunwind
	.fnend
                                        @ -- End function
	.section	.text.HAL_GPIO_ReadPin,"ax",%progbits
	.hidden	HAL_GPIO_ReadPin        @ -- Begin function HAL_GPIO_ReadPin
	.globl	HAL_GPIO_ReadPin
	.p2align	1
	.type	HAL_GPIO_ReadPin,%function
	.code	16                      @ @HAL_GPIO_ReadPin
	.thumb_func
HAL_GPIO_ReadPin:
.Lfunc_begin2:
	.loc	6 391 0 is_stmt 1       @ ../Drivers/STM32F7xx_HAL_Driver/Src/stm32f7xx_hal_gpio.c:391:0
	.fnstart
	.cfi_startproc
@ %bb.0:
	@DEBUG_VALUE: HAL_GPIO_ReadPin:GPIOx <- $r0
	@DEBUG_VALUE: HAL_GPIO_ReadPin:GPIOx <- $r0
	@DEBUG_VALUE: HAL_GPIO_ReadPin:GPIO_Pin <- $r1
	@DEBUG_VALUE: HAL_GPIO_ReadPin:GPIO_Pin <- $r1
	.loc	6 397 14 prologue_end   @ ../Drivers/STM32F7xx_HAL_Driver/Src/stm32f7xx_hal_gpio.c:397:14
	ldr	r0, [r0, #16]
.Ltmp78:
	.loc	6 397 18 is_stmt 0      @ ../Drivers/STM32F7xx_HAL_Driver/Src/stm32f7xx_hal_gpio.c:397:18
	ands	r0, r1
	.loc	6 397 30                @ ../Drivers/STM32F7xx_HAL_Driver/Src/stm32f7xx_hal_gpio.c:397:30
	it	ne
	movne	r0, #1
.Ltmp79:
	.loc	6 405 3 is_stmt 1       @ ../Drivers/STM32F7xx_HAL_Driver/Src/stm32f7xx_hal_gpio.c:405:3
	bx	lr
.Ltmp80:
.Lfunc_end2:
	.size	HAL_GPIO_ReadPin, .Lfunc_end2-HAL_GPIO_ReadPin
	.cfi_endproc
	.cantunwind
	.fnend
                                        @ -- End function
	.section	.text.HAL_GPIO_WritePin,"ax",%progbits
	.hidden	HAL_GPIO_WritePin       @ -- Begin function HAL_GPIO_WritePin
	.globl	HAL_GPIO_WritePin
	.p2align	1
	.type	HAL_GPIO_WritePin,%function
	.code	16                      @ @HAL_GPIO_WritePin
	.thumb_func
HAL_GPIO_WritePin:
.Lfunc_begin3:
	.loc	6 425 0                 @ ../Drivers/STM32F7xx_HAL_Driver/Src/stm32f7xx_hal_gpio.c:425:0
	.fnstart
	.cfi_startproc
@ %bb.0:
	@DEBUG_VALUE: HAL_GPIO_WritePin:GPIOx <- $r0
	@DEBUG_VALUE: HAL_GPIO_WritePin:GPIOx <- $r0
	@DEBUG_VALUE: HAL_GPIO_WritePin:GPIO_Pin <- $r1
	@DEBUG_VALUE: HAL_GPIO_WritePin:GPIO_Pin <- $r1
	@DEBUG_VALUE: HAL_GPIO_WritePin:PinState <- $r2
	@DEBUG_VALUE: HAL_GPIO_WritePin:PinState <- $r2
	.loc	6 430 6 prologue_end    @ ../Drivers/STM32F7xx_HAL_Driver/Src/stm32f7xx_hal_gpio.c:430:6
	cmp	r2, #0
	it	eq
	lsleq	r1, r1, #16
.Ltmp81:
	.loc	6 0 6 is_stmt 0         @ ../Drivers/STM32F7xx_HAL_Driver/Src/stm32f7xx_hal_gpio.c:0:6
	str	r1, [r0, #24]
	.loc	6 438 1 is_stmt 1       @ ../Drivers/STM32F7xx_HAL_Driver/Src/stm32f7xx_hal_gpio.c:438:1
	bx	lr
.Ltmp82:
.Lfunc_end3:
	.size	HAL_GPIO_WritePin, .Lfunc_end3-HAL_GPIO_WritePin
	.cfi_endproc
	.cantunwind
	.fnend
                                        @ -- End function
	.section	.text.HAL_GPIO_TogglePin,"ax",%progbits
	.hidden	HAL_GPIO_TogglePin      @ -- Begin function HAL_GPIO_TogglePin
	.globl	HAL_GPIO_TogglePin
	.p2align	1
	.type	HAL_GPIO_TogglePin,%function
	.code	16                      @ @HAL_GPIO_TogglePin
	.thumb_func
HAL_GPIO_TogglePin:
.Lfunc_begin4:
	.loc	6 447 0                 @ ../Drivers/STM32F7xx_HAL_Driver/Src/stm32f7xx_hal_gpio.c:447:0
	.fnstart
	.cfi_startproc
@ %bb.0:
	@DEBUG_VALUE: HAL_GPIO_TogglePin:GPIOx <- $r0
	@DEBUG_VALUE: HAL_GPIO_TogglePin:GPIOx <- $r0
	@DEBUG_VALUE: HAL_GPIO_TogglePin:GPIO_Pin <- $r1
	@DEBUG_VALUE: HAL_GPIO_TogglePin:GPIO_Pin <- $r1
	.loc	6 451 14 prologue_end   @ ../Drivers/STM32F7xx_HAL_Driver/Src/stm32f7xx_hal_gpio.c:451:14
	ldr	r2, [r0, #20]
	eors	r1, r2
.Ltmp83:
	str	r1, [r0, #20]
	.loc	6 452 1                 @ ../Drivers/STM32F7xx_HAL_Driver/Src/stm32f7xx_hal_gpio.c:452:1
	bx	lr
.Ltmp84:
.Lfunc_end4:
	.size	HAL_GPIO_TogglePin, .Lfunc_end4-HAL_GPIO_TogglePin
	.cfi_endproc
	.cantunwind
	.fnend
                                        @ -- End function
	.section	.text.HAL_GPIO_LockPin,"ax",%progbits
	.hidden	HAL_GPIO_LockPin        @ -- Begin function HAL_GPIO_LockPin
	.globl	HAL_GPIO_LockPin
	.p2align	1
	.type	HAL_GPIO_LockPin,%function
	.code	16                      @ @HAL_GPIO_LockPin
	.thumb_func
HAL_GPIO_LockPin:
.Lfunc_begin5:
	.loc	6 466 0                 @ ../Drivers/STM32F7xx_HAL_Driver/Src/stm32f7xx_hal_gpio.c:466:0
	.fnstart
	.cfi_startproc
@ %bb.0:
	.pad	#4
	sub	sp, #4
	.cfi_def_cfa_offset 4
	@DEBUG_VALUE: HAL_GPIO_LockPin:GPIOx <- $r0
	@DEBUG_VALUE: HAL_GPIO_LockPin:GPIOx <- $r0
	@DEBUG_VALUE: HAL_GPIO_LockPin:GPIO_Pin <- $r1
	@DEBUG_VALUE: HAL_GPIO_LockPin:GPIO_Pin <- $r1
.Ltmp85:
	.loc	6 467 17 prologue_end   @ ../Drivers/STM32F7xx_HAL_Driver/Src/stm32f7xx_hal_gpio.c:467:17
	mov.w	r2, #65536
.Ltmp86:
	@DEBUG_VALUE: HAL_GPIO_LockPin:tmp <- 65536
	str	r2, [sp]
	.loc	6 473 7                 @ ../Drivers/STM32F7xx_HAL_Driver/Src/stm32f7xx_hal_gpio.c:473:7
	ldr	r2, [sp]
.Ltmp87:
	@DEBUG_VALUE: HAL_GPIO_LockPin:tmp <- $r2
	orrs	r2, r1
.Ltmp88:
	@DEBUG_VALUE: HAL_GPIO_LockPin:tmp <- $r2
	str	r2, [sp]
	.loc	6 475 17                @ ../Drivers/STM32F7xx_HAL_Driver/Src/stm32f7xx_hal_gpio.c:475:17
	ldr	r2, [sp]
.Ltmp89:
	@DEBUG_VALUE: HAL_GPIO_LockPin:tmp <- $r2
	.loc	6 475 15 is_stmt 0      @ ../Drivers/STM32F7xx_HAL_Driver/Src/stm32f7xx_hal_gpio.c:475:15
	str	r2, [r0, #28]
	.loc	6 477 15 is_stmt 1      @ ../Drivers/STM32F7xx_HAL_Driver/Src/stm32f7xx_hal_gpio.c:477:15
	str	r1, [r0, #28]
	.loc	6 479 17                @ ../Drivers/STM32F7xx_HAL_Driver/Src/stm32f7xx_hal_gpio.c:479:17
	ldr	r1, [sp]
.Ltmp90:
	@DEBUG_VALUE: HAL_GPIO_LockPin:tmp <- $r1
	.loc	6 479 15 is_stmt 0      @ ../Drivers/STM32F7xx_HAL_Driver/Src/stm32f7xx_hal_gpio.c:479:15
	str	r1, [r0, #28]
	.loc	6 481 16 is_stmt 1      @ ../Drivers/STM32F7xx_HAL_Driver/Src/stm32f7xx_hal_gpio.c:481:16
	ldr	r1, [r0, #28]
.Ltmp91:
	@DEBUG_VALUE: HAL_GPIO_LockPin:tmp <- $r1
	.loc	6 481 7 is_stmt 0       @ ../Drivers/STM32F7xx_HAL_Driver/Src/stm32f7xx_hal_gpio.c:481:7
	str	r1, [sp]
	movs	r1, #1
.Ltmp92:
	.loc	6 483 13 is_stmt 1      @ ../Drivers/STM32F7xx_HAL_Driver/Src/stm32f7xx_hal_gpio.c:483:13
	ldr	r0, [r0, #28]
.Ltmp93:
	.loc	6 483 5 is_stmt 0       @ ../Drivers/STM32F7xx_HAL_Driver/Src/stm32f7xx_hal_gpio.c:483:5
	bic.w	r0, r1, r0, lsr #16
	.loc	6 491 1 is_stmt 1       @ ../Drivers/STM32F7xx_HAL_Driver/Src/stm32f7xx_hal_gpio.c:491:1
	add	sp, #4
	bx	lr
.Ltmp94:
.Lfunc_end5:
	.size	HAL_GPIO_LockPin, .Lfunc_end5-HAL_GPIO_LockPin
	.cfi_endproc
	.cantunwind
	.fnend
                                        @ -- End function
	.section	.text.HAL_GPIO_EXTI_IRQHandler,"ax",%progbits
	.hidden	HAL_GPIO_EXTI_IRQHandler @ -- Begin function HAL_GPIO_EXTI_IRQHandler
	.globl	HAL_GPIO_EXTI_IRQHandler
	.p2align	2
	.type	HAL_GPIO_EXTI_IRQHandler,%function
	.code	16                      @ @HAL_GPIO_EXTI_IRQHandler
	.thumb_func
HAL_GPIO_EXTI_IRQHandler:
.Lfunc_begin6:
	.loc	6 499 0                 @ ../Drivers/STM32F7xx_HAL_Driver/Src/stm32f7xx_hal_gpio.c:499:0
	.fnstart
	.cfi_startproc
@ %bb.0:
	@DEBUG_VALUE: HAL_GPIO_EXTI_IRQHandler:GPIO_Pin <- $r0
	ldr	r1, __arm_cp.6_0
	@DEBUG_VALUE: HAL_GPIO_EXTI_IRQHandler:GPIO_Pin <- $r0
.Ltmp95:
	.loc	6 501 6 prologue_end    @ ../Drivers/STM32F7xx_HAL_Driver/Src/stm32f7xx_hal_gpio.c:501:6
	ldr	r2, [r1]
.Ltmp96:
	.loc	6 501 6 is_stmt 0       @ ../Drivers/STM32F7xx_HAL_Driver/Src/stm32f7xx_hal_gpio.c:501:6
	tst	r2, r0
.Ltmp97:
	.loc	6 503 5 is_stmt 1       @ ../Drivers/STM32F7xx_HAL_Driver/Src/stm32f7xx_hal_gpio.c:503:5
	itt	ne
	strne	r0, [r1]
	.loc	6 504 5                 @ ../Drivers/STM32F7xx_HAL_Driver/Src/stm32f7xx_hal_gpio.c:504:5
	bne	HAL_GPIO_EXTI_Callback
.Ltmp98:
	.loc	6 506 1                 @ ../Drivers/STM32F7xx_HAL_Driver/Src/stm32f7xx_hal_gpio.c:506:1
	bx	lr
.Ltmp99:
	.p2align	2
@ %bb.1:
	.loc	6 0 1 is_stmt 0         @ ../Drivers/STM32F7xx_HAL_Driver/Src/stm32f7xx_hal_gpio.c:0:1
__arm_cp.6_0:
	.long	1073822740              @ 0x40013c14
.Lcpi_end12:
	.size	__arm_cp.6_0, .Lcpi_end12-__arm_cp.6_0
.Lfunc_end6:
	.size	HAL_GPIO_EXTI_IRQHandler, .Lfunc_end6-HAL_GPIO_EXTI_IRQHandler
	.cfi_endproc
	.cantunwind
	.fnend
                                        @ -- End function
	.section	.text.HAL_GPIO_EXTI_Callback,"ax",%progbits
	.hidden	HAL_GPIO_EXTI_Callback  @ -- Begin function HAL_GPIO_EXTI_Callback
	.weak	HAL_GPIO_EXTI_Callback
	.p2align	1
	.type	HAL_GPIO_EXTI_Callback,%function
	.code	16                      @ @HAL_GPIO_EXTI_Callback
	.thumb_func
HAL_GPIO_EXTI_Callback:
.Lfunc_begin7:
	.loc	6 514 0 is_stmt 1       @ ../Drivers/STM32F7xx_HAL_Driver/Src/stm32f7xx_hal_gpio.c:514:0
	.fnstart
	.cfi_startproc
@ %bb.0:
	@DEBUG_VALUE: HAL_GPIO_EXTI_Callback:GPIO_Pin <- $r0
	.loc	6 521 1 prologue_end    @ ../Drivers/STM32F7xx_HAL_Driver/Src/stm32f7xx_hal_gpio.c:521:1
	bx	lr
.Ltmp100:
.Lfunc_end7:
	.size	HAL_GPIO_EXTI_Callback, .Lfunc_end7-HAL_GPIO_EXTI_Callback
	.cfi_endproc
	.cantunwind
	.fnend
                                        @ -- End function
	.section	".note.GNU-stack","",%progbits
	.eabi_attribute	30, 4	@ Tag_ABI_optimization_goals
	.ARM_attribute	16, 1	@ Tag_AV_eba