	.text
	.syntax unified
	.eabi_attribute	67, "2.09"	@ Tag_conformance
	.cpu	cortex-m7
	.eabi_attribute	6, 13	@ Tag_CPU_arch
	.eabi_attribute	7, 77	@ Tag_CPU_arch_profile
	.eabi_attribute	8, 0	@ Tag_ARM_ISA_use
	.eabi_attribute	9, 2	@ Tag_THUMB_ISA_use
	.fpu	fpv5-sp-d16
	.eabi_attribute	27, 1	@ Tag_ABI_HardFP_use
	.eabi_attribute	36, 1	@ Tag_FP_HP_extension
	.eabi_attribute	34, 1	@ Tag_CPU_unaligned_access
	.eabi_attribute	17, 1	@ Tag_ABI_PCS_GOT_use
	.eabi_attribute	20, 2	@ Tag_ABI_FP_denormal
	.eabi_attribute	21, 0	@ Tag_ABI_FP_exceptions
	.eabi_attribute	23, 1	@ Tag_ABI_FP_number_model
	.eabi_attribute	24, 1	@ Tag_ABI_align_needed
	.eabi_attribute	25, 1	@ Tag_ABI_align_preserved
	.eabi_attribute	28, 1	@ Tag_ABI_VFP_args
	.eabi_attribute	38, 1	@ Tag_ABI_FP_16bit_format
	.eabi_attribute	18, 2	@ Tag_ABI_PCS_wchar_t
	.eabi_attribute	26, 1	@ Tag_ABI_enum_size
	.eabi_attribute	14, 0	@ Tag_ABI_PCS_R9_use
	.file	"stm32f7xx_hal_sdram.c"
	.file	1 "../Drivers/STM32F7xx_HAL_Driver/Inc" "stm32f7xx_hal_def.h"
	.file	2 "../Drivers/STM32F7xx_HAL_Driver/Inc" "stm32f7xx_hal_sdram.h"
	.file	3 "../Drivers/STM32F7xx_HAL_Driver/Inc" "stm32f7xx_hal_dma.h"
	.file	4 "C:\\Keil\\ARM\\ARMCLANG\\Bin\\..\\include" "stdint.h"
	.section	.text.HAL_SDRAM_Init,"ax",%progbits
	.hidden	HAL_SDRAM_Init          @ -- Begin function HAL_SDRAM_Init
	.globl	HAL_SDRAM_Init
	.p2align	1
	.type	HAL_SDRAM_Init,%function
	.code	16                      @ @HAL_SDRAM_Init
	.thumb_func
HAL_SDRAM_Init:
.Lfunc_begin0:
	.file	5 "../Drivers/STM32F7xx_HAL_Driver/Src" "stm32f7xx_hal_sdram.c"
	.loc	5 137 0                 @ ../Drivers/STM32F7xx_HAL_Driver/Src/stm32f7xx_hal_sdram.c:137:0
	.fnstart
	.cfi_sections .debug_frame
	.cfi_startproc
@ %bb.0:
	.save	{r4, r5, r7, lr}
	push	{r4, r5, r7, lr}
	.cfi_def_cfa_offset 16
	.cfi_offset lr, -4
	.cfi_offset r7, -8
	.cfi_offset r5, -12
	.cfi_offset r4, -16
	@DEBUG_VALUE: HAL_SDRAM_Init:hsdram <- $r0
	@DEBUG_VALUE: HAL_SDRAM_Init:Timing <- $r1
	mov	r5, r1
	mov	r4, r0
.Ltmp0:
	@DEBUG_VALUE: HAL_SDRAM_Init:Timing <- $r5
	@DEBUG_VALUE: HAL_SDRAM_Init:hsdram <- $r4
	.loc	5 139 6 prologue_end    @ ../Drivers/STM32F7xx_HAL_Driver/Src/stm32f7xx_hal_sdram.c:139:6
	cbz	r0, .LBB0_4
.Ltmp1:
@ %bb.1:
	@DEBUG_VALUE: HAL_SDRAM_Init:hsdram <- $r4
	@DEBUG_VALUE: HAL_SDRAM_Init:Timing <- $r5
	.loc	5 144 14                @ ../Drivers/STM32F7xx_HAL_Driver/Src/stm32f7xx_hal_sdram.c:144:14
	ldrb.w	r0, [r4, #44]
.Ltmp2:
	.loc	5 144 6 is_stmt 0       @ ../Drivers/STM32F7xx_HAL_Driver/Src/stm32f7xx_hal_sdram.c:144:6
	cbnz	r0, .LBB0_3
.Ltmp3:
@ %bb.2:
	@DEBUG_VALUE: HAL_SDRAM_Init:hsdram <- $r4
	@DEBUG_VALUE: HAL_SDRAM_Init:Timing <- $r5
	.loc	5 147 18 is_stmt 1      @ ../Drivers/STM32F7xx_HAL_Driver/Src/stm32f7xx_hal_sdram.c:147:18
	movs	r0, #0
	strb.w	r0, [r4, #45]
	.loc	5 149 5                 @ ../Drivers/STM32F7xx_HAL_Driver/Src/stm32f7xx_hal_sdram.c:149:5
	mov	r0, r4
	bl	HAL_SDRAM_MspInit
.Ltmp4:
.LBB0_3:
	@DEBUG_VALUE: HAL_SDRAM_Init:hsdram <- $r4
	@DEBUG_VALUE: HAL_SDRAM_Init:Timing <- $r5
	.loc	5 153 17                @ ../Drivers/STM32F7xx_HAL_Driver/Src/stm32f7xx_hal_sdram.c:153:17
	movs	r0, #2
	.loc	5 156 46                @ ../Drivers/STM32F7xx_HAL_Driver/Src/stm32f7xx_hal_sdram.c:156:46
	adds	r1, r4, #4
	.loc	5 153 17                @ ../Drivers/STM32F7xx_HAL_Driver/Src/stm32f7xx_hal_sdram.c:153:17
	strb.w	r0, [r4, #44]
	.loc	5 156 26                @ ../Drivers/STM32F7xx_HAL_Driver/Src/stm32f7xx_hal_sdram.c:156:26
	ldr	r0, [r4]
	.loc	5 156 3 is_stmt 0       @ ../Drivers/STM32F7xx_HAL_Driver/Src/stm32f7xx_hal_sdram.c:156:3
	bl	FMC_SDRAM_Init
	.loc	5 159 33 is_stmt 1      @ ../Drivers/STM32F7xx_HAL_Driver/Src/stm32f7xx_hal_sdram.c:159:33
	ldrd	r0, r2, [r4]
	.loc	5 159 3 is_stmt 0       @ ../Drivers/STM32F7xx_HAL_Driver/Src/stm32f7xx_hal_sdram.c:159:3
	mov	r1, r5
	bl	FMC_SDRAM_Timing_Init
	.loc	5 162 17 is_stmt 1      @ ../Drivers/STM32F7xx_HAL_Driver/Src/stm32f7xx_hal_sdram.c:162:17
	movs	r0, #1
	strb.w	r0, [r4, #44]
	movs	r0, #0
	.loc	5 165 1                 @ ../Drivers/STM32F7xx_HAL_Driver/Src/stm32f7xx_hal_sdram.c:165:1
	pop	{r4, r5, r7, pc}
.Ltmp5:
.LBB0_4:
	@DEBUG_VALUE: HAL_SDRAM_Init:hsdram <- $r4
	@DEBUG_VALUE: HAL_SDRAM_Init:Timing <- $r5
	.loc	5 0 1 is_stmt 0         @ ../Drivers/STM32F7xx_HAL_Driver/Src/stm32f7xx_hal_sdram.c:0:1
	movs	r0, #1
	.loc	5 165 1                 @ ../Drivers/STM32F7xx_HAL_Driver/Src/stm32f7xx_hal_sdram.c:165:1
	pop	{r4, r5, r7, pc}
.Ltmp6:
.Lfunc_end0:
	.size	HAL_SDRAM_Init, .Lfunc_end0-HAL_SDRAM_Init
	.cfi_endproc
	.cantunwind
	.fnend
                                        @ -- End function
	.section	.text.HAL_SDRAM_MspInit,"ax",%progbits
	.hidden	HAL_SDRAM_MspInit       @ -- Begin function HAL_SDRAM_MspInit
	.weak	HAL_SDRAM_MspInit
	.p2align	1
	.type	HAL_SDRAM_MspInit,%function
	.code	16                      @ @HAL_SDRAM_MspInit
	.thumb_func
HAL_SDRAM_MspInit:
.Lfunc_begin1:
	.loc	5 197 0 is_stmt 1       @ ../Drivers/STM32F7xx_HAL_Driver/Src/stm32f7xx_hal_sdram.c:197:0
	.fnstart
	.cfi_startproc
@ %bb.0:
	@DEBUG_VALUE: HAL_SDRAM_MspInit:hsdram <- $r0
	.loc	5 204 1 prologue_end    @ ../Drivers/STM32F7xx_HAL_Driver/Src/stm32f7xx_hal_sdram.c:204:1
	bx	lr
.Ltmp7:
.Lfunc_end1:
	.size	HAL_SDRAM_MspInit, .Lfunc_end1-HAL_SDRAM_MspInit
	.cfi_endproc
	.cantunwind
	.fnend
                                        @ -- End function
	.section	.text.HAL_SDRAM_DeInit,"ax",%progbits
	.hidden	HAL_SDRAM_DeInit        @ -- Begin function HAL_SDRAM_DeInit
	.globl	HAL_SDRAM_DeInit
	.p2align	1
	.type	HAL_SDRAM_DeInit,%function
	.code	16                      @ @HAL_SDRAM_DeInit
	.thumb_func
HAL_SDRAM_DeInit:
.Lfunc_begin2:
	.loc	5 174 0                 @ ../Drivers/STM32F7xx_HAL_Driver/Src/stm32f7xx_hal_sdram.c:174:0
	.fnstart
	.cfi_startproc
@ %bb.0:
	.save	{r4, lr}
	push	{r4, lr}
	.cfi_def_cfa_offset 8
	.cfi_offset lr, -4
	.cfi_offset r4, -8
	@DEBUG_VALUE: HAL_SDRAM_DeInit:hsdram <- $r0
	mov	r4, r0
.Ltmp8:
	@DEBUG_VALUE: HAL_SDRAM_DeInit:hsdram <- $r4
	.loc	5 176 3 prologue_end    @ ../Drivers/STM32F7xx_HAL_Driver/Src/stm32f7xx_hal_sdram.c:176:3
	bl	HAL_SDRAM_MspDeInit
	.loc	5 179 28                @ ../Drivers/STM32F7xx_HAL_Driver/Src/stm32f7xx_hal_sdram.c:179:28
	ldrd	r0, r1, [r4]
	.loc	5 179 3 is_stmt 0       @ ../Drivers/STM32F7xx_HAL_Driver/Src/stm32f7xx_hal_sdram.c:179:3
	bl	FMC_SDRAM_DeInit
	movs	r0, #0
	.loc	5 182 17 is_stmt 1      @ ../Drivers/STM32F7xx_HAL_Driver/Src/stm32f7xx_hal_sdram.c:182:17
	strb.w	r0, [r4, #44]
.Ltmp9:
	.loc	5 185 3                 @ ../Drivers/STM32F7xx_HAL_Driver/Src/stm32f7xx_hal_sdram.c:185:3
	strb.w	r0, [r4, #45]
.Ltmp10:
	.loc	5 187 3                 @ ../Drivers/STM32F7xx_HAL_Driver/Src/stm32f7xx_hal_sdram.c:187:3
	movs	r0, #0
	pop	{r4, pc}
.Ltmp11:
.Lfunc_end2:
	.size	HAL_SDRAM_DeInit, .Lfunc_end2-HAL_SDRAM_DeInit
	.cfi_endproc
	.cantunwind
	.fnend
                                        @ -- End function
	.section	.text.HAL_SDRAM_MspDeInit,"ax",%progbits
	.hidden	HAL_SDRAM_MspDeInit     @ -- Begin function HAL_SDRAM_MspDeInit
	.weak	HAL_SDRAM_MspDeInit
	.p2align	1
	.type	HAL_SDRAM_MspDeInit,%function
	.code	16                      @ @HAL_SDRAM_MspDeInit
	.thumb_func
HAL_SDRAM_MspDeInit:
.Lfunc_begin3:
	.loc	5 213 0                 @ ../Drivers/STM32F7xx_HAL_Driver/Src/stm32f7xx_hal_sdram.c:213:0
	.fnstart
	.cfi_startproc
@ %bb.0:
	@DEBUG_VALUE: HAL_SDRAM_MspDeInit:hsdram <- $r0
	.loc	5 220 1 prologue_end    @ ../Drivers/STM32F7xx_HAL_Driver/Src/stm32f7xx_hal_sdram.c:220:1
	bx	lr
.Ltmp12:
.Lfunc_end3:
	.size	HAL_SDRAM_MspDeInit, .Lfunc_end3-HAL_SDRAM_MspDeInit
	.cfi_endproc
	.cantunwind
	.fnend
                                        @ -- End function
	.section	.text.HAL_SDRAM_IRQHandler,"ax",%progbits
	.hidden	HAL_SDRAM_IRQHandler    @ -- Begin function HAL_SDRAM_IRQHandler
	.globl	HAL_SDRAM_IRQHandler
	.p2align	1
	.type	HAL_SDRAM_IRQHandler,%function
	.code	16                      @ @HAL_SDRAM_IRQHandler
	.thumb_func
HAL_SDRAM_IRQHandler:
.Lfunc_begin4:
	.loc	5 229 0                 @ ../Drivers/STM32F7xx_HAL_Driver/Src/stm32f7xx_hal_sdram.c:229:0
	.fnstart
	.cfi_startproc
@ %bb.0:
	.save	{r4, lr}
	push	{r4, lr}
	.cfi_def_cfa_offset 8
	.cfi_offset lr, -4
	.cfi_offset r4, -8
	@DEBUG_VALUE: HAL_SDRAM_IRQHandler:hsdram <- $r0
	mov	r4, r0
.Ltmp13:
	@DEBUG_VALUE: HAL_SDRAM_IRQHandler:hsdram <- $r4
	.loc	5 231 6 prologue_end    @ ../Drivers/STM32F7xx_HAL_Driver/Src/stm32f7xx_hal_sdram.c:231:6
	ldr	r0, [r0]
	ldr	r0, [r0, #24]
.Ltmp14:
	.loc	5 231 6 is_stmt 0       @ ../Drivers/STM32F7xx_HAL_Driver/Src/stm32f7xx_hal_sdram.c:231:6
	tst.w	r0, #1
	.loc	5 239 1 is_stmt 1       @ ../Drivers/STM32F7xx_HAL_Driver/Src/stm32f7xx_hal_sdram.c:239:1
	it	eq
	popeq	{r4, pc}
.Ltmp15:
	.loc	5 234 5                 @ ../Drivers/STM32F7xx_HAL_Driver/Src/stm32f7xx_hal_sdram.c:234:5
	mov	r0, r4
	bl	HAL_SDRAM_RefreshErrorCallback
	.loc	5 237 5                 @ ../Drivers/STM32F7xx_HAL_Driver/Src/stm32f7xx_hal_sdram.c:237:5
	ldr	r0, [r4]
	ldr	r1, [r0, #20]
	orr	r1, r1, #1
	str	r1, [r0, #20]
.Ltmp16:
	.loc	5 239 1                 @ ../Drivers/STM32F7xx_HAL_Driver/Src/stm32f7xx_hal_sdram.c:239:1
	pop	{r4, pc}
.Ltmp17:
.Lfunc_end4:
	.size	HAL_SDRAM_IRQHandler, .Lfunc_end4-HAL_SDRAM_IRQHandler
	.cfi_endproc
	.cantunwind
	.fnend
                                        @ -- End function
	.section	.text.HAL_SDRAM_RefreshErrorCallback,"ax",%progbits
	.hidden	HAL_SDRAM_RefreshErrorCallback @ -- Begin function HAL_SDRAM_RefreshErrorCallback
	.weak	HAL_SDRAM_RefreshErrorCallback
	.p2align	1
	.type	HAL_SDRAM_RefreshErrorCallback,%function
	.code	16                      @ @HAL_SDRAM_RefreshErrorCallback
	.thumb_func
HAL_SDRAM_RefreshErrorCallback:
.Lfunc_begin5:
	.loc	5 248 0                 @ ../Drivers/STM32F7xx_HAL_Driver/Src/stm32f7xx_hal_sdram.c:248:0
	.fnstart
	.cfi_startproc
@ %bb.0:
	@DEBUG_VALUE: HAL_SDRAM_RefreshErrorCallback:hsdram <- $r0
	.loc	5 255 1 prologue_end    @ ../Drivers/STM32F7xx_HAL_Driver/Src/stm32f7xx_hal_sdram.c:255:1
	bx	lr
.Ltmp18:
.Lfunc_end5:
	.size	HAL_SDRAM_RefreshErrorCallback, .Lfunc_end5-HAL_SDRAM_RefreshErrorCallback
	.cfi_endproc
	.cantunwind
	.fnend
                                        @ -- End function
	.section	.text.HAL_SDRAM_DMA_XferCpltCallback,"ax",%progbits
	.hidden	HAL_SDRAM_DMA_XferCpltCallback @ -- Begin function HAL_SDRAM_DMA_XferCpltCallback
	.weak	HAL_SDRAM_DMA_XferCpltCallback
	.p2align	1
	.type	HAL_SDRAM_DMA_XferCpltCallback,%function
	.code	16                      @ @HAL_SDRAM_DMA_XferCpltCallback
	.thumb_func
HAL_SDRAM_DMA_XferCpltCallback:
.Lfunc_begin6:
	.loc	5 264 0                 @ ../Drivers/STM32F7xx_HAL_Driver/Src/stm32f7xx_hal_sdram.c:264:0
	.fnstart
	.cfi_startproc
@ %bb.0:
	@DEBUG_VALUE: HAL_SDRAM_DMA_XferCpltCallback:hdma <- $r0
	.loc	5 271 1 prologue_end    @ ../Drivers/STM32F7xx_HAL_Driver/Src/stm32f7xx_hal_sdram.c:271:1
	bx	lr
.Ltmp19:
.Lfunc_end6:
	.size	HAL_SDRAM_DMA_XferCpltCallback, .Lfunc_end6-HAL_SDRAM_DMA_XferCpltCallback
	.cfi_endproc
	.cantunwind
	.fnend
                                        @ -- End function
	.section	.text.HAL_SDRAM_DMA_XferErrorCallback,"ax",%progbits
	.hidden	HAL_SDRAM_DMA_XferErrorCallback @ -- Begin function HAL_SDRAM_DMA_XferErrorCallback
	.weak	HAL_SDRAM_DMA_XferErrorCallback
	.p2align	1
	.type	HAL_SDRAM_DMA_XferErrorCallback,%function
	.code	16                      @ @HAL_SDRAM_DMA_XferErrorCallback
	.thumb_func
HAL_SDRAM_DMA_XferErrorCallback:
.Lfunc_begin7:
	.loc	5 279 0                 @ ../Drivers/STM32F7xx_HAL_Driver/Src/stm32f7xx_hal_sdram.c:279:0
	.fnstart
	.cfi_startproc
@ %bb.0:
	@DEBUG_VALUE: HAL_SDRAM_DMA_XferErrorCallback:hdma <- $r0
	.loc	5 286 1 prologue_end    @ ../Drivers/STM32F7xx_HAL_Driver/Src/stm32f7xx_hal_sdram.c:286:1
	bx	lr
.Ltmp20:
.Lfunc_end7:
	.size	HAL_SDRAM_DMA_XferErrorCallback, .Lfunc_end7-HAL_SDRAM_DMA_XferErrorCallback
	.cfi_endproc
	.cantunwind
	.fnend
                                        @ -- End function
	.section	.text.HAL_SDRAM_Read_8b,"ax",%progbits
	.hidden	HAL_SDRAM_Read_8b       @ -- Begin function HAL_SDRAM_Read_8b
	.globl	HAL_SDRAM_Read_8b
	.p2align	1
	.type	HAL_SDRAM_Read_8b,%function
	.code	16                      @ @HAL_SDRAM_Read_8b
	.thumb_func
HAL_SDRAM_Read_8b:
.Lfunc_begin8:
	.loc	5 316 0                 @ ../Drivers/STM32F7xx_HAL_Driver/Src/stm32f7xx_hal_sdram.c:316:0
	.fnstart
	.cfi_startproc
@ %bb.0:
	@DEBUG_VALUE: HAL_SDRAM_Read_8b:hsdram <- $r0
	@DEBUG_VALUE: HAL_SDRAM_Read_8b:hsdram <- $r0
	@DEBUG_VALUE: HAL_SDRAM_Read_8b:pAddress <- $r1
	@DEBUG_VALUE: HAL_SDRAM_Read_8b:pAddress <- $r1
	@DEBUG_VALUE: HAL_SDRAM_Read_8b:pDstBuffer <- $r2
	@DEBUG_VALUE: HAL_SDRAM_Read_8b:pDstBuffer <- $r2
	@DEBUG_VALUE: HAL_SDRAM_Read_8b:BufferSize <- $r3
	@DEBUG_VALUE: HAL_SDRAM_Read_8b:BufferSize <- $r3
	@DEBUG_VALUE: HAL_SDRAM_Read_8b:pSdramAddress <- $r1
	@DEBUG_VALUE: HAL_SDRAM_Read_8b:pSdramAddress <- $r1
	.loc	5 320 3 prologue_end    @ ../Drivers/STM32F7xx_HAL_Driver/Src/stm32f7xx_hal_sdram.c:320:3
	ldrb.w	r12, [r0, #45]
.Ltmp21:
	.loc	5 320 3 is_stmt 0       @ ../Drivers/STM32F7xx_HAL_Driver/Src/stm32f7xx_hal_sdram.c:320:3
	cmp.w	r12, #1
	beq	.LBB8_2
.Ltmp22:
@ %bb.1:
	@DEBUG_VALUE: HAL_SDRAM_Read_8b:pSdramAddress <- $r1
	@DEBUG_VALUE: HAL_SDRAM_Read_8b:BufferSize <- $r3
	@DEBUG_VALUE: HAL_SDRAM_Read_8b:pDstBuffer <- $r2
	@DEBUG_VALUE: HAL_SDRAM_Read_8b:pAddress <- $r1
	@DEBUG_VALUE: HAL_SDRAM_Read_8b:hsdram <- $r0
	.loc	5 0 3                   @ ../Drivers/STM32F7xx_HAL_Driver/Src/stm32f7xx_hal_sdram.c:0:3
	mov.w	r12, #1
.Ltmp23:
	.loc	5 320 3                 @ ../Drivers/STM32F7xx_HAL_Driver/Src/stm32f7xx_hal_sdram.c:320:3
	strb.w	r12, [r0, #45]
.Ltmp24:
	.loc	5 323 14 is_stmt 1      @ ../Drivers/STM32F7xx_HAL_Driver/Src/stm32f7xx_hal_sdram.c:323:14
	ldrb.w	r12, [r0, #44]
.Ltmp25:
	.loc	5 323 6 is_stmt 0       @ ../Drivers/STM32F7xx_HAL_Driver/Src/stm32f7xx_hal_sdram.c:323:6
	cmp.w	r12, #2
	bne	.LBB8_4
.Ltmp26:
.LBB8_2:
	@DEBUG_VALUE: HAL_SDRAM_Read_8b:pSdramAddress <- $r1
	@DEBUG_VALUE: HAL_SDRAM_Read_8b:BufferSize <- $r3
	@DEBUG_VALUE: HAL_SDRAM_Read_8b:pDstBuffer <- $r2
	@DEBUG_VALUE: HAL_SDRAM_Read_8b:pAddress <- $r1
	@DEBUG_VALUE: HAL_SDRAM_Read_8b:hsdram <- $r0
	.loc	5 0 6                   @ ../Drivers/STM32F7xx_HAL_Driver/Src/stm32f7xx_hal_sdram.c:0:6
	movs	r1, #2
.Ltmp27:
.LBB8_3:
	@DEBUG_VALUE: HAL_SDRAM_Read_8b:BufferSize <- $r3
	@DEBUG_VALUE: HAL_SDRAM_Read_8b:pDstBuffer <- $r2
	@DEBUG_VALUE: HAL_SDRAM_Read_8b:hsdram <- $r0
	.loc	5 344 1 is_stmt 1       @ ../Drivers/STM32F7xx_HAL_Driver/Src/stm32f7xx_hal_sdram.c:344:1
	uxtb	r0, r1
	bx	lr
.Ltmp28:
.LBB8_4:
	@DEBUG_VALUE: HAL_SDRAM_Read_8b:pSdramAddress <- $r1
	@DEBUG_VALUE: HAL_SDRAM_Read_8b:BufferSize <- $r3
	@DEBUG_VALUE: HAL_SDRAM_Read_8b:pDstBuffer <- $r2
	@DEBUG_VALUE: HAL_SDRAM_Read_8b:pAddress <- $r1
	@DEBUG_VALUE: HAL_SDRAM_Read_8b:hsdram <- $r0
	.loc	5 327 19                @ ../Drivers/STM32F7xx_HAL_Driver/Src/stm32f7xx_hal_sdram.c:327:19
	ldrb.w	r12, [r0, #44]
.Ltmp29:
	.loc	5 327 11 is_stmt 0      @ ../Drivers/STM32F7xx_HAL_Driver/Src/stm32f7xx_hal_sdram.c:327:11
	cmp.w	r12, #5
	bne	.LBB8_7
.Ltmp30:
@ %bb.5:
	@DEBUG_VALUE: HAL_SDRAM_Read_8b:pSdramAddress <- $r1
	@DEBUG_VALUE: HAL_SDRAM_Read_8b:BufferSize <- $r3
	@DEBUG_VALUE: HAL_SDRAM_Read_8b:pDstBuffer <- $r2
	@DEBUG_VALUE: HAL_SDRAM_Read_8b:pAddress <- $r1
	@DEBUG_VALUE: HAL_SDRAM_Read_8b:hsdram <- $r0
	.loc	5 0 11                  @ ../Drivers/STM32F7xx_HAL_Driver/Src/stm32f7xx_hal_sdram.c:0:11
	movs	r1, #1
.Ltmp31:
	b	.LBB8_3
.Ltmp32:
.LBB8_6:                                @   in Loop: Header=BB8_7 Depth=1
	@DEBUG_VALUE: HAL_SDRAM_Read_8b:pSdramAddress <- $r1
	@DEBUG_VALUE: HAL_SDRAM_Read_8b:BufferSize <- $r3
	@DEBUG_VALUE: HAL_SDRAM_Read_8b:pDstBuffer <- $r2
	@DEBUG_VALUE: HAL_SDRAM_Read_8b:pAddress <- $r1
	@DEBUG_VALUE: HAL_SDRAM_Read_8b:hsdram <- $r0
	@DEBUG_VALUE: HAL_SDRAM_Read_8b:pDstBuffer <- $r2
	@DEBUG_VALUE: HAL_SDRAM_Read_8b:pSdramAddress <- $r1
	.loc	5 335 19 is_stmt 1      @ ../Drivers/STM32F7xx_HAL_Driver/Src/stm32f7xx_hal_sdram.c:335:19
	ldrb	r12, [r1], #1
.Ltmp33:
	@DEBUG_VALUE: HAL_SDRAM_Read_8b:pSdramAddress <- $r1
	.loc	5 333 36                @ ../Drivers/STM32F7xx_HAL_Driver/Src/stm32f7xx_hal_sdram.c:333:36
	subs	r3, #1
.Ltmp34:
	@DEBUG_VALUE: HAL_SDRAM_Read_8b:BufferSize <- $r3
	.loc	5 335 17                @ ../Drivers/STM32F7xx_HAL_Driver/Src/stm32f7xx_hal_sdram.c:335:17
	strb	r12, [r2], #1
.Ltmp35:
	@DEBUG_VALUE: HAL_SDRAM_Read_8b:pDstBuffer <- $r2
.LBB8_7:                                @ =>This Inner Loop Header: Depth=1
	@DEBUG_VALUE: HAL_SDRAM_Read_8b:pSdramAddress <- $r1
	@DEBUG_VALUE: HAL_SDRAM_Read_8b:BufferSize <- $r3
	@DEBUG_VALUE: HAL_SDRAM_Read_8b:pDstBuffer <- $r2
	@DEBUG_VALUE: HAL_SDRAM_Read_8b:pAddress <- $r1
	@DEBUG_VALUE: HAL_SDRAM_Read_8b:hsdram <- $r0
	@DEBUG_VALUE: HAL_SDRAM_Read_8b:BufferSize <- $r3
	.loc	5 333 3                 @ ../Drivers/STM32F7xx_HAL_Driver/Src/stm32f7xx_hal_sdram.c:333:3
	cmp	r3, #0
	bne	.LBB8_6
.Ltmp36:
@ %bb.8:
	@DEBUG_VALUE: HAL_SDRAM_Read_8b:pSdramAddress <- $r1
	@DEBUG_VALUE: HAL_SDRAM_Read_8b:BufferSize <- $r3
	@DEBUG_VALUE: HAL_SDRAM_Read_8b:pDstBuffer <- $r2
	@DEBUG_VALUE: HAL_SDRAM_Read_8b:pAddress <- $r1
	@DEBUG_VALUE: HAL_SDRAM_Read_8b:hsdram <- $r0
	.loc	5 0 3 is_stmt 0         @ ../Drivers/STM32F7xx_HAL_Driver/Src/stm32f7xx_hal_sdram.c:0:3
	movs	r1, #0
.Ltmp37:
	.loc	5 341 3 is_stmt 1       @ ../Drivers/STM32F7xx_HAL_Driver/Src/stm32f7xx_hal_sdram.c:341:3
	strb.w	r1, [r0, #45]
	b	.LBB8_3
.Ltmp38:
.Lfunc_end8:
	.size	HAL_SDRAM_Read_8b, .Lfunc_end8-HAL_SDRAM_Read_8b
	.cfi_endproc
	.cantunwind
	.fnend
                                        @ -- End function
	.section	.text.HAL_SDRAM_Write_8b,"ax",%progbits
	.hidden	HAL_SDRAM_Write_8b      @ -- Begin function HAL_SDRAM_Write_8b
	.globl	HAL_SDRAM_Write_8b
	.p2align	1
	.type	HAL_SDRAM_Write_8b,%function
	.code	16                      @ @HAL_SDRAM_Write_8b
	.thumb_func
HAL_SDRAM_Write_8b:
.Lfunc_begin9:
	.loc	5 357 0                 @ ../Drivers/STM32F7xx_HAL_Driver/Src/stm32f7xx_hal_sdram.c:357:0
	.fnstart
	.cfi_startproc
@ %bb.0:
	@DEBUG_VALUE: HAL_SDRAM_Write_8b:hsdram <- $r0
	@DEBUG_VALUE: HAL_SDRAM_Write_8b:hsdram <- $r0
	@DEBUG_VALUE: HAL_SDRAM_Write_8b:pAddress <- $r1
	@DEBUG_VALUE: HAL_SDRAM_Write_8b:pAddress <- $r1
	@DEBUG_VALUE: HAL_SDRAM_Write_8b:pSrcBuffer <- $r2
	@DEBUG_VALUE: HAL_SDRAM_Write_8b:pSrcBuffer <- $r2
	@DEBUG_VALUE: HAL_SDRAM_Write_8b:BufferSize <- $r3
	@DEBUG_VALUE: HAL_SDRAM_Write_8b:BufferSize <- $r3
	@DEBUG_VALUE: HAL_SDRAM_Write_8b:pSdramAddress <- $r1
	@DEBUG_VALUE: HAL_SDRAM_Write_8b:pSdramAddress <- $r1
	@DEBUG_VALUE: HAL_SDRAM_Write_8b:tmp <- 0
	.loc	5 362 3 prologue_end    @ ../Drivers/STM32F7xx_HAL_Driver/Src/stm32f7xx_hal_sdram.c:362:3
	ldrb.w	r12, [r0, #45]
.Ltmp39:
	.loc	5 362 3 is_stmt 0       @ ../Drivers/STM32F7xx_HAL_Driver/Src/stm32f7xx_hal_sdram.c:362:3
	cmp.w	r12, #1
	beq	.LBB9_2
.Ltmp40:
@ %bb.1:
	@DEBUG_VALUE: HAL_SDRAM_Write_8b:pSdramAddress <- $r1
	@DEBUG_VALUE: HAL_SDRAM_Write_8b:BufferSize <- $r3
	@DEBUG_VALUE: HAL_SDRAM_Write_8b:pSrcBuffer <- $r2
	@DEBUG_VALUE: HAL_SDRAM_Write_8b:pAddress <- $r1
	@DEBUG_VALUE: HAL_SDRAM_Write_8b:hsdram <- $r0
	.loc	5 362 3                 @ ../Drivers/STM32F7xx_HAL_Driver/Src/stm32f7xx_hal_sdram.c:362:3
	mov.w	r12, #1
	strb.w	r12, [r0, #45]
.Ltmp41:
	.loc	5 365 17 is_stmt 1      @ ../Drivers/STM32F7xx_HAL_Driver/Src/stm32f7xx_hal_sdram.c:365:17
	ldrb.w	r12, [r0, #44]
	.loc	5 367 6                 @ ../Drivers/STM32F7xx_HAL_Driver/Src/stm32f7xx_hal_sdram.c:367:6
	cmp.w	r12, #2
	bne	.LBB9_4
.Ltmp42:
.LBB9_2:
	@DEBUG_VALUE: HAL_SDRAM_Write_8b:pSdramAddress <- $r1
	@DEBUG_VALUE: HAL_SDRAM_Write_8b:BufferSize <- $r3
	@DEBUG_VALUE: HAL_SDRAM_Write_8b:pSrcBuffer <- $r2
	@DEBUG_VALUE: HAL_SDRAM_Write_8b:pAddress <- $r1
	@DEBUG_VALUE: HAL_SDRAM_Write_8b:hsdram <- $r0
	.loc	5 0 6 is_stmt 0         @ ../Drivers/STM32F7xx_HAL_Driver/Src/stm32f7xx_hal_sdram.c:0:6
	movs	r1, #2
.Ltmp43:
.LBB9_3:
	@DEBUG_VALUE: HAL_SDRAM_Write_8b:BufferSize <- $r3
	@DEBUG_VALUE: HAL_SDRAM_Write_8b:pSrcBuffer <- $r2
	@DEBUG_VALUE: HAL_SDRAM_Write_8b:hsdram <- $r0
	.loc	5 388 1 is_stmt 1       @ ../Drivers/STM32F7xx_HAL_Driver/Src/stm32f7xx_hal_sdram.c:388:1
	uxtb	r0, r1
	bx	lr
.Ltmp44:
.LBB9_4:
	@DEBUG_VALUE: HAL_SDRAM_Write_8b:pSdramAddress <- $r1
	@DEBUG_VALUE: HAL_SDRAM_Write_8b:BufferSize <- $r3
	@DEBUG_VALUE: HAL_SDRAM_Write_8b:pSrcBuffer <- $r2
	@DEBUG_VALUE: HAL_SDRAM_Write_8b:pAddress <- $r1
	@DEBUG_VALUE: HAL_SDRAM_Write_8b:hsdram <- $r0
	.loc	5 371 47                @ ../Drivers/STM32F7xx_HAL_Driver/Src/stm32f7xx_hal_sdram.c:371:47
	orr	r12, r12, #1
	cmp.w	r12, #5
	bne	.LBB9_7
.Ltmp45:
@ %bb.5:
	@DEBUG_VALUE: HAL_SDRAM_Write_8b:pSdramAddress <- $r1
	@DEBUG_VALUE: HAL_SDRAM_Write_8b:BufferSize <- $r3
	@DEBUG_VALUE: HAL_SDRAM_Write_8b:pSrcBuffer <- $r2
	@DEBUG_VALUE: HAL_SDRAM_Write_8b:pAddress <- $r1
	@DEBUG_VALUE: HAL_SDRAM_Write_8b:hsdram <- $r0
	.loc	5 0 47 is_stmt 0        @ ../Drivers/STM32F7xx_HAL_Driver/Src/stm32f7xx_hal_sdram.c:0:47
	movs	r1, #1
.Ltmp46:
	b	.LBB9_3
.Ltmp47:
.LBB9_6:                                @   in Loop: Header=BB9_7 Depth=1
	@DEBUG_VALUE: HAL_SDRAM_Write_8b:pSdramAddress <- $r1
	@DEBUG_VALUE: HAL_SDRAM_Write_8b:BufferSize <- $r3
	@DEBUG_VALUE: HAL_SDRAM_Write_8b:pSrcBuffer <- $r2
	@DEBUG_VALUE: HAL_SDRAM_Write_8b:pAddress <- $r1
	@DEBUG_VALUE: HAL_SDRAM_Write_8b:hsdram <- $r0
	@DEBUG_VALUE: HAL_SDRAM_Write_8b:pSrcBuffer <- $r2
	@DEBUG_VALUE: HAL_SDRAM_Write_8b:pSdramAddress <- $r1
	.loc	5 379 38 is_stmt 1      @ ../Drivers/STM32F7xx_HAL_Driver/Src/stm32f7xx_hal_sdram.c:379:38
	ldrb	r12, [r2], #1
.Ltmp48:
	@DEBUG_VALUE: HAL_SDRAM_Write_8b:pSrcBuffer <- $r2
	.loc	5 377 36                @ ../Drivers/STM32F7xx_HAL_Driver/Src/stm32f7xx_hal_sdram.c:377:36
	subs	r3, #1
.Ltmp49:
	@DEBUG_VALUE: HAL_SDRAM_Write_8b:BufferSize <- $r3
	.loc	5 379 36                @ ../Drivers/STM32F7xx_HAL_Driver/Src/stm32f7xx_hal_sdram.c:379:36
	strb	r12, [r1], #1
.Ltmp50:
	@DEBUG_VALUE: HAL_SDRAM_Write_8b:pSdramAddress <- $r1
.LBB9_7:                                @ =>This Inner Loop Header: Depth=1
	@DEBUG_VALUE: HAL_SDRAM_Write_8b:pSdramAddress <- $r1
	@DEBUG_VALUE: HAL_SDRAM_Write_8b:BufferSize <- $r3
	@DEBUG_VALUE: HAL_SDRAM_Write_8b:pSrcBuffer <- $r2
	@DEBUG_VALUE: HAL_SDRAM_Write_8b:pAddress <- $r1
	@DEBUG_VALUE: HAL_SDRAM_Write_8b:hsdram <- $r0
	@DEBUG_VALUE: HAL_SDRAM_Write_8b:BufferSize <- $r3
	.loc	5 377 3                 @ ../Drivers/STM32F7xx_HAL_Driver/Src/stm32f7xx_hal_sdram.c:377:3
	cmp	r3, #0
	bne	.LBB9_6
.Ltmp51:
@ %bb.8:
	@DEBUG_VALUE: HAL_SDRAM_Write_8b:pSdramAddress <- $r1
	@DEBUG_VALUE: HAL_SDRAM_Write_8b:BufferSize <- $r3
	@DEBUG_VALUE: HAL_SDRAM_Write_8b:pSrcBuffer <- $r2
	@DEBUG_VALUE: HAL_SDRAM_Write_8b:pAddress <- $r1
	@DEBUG_VALUE: HAL_SDRAM_Write_8b:hsdram <- $r0
	.loc	5 0 3 is_stmt 0         @ ../Drivers/STM32F7xx_HAL_Driver/Src/stm32f7xx_hal_sdram.c:0:3
	movs	r1, #0
.Ltmp52:
	.loc	5 385 3 is_stmt 1       @ ../Drivers/STM32F7xx_HAL_Driver/Src/stm32f7xx_hal_sdram.c:385:3
	strb.w	r1, [r0, #45]
	b	.LBB9_3
.Ltmp53:
.Lfunc_end9:
	.size	HAL_SDRAM_Write_8b, .Lfunc_end9-HAL_SDRAM_Write_8b
	.cfi_endproc
	.cantunwind
	.fnend
                                        @ -- End function
	.section	.text.HAL_SDRAM_Read_16b,"ax",%progbits
	.hidden	HAL_SDRAM_Read_16b      @ -- Begin function HAL_SDRAM_Read_16b
	.globl	HAL_SDRAM_Read_16b
	.p2align	1
	.type	HAL_SDRAM_Read_16b,%function
	.code	16                      @ @HAL_SDRAM_Read_16b
	.thumb_func
HAL_SDRAM_Read_16b:
.Lfunc_begin10:
	.loc	5 401 0                 @ ../Drivers/STM32F7xx_HAL_Driver/Src/stm32f7xx_hal_sdram.c:401:0
	.fnstart
	.cfi_startproc
@ %bb.0:
	@DEBUG_VALUE: HAL_SDRAM_Read_16b:hsdram <- $r0
	@DEBUG_VALUE: HAL_SDRAM_Read_16b:hsdram <- $r0
	@DEBUG_VALUE: HAL_SDRAM_Read_16b:pAddress <- $r1
	@DEBUG_VALUE: HAL_SDRAM_Read_16b:pAddress <- $r1
	@DEBUG_VALUE: HAL_SDRAM_Read_16b:pDstBuffer <- $r2
	@DEBUG_VALUE: HAL_SDRAM_Read_16b:pDstBuffer <- $r2
	@DEBUG_VALUE: HAL_SDRAM_Read_16b:BufferSize <- $r3
	@DEBUG_VALUE: HAL_SDRAM_Read_16b:BufferSize <- $r3
	@DEBUG_VALUE: HAL_SDRAM_Read_16b:pSdramAddress <- $r1
	@DEBUG_VALUE: HAL_SDRAM_Read_16b:pSdramAddress <- $r1
	.loc	5 405 3 prologue_end    @ ../Drivers/STM32F7xx_HAL_Driver/Src/stm32f7xx_hal_sdram.c:405:3
	ldrb.w	r12, [r0, #45]
.Ltmp54:
	.loc	5 405 3 is_stmt 0       @ ../Drivers/STM32F7xx_HAL_Driver/Src/stm32f7xx_hal_sdram.c:405:3
	cmp.w	r12, #1
	beq	.LBB10_2
.Ltmp55:
@ %bb.1:
	@DEBUG_VALUE: HAL_SDRAM_Read_16b:pSdramAddress <- $r1
	@DEBUG_VALUE: HAL_SDRAM_Read_16b:BufferSize <- $r3
	@DEBUG_VALUE: HAL_SDRAM_Read_16b:pDstBuffer <- $r2
	@DEBUG_VALUE: HAL_SDRAM_Read_16b:pAddress <- $r1
	@DEBUG_VALUE: HAL_SDRAM_Read_16b:hsdram <- $r0
	.loc	5 0 3                   @ ../Drivers/STM32F7xx_HAL_Driver/Src/stm32f7xx_hal_sdram.c:0:3
	mov.w	r12, #1
.Ltmp56:
	.loc	5 405 3                 @ ../Drivers/STM32F7xx_HAL_Driver/Src/stm32f7xx_hal_sdram.c:405:3
	strb.w	r12, [r0, #45]
.Ltmp57:
	.loc	5 408 14 is_stmt 1      @ ../Drivers/STM32F7xx_HAL_Driver/Src/stm32f7xx_hal_sdram.c:408:14
	ldrb.w	r12, [r0, #44]
.Ltmp58:
	.loc	5 408 6 is_stmt 0       @ ../Drivers/STM32F7xx_HAL_Driver/Src/stm32f7xx_hal_sdram.c:408:6
	cmp.w	r12, #2
	bne	.LBB10_4
.Ltmp59:
.LBB10_2:
	@DEBUG_VALUE: HAL_SDRAM_Read_16b:pSdramAddress <- $r1
	@DEBUG_VALUE: HAL_SDRAM_Read_16b:BufferSize <- $r3
	@DEBUG_VALUE: HAL_SDRAM_Read_16b:pDstBuffer <- $r2
	@DEBUG_VALUE: HAL_SDRAM_Read_16b:pAddress <- $r1
	@DEBUG_VALUE: HAL_SDRAM_Read_16b:hsdram <- $r0
	.loc	5 0 6                   @ ../Drivers/STM32F7xx_HAL_Driver/Src/stm32f7xx_hal_sdram.c:0:6
	movs	r1, #2
.Ltmp60:
.LBB10_3:
	@DEBUG_VALUE: HAL_SDRAM_Read_16b:BufferSize <- $r3
	@DEBUG_VALUE: HAL_SDRAM_Read_16b:pDstBuffer <- $r2
	@DEBUG_VALUE: HAL_SDRAM_Read_16b:hsdram <- $r0
	.loc	5 429 1 is_stmt 1       @ ../Drivers/STM32F7xx_HAL_Driver/Src/stm32f7xx_hal_sdram.c:429:1
	uxtb	r0, r1
	bx	lr
.Ltmp61:
.LBB10_4:
	@DEBUG_VALUE: HAL_SDRAM_Read_16b:pSdramAddress <- $r1
	@DEBUG_VALUE: HAL_SDRAM_Read_16b:BufferSize <- $r3
	@DEBUG_VALUE: HAL_SDRAM_Read_16b:pDstBuffer <- $r2
	@DEBUG_VALUE: HAL_SDRAM_Read_16b:pAddress <- $r1
	@DEBUG_VALUE: HAL_SDRAM_Read_16b:hsdram <- $r0
	.loc	5 412 19                @ ../Drivers/STM32F7xx_HAL_Driver/Src/stm32f7xx_hal_sdram.c:412:19
	ldrb.w	r12, [r0, #44]
.Ltmp62:
	.loc	5 412 11 is_stmt 0      @ ../Drivers/STM32F7xx_HAL_Driver/Src/stm32f7xx_hal_sdram.c:412:11
	cmp.w	r12, #5
	bne	.LBB10_7
.Ltmp63:
@ %bb.5:
	@DEBUG_VALUE: HAL_SDRAM_Read_16b:pSdramAddress <- $r1
	@DEBUG_VALUE: HAL_SDRAM_Read_16b:BufferSize <- $r3
	@DEBUG_VALUE: HAL_SDRAM_Read_16b:pDstBuffer <- $r2
	@DEBUG_VALUE: HAL_SDRAM_Read_16b:pAddress <- $r1
	@DEBUG_VALUE: HAL_SDRAM_Read_16b:hsdram <- $r0
	.loc	5 0 11                  @ ../Drivers/STM32F7xx_HAL_Driver/Src/stm32f7xx_hal_sdram.c:0:11
	movs	r1, #1
.Ltmp64:
	b	.LBB10_3
.Ltmp65:
.LBB10_6:                               @   in Loop: Header=BB10_7 Depth=1
	@DEBUG_VALUE: HAL_SDRAM_Read_16b:pSdramAddress <- $r1
	@DEBUG_VALUE: HAL_SDRAM_Read_16b:BufferSize <- $r3
	@DEBUG_VALUE: HAL_SDRAM_Read_16b:pDstBuffer <- $r2
	@DEBUG_VALUE: HAL_SDRAM_Read_16b:pAddress <- $r1
	@DEBUG_VALUE: HAL_SDRAM_Read_16b:hsdram <- $r0
	@DEBUG_VALUE: HAL_SDRAM_Read_16b:pDstBuffer <- $r2
	@DEBUG_VALUE: HAL_SDRAM_Read_16b:pSdramAddress <- $r1
	.loc	5 420 19 is_stmt 1      @ ../Drivers/STM32F7xx_HAL_Driver/Src/stm32f7xx_hal_sdram.c:420:19
	ldrh	r12, [r1], #2
.Ltmp66:
	@DEBUG_VALUE: HAL_SDRAM_Read_16b:pSdramAddress <- $r1
	.loc	5 418 36                @ ../Drivers/STM32F7xx_HAL_Driver/Src/stm32f7xx_hal_sdram.c:418:36
	subs	r3, #1
.Ltmp67:
	@DEBUG_VALUE: HAL_SDRAM_Read_16b:BufferSize <- $r3
	.loc	5 420 17                @ ../Drivers/STM32F7xx_HAL_Driver/Src/stm32f7xx_hal_sdram.c:420:17
	strh	r12, [r2], #2
.Ltmp68:
	@DEBUG_VALUE: HAL_SDRAM_Read_16b:pDstBuffer <- $r2
.LBB10_7:                               @ =>This Inner Loop Header: Depth=1
	@DEBUG_VALUE: HAL_SDRAM_Read_16b:pSdramAddress <- $r1
	@DEBUG_VALUE: HAL_SDRAM_Read_16b:BufferSize <- $r3
	@DEBUG_VALUE: HAL_SDRAM_Read_16b:pDstBuffer <- $r2
	@DEBUG_VALUE: HAL_SDRAM_Read_16b:pAddress <- $r1
	@DEBUG_VALUE: HAL_SDRAM_Read_16b:hsdram <- $r0
	@DEBUG_VALUE: HAL_SDRAM_Read_16b:BufferSize <- $r3
	.loc	5 418 3                 @ ../Drivers/STM32F7xx_HAL_Driver/Src/stm32f7xx_hal_sdram.c:418:3
	cmp	r3, #0
	bne	.LBB10_6
.Ltmp69:
@ %bb.8:
	@DEBUG_VALUE: HAL_SDRAM_Read_16b:pSdramAddress <- $r1
	@DEBUG_VALUE: HAL_SDRAM_Read_16b:BufferSize <- $r3
	@DEBUG_VALUE: HAL_SDRAM_Read_16b:pDstBuffer <- $r2
	@DEBUG_VALUE: HAL_SDRAM_Read_16b:pAddress <- $r1
	@DEBUG_VALUE: HAL_SDRAM_Read_16b:hsdram <- $r0
	.loc	5 0 3 is_stmt 0         @ ../Drivers/STM32F7xx_HAL_Driver/Src/stm32f7xx_hal_sdram.c:0:3
	movs	r1, #0
.Ltmp70:
	.loc	5 426 3 is_stmt 1       @ ../Drivers/STM32F7xx_HAL_Driver/Src/stm32f7xx_hal_sdram.c:426:3
	strb.w	r1, [r0, #45]
	b	.LBB10_3
.Ltmp71:
.Lfunc_end10:
	.size	HAL_SDRAM_Read_16b, .Lfunc_end10-HAL_SDRAM_Read_16b
	.cfi_endproc
	.cantunwind
	.fnend
                                        @ -- End function
	.section	.text.HAL_SDRAM_Write_16b,"ax",%progbits
	.hidden	HAL_SDRAM_Write_16b     @ -- Begin function HAL_SDRAM_Write_16b
	.globl	HAL_SDRAM_Write_16b
	.p2align	1
	.type	HAL_SDRAM_Write_16b,%function
	.code	16                      @ @HAL_SDRAM_Write_16b
	.thumb_func
HAL_SDRAM_Write_16b:
.Lfunc_begin11:
	.loc	5 441 0                 @ ../Drivers/STM32F7xx_HAL_Driver/Src/stm32f7xx_hal_sdram.c:441:0
	.fnstart
	.cfi_startproc
@ %bb.0:
	@DEBUG_VALUE: HAL_SDRAM_Write_16b:hsdram <- $r0
	@DEBUG_VALUE: HAL_SDRAM_Write_16b:hsdram <- $r0
	@DEBUG_VALUE: HAL_SDRAM_Write_16b:pAddress <- $r1
	@DEBUG_VALUE: HAL_SDRAM_Write_16b:pAddress <- $r1
	@DEBUG_VALUE: HAL_SDRAM_Write_16b:pSrcBuffer <- $r2
	@DEBUG_VALUE: HAL_SDRAM_Write_16b:pSrcBuffer <- $r2
	@DEBUG_VALUE: HAL_SDRAM_Write_16b:BufferSize <- $r3
	@DEBUG_VALUE: HAL_SDRAM_Write_16b:BufferSize <- $r3
	@DEBUG_VALUE: HAL_SDRAM_Write_16b:pSdramAddress <- $r1
	@DEBUG_VALUE: HAL_SDRAM_Write_16b:pSdramAddress <- $r1
	@DEBUG_VALUE: HAL_SDRAM_Write_16b:tmp <- 0
	.loc	5 446 3 prologue_end    @ ../Drivers/STM32F7xx_HAL_Driver/Src/stm32f7xx_hal_sdram.c:446:3
	ldrb.w	r12, [r0, #45]
.Ltmp72:
	.loc	5 446 3 is_stmt 0       @ ../Drivers/STM32F7xx_HAL_Driver/Src/stm32f7xx_hal_sdram.c:446:3
	cmp.w	r12, #1
	beq	.LBB11_2
.Ltmp73:
@ %bb.1:
	@DEBUG_VALUE: HAL_SDRAM_Write_16b:pSdramAddress <- $r1
	@DEBUG_VALUE: HAL_SDRAM_Write_16b:BufferSize <- $r3
	@DEBUG_VALUE: HAL_SDRAM_Write_16b:pSrcBuffer <- $r2
	@DEBUG_VALUE: HAL_SDRAM_Write_16b:pAddress <- $r1
	@DEBUG_VALUE: HAL_SDRAM_Write_16b:hsdram <- $r0
	.loc	5 446 3                 @ ../Drivers/STM32F7xx_HAL_Driver/Src/stm32f7xx_hal_sdram.c:446:3
	mov.w	r12, #1
	strb.w	r12, [r0, #45]
.Ltmp74:
	.loc	5 449 17 is_stmt 1      @ ../Drivers/STM32F7xx_HAL_Driver/Src/stm32f7xx_hal_sdram.c:449:17
	ldrb.w	r12, [r0, #44]
	.loc	5 451 6                 @ ../Drivers/STM32F7xx_HAL_Driver/Src/stm32f7xx_hal_sdram.c:451:6
	cmp.w	r12, #2
	bne	.LBB11_4
.Ltmp75:
.LBB11_2:
	@DEBUG_VALUE: HAL_SDRAM_Write_16b:pSdramAddress <- $r1
	@DEBUG_VALUE: HAL_SDRAM_Write_16b:BufferSize <- $r3
	@DEBUG_VALUE: HAL_SDRAM_Write_16b:pSrcBuffer <- $r2
	@DEBUG_VALUE: HAL_SDRAM_Write_16b:pAddress <- $r1
	@DEBUG_VALUE: HAL_SDRAM_Write_16b:hsdram <- $r0
	.loc	5 0 6 is_stmt 0         @ ../Drivers/STM32F7xx_HAL_Driver/Src/stm32f7xx_hal_sdram.c:0:6
	movs	r1, #2
.Ltmp76:
.LBB11_3:
	@DEBUG_VALUE: HAL_SDRAM_Write_16b:BufferSize <- $r3
	@DEBUG_VALUE: HAL_SDRAM_Write_16b:pSrcBuffer <- $r2
	@DEBUG_VALUE: HAL_SDRAM_Write_16b:hsdram <- $r0
	.loc	5 472 1 is_stmt 1       @ ../Drivers/STM32F7xx_HAL_Driver/Src/stm32f7xx_hal_sdram.c:472:1
	uxtb	r0, r1
	bx	lr
.Ltmp77:
.LBB11_4:
	@DEBUG_VALUE: HAL_SDRAM_Write_16b:pSdramAddress <- $r1
	@DEBUG_VALUE: HAL_SDRAM_Write_16b:BufferSize <- $r3
	@DEBUG_VALUE: HAL_SDRAM_Write_16b:pSrcBuffer <- $r2
	@DEBUG_VALUE: HAL_SDRAM_Write_16b:pAddress <- $r1
	@DEBUG_VALUE: HAL_SDRAM_Write_16b:hsdram <- $r0
	.loc	5 455 47                @ ../Drivers/STM32F7xx_HAL_Driver/Src/stm32f7xx_hal_sdram.c:455:47
	orr	r12, r12, #1
	cmp.w	r12, #5
	bne	.LBB11_7
.Ltmp78:
@ %bb.5:
	@DEBUG_VALUE: HAL_SDRAM_Write_16b:pSdramAddress <- $r1
	@DEBUG_VALUE: HAL_SDRAM_Write_16b:BufferSize <- $r3
	@DEBUG_VALUE: HAL_SDRAM_Write_16b:pSrcBuffer <- $r2
	@DEBUG_VALUE: HAL_SDRAM_Write_16b:pAddress <- $r1
	@DEBUG_VALUE: HAL_SDRAM_Write_16b:hsdram <- $r0
	.loc	5 0 47 is_stmt 0        @ ../Drivers/STM32F7xx_HAL_Driver/Src/stm32f7xx_hal_sdram.c:0:47
	movs	r1, #1
.Ltmp79:
	b	.LBB11_3
.Ltmp80:
.LBB11_6:                               @   in Loop: Header=BB11_7 Depth=1
	@DEBUG_VALUE: HAL_SDRAM_Write_16b:pSdramAddress <- $r1
	@DEBUG_VALUE: HAL_SDRAM_Write_16b:BufferSize <- $r3
	@DEBUG_VALUE: HAL_SDRAM_Write_16b:pSrcBuffer <- $r2
	@DEBUG_VALUE: HAL_SDRAM_Write_16b:pAddress <- $r1
	@DEBUG_VALUE: HAL_SDRAM_Write_16b:hsdram <- $r0
	@DEBUG_VALUE: HAL_SDRAM_Write_16b:pSrcBuffer <- $r2
	@DEBUG_VALUE: HAL_SDRAM_Write_16b:pSdramAddress <- $r1
	.loc	5 463 39 is_stmt 1      @ ../Drivers/STM32F7xx_HAL_Driver/Src/stm32f7xx_hal_sdram.c:463:39
	ldrh	r12, [r2], #2
.Ltmp81:
	@DEBUG_VALUE: HAL_SDRAM_Write_16b:pSrcBuffer <- $r2
	.loc	5 461 36                @ ../Drivers/STM32F7xx_HAL_Driver/Src/stm32f7xx_hal_sdram.c:461:36
	subs	r3, #1
.Ltmp82:
	@DEBUG_VALUE: HAL_SDRAM_Write_16b:BufferSize <- $r3
	.loc	5 463 37                @ ../Drivers/STM32F7xx_HAL_Driver/Src/stm32f7xx_hal_sdram.c:463:37
	strh	r12, [r1], #2
.Ltmp83:
	@DEBUG_VALUE: HAL_SDRAM_Write_16b:pSdramAddress <- $r1
.LBB11_7:                               @ =>This Inner Loop Header: Depth=1
	@DEBUG_VALUE: HAL_SDRAM_Write_16b:pSdramAddress <- $r1
	@DEBUG_VALUE: HAL_SDRAM_Write_16b:BufferSize <- $r3
	@DEBUG_VALUE: HAL_SDRAM_Write_16b:pSrcBuffer <- $r2
	@DEBUG_VALUE: HAL_SDRAM_Write_16b:pAddress <- $r1
	@DEBUG_VALUE: HAL_SDRAM_Write_16b:hsdram <- $r0
	@DEBUG_VALUE: HAL_SDRAM_Write_16b:BufferSize <- $r3
	.loc	5 461 3                 @ ../Drivers/STM32F7xx_HAL_Driver/Src/stm32f7xx_hal_sdram.c:461:3
	cmp	r3, #0
	bne	.LBB11_6
.Ltmp84:
@ %bb.8:
	@DEBUG_VALUE: HAL_SDRAM_Write_16b:pSdramAddress <- $r1
	@DEBUG_VALUE: HAL_SDRAM_Write_16b:BufferSize <- $r3
	@DEBUG_VALUE: HAL_SDRAM_Write_16b:pSrcBuffer <- $r2
	@DEBUG_VALUE: HAL_SDRAM_Write_16b:pAddress <- $r1
	@DEBUG_VALUE: HAL_SDRAM_Write_16b:hsdram <- $r0
	.loc	5 0 3 is_stmt 0         @ ../Drivers/STM32F7xx_HAL_Driver/Src/stm32f7xx_hal_sdram.c:0:3
	movs	r1, #0
.Ltmp85:
	.loc	5 469 3 is_stmt 1       @ ../Drivers/STM32F7xx_HAL_Driver/Src/stm32f7xx_hal_sdram.c:469:3
	strb.w	r1, [r0, #45]
	b	.LBB11_3
.Ltmp86:
.Lfunc_end11:
	.size	HAL_SDRAM_Write_16b, .Lfunc_end11-HAL_SDRAM_Write_16b
	.cfi_endproc
	.cantunwind
	.fnend
                                        @ -- End function
	.section	.text.HAL_SDRAM_Read_32b,"ax",%progbits
	.hidden	HAL_SDRAM_Read_32b      @ -- Begin function HAL_SDRAM_Read_32b
	.globl	HAL_SDRAM_Read_32b
	.p2align	1
	.type	HAL_SDRAM_Read_32b,%function
	.code	16                      @ @HAL_SDRAM_Read_32b
	.thumb_func
HAL_SDRAM_Read_32b:
.Lfunc_begin12:
	.loc	5 484 0                 @ ../Drivers/STM32F7xx_HAL_Driver/Src/stm32f7xx_hal_sdram.c:484:0
	.fnstart
	.cfi_startproc
@ %bb.0:
	@DEBUG_VALUE: HAL_SDRAM_Read_32b:hsdram <- $r0
	@DEBUG_VALUE: HAL_SDRAM_Read_32b:hsdram <- $r0
	@DEBUG_VALUE: HAL_SDRAM_Read_32b:pAddress <- $r1
	@DEBUG_VALUE: HAL_SDRAM_Read_32b:pAddress <- $r1
	@DEBUG_VALUE: HAL_SDRAM_Read_32b:pDstBuffer <- $r2
	@DEBUG_VALUE: HAL_SDRAM_Read_32b:pDstBuffer <- $r2
	@DEBUG_VALUE: HAL_SDRAM_Read_32b:BufferSize <- $r3
	@DEBUG_VALUE: HAL_SDRAM_Read_32b:BufferSize <- $r3
	@DEBUG_VALUE: HAL_SDRAM_Read_32b:pSdramAddress <- $r1
	@DEBUG_VALUE: HAL_SDRAM_Read_32b:pSdramAddress <- $r1
	.loc	5 488 3 prologue_end    @ ../Drivers/STM32F7xx_HAL_Driver/Src/stm32f7xx_hal_sdram.c:488:3
	ldrb.w	r12, [r0, #45]
.Ltmp87:
	.loc	5 488 3 is_stmt 0       @ ../Drivers/STM32F7xx_HAL_Driver/Src/stm32f7xx_hal_sdram.c:488:3
	cmp.w	r12, #1
	beq	.LBB12_2
.Ltmp88:
@ %bb.1:
	@DEBUG_VALUE: HAL_SDRAM_Read_32b:pSdramAddress <- $r1
	@DEBUG_VALUE: HAL_SDRAM_Read_32b:BufferSize <- $r3
	@DEBUG_VALUE: HAL_SDRAM_Read_32b:pDstBuffer <- $r2
	@DEBUG_VALUE: HAL_SDRAM_Read_32b:pAddress <- $r1
	@DEBUG_VALUE: HAL_SDRAM_Read_32b:hsdram <- $r0
	.loc	5 0 3                   @ ../Drivers/STM32F7xx_HAL_Driver/Src/stm32f7xx_hal_sdram.c:0:3
	mov.w	r12, #1
.Ltmp89:
	.loc	5 488 3                 @ ../Drivers/STM32F7xx_HAL_Driver/Src/stm32f7xx_hal_sdram.c:488:3
	strb.w	r12, [r0, #45]
.Ltmp90:
	.loc	5 491 14 is_stmt 1      @ ../Drivers/STM32F7xx_HAL_Driver/Src/stm32f7xx_hal_sdram.c:491:14
	ldrb.w	r12, [r0, #44]
.Ltmp91:
	.loc	5 491 6 is_stmt 0       @ ../Drivers/STM32F7xx_HAL_Driver/Src/stm32f7xx_hal_sdram.c:491:6
	cmp.w	r12, #2
	bne	.LBB12_4
.Ltmp92:
.LBB12_2:
	@DEBUG_VALUE: HAL_SDRAM_Read_32b:pSdramAddress <- $r1
	@DEBUG_VALUE: HAL_SDRAM_Read_32b:BufferSize <- $r3
	@DEBUG_VALUE: HAL_SDRAM_Read_32b:pDstBuffer <- $r2
	@DEBUG_VALUE: HAL_SDRAM_Read_32b:pAddress <- $r1
	@DEBUG_VALUE: HAL_SDRAM_Read_32b:hsdram <- $r0
	.loc	5 0 6                   @ ../Drivers/STM32F7xx_HAL_Driver/Src/stm32f7xx_hal_sdram.c:0:6
	movs	r1, #2
.Ltmp93:
.LBB12_3:
	@DEBUG_VALUE: HAL_SDRAM_Read_32b:BufferSize <- $r3
	@DEBUG_VALUE: HAL_SDRAM_Read_32b:pDstBuffer <- $r2
	@DEBUG_VALUE: HAL_SDRAM_Read_32b:hsdram <- $r0
	.loc	5 512 1 is_stmt 1       @ ../Drivers/STM32F7xx_HAL_Driver/Src/stm32f7xx_hal_sdram.c:512:1
	uxtb	r0, r1
	bx	lr
.Ltmp94:
.LBB12_4:
	@DEBUG_VALUE: HAL_SDRAM_Read_32b:pSdramAddress <- $r1
	@DEBUG_VALUE: HAL_SDRAM_Read_32b:BufferSize <- $r3
	@DEBUG_VALUE: HAL_SDRAM_Read_32b:pDstBuffer <- $r2
	@DEBUG_VALUE: HAL_SDRAM_Read_32b:pAddress <- $r1
	@DEBUG_VALUE: HAL_SDRAM_Read_32b:hsdram <- $r0
	.loc	5 495 19                @ ../Drivers/STM32F7xx_HAL_Driver/Src/stm32f7xx_hal_sdram.c:495:19
	ldrb.w	r12, [r0, #44]
.Ltmp95:
	.loc	5 495 11 is_stmt 0      @ ../Drivers/STM32F7xx_HAL_Driver/Src/stm32f7xx_hal_sdram.c:495:11
	cmp.w	r12, #5
	bne	.LBB12_7
.Ltmp96:
@ %bb.5:
	@DEBUG_VALUE: HAL_SDRAM_Read_32b:pSdramAddress <- $r1
	@DEBUG_VALUE: HAL_SDRAM_Read_32b:BufferSize <- $r3
	@DEBUG_VALUE: HAL_SDRAM_Read_32b:pDstBuffer <- $r2
	@DEBUG_VALUE: HAL_SDRAM_Read_32b:pAddress <- $r1
	@DEBUG_VALUE: HAL_SDRAM_Read_32b:hsdram <- $r0
	.loc	5 0 11                  @ ../Drivers/STM32F7xx_HAL_Driver/Src/stm32f7xx_hal_sdram.c:0:11
	movs	r1, #1
.Ltmp97:
	b	.LBB12_3
.Ltmp98:
.LBB12_6:                               @   in Loop: Header=BB12_7 Depth=1
	@DEBUG_VALUE: HAL_SDRAM_Read_32b:pSdramAddress <- $r1
	@DEBUG_VALUE: HAL_SDRAM_Read_32b:BufferSize <- $r3
	@DEBUG_VALUE: HAL_SDRAM_Read_32b:pDstBuffer <- $r2
	@DEBUG_VALUE: HAL_SDRAM_Read_32b:pAddress <- $r1
	@DEBUG_VALUE: HAL_SDRAM_Read_32b:hsdram <- $r0
	@DEBUG_VALUE: HAL_SDRAM_Read_32b:pDstBuffer <- $r2
	@DEBUG_VALUE: HAL_SDRAM_Read_32b:pSdramAddress <- $r1
	.loc	5 503 19 is_stmt 1      @ ../Drivers/STM32F7xx_HAL_Driver/Src/stm32f7xx_hal_sdram.c:503:19
	ldr	r12, [r1], #4
.Ltmp99:
	@DEBUG_VALUE: HAL_SDRAM_Read_32b:pSdramAddress <- $r1
	.loc	5 501 36                @ ../Drivers/STM32F7xx_HAL_Driver/Src/stm32f7xx_hal_sdram.c:501:36
	subs	r3, #1
.Ltmp100:
	@DEBUG_VALUE: HAL_SDRAM_Read_32b:BufferSize <- $r3
	.loc	5 503 17                @ ../Drivers/STM32F7xx_HAL_Driver/Src/stm32f7xx_hal_sdram.c:503:17
	str	r12, [r2], #4
.Ltmp101:
	@DEBUG_VALUE: HAL_SDRAM_Read_32b:pDstBuffer <- $r2
.LBB12_7:                               @ =>This Inner Loop Header: Depth=1
	@DEBUG_VALUE: HAL_SDRAM_Read_32b:pSdramAddress <- $r1
	@DEBUG_VALUE: HAL_SDRAM_Read_32b:BufferSize <- $r3
	@DEBUG_VALUE: HAL_SDRAM_Read_32b:pDstBuffer <- $r2
	@DEBUG_VALUE: HAL_SDRAM_Read_32b:pAddress <- $r1
	@DEBUG_VALUE: HAL_SDRAM_Read_32b:hsdram <- $r0
	@DEBUG_VALUE: HAL_SDRAM_Read_32b:BufferSize <- $r3
	.loc	5 501 3                 @ ../Drivers/STM32F7xx_HAL_Driver/Src/stm32f7xx_hal_sdram.c:501:3
	cmp	r3, #0
	bne	.LBB12_6
.Ltmp102:
@ %bb.8:
	@DEBUG_VALUE: HAL_SDRAM_Read_32b:pSdramAddress <- $r1
	@DEBUG_VALUE: HAL_SDRAM_Read_32b:BufferSize <- $r3
	@DEBUG_VALUE: HAL_SDRAM_Read_32b:pDstBuffer <- $r2
	@DEBUG_VALUE: HAL_SDRAM_Read_32b:pAddress <- $r1
	@DEBUG_VALUE: HAL_SDRAM_Read_32b:hsdram <- $r0
	.loc	5 0 3 is_stmt 0         @ ../Drivers/STM32F7xx_HAL_Driver/Src/stm32f7xx_hal_sdram.c:0:3
	movs	r1, #0
.Ltmp103:
	.loc	5 509 3 is_stmt 1       @ ../Drivers/STM32F7xx_HAL_Driver/Src/stm32f7xx_hal_sdram.c:509:3
	strb.w	r1, [r0, #45]
	b	.LBB12_3
.Ltmp104:
.Lfunc_end12:
	.size	HAL_SDRAM_Read_32b, .Lfunc_end12-HAL_SDRAM_Read_32b
	.cfi_endproc
	.cantunwind
	.fnend
                                        @ -- End function
	.section	.text.HAL_SDRAM_Write_32b,"ax",%progbits
	.hidden	HAL_SDRAM_Write_32b     @ -- Begin function HAL_SDRAM_Write_32b
	.globl	HAL_SDRAM_Write_32b
	.p2align	1
	.type	HAL_SDRAM_Write_32b,%function
	.code	16                      @ @HAL_SDRAM_Write_32b
	.thumb_func
HAL_SDRAM_Write_32b:
.Lfunc_begin13:
	.loc	5 524 0                 @ ../Drivers/STM32F7xx_HAL_Driver/Src/stm32f7xx_hal_sdram.c:524:0
	.fnstart
	.cfi_startproc
@ %bb.0:
	@DEBUG_VALUE: HAL_SDRAM_Write_32b:hsdram <- $r0
	@DEBUG_VALUE: HAL_SDRAM_Write_32b:hsdram <- $r0
	@DEBUG_VALUE: HAL_SDRAM_Write_32b:pAddress <- $r1
	@DEBUG_VALUE: HAL_SDRAM_Write_32b:pAddress <- $r1
	@DEBUG_VALUE: HAL_SDRAM_Write_32b:pSrcBuffer <- $r2
	@DEBUG_VALUE: HAL_SDRAM_Write_32b:pSrcBuffer <- $r2
	@DEBUG_VALUE: HAL_SDRAM_Write_32b:BufferSize <- $r3
	@DEBUG_VALUE: HAL_SDRAM_Write_32b:BufferSize <- $r3
	@DEBUG_VALUE: HAL_SDRAM_Write_32b:pSdramAddress <- $r1
	@DEBUG_VALUE: HAL_SDRAM_Write_32b:pSdramAddress <- $r1
	@DEBUG_VALUE: HAL_SDRAM_Write_32b:tmp <- 0
	.loc	5 529 3 prologue_end    @ ../Drivers/STM32F7xx_HAL_Driver/Src/stm32f7xx_hal_sdram.c:529:3
	ldrb.w	r12, [r0, #45]
.Ltmp105:
	.loc	5 529 3 is_stmt 0       @ ../Drivers/STM32F7xx_HAL_Driver/Src/stm32f7xx_hal_sdram.c:529:3
	cmp.w	r12, #1
	beq	.LBB13_2
.Ltmp106:
@ %bb.1:
	@DEBUG_VALUE: HAL_SDRAM_Write_32b:pSdramAddress <- $r1
	@DEBUG_VALUE: HAL_SDRAM_Write_32b:BufferSize <- $r3
	@DEBUG_VALUE: HAL_SDRAM_Write_32b:pSrcBuffer <- $r2
	@DEBUG_VALUE: HAL_SDRAM_Write_32b:pAddress <- $r1
	@DEBUG_VALUE: HAL_SDRAM_Write_32b:hsdram <- $r0
	.loc	5 529 3                 @ ../Drivers/STM32F7xx_HAL_Driver/Src/stm32f7xx_hal_sdram.c:529:3
	mov.w	r12, #1
	strb.w	r12, [r0, #45]
.Ltmp107:
	.loc	5 532 17 is_stmt 1      @ ../Drivers/STM32F7xx_HAL_Driver/Src/stm32f7xx_hal_sdram.c:532:17
	ldrb.w	r12, [r0, #44]
	.loc	5 534 6                 @ ../Drivers/STM32F7xx_HAL_Driver/Src/stm32f7xx_hal_sdram.c:534:6
	cmp.w	r12, #2
	bne	.LBB13_4
.Ltmp108:
.LBB13_2:
	@DEBUG_VALUE: HAL_SDRAM_Write_32b:pSdramAddress <- $r1
	@DEBUG_VALUE: HAL_SDRAM_Write_32b:BufferSize <- $r3
	@DEBUG_VALUE: HAL_SDRAM_Write_32b:pSrcBuffer <- $r2
	@DEBUG_VALUE: HAL_SDRAM_Write_32b:pAddress <- $r1
	@DEBUG_VALUE: HAL_SDRAM_Write_32b:hsdram <- $r0
	.loc	5 0 6 is_stmt 0         @ ../Drivers/STM32F7xx_HAL_Driver/Src/stm32f7xx_hal_sdram.c:0:6
	movs	r1, #2
.Ltmp109:
.LBB13_3:
	@DEBUG_VALUE: HAL_SDRAM_Write_32b:BufferSize <- $r3
	@DEBUG_VALUE: HAL_SDRAM_Write_32b:pSrcBuffer <- $r2
	@DEBUG_VALUE: HAL_SDRAM_Write_32b:hsdram <- $r0
	.loc	5 555 1 is_stmt 1       @ ../Drivers/STM32F7xx_HAL_Driver/Src/stm32f7xx_hal_sdram.c:555:1
	uxtb	r0, r1
	bx	lr
.Ltmp110:
.LBB13_4:
	@DEBUG_VALUE: HAL_SDRAM_Write_32b:pSdramAddress <- $r1
	@DEBUG_VALUE: HAL_SDRAM_Write_32b:BufferSize <- $r3
	@DEBUG_VALUE: HAL_SDRAM_Write_32b:pSrcBuffer <- $r2
	@DEBUG_VALUE: HAL_SDRAM_Write_32b:pAddress <- $r1
	@DEBUG_VALUE: HAL_SDRAM_Write_32b:hsdram <- $r0
	.loc	5 538 47                @ ../Drivers/STM32F7xx_HAL_Driver/Src/stm32f7xx_hal_sdram.c:538:47
	orr	r12, r12, #1
	cmp.w	r12, #5
	bne	.LBB13_7
.Ltmp111:
@ %bb.5:
	@DEBUG_VALUE: HAL_SDRAM_Write_32b:pSdramAddress <- $r1
	@DEBUG_VALUE: HAL_SDRAM_Write_32b:BufferSize <- $r3
	@DEBUG_VALUE: HAL_SDRAM_Write_32b:pSrcBuffer <- $r2
	@DEBUG_VALUE: HAL_SDRAM_Write_32b:pAddress <- $r1
	@DEBUG_VALUE: HAL_SDRAM_Write_32b:hsdram <- $r0
	.loc	5 0 47 is_stmt 0        @ ../Drivers/STM32F7xx_HAL_Driver/Src/stm32f7xx_hal_sdram.c:0:47
	movs	r1, #1
.Ltmp112:
	b	.LBB13_3
.Ltmp113:
.LBB13_6:                               @   in Loop: Header=BB13_7 Depth=1
	@DEBUG_VALUE: HAL_SDRAM_Write_32b:pSdramAddress <- $r1
	@DEBUG_VALUE: HAL_SDRAM_Write_32b:BufferSize <- $r3
	@DEBUG_VALUE: HAL_SDRAM_Write_32b:pSrcBuffer <- $r2
	@DEBUG_VALUE: HAL_SDRAM_Write_32b:pAddress <- $r1
	@DEBUG_VALUE: HAL_SDRAM_Write_32b:hsdram <- $r0
	@DEBUG_VALUE: HAL_SDRAM_Write_32b:pSrcBuffer <- $r2
	@DEBUG_VALUE: HAL_SDRAM_Write_32b:pSdramAddress <- $r1
	.loc	5 546 39 is_stmt 1      @ ../Drivers/STM32F7xx_HAL_Driver/Src/stm32f7xx_hal_sdram.c:546:39
	ldr	r12, [r2], #4
.Ltmp114:
	@DEBUG_VALUE: HAL_SDRAM_Write_32b:pSrcBuffer <- $r2
	.loc	5 544 36                @ ../Drivers/STM32F7xx_HAL_Driver/Src/stm32f7xx_hal_sdram.c:544:36
	subs	r3, #1
.Ltmp115:
	@DEBUG_VALUE: HAL_SDRAM_Write_32b:BufferSize <- $r3
	.loc	5 546 37                @ ../Drivers/STM32F7xx_HAL_Driver/Src/stm32f7xx_hal_sdram.c:546:37
	str	r12, [r1], #4
.Ltmp116:
	@DEBUG_VALUE: HAL_SDRAM_Write_32b:pSdramAddress <- $r1
.LBB13_7:                               @ =>This Inner Loop Header: Depth=1
	@DEBUG_VALUE: HAL_SDRAM_Write_32b:pSdramAddress <- $r1
	@DEBUG_VALUE: HAL_SDRAM_Write_32b:BufferSize <- $r3
	@DEBUG_VALUE: HAL_SDRAM_Write_32b:pSrcBuffer <- $r2
	@DEBUG_VALUE: HAL_SDRAM_Write_32b:pAddress <- $r1
	@DEBUG_VALUE: HAL_SDRAM_Write_32b:hsdram <- $r0
	@DEBUG_VALUE: HAL_SDRAM_Write_32b:BufferSize <- $r3
	.loc	5 544 3                 @ ../Drivers/STM32F7xx_HAL_Driver/Src/stm32f7xx_hal_sdram.c:544:3
	cmp	r3, #0
	bne	.LBB13_6
.Ltmp117:
@ %bb.8:
	@DEBUG_VALUE: HAL_SDRAM_Write_32b:pSdramAddress <- $r1
	@DEBUG_VALUE: HAL_SDRAM_Write_32b:BufferSize <- $r3
	@DEBUG_VALUE: HAL_SDRAM_Write_32b:pSrcBuffer <- $r2
	@DEBUG_VALUE: HAL_SDRAM_Write_32b:pAddress <- $r1
	@DEBUG_VALUE: HAL_SDRAM_Write_32b:hsdram <- $r0
	.loc	5 0 3 is_stmt 0         @ ../Drivers/STM32F7xx_HAL_Driver/Src/stm32f7xx_hal_sdram.c:0:3
	movs	r1, #0
.Ltmp118:
	.loc	5 552 3 is_stmt 1       @ ../Drivers/STM32F7xx_HAL_Driver/Src/stm32f7xx_hal_sdram.c:552:3
	strb.w	r1, [r0, #45]
	b	.LBB13_3
.Ltmp119:
.Lfunc_end13:
	.size	HAL_SDRAM_Write_32b, .Lfunc_end13-HAL_SDRAM_Write_32b
	.cfi_endproc
	.cantunwind
	.fnend
                                        @ -- End function
	.section	.text.HAL_SDRAM_Read_DMA,"ax",%progbits
	.hidden	HAL_SDRAM_Read_DMA      @ -- Begin function HAL_SDRAM_Read_DMA
	.globl	HAL_SDRAM_Read_DMA
	.p2align	2
	.type	HAL_SDRAM_Read_DMA,%function
	.code	16                      @ @HAL_SDRAM_Read_DMA
	.thumb_func
HAL_SDRAM_Read_DMA:
.Lfunc_begin14:
	.loc	5 567 0                 @ ../Drivers/STM32F7xx_HAL_Driver/Src/stm32f7xx_hal_sdram.c:567:0
	.fnstart
	.cfi_startproc
@ %bb.0:
	.save	{r4, r5, r7, lr}
	push	{r4, r5, r7, lr}
	.cfi_def_cfa_offset 16
	.cfi_offset lr, -4
	.cfi_offset r7, -8
	.cfi_offset r5, -12
	.cfi_offset r4, -16
	@DEBUG_VALUE: HAL_SDRAM_Read_DMA:hsdram <- $r0
	@DEBUG_VALUE: HAL_SDRAM_Read_DMA:pAddress <- $r1
	@DEBUG_VALUE: HAL_SDRAM_Read_DMA:pDstBuffer <- $r2
	@DEBUG_VALUE: HAL_SDRAM_Read_DMA:BufferSize <- $r3
	mov	r5, r0
.Ltmp120:
	@DEBUG_VALUE: HAL_SDRAM_Read_DMA:tmp <- 0
	@DEBUG_VALUE: HAL_SDRAM_Read_DMA:BufferSize <- $r3
	@DEBUG_VALUE: HAL_SDRAM_Read_DMA:pDstBuffer <- $r2
	@DEBUG_VALUE: HAL_SDRAM_Read_DMA:pAddress <- $r1
	@DEBUG_VALUE: HAL_SDRAM_Read_DMA:hsdram <- $r5
	.loc	5 571 3 prologue_end    @ ../Drivers/STM32F7xx_HAL_Driver/Src/stm32f7xx_hal_sdram.c:571:3
	ldrb.w	r0, [r0, #45]
.Ltmp121:
	.loc	5 571 3 is_stmt 0       @ ../Drivers/STM32F7xx_HAL_Driver/Src/stm32f7xx_hal_sdram.c:571:3
	cmp	r0, #1
	itt	eq
	moveq	r0, #2
.Ltmp122:
	.loc	5 596 1 is_stmt 1       @ ../Drivers/STM32F7xx_HAL_Driver/Src/stm32f7xx_hal_sdram.c:596:1
	popeq	{r4, r5, r7, pc}
.Ltmp123:
	.loc	5 571 3                 @ ../Drivers/STM32F7xx_HAL_Driver/Src/stm32f7xx_hal_sdram.c:571:3
	movs	r0, #1
	strb.w	r0, [r5, #45]
.Ltmp124:
	.loc	5 574 17                @ ../Drivers/STM32F7xx_HAL_Driver/Src/stm32f7xx_hal_sdram.c:574:17
	ldrb.w	r0, [r5, #44]
	.loc	5 576 6                 @ ../Drivers/STM32F7xx_HAL_Driver/Src/stm32f7xx_hal_sdram.c:576:6
	cmp	r0, #2
	.loc	5 596 1                 @ ../Drivers/STM32F7xx_HAL_Driver/Src/stm32f7xx_hal_sdram.c:596:1
	it	eq
	popeq	{r4, r5, r7, pc}
	.loc	5 576 6                 @ ../Drivers/STM32F7xx_HAL_Driver/Src/stm32f7xx_hal_sdram.c:576:6
	cmp	r0, #5
	bne	.LBB14_2
.Ltmp125:
@ %bb.1:
	@DEBUG_VALUE: HAL_SDRAM_Read_DMA:BufferSize <- $r3
	@DEBUG_VALUE: HAL_SDRAM_Read_DMA:pDstBuffer <- $r2
	@DEBUG_VALUE: HAL_SDRAM_Read_DMA:pAddress <- $r1
	.loc	5 0 6 is_stmt 0         @ ../Drivers/STM32F7xx_HAL_Driver/Src/stm32f7xx_hal_sdram.c:0:6
	movs	r0, #1
	.loc	5 596 1 is_stmt 1       @ ../Drivers/STM32F7xx_HAL_Driver/Src/stm32f7xx_hal_sdram.c:596:1
	pop	{r4, r5, r7, pc}
.Ltmp126:
.LBB14_2:
	@DEBUG_VALUE: HAL_SDRAM_Read_DMA:BufferSize <- $r3
	@DEBUG_VALUE: HAL_SDRAM_Read_DMA:pDstBuffer <- $r2
	@DEBUG_VALUE: HAL_SDRAM_Read_DMA:pAddress <- $r1
	.loc	5 586 11                @ ../Drivers/STM32F7xx_HAL_Driver/Src/stm32f7xx_hal_sdram.c:586:11
	ldr	r0, [r5, #48]
	.loc	5 587 35                @ ../Drivers/STM32F7xx_HAL_Driver/Src/stm32f7xx_hal_sdram.c:587:35
	ldr	r4, __arm_cp.14_0
	str	r4, [r0, #76]
	.loc	5 586 35                @ ../Drivers/STM32F7xx_HAL_Driver/Src/stm32f7xx_hal_sdram.c:586:35
	ldr	r4, __arm_cp.14_1
	str	r4, [r0, #60]
	.loc	5 590 3                 @ ../Drivers/STM32F7xx_HAL_Driver/Src/stm32f7xx_hal_sdram.c:590:3
	bl	HAL_DMA_Start_IT
.Ltmp127:
	.loc	5 0 3 is_stmt 0         @ ../Drivers/STM32F7xx_HAL_Driver/Src/stm32f7xx_hal_sdram.c:0:3
	movs	r0, #0
.Ltmp128:
	.loc	5 593 3 is_stmt 1       @ ../Drivers/STM32F7xx_HAL_Driver/Src/stm32f7xx_hal_sdram.c:593:3
	strb.w	r0, [r5, #45]
.Ltmp129:
	.loc	5 596 1                 @ ../Drivers/STM32F7xx_HAL_Driver/Src/stm32f7xx_hal_sdram.c:596:1
	pop	{r4, r5, r7, pc}
.Ltmp130:
	.p2align	2
@ %bb.3:
	.loc	5 0 1 is_stmt 0         @ ../Drivers/STM32F7xx_HAL_Driver/Src/stm32f7xx_hal_sdram.c:0:1
__arm_cp.14_0:
	.long	HAL_SDRAM_DMA_XferErrorCallback
.Lcpi_end0:
	.size	__arm_cp.14_0, .Lcpi_end0-__arm_cp.14_0
__arm_cp.14_1:
	.long	HAL_SDRAM_DMA_XferCpltCallback
.Lcpi_end1:
	.size	__arm_cp.14_1, .Lcpi_end1-__arm_cp.14_1
.Lfunc_end14:
	.size	HAL_SDRAM_Read_DMA, .Lfunc_end14-HAL_SDRAM_Read_DMA
	.cfi_endproc
	.cantunwind
	.fnend
                                        @ -- End function
	.section	.text.HAL_SDRAM_Write_DMA,"ax",%progbits
	.hidden	HAL_SDRAM_Write_DMA     @ -- Begin function HAL_SDRAM_Write_DMA
	.globl	HAL_SDRAM_Write_DMA
	.p2align	2
	.type	HAL_SDRAM_Write_DMA,%function
	.code	16                      @ @HAL_SDRAM_Write_DMA
	.thumb_func
HAL_SDRAM_Write_DMA:
.Lfunc_begin15:
	.loc	5 608 0 is_stmt 1       @ ../Drivers/STM32F7xx_HAL_Driver/Src/stm32f7xx_hal_sdram.c:608:0
	.fnstart
	.cfi_startproc
@ %bb.0:
	.save	{r4, lr}
	push	{r4, lr}
	.cfi_def_cfa_offset 8
	.cfi_offset lr, -4
	.cfi_offset r4, -8
	@DEBUG_VALUE: HAL_SDRAM_Write_DMA:hsdram <- $r0
	@DEBUG_VALUE: HAL_SDRAM_Write_DMA:pAddress <- $r1
	@DEBUG_VALUE: HAL_SDRAM_Write_DMA:pSrcBuffer <- $r2
	@DEBUG_VALUE: HAL_SDRAM_Write_DMA:BufferSize <- $r3
	mov	r4, r0
.Ltmp131:
	@DEBUG_VALUE: HAL_SDRAM_Write_DMA:tmp <- 0
	@DEBUG_VALUE: HAL_SDRAM_Write_DMA:BufferSize <- $r3
	@DEBUG_VALUE: HAL_SDRAM_Write_DMA:pSrcBuffer <- $r2
	@DEBUG_VALUE: HAL_SDRAM_Write_DMA:pAddress <- $r12
	@DEBUG_VALUE: HAL_SDRAM_Write_DMA:hsdram <- $r4
	.loc	5 612 3 prologue_end    @ ../Drivers/STM32F7xx_HAL_Driver/Src/stm32f7xx_hal_sdram.c:612:3
	ldrb.w	r0, [r0, #45]
	mov	r12, r1
.Ltmp132:
	.loc	5 612 3 is_stmt 0       @ ../Drivers/STM32F7xx_HAL_Driver/Src/stm32f7xx_hal_sdram.c:612:3
	cmp	r0, #1
	beq	.LBB15_2
.Ltmp133:
@ %bb.1:
	@DEBUG_VALUE: HAL_SDRAM_Write_DMA:hsdram <- $r4
	@DEBUG_VALUE: HAL_SDRAM_Write_DMA:BufferSize <- $r3
	@DEBUG_VALUE: HAL_SDRAM_Write_DMA:pSrcBuffer <- $r2
	.loc	5 612 3                 @ ../Drivers/STM32F7xx_HAL_Driver/Src/stm32f7xx_hal_sdram.c:612:3
	movs	r0, #1
	strb.w	r0, [r4, #45]
.Ltmp134:
	.loc	5 615 17 is_stmt 1      @ ../Drivers/STM32F7xx_HAL_Driver/Src/stm32f7xx_hal_sdram.c:615:17
	ldrb.w	r0, [r4, #44]
	.loc	5 617 6                 @ ../Drivers/STM32F7xx_HAL_Driver/Src/stm32f7xx_hal_sdram.c:617:6
	cmp	r0, #2
	bne	.LBB15_4
.Ltmp135:
.LBB15_2:
	@DEBUG_VALUE: HAL_SDRAM_Write_DMA:hsdram <- $r4
	@DEBUG_VALUE: HAL_SDRAM_Write_DMA:BufferSize <- $r3
	@DEBUG_VALUE: HAL_SDRAM_Write_DMA:pSrcBuffer <- $r2
	.loc	5 0 6 is_stmt 0         @ ../Drivers/STM32F7xx_HAL_Driver/Src/stm32f7xx_hal_sdram.c:0:6
	movs	r0, #2
.Ltmp136:
.LBB15_3:
	@DEBUG_VALUE: HAL_SDRAM_Write_DMA:hsdram <- $r4
	.loc	5 637 1 is_stmt 1       @ ../Drivers/STM32F7xx_HAL_Driver/Src/stm32f7xx_hal_sdram.c:637:1
	uxtb	r0, r0
	pop	{r4, pc}
.Ltmp137:
.LBB15_4:
	@DEBUG_VALUE: HAL_SDRAM_Write_DMA:hsdram <- $r4
	@DEBUG_VALUE: HAL_SDRAM_Write_DMA:BufferSize <- $r3
	@DEBUG_VALUE: HAL_SDRAM_Write_DMA:pSrcBuffer <- $r2
	.loc	5 621 47                @ ../Drivers/STM32F7xx_HAL_Driver/Src/stm32f7xx_hal_sdram.c:621:47
	orr	r0, r0, #1
	cmp	r0, #5
	bne	.LBB15_6
.Ltmp138:
@ %bb.5:
	@DEBUG_VALUE: HAL_SDRAM_Write_DMA:hsdram <- $r4
	@DEBUG_VALUE: HAL_SDRAM_Write_DMA:BufferSize <- $r3
	@DEBUG_VALUE: HAL_SDRAM_Write_DMA:pSrcBuffer <- $r2
	.loc	5 0 47 is_stmt 0        @ ../Drivers/STM32F7xx_HAL_Driver/Src/stm32f7xx_hal_sdram.c:0:47
	movs	r0, #1
	b	.LBB15_3
.Ltmp139:
.LBB15_6:
	@DEBUG_VALUE: HAL_SDRAM_Write_DMA:hsdram <- $r4
	@DEBUG_VALUE: HAL_SDRAM_Write_DMA:BufferSize <- $r3
	@DEBUG_VALUE: HAL_SDRAM_Write_DMA:pSrcBuffer <- $r2
	.loc	5 627 11 is_stmt 1      @ ../Drivers/STM32F7xx_HAL_Driver/Src/stm32f7xx_hal_sdram.c:627:11
	ldr	r0, [r4, #48]
	.loc	5 628 35                @ ../Drivers/STM32F7xx_HAL_Driver/Src/stm32f7xx_hal_sdram.c:628:35
	ldr	r1, __arm_cp.15_0
	str	r1, [r0, #76]
	.loc	5 627 35                @ ../Drivers/STM32F7xx_HAL_Driver/Src/stm32f7xx_hal_sdram.c:627:35
	ldr	r1, __arm_cp.15_1
	str	r1, [r0, #60]
	.loc	5 631 3                 @ ../Drivers/STM32F7xx_HAL_Driver/Src/stm32f7xx_hal_sdram.c:631:3
	mov	r1, r2
	mov	r2, r12
.Ltmp140:
	bl	HAL_DMA_Start_IT
.Ltmp141:
	.loc	5 0 3 is_stmt 0         @ ../Drivers/STM32F7xx_HAL_Driver/Src/stm32f7xx_hal_sdram.c:0:3
	movs	r0, #0
.Ltmp142:
	.loc	5 634 3 is_stmt 1       @ ../Drivers/STM32F7xx_HAL_Driver/Src/stm32f7xx_hal_sdram.c:634:3
	strb.w	r0, [r4, #45]
	b	.LBB15_3
.Ltmp143:
	.p2align	2
@ %bb.7:
	.loc	5 0 3 is_stmt 0         @ ../Drivers/STM32F7xx_HAL_Driver/Src/stm32f7xx_hal_sdram.c:0:3
__arm_cp.15_0:
	.long	HAL_SDRAM_DMA_XferErrorCallback
.Lcpi_end2:
	.size	__arm_cp.15_0, .Lcpi_end2-__arm_cp.15_0
__arm_cp.15_1:
	.long	HAL_SDRAM_DMA_XferCpltCallback
.Lcpi_end3:
	.size	__arm_cp.15_1, .Lcpi_end3-__arm_cp.15_1
.Lfunc_end15:
	.size	HAL_SDRAM_Write_DMA, .Lfunc_end15-HAL_SDRAM_Write_DMA
	.cfi_endproc
	.cantunwind
	.fnend
                                        @ -- End function
	.section	.text.HAL_SDRAM_WriteProtection_Enable,"ax",%progbits
	.hidden	HAL_SDRAM_WriteProtection_Enable @ -- Begin function HAL_SDRAM_WriteProtection_Enable
	.globl	HAL_SDRAM_WriteProtection_Enable
	.p2align	1
	.type	HAL_SDRAM_WriteProtection_Enable,%function
	.code	16                      @ @HAL_SDRAM_WriteProtection_Enable
	.thumb_func
HAL_SDRAM_WriteProtection_Enable:
.Lfunc_begin16:
	.loc	5 665 0 is_stmt 1       @ ../Drivers/STM32F7xx_HAL_Driver/Src/stm32f7xx_hal_sdram.c:665:0
	.fnstart
	.cfi_startproc
@ %bb.0:
	.save	{r4, lr}
	push	{r4, lr}
	.cfi_def_cfa_offset 8
	.cfi_offset lr, -4
	.cfi_offset r4, -8
	@DEBUG_VALUE: HAL_SDRAM_WriteProtection_Enable:hsdram <- $r0
.Ltmp144:
	.loc	5 667 14 prologue_end   @ ../Drivers/STM32F7xx_HAL_Driver/Src/stm32f7xx_hal_sdram.c:667:14
	ldrb.w	r1, [r0, #44]
	mov	r4, r0
.Ltmp145:
	@DEBUG_VALUE: HAL_SDRAM_WriteProtection_Enable:hsdram <- $r4
	.loc	5 0 14 is_stmt 0        @ ../Drivers/STM32F7xx_HAL_Driver/Src/stm32f7xx_hal_sdram.c:0:14
	movs	r0, #2
.Ltmp146:
	.loc	5 667 6                 @ ../Drivers/STM32F7xx_HAL_Driver/Src/stm32f7xx_hal_sdram.c:667:6
	cmp	r1, #2
	beq	.LBB16_2
.Ltmp147:
@ %bb.1:
	@DEBUG_VALUE: HAL_SDRAM_WriteProtection_Enable:hsdram <- $r4
	.loc	5 673 17 is_stmt 1      @ ../Drivers/STM32F7xx_HAL_Driver/Src/stm32f7xx_hal_sdram.c:673:17
	strb.w	r0, [r4, #44]
	.loc	5 676 44                @ ../Drivers/STM32F7xx_HAL_Driver/Src/stm32f7xx_hal_sdram.c:676:44
	ldrd	r0, r1, [r4]
	.loc	5 676 3 is_stmt 0       @ ../Drivers/STM32F7xx_HAL_Driver/Src/stm32f7xx_hal_sdram.c:676:3
	bl	FMC_SDRAM_WriteProtection_Enable
	movs	r0, #4
	.loc	5 679 17 is_stmt 1      @ ../Drivers/STM32F7xx_HAL_Driver/Src/stm32f7xx_hal_sdram.c:679:17
	strb.w	r0, [r4, #44]
	movs	r0, #0
.Ltmp148:
.LBB16_2:
	@DEBUG_VALUE: HAL_SDRAM_WriteProtection_Enable:hsdram <- $r4
	.loc	5 682 1                 @ ../Drivers/STM32F7xx_HAL_Driver/Src/stm32f7xx_hal_sdram.c:682:1
	uxtb	r0, r0
	pop	{r4, pc}
.Ltmp149:
.Lfunc_end16:
	.size	HAL_SDRAM_WriteProtection_Enable, .Lfunc_end16-HAL_SDRAM_WriteProtection_Enable
	.cfi_endproc
	.cantunwind
	.fnend
                                        @ -- End function
	.section	.text.HAL_SDRAM_WriteProtection_Disable,"ax",%progbits
	.hidden	HAL_SDRAM_WriteProtection_Disable @ -- Begin function HAL_SDRAM_WriteProtection_Disable
	.globl	HAL_SDRAM_WriteProtection_Disable
	.p2align	1
	.type	HAL_SDRAM_WriteProtection_Disable,%function
	.code	16                      @ @HAL_SDRAM_WriteProtection_Disable
	.thumb_func
HAL_SDRAM_WriteProtection_Disable:
.Lfunc_begin17:
	.loc	5 691 0                 @ ../Drivers/STM32F7xx_HAL_Driver/Src/stm32f7xx_hal_sdram.c:691:0
	.fnstart
	.cfi_startproc
@ %bb.0:
	.save	{r4, lr}
	push	{r4, lr}
	.cfi_def_cfa_offset 8
	.cfi_offset lr, -4
	.cfi_offset r4, -8
	@DEBUG_VALUE: HAL_SDRAM_WriteProtection_Disable:hsdram <- $r0
.Ltmp150:
	.loc	5 693 14 prologue_end   @ ../Drivers/STM32F7xx_HAL_Driver/Src/stm32f7xx_hal_sdram.c:693:14
	ldrb.w	r1, [r0, #44]
	mov	r4, r0
.Ltmp151:
	@DEBUG_VALUE: HAL_SDRAM_WriteProtection_Disable:hsdram <- $r4
	.loc	5 0 14 is_stmt 0        @ ../Drivers/STM32F7xx_HAL_Driver/Src/stm32f7xx_hal_sdram.c:0:14
	movs	r0, #2
.Ltmp152:
	.loc	5 693 6                 @ ../Drivers/STM32F7xx_HAL_Driver/Src/stm32f7xx_hal_sdram.c:693:6
	cmp	r1, #2
	beq	.LBB17_2
.Ltmp153:
@ %bb.1:
	@DEBUG_VALUE: HAL_SDRAM_WriteProtection_Disable:hsdram <- $r4
	.loc	5 699 17 is_stmt 1      @ ../Drivers/STM32F7xx_HAL_Driver/Src/stm32f7xx_hal_sdram.c:699:17
	strb.w	r0, [r4, #44]
	.loc	5 702 45                @ ../Drivers/STM32F7xx_HAL_Driver/Src/stm32f7xx_hal_sdram.c:702:45
	ldrd	r0, r1, [r4]
	.loc	5 702 3 is_stmt 0       @ ../Drivers/STM32F7xx_HAL_Driver/Src/stm32f7xx_hal_sdram.c:702:3
	bl	FMC_SDRAM_WriteProtection_Disable
	.loc	5 705 17 is_stmt 1      @ ../Drivers/STM32F7xx_HAL_Driver/Src/stm32f7xx_hal_sdram.c:705:17
	movs	r0, #1
	strb.w	r0, [r4, #44]
	movs	r0, #0
.Ltmp154:
.LBB17_2:
	@DEBUG_VALUE: HAL_SDRAM_WriteProtection_Disable:hsdram <- $r4
	.loc	5 708 1                 @ ../Drivers/STM32F7xx_HAL_Driver/Src/stm32f7xx_hal_sdram.c:708:1
	uxtb	r0, r0
	pop	{r4, pc}
.Ltmp155:
.Lfunc_end17:
	.size	HAL_SDRAM_WriteProtection_Disable, .Lfunc_end17-HAL_SDRAM_WriteProtection_Disable
	.cfi_endproc
	.cantunwind
	.fnend
                                        @ -- End function
	.section	.text.HAL_SDRAM_SendCommand,"ax",%progbits
	.hidden	HAL_SDRAM_SendCommand   @ -- Begin function HAL_SDRAM_SendCommand
	.globl	HAL_SDRAM_SendCommand
	.p2align	1
	.type	HAL_SDRAM_SendCommand,%function
	.code	16                      @ @HAL_SDRAM_SendCommand
	.thumb_func
HAL_SDRAM_SendCommand:
.Lfunc_begin18:
	.loc	5 719 0                 @ ../Drivers/STM32F7xx_HAL_Driver/Src/stm32f7xx_hal_sdram.c:719:0
	.fnstart
	.cfi_startproc
@ %bb.0:
	.save	{r4, r5, r7, lr}
	push	{r4, r5, r7, lr}
	.cfi_def_cfa_offset 16
	.cfi_offset lr, -4
	.cfi_offset r7, -8
	.cfi_offset r5, -12
	.cfi_offset r4, -16
	@DEBUG_VALUE: HAL_SDRAM_SendCommand:hsdram <- $r0
	@DEBUG_VALUE: HAL_SDRAM_SendCommand:Command <- $r1
	@DEBUG_VALUE: HAL_SDRAM_SendCommand:Timeout <- $r2
	mov	r5, r1
.Ltmp156:
	.loc	5 721 14 prologue_end   @ ../Drivers/STM32F7xx_HAL_Driver/Src/stm32f7xx_hal_sdram.c:721:14
	ldrb.w	r1, [r0, #44]
.Ltmp157:
	.loc	5 0 14 is_stmt 0        @ ../Drivers/STM32F7xx_HAL_Driver/Src/stm32f7xx_hal_sdram.c:0:14
	mov	r4, r0
	@DEBUG_VALUE: HAL_SDRAM_SendCommand:Timeout <- $r2
.Ltmp158:
	@DEBUG_VALUE: HAL_SDRAM_SendCommand:Command <- $r5
	@DEBUG_VALUE: HAL_SDRAM_SendCommand:hsdram <- $r4
	movs	r0, #2
.Ltmp159:
	.loc	5 721 6                 @ ../Drivers/STM32F7xx_HAL_Driver/Src/stm32f7xx_hal_sdram.c:721:6
	cmp	r1, #2
	beq	.LBB18_2
.Ltmp160:
@ %bb.1:
	@DEBUG_VALUE: HAL_SDRAM_SendCommand:hsdram <- $r4
	@DEBUG_VALUE: HAL_SDRAM_SendCommand:Command <- $r5
	@DEBUG_VALUE: HAL_SDRAM_SendCommand:Timeout <- $r2
	.loc	5 727 17 is_stmt 1      @ ../Drivers/STM32F7xx_HAL_Driver/Src/stm32f7xx_hal_sdram.c:727:17
	strb.w	r0, [r4, #44]
	.loc	5 730 3                 @ ../Drivers/STM32F7xx_HAL_Driver/Src/stm32f7xx_hal_sdram.c:730:3
	mov	r1, r5
	.loc	5 730 33 is_stmt 0      @ ../Drivers/STM32F7xx_HAL_Driver/Src/stm32f7xx_hal_sdram.c:730:33
	ldr	r0, [r4]
	.loc	5 730 3                 @ ../Drivers/STM32F7xx_HAL_Driver/Src/stm32f7xx_hal_sdram.c:730:3
	bl	FMC_SDRAM_SendCommand
.Ltmp161:
	.loc	5 733 15 is_stmt 1      @ ../Drivers/STM32F7xx_HAL_Driver/Src/stm32f7xx_hal_sdram.c:733:15
	ldr	r0, [r5]
	movs	r1, #1
.Ltmp162:
	.loc	5 736 3                 @ ../Drivers/STM32F7xx_HAL_Driver/Src/stm32f7xx_hal_sdram.c:736:3
	cmp	r0, #2
	mov.w	r0, #0
	it	eq
	moveq	r1, #5
	strb.w	r1, [r4, #44]
.Ltmp163:
.LBB18_2:
	@DEBUG_VALUE: HAL_SDRAM_SendCommand:hsdram <- $r4
	@DEBUG_VALUE: HAL_SDRAM_SendCommand:Command <- $r5
	.loc	5 743 1                 @ ../Drivers/STM32F7xx_HAL_Driver/Src/stm32f7xx_hal_sdram.c:743:1
	uxtb	r0, r0
	pop	{r4, r5, r7, pc}
.Ltmp164:
.Lfunc_end18:
	.size	HAL_SDRAM_SendCommand, .Lfunc_end18-HAL_SDRAM_SendCommand
	.cfi_endproc
	.cantunwind
	.fnend
                                        @ -- End function
	.section	.text.HAL_SDRAM_ProgramRefreshRate,"ax",%progbits
	.hidden	HAL_SDRAM_ProgramRefreshRate @ -- Begin function HAL_SDRAM_ProgramRefreshRate
	.globl	HAL_SDRAM_ProgramRefreshRate
	.p2align	1
	.type	HAL_SDRAM_ProgramRefreshRate,%function
	.code	16                      @ @HAL_SDRAM_ProgramRefreshRate
	.thumb_func
HAL_SDRAM_ProgramRefreshRate:
.Lfunc_begin19:
	.loc	5 753 0                 @ ../Drivers/STM32F7xx_HAL_Driver/Src/stm32f7xx_hal_sdram.c:753:0
	.fnstart
	.cfi_startproc
@ %bb.0:
	.save	{r4, lr}
	push	{r4, lr}
	.cfi_def_cfa_offset 8
	.cfi_offset lr, -4
	.cfi_offset r4, -8
	@DEBUG_VALUE: HAL_SDRAM_ProgramRefreshRate:hsdram <- $r0
	@DEBUG_VALUE: HAL_SDRAM_ProgramRefreshRate:RefreshRate <- $r1
.Ltmp165:
	.loc	5 755 14 prologue_end   @ ../Drivers/STM32F7xx_HAL_Driver/Src/stm32f7xx_hal_sdram.c:755:14
	ldrb.w	r2, [r0, #44]
	mov	r4, r0
	@DEBUG_VALUE: HAL_SDRAM_ProgramRefreshRate:RefreshRate <- $r1
.Ltmp166:
	@DEBUG_VALUE: HAL_SDRAM_ProgramRefreshRate:hsdram <- $r4
	.loc	5 0 14 is_stmt 0        @ ../Drivers/STM32F7xx_HAL_Driver/Src/stm32f7xx_hal_sdram.c:0:14
	movs	r0, #2
.Ltmp167:
	.loc	5 755 6                 @ ../Drivers/STM32F7xx_HAL_Driver/Src/stm32f7xx_hal_sdram.c:755:6
	cmp	r2, #2
	beq	.LBB19_2
.Ltmp168:
@ %bb.1:
	@DEBUG_VALUE: HAL_SDRAM_ProgramRefreshRate:hsdram <- $r4
	@DEBUG_VALUE: HAL_SDRAM_ProgramRefreshRate:RefreshRate <- $r1
	.loc	5 761 17 is_stmt 1      @ ../Drivers/STM32F7xx_HAL_Driver/Src/stm32f7xx_hal_sdram.c:761:17
	strb.w	r0, [r4, #44]
	.loc	5 764 40                @ ../Drivers/STM32F7xx_HAL_Driver/Src/stm32f7xx_hal_sdram.c:764:40
	ldr	r0, [r4]
	.loc	5 764 3 is_stmt 0       @ ../Drivers/STM32F7xx_HAL_Driver/Src/stm32f7xx_hal_sdram.c:764:3
	bl	FMC_SDRAM_ProgramRefreshRate
.Ltmp169:
	.loc	5 767 17 is_stmt 1      @ ../Drivers/STM32F7xx_HAL_Driver/Src/stm32f7xx_hal_sdram.c:767:17
	movs	r0, #1
	strb.w	r0, [r4, #44]
	movs	r0, #0
.Ltmp170:
.LBB19_2:
	@DEBUG_VALUE: HAL_SDRAM_ProgramRefreshRate:hsdram <- $r4
	.loc	5 770 1                 @ ../Drivers/STM32F7xx_HAL_Driver/Src/stm32f7xx_hal_sdram.c:770:1
	uxtb	r0, r0
	pop	{r4, pc}
.Ltmp171:
.Lfunc_end19:
	.size	HAL_SDRAM_ProgramRefreshRate, .Lfunc_end19-HAL_SDRAM_ProgramRefreshRate
	.cfi_endproc
	.cantunwind
	.fnend
                                        @ -- End function
	.section	.text.HAL_SDRAM_SetAutoRefreshNumber,"ax",%progbits
	.hidden	HAL_SDRAM_SetAutoRefreshNumber @ -- Begin function HAL_SDRAM_SetAutoRefreshNumber
	.globl	HAL_SDRAM_SetAutoRefreshNumber
	.p2align	1
	.type	HAL_SDRAM_SetAutoRefreshNumber,%function
	.code	16                      @ @HAL_SDRAM_SetAutoRefreshNumber
	.thumb_func
HAL_SDRAM_SetAutoRefreshNumber:
.Lfunc_begin20:
	.loc	5 780 0                 @ ../Drivers/STM32F7xx_HAL_Driver/Src/stm32f7xx_hal_sdram.c:780:0
	.fnstart
	.cfi_startproc
@ %bb.0:
	.save	{r4, lr}
	push	{r4, lr}
	.cfi_def_cfa_offset 8
	.cfi_offset lr, -4
	.cfi_offset r4, -8
	@DEBUG_VALUE: HAL_SDRAM_SetAutoRefreshNumber:hsdram <- $r0
	@DEBUG_VALUE: HAL_SDRAM_SetAutoRefreshNumber:AutoRefreshNumber <- $r1
.Ltmp172:
	.loc	5 782 14 prologue_end   @ ../Drivers/STM32F7xx_HAL_Driver/Src/stm32f7xx_hal_sdram.c:782:14
	ldrb.w	r2, [r0, #44]
	mov	r4, r0
	@DEBUG_VALUE: HAL_SDRAM_SetAutoRefreshNumber:AutoRefreshNumber <- $r1
.Ltmp173:
	@DEBUG_VALUE: HAL_SDRAM_SetAutoRefreshNumber:hsdram <- $r4
	.loc	5 0 14 is_stmt 0        @ ../Drivers/STM32F7xx_HAL_Driver/Src/stm32f7xx_hal_sdram.c:0:14
	movs	r0, #2
.Ltmp174:
	.loc	5 782 6                 @ ../Drivers/STM32F7xx_HAL_Driver/Src/stm32f7xx_hal_sdram.c:782:6
	cmp	r2, #2
	beq	.LBB20_2
.Ltmp175:
@ %bb.1:
	@DEBUG_VALUE: HAL_SDRAM_SetAutoRefreshNumber:hsdram <- $r4
	@DEBUG_VALUE: HAL_SDRAM_SetAutoRefreshNumber:AutoRefreshNumber <- $r1
	.loc	5 788 17 is_stmt 1      @ ../Drivers/STM32F7xx_HAL_Driver/Src/stm32f7xx_hal_sdram.c:788:17
	strb.w	r0, [r4, #44]
	.loc	5 791 42                @ ../Drivers/STM32F7xx_HAL_Driver/Src/stm32f7xx_hal_sdram.c:791:42
	ldr	r0, [r4]
	.loc	5 791 3 is_stmt 0       @ ../Drivers/STM32F7xx_HAL_Driver/Src/stm32f7xx_hal_sdram.c:791:3
	bl	FMC_SDRAM_SetAutoRefreshNumber
.Ltmp176:
	.loc	5 794 17 is_stmt 1      @ ../Drivers/STM32F7xx_HAL_Driver/Src/stm32f7xx_hal_sdram.c:794:17
	movs	r0, #1
	strb.w	r0, [r4, #44]
	movs	r0, #0
.Ltmp177:
.LBB20_2:
	@DEBUG_VALUE: HAL_SDRAM_SetAutoRefreshNumber:hsdram <- $r4
	.loc	5 797 1                 @ ../Drivers/STM32F7xx_HAL_Driver/Src/stm32f7xx_hal_sdram.c:797:1
	uxtb	r0, r0
	pop	{r4, pc}
.Ltmp178:
.Lfunc_end20:
	.size	HAL_SDRAM_SetAutoRefreshNumber, .Lfunc_end20-HAL_SDRAM_SetAutoRefreshNumber
	.cfi_endproc
	.cantunwind
	.fnend
                                        @ -- End function
	.section	.text.HAL_SDRAM_GetModeStatus,"ax",%progbits
	.hidden	HAL_SDRAM_GetModeStatus @ -- Begin function HAL_SDRAM_GetModeStatus
	.globl	HAL_SDRAM_GetModeStatus
	.p2align	1
	.type	HAL_SDRAM_GetModeStatus,%function
	.code	16                      @ @HAL_SDRAM_GetModeStatus
	.thumb_func
HAL_SDRAM_GetModeStatus:
.Lfunc_begin21:
	.loc	5 806 0                 @ ../Drivers/STM32F7xx_HAL_Driver/Src/stm32f7xx_hal_sdram.c:806:0
	.fnstart
	.cfi_startproc
@ %bb.0:
	@DEBUG_VALUE: HAL_SDRAM_GetModeStatus:hsdram <- $r0
	@DEBUG_VALUE: HAL_SDRAM_GetModeStatus:hsdram <- $r0
	.loc	5 808 42 prologue_end   @ ../Drivers/STM32F7xx_HAL_Driver/Src/stm32f7xx_hal_sdram.c:808:42
	ldrd	r2, r1, [r0]
	.loc	5 808 10 is_stmt 0      @ ../Drivers/STM32F7xx_HAL_Driver/Src/stm32f7xx_hal_sdram.c:808:10
	mov	r0, r2
	b	FMC_SDRAM_GetModeStatus
.Ltmp179:
.Lfunc_end21:
	.size	HAL_SDRAM_GetModeStatus, .Lfunc_end21-HAL_SDRAM_GetModeStatus
	.cfi_endproc
	.cantunwind
	.fnend
                                        @ -- End function
	.section	.text.HAL_SDRAM_GetState,"ax",%progbits
	.hidden	HAL_SDRAM_GetState      @ -- Begin function HAL_SDRAM_GetState
	.globl	HAL_SDRAM_GetState
	.p2align	1
	.type	HAL_SDRAM_GetState,%function
	.code	16                      @ @HAL_SDRAM_GetState
	.thumb_func
HAL_SDRAM_GetState:
.Lfunc_begin22:
	.loc	5 837 0 is_stmt 1       @ ../Drivers/STM32F7xx_HAL_Driver/Src/stm32f7xx_hal_sdram.c:837:0
	.fnstart
	.cfi_startproc
@ %bb.0:
	@DEBUG_VALUE: HAL_SDRAM_GetState:hsdram <- $r0
	@DEBUG_VALUE: HAL_SDRAM_GetState:hsdram <- $r0
	.loc	5 838 3 prologue_end    @ ../Drivers/STM32F7xx_HAL_Driver/Src/stm32f7xx_hal_sdram.c:838:3
	ldrb.w	r0, [r0, #44]
	bx	lr
.Ltmp180:
.Lfunc_end22:
	.size	HAL_SDRAM_GetState, .Lfunc_end22-HAL_SDRAM_GetState
	.cfi_endproc
	.cantunwind
	.fnend
                                        @ -- End function
	.file	6 "../Drivers/CMSIS/Device/ST/STM32F7xx/Include" "stm32f746xx.h"
	.file	7 "../Drivers/STM32F7xx_HAL_Driver/Inc" "stm32f7xx_ll_fmc.h"
	.section	".note.GNU-stack","",%progbits
	.eabi_attribute	30, 4	@ Tag_ABI_optimization_goals
	.ARM_attribute	16, 1	@ Tag_AV_eba