	.text
	.syntax unified
	.eabi_attribute	67, "2.09"	@ Tag_conformance
	.cpu	cortex-m7
	.eabi_attribute	6, 13	@ Tag_CPU_arch
	.eabi_attribute	7, 77	@ Tag_CPU_arch_profile
	.eabi_attribute	8, 0	@ Tag_ARM_ISA_use
	.eabi_attribute	9, 2	@ Tag_THUMB_ISA_use
	.fpu	fpv5-sp-d16
	.eabi_attribute	27, 1	@ Tag_ABI_HardFP_use
	.eabi_attribute	36, 1	@ Tag_FP_HP_extension
	.eabi_attribute	34, 1	@ Tag_CPU_unaligned_access
	.eabi_attribute	17, 1	@ Tag_ABI_PCS_GOT_use
	.eabi_attribute	20, 2	@ Tag_ABI_FP_denormal
	.eabi_attribute	21, 0	@ Tag_ABI_FP_exceptions
	.eabi_attribute	23, 1	@ Tag_ABI_FP_number_model
	.eabi_attribute	24, 1	@ Tag_ABI_align_needed
	.eabi_attribute	25, 1	@ Tag_ABI_align_preserved
	.eabi_attribute	28, 1	@ Tag_ABI_VFP_args
	.eabi_attribute	38, 1	@ Tag_ABI_FP_16bit_format
	.eabi_attribute	18, 2	@ Tag_ABI_PCS_wchar_t
	.eabi_attribute	26, 1	@ Tag_ABI_enum_size
	.eabi_attribute	14, 0	@ Tag_ABI_PCS_R9_use
	.file	"stm32f7xx_ll_fmc.c"
	.file	1 "../Drivers/STM32F7xx_HAL_Driver/Inc" "stm32f7xx_hal_def.h"
	.file	2 "../Drivers/CMSIS/Device/ST/STM32F7xx/Include" "stm32f7xx.h"
	.file	3 "C:\\Keil\\ARM\\ARMCLANG\\Bin\\..\\include" "stdint.h"
	.section	.text.FMC_NORSRAM_Init,"ax",%progbits
	.hidden	FMC_NORSRAM_Init        @ -- Begin function FMC_NORSRAM_Init
	.globl	FMC_NORSRAM_Init
	.p2align	2
	.type	FMC_NORSRAM_Init,%function
	.code	16                      @ @FMC_NORSRAM_Init
	.thumb_func
FMC_NORSRAM_Init:
.Lfunc_begin0:
	.file	4 "../Drivers/STM32F7xx_HAL_Driver/Src" "stm32f7xx_ll_fmc.c"
	.loc	4 149 0                 @ ../Drivers/STM32F7xx_HAL_Driver/Src/stm32f7xx_ll_fmc.c:149:0
	.fnstart
	.cfi_sections .debug_frame
	.cfi_startproc
@ %bb.0:
	.save	{r4, r5, r6, r7, r8, r9, lr}
	push.w	{r4, r5, r6, r7, r8, r9, lr}
	.cfi_def_cfa_offset 28
	.cfi_offset lr, -4
	.cfi_offset r9, -8
	.cfi_offset r8, -12
	.cfi_offset r7, -16
	.cfi_offset r6, -20
	.cfi_offset r5, -24
	.cfi_offset r4, -28
	@DEBUG_VALUE: FMC_NORSRAM_Init:Device <- $r0
	@DEBUG_VALUE: FMC_NORSRAM_Init:Device <- $r0
	@DEBUG_VALUE: FMC_NORSRAM_Init:Init <- $r1
	@DEBUG_VALUE: FMC_NORSRAM_Init:Init <- $r1
.Ltmp0:
	@DEBUG_VALUE: FMC_NORSRAM_Init:tmpr <- 0
	.loc	4 171 29 prologue_end   @ ../Drivers/STM32F7xx_HAL_Driver/Src/stm32f7xx_ll_fmc.c:171:29
	ldrd	r12, r8, [r1]
	.loc	4 185 27                @ ../Drivers/STM32F7xx_HAL_Driver/Src/stm32f7xx_ll_fmc.c:185:27
	add.w	r7, r1, #16
	.loc	4 183 27                @ ../Drivers/STM32F7xx_HAL_Driver/Src/stm32f7xx_ll_fmc.c:183:27
	ldrd	lr, r9, [r1, #8]
	.loc	4 175 8                 @ ../Drivers/STM32F7xx_HAL_Driver/Src/stm32f7xx_ll_fmc.c:175:8
	ldr	r3, __arm_cp.0_0
	.loc	4 185 27                @ ../Drivers/STM32F7xx_HAL_Driver/Src/stm32f7xx_ll_fmc.c:185:27
	ldm	r7, {r4, r5, r6, r7}
	.loc	4 171 10                @ ../Drivers/STM32F7xx_HAL_Driver/Src/stm32f7xx_ll_fmc.c:171:10
	ldr.w	r2, [r0, r12, lsl #2]
.Ltmp1:
	@DEBUG_VALUE: FMC_NORSRAM_Init:tmpr <- $r2
	.loc	4 197 6                 @ ../Drivers/STM32F7xx_HAL_Driver/Src/stm32f7xx_ll_fmc.c:197:6
	cmp.w	lr, #8
	.loc	4 175 8                 @ ../Drivers/STM32F7xx_HAL_Driver/Src/stm32f7xx_ll_fmc.c:175:8
	and.w	r2, r2, r3
.Ltmp2:
	@DEBUG_VALUE: FMC_NORSRAM_Init:tmpr <- $r2
	.loc	4 182 49                @ ../Drivers/STM32F7xx_HAL_Driver/Src/stm32f7xx_ll_fmc.c:182:49
	orr.w	r2, r2, r8
.Ltmp3:
	.loc	4 189 27                @ ../Drivers/STM32F7xx_HAL_Driver/Src/stm32f7xx_ll_fmc.c:189:27
	add.w	r8, r1, #32
	.loc	4 183 48                @ ../Drivers/STM32F7xx_HAL_Driver/Src/stm32f7xx_ll_fmc.c:183:48
	orr.w	r2, r2, lr
	.loc	4 184 48                @ ../Drivers/STM32F7xx_HAL_Driver/Src/stm32f7xx_ll_fmc.c:184:48
	orr.w	r2, r2, r9
	.loc	4 185 48                @ ../Drivers/STM32F7xx_HAL_Driver/Src/stm32f7xx_ll_fmc.c:185:48
	orr.w	r2, r2, r4
	.loc	4 186 48                @ ../Drivers/STM32F7xx_HAL_Driver/Src/stm32f7xx_ll_fmc.c:186:48
	orr.w	r2, r2, r5
	.loc	4 187 48                @ ../Drivers/STM32F7xx_HAL_Driver/Src/stm32f7xx_ll_fmc.c:187:48
	orr.w	r2, r2, r6
	.loc	4 188 48                @ ../Drivers/STM32F7xx_HAL_Driver/Src/stm32f7xx_ll_fmc.c:188:48
	orr.w	r9, r2, r7
	.loc	4 189 27                @ ../Drivers/STM32F7xx_HAL_Driver/Src/stm32f7xx_ll_fmc.c:189:27
	ldm.w	r8, {r3, r4, r5, r6, r7, r8}
	.loc	4 194 27                @ ../Drivers/STM32F7xx_HAL_Driver/Src/stm32f7xx_ll_fmc.c:194:27
	ldr	r2, [r1, #56]
	.loc	4 189 48                @ ../Drivers/STM32F7xx_HAL_Driver/Src/stm32f7xx_ll_fmc.c:189:48
	orr.w	r3, r3, r9
	.loc	4 190 48                @ ../Drivers/STM32F7xx_HAL_Driver/Src/stm32f7xx_ll_fmc.c:190:48
	orr.w	r3, r3, r4
	.loc	4 191 48                @ ../Drivers/STM32F7xx_HAL_Driver/Src/stm32f7xx_ll_fmc.c:191:48
	orr.w	r3, r3, r5
	.loc	4 192 48                @ ../Drivers/STM32F7xx_HAL_Driver/Src/stm32f7xx_ll_fmc.c:192:48
	orr.w	r3, r3, r6
	.loc	4 193 48                @ ../Drivers/STM32F7xx_HAL_Driver/Src/stm32f7xx_ll_fmc.c:193:48
	orr.w	r3, r3, r7
	.loc	4 194 48                @ ../Drivers/STM32F7xx_HAL_Driver/Src/stm32f7xx_ll_fmc.c:194:48
	orr.w	r2, r2, r3
	.loc	4 182 8                 @ ../Drivers/STM32F7xx_HAL_Driver/Src/stm32f7xx_ll_fmc.c:182:8
	orr.w	r2, r2, r8
.Ltmp4:
	@DEBUG_VALUE: FMC_NORSRAM_Init:tmpr <- $r2
	.loc	4 197 6                 @ ../Drivers/STM32F7xx_HAL_Driver/Src/stm32f7xx_ll_fmc.c:197:6
	it	eq
	orreq	r2, r2, #64
.Ltmp5:
	@DEBUG_VALUE: FMC_NORSRAM_Init:tmpr <- $r2
	.loc	4 202 30                @ ../Drivers/STM32F7xx_HAL_Driver/Src/stm32f7xx_ll_fmc.c:202:30
	str.w	r2, [r0, r12, lsl #2]
.Ltmp6:
	.loc	4 205 13                @ ../Drivers/STM32F7xx_HAL_Driver/Src/stm32f7xx_ll_fmc.c:205:13
	ldr	r2, [r1, #48]
.Ltmp7:
	.loc	4 205 65 is_stmt 0      @ ../Drivers/STM32F7xx_HAL_Driver/Src/stm32f7xx_ll_fmc.c:205:65
	cmp.w	r2, #1048576
	bne	.LBB0_3
.Ltmp8:
@ %bb.1:
	@DEBUG_VALUE: FMC_NORSRAM_Init:Init <- $r1
	@DEBUG_VALUE: FMC_NORSRAM_Init:Device <- $r0
	.loc	4 205 75                @ ../Drivers/STM32F7xx_HAL_Driver/Src/stm32f7xx_ll_fmc.c:205:75
	ldr	r2, [r1]
.Ltmp9:
	.loc	4 205 6                 @ ../Drivers/STM32F7xx_HAL_Driver/Src/stm32f7xx_ll_fmc.c:205:6
	cbz	r2, .LBB0_5
.Ltmp10:
@ %bb.2:
	@DEBUG_VALUE: FMC_NORSRAM_Init:Init <- $r1
	@DEBUG_VALUE: FMC_NORSRAM_Init:Device <- $r0
	.loc	4 207 37 is_stmt 1      @ ../Drivers/STM32F7xx_HAL_Driver/Src/stm32f7xx_ll_fmc.c:207:37
	ldr	r2, [r0]
	orr	r2, r2, #1048576
	str	r2, [r0]
.Ltmp11:
.LBB0_3:
	@DEBUG_VALUE: FMC_NORSRAM_Init:Init <- $r1
	@DEBUG_VALUE: FMC_NORSRAM_Init:Device <- $r0
	.loc	4 209 12                @ ../Drivers/STM32F7xx_HAL_Driver/Src/stm32f7xx_ll_fmc.c:209:12
	ldr	r2, [r1]
.Ltmp12:
	.loc	4 209 6 is_stmt 0       @ ../Drivers/STM32F7xx_HAL_Driver/Src/stm32f7xx_ll_fmc.c:209:6
	cbz	r2, .LBB0_5
.Ltmp13:
@ %bb.4:
	@DEBUG_VALUE: FMC_NORSRAM_Init:Init <- $r1
	@DEBUG_VALUE: FMC_NORSRAM_Init:Device <- $r0
	.loc	4 211 57 is_stmt 1      @ ../Drivers/STM32F7xx_HAL_Driver/Src/stm32f7xx_ll_fmc.c:211:57
	ldr	r1, [r1, #52]
.Ltmp14:
	.loc	4 211 37 is_stmt 0      @ ../Drivers/STM32F7xx_HAL_Driver/Src/stm32f7xx_ll_fmc.c:211:37
	ldr	r2, [r0]
	orrs	r1, r2
	str	r1, [r0]
.Ltmp15:
.LBB0_5:
	@DEBUG_VALUE: FMC_NORSRAM_Init:Device <- $r0
	.loc	4 214 3 is_stmt 1       @ ../Drivers/STM32F7xx_HAL_Driver/Src/stm32f7xx_ll_fmc.c:214:3
	movs	r0, #0
	pop.w	{r4, r5, r6, r7, r8, r9, pc}
.Ltmp16:
	.p2align	2
@ %bb.6:
	.loc	4 0 3 is_stmt 0         @ ../Drivers/STM32F7xx_HAL_Driver/Src/stm32f7xx_ll_fmc.c:0:3
__arm_cp.0_0:
	.long	4290774144              @ 0xffc00480
.Lcpi_end0:
	.size	__arm_cp.0_0, .Lcpi_end0-__arm_cp.0_0
.Lfunc_end0:
	.size	FMC_NORSRAM_Init, .Lfunc_end0-FMC_NORSRAM_Init
	.cfi_endproc
	.cantunwind
	.fnend
                                        @ -- End function
	.section	.text.FMC_NORSRAM_DeInit,"ax",%progbits
	.hidden	FMC_NORSRAM_DeInit      @ -- Begin function FMC_NORSRAM_DeInit
	.globl	FMC_NORSRAM_DeInit
	.p2align	2
	.type	FMC_NORSRAM_DeInit,%function
	.code	16                      @ @FMC_NORSRAM_DeInit
	.thumb_func
FMC_NORSRAM_DeInit:
.Lfunc_begin1:
	.loc	4 226 0 is_stmt 1       @ ../Drivers/STM32F7xx_HAL_Driver/Src/stm32f7xx_ll_fmc.c:226:0
	.fnstart
	.cfi_startproc
@ %bb.0:
	@DEBUG_VALUE: FMC_NORSRAM_DeInit:Device <- $r0
	@DEBUG_VALUE: FMC_NORSRAM_DeInit:Device <- $r0
	@DEBUG_VALUE: FMC_NORSRAM_DeInit:ExDevice <- $r1
	@DEBUG_VALUE: FMC_NORSRAM_DeInit:ExDevice <- $r1
	@DEBUG_VALUE: FMC_NORSRAM_DeInit:Bank <- $r2
	@DEBUG_VALUE: FMC_NORSRAM_DeInit:Bank <- $r2
	.loc	4 233 3 prologue_end    @ ../Drivers/STM32F7xx_HAL_Driver/Src/stm32f7xx_ll_fmc.c:233:3
	ldr.w	r3, [r0, r2, lsl #2]
	.loc	4 237 6                 @ ../Drivers/STM32F7xx_HAL_Driver/Src/stm32f7xx_ll_fmc.c:237:6
	cmp	r2, #0
	.loc	4 233 3                 @ ../Drivers/STM32F7xx_HAL_Driver/Src/stm32f7xx_ll_fmc.c:233:3
	bic	r3, r3, #1
	str.w	r3, [r0, r2, lsl #2]
	.loc	4 237 6                 @ ../Drivers/STM32F7xx_HAL_Driver/Src/stm32f7xx_ll_fmc.c:237:6
	movw	r3, #12498
	it	eq
	movweq	r3, #12507
	str.w	r3, [r0, r2, lsl #2]
	.loc	4 247 26                @ ../Drivers/STM32F7xx_HAL_Driver/Src/stm32f7xx_ll_fmc.c:247:26
	ldr	r3, __arm_cp.1_0
	add.w	r0, r0, r2, lsl #2
.Ltmp17:
	str	r3, [r0, #4]
	.loc	4 250 3                 @ ../Drivers/STM32F7xx_HAL_Driver/Src/stm32f7xx_ll_fmc.c:250:3
	movs	r0, #0
	.loc	4 248 26                @ ../Drivers/STM32F7xx_HAL_Driver/Src/stm32f7xx_ll_fmc.c:248:26
	str.w	r3, [r1, r2, lsl #2]
	.loc	4 250 3                 @ ../Drivers/STM32F7xx_HAL_Driver/Src/stm32f7xx_ll_fmc.c:250:3
	bx	lr
.Ltmp18:
	.p2align	2
@ %bb.1:
	.loc	4 0 3 is_stmt 0         @ ../Drivers/STM32F7xx_HAL_Driver/Src/stm32f7xx_ll_fmc.c:0:3
__arm_cp.1_0:
	.long	268435455               @ 0xfffffff
.Lcpi_end1:
	.size	__arm_cp.1_0, .Lcpi_end1-__arm_cp.1_0
.Lfunc_end1:
	.size	FMC_NORSRAM_DeInit, .Lfunc_end1-FMC_NORSRAM_DeInit
	.cfi_endproc
	.cantunwind
	.fnend
                                        @ -- End function
	.section	.text.FMC_NORSRAM_Timing_Init,"ax",%progbits
	.hidden	FMC_NORSRAM_Timing_Init @ -- Begin function FMC_NORSRAM_Timing_Init
	.globl	FMC_NORSRAM_Timing_Init
	.p2align	2
	.type	FMC_NORSRAM_Timing_Init,%function
	.code	16                      @ @FMC_NORSRAM_Timing_Init
	.thumb_func
FMC_NORSRAM_Timing_Init:
.Lfunc_begin2:
	.loc	4 263 0 is_stmt 1       @ ../Drivers/STM32F7xx_HAL_Driver/Src/stm32f7xx_ll_fmc.c:263:0
	.fnstart
	.cfi_startproc
@ %bb.0:
	.save	{r4, r5, r6, r7, r8, r9, r10, lr}
	push.w	{r4, r5, r6, r7, r8, r9, r10, lr}
	.cfi_def_cfa_offset 32
	.cfi_offset lr, -4
	.cfi_offset r10, -8
	.cfi_offset r9, -12
	.cfi_offset r8, -16
	.cfi_offset r7, -20
	.cfi_offset r6, -24
	.cfi_offset r5, -28
	.cfi_offset r4, -32
	@DEBUG_VALUE: FMC_NORSRAM_Timing_Init:Device <- $r0
	@DEBUG_VALUE: FMC_NORSRAM_Timing_Init:Timing <- $r1
	@DEBUG_VALUE: FMC_NORSRAM_Timing_Init:Bank <- $r2
	@DEBUG_VALUE: FMC_NORSRAM_Timing_Init:Bank <- $r2
	add.w	r3, r0, r2, lsl #2
.Ltmp19:
	@DEBUG_VALUE: FMC_NORSRAM_Timing_Init:tmpr <- 0
	@DEBUG_VALUE: FMC_NORSRAM_Timing_Init:Timing <- $r1
	@DEBUG_VALUE: FMC_NORSRAM_Timing_Init:Device <- $r0
	.loc	4 290 47 prologue_end   @ ../Drivers/STM32F7xx_HAL_Driver/Src/stm32f7xx_ll_fmc.c:290:47
	ldr	r5, __arm_cp.2_0
	.loc	4 278 10                @ ../Drivers/STM32F7xx_HAL_Driver/Src/stm32f7xx_ll_fmc.c:278:10
	ldr.w	r12, [r3, #4]
.Ltmp20:
	@DEBUG_VALUE: FMC_NORSRAM_Timing_Init:tmpr <- $r12
	.loc	4 286 30                @ ../Drivers/STM32F7xx_HAL_Driver/Src/stm32f7xx_ll_fmc.c:286:30
	ldrd	r8, r9, [r1]
	.loc	4 288 30                @ ../Drivers/STM32F7xx_HAL_Driver/Src/stm32f7xx_ll_fmc.c:288:30
	ldrd	r6, r7, [r1, #8]
	.loc	4 290 31                @ ../Drivers/STM32F7xx_HAL_Driver/Src/stm32f7xx_ll_fmc.c:290:31
	ldrd	r2, lr, [r1, #16]
.Ltmp21:
	.loc	4 292 30                @ ../Drivers/STM32F7xx_HAL_Driver/Src/stm32f7xx_ll_fmc.c:292:30
	ldr	r4, [r1, #24]
	mov	r10, r5
	.loc	4 290 47                @ ../Drivers/STM32F7xx_HAL_Driver/Src/stm32f7xx_ll_fmc.c:290:47
	add.w	r2, r5, r2, lsl #20
	.loc	4 281 8                 @ ../Drivers/STM32F7xx_HAL_Driver/Src/stm32f7xx_ll_fmc.c:281:8
	and	r5, r12, #-1073741824
.Ltmp22:
	@DEBUG_VALUE: FMC_NORSRAM_Timing_Init:tmpr <- $r5
	.loc	4 286 64                @ ../Drivers/STM32F7xx_HAL_Driver/Src/stm32f7xx_ll_fmc.c:286:64
	orr.w	r5, r5, r8
.Ltmp23:
	.loc	4 287 62                @ ../Drivers/STM32F7xx_HAL_Driver/Src/stm32f7xx_ll_fmc.c:287:62
	orr.w	r5, r5, r9, lsl #4
	.loc	4 288 62                @ ../Drivers/STM32F7xx_HAL_Driver/Src/stm32f7xx_ll_fmc.c:288:62
	orr.w	r6, r5, r6, lsl #8
	.loc	4 289 62                @ ../Drivers/STM32F7xx_HAL_Driver/Src/stm32f7xx_ll_fmc.c:289:62
	orr.w	r7, r6, r7, lsl #16
	.loc	4 290 62                @ ../Drivers/STM32F7xx_HAL_Driver/Src/stm32f7xx_ll_fmc.c:290:62
	orrs	r2, r7
	.loc	4 291 47                @ ../Drivers/STM32F7xx_HAL_Driver/Src/stm32f7xx_ll_fmc.c:291:47
	add.w	r7, lr, #254
	.loc	4 291 62 is_stmt 0      @ ../Drivers/STM32F7xx_HAL_Driver/Src/stm32f7xx_ll_fmc.c:291:62
	orrs	r2, r4
	.loc	4 286 8 is_stmt 1       @ ../Drivers/STM32F7xx_HAL_Driver/Src/stm32f7xx_ll_fmc.c:286:8
	orr.w	r2, r2, r7, lsl #24
.Ltmp24:
	@DEBUG_VALUE: FMC_NORSRAM_Timing_Init:tmpr <- $r2
	.loc	4 295 26                @ ../Drivers/STM32F7xx_HAL_Driver/Src/stm32f7xx_ll_fmc.c:295:26
	str	r2, [r3, #4]
.Ltmp25:
	.loc	4 298 6                 @ ../Drivers/STM32F7xx_HAL_Driver/Src/stm32f7xx_ll_fmc.c:298:6
	ldr	r2, [r0]
.Ltmp26:
	.loc	4 298 6 is_stmt 0       @ ../Drivers/STM32F7xx_HAL_Driver/Src/stm32f7xx_ll_fmc.c:298:6
	tst.w	r2, #1048576
	beq	.LBB2_2
.Ltmp27:
@ %bb.1:
	@DEBUG_VALUE: FMC_NORSRAM_Timing_Init:Timing <- $r1
	@DEBUG_VALUE: FMC_NORSRAM_Timing_Init:Device <- $r0
	.loc	4 300 23 is_stmt 1      @ ../Drivers/STM32F7xx_HAL_Driver/Src/stm32f7xx_ll_fmc.c:300:23
	ldr	r2, [r0, #4]
	.loc	4 301 34                @ ../Drivers/STM32F7xx_HAL_Driver/Src/stm32f7xx_ll_fmc.c:301:34
	ldr	r1, [r1, #16]
.Ltmp28:
	.loc	4 301 50 is_stmt 0      @ ../Drivers/STM32F7xx_HAL_Driver/Src/stm32f7xx_ll_fmc.c:301:50
	add.w	r1, r10, r1, lsl #20
	.loc	4 300 59 is_stmt 1      @ ../Drivers/STM32F7xx_HAL_Driver/Src/stm32f7xx_ll_fmc.c:300:59
	bic	r2, r2, #15728640
.Ltmp29:
	@DEBUG_VALUE: FMC_NORSRAM_Timing_Init:tmpr <- $r2
	.loc	4 301 10                @ ../Drivers/STM32F7xx_HAL_Driver/Src/stm32f7xx_ll_fmc.c:301:10
	orrs	r1, r2
.Ltmp30:
	@DEBUG_VALUE: FMC_NORSRAM_Timing_Init:tmpr <- $r1
	.loc	4 302 41                @ ../Drivers/STM32F7xx_HAL_Driver/Src/stm32f7xx_ll_fmc.c:302:41
	str	r1, [r0, #4]
.Ltmp31:
.LBB2_2:
	@DEBUG_VALUE: FMC_NORSRAM_Timing_Init:Device <- $r0
	.loc	4 305 3                 @ ../Drivers/STM32F7xx_HAL_Driver/Src/stm32f7xx_ll_fmc.c:305:3
	movs	r0, #0
	pop.w	{r4, r5, r6, r7, r8, r9, r10, pc}
.Ltmp32:
	.p2align	2
@ %bb.3:
	.loc	4 0 3 is_stmt 0         @ ../Drivers/STM32F7xx_HAL_Driver/Src/stm32f7xx_ll_fmc.c:0:3
__arm_cp.2_0:
	.long	4293918720              @ 0xfff00000
.Lcpi_end2:
	.size	__arm_cp.2_0, .Lcpi_end2-__arm_cp.2_0
.Lfunc_end2:
	.size	FMC_NORSRAM_Timing_Init, .Lfunc_end2-FMC_NORSRAM_Timing_Init
	.cfi_endproc
	.cantunwind
	.fnend
                                        @ -- End function
	.section	.text.FMC_NORSRAM_Extended_Timing_Init,"ax",%progbits
	.hidden	FMC_NORSRAM_Extended_Timing_Init @ -- Begin function FMC_NORSRAM_Extended_Timing_Init
	.globl	FMC_NORSRAM_Extended_Timing_Init
	.p2align	2
	.type	FMC_NORSRAM_Extended_Timing_Init,%function
	.code	16                      @ @FMC_NORSRAM_Extended_Timing_Init
	.thumb_func
FMC_NORSRAM_Extended_Timing_Init:
.Lfunc_begin3:
	.loc	4 317 0 is_stmt 1       @ ../Drivers/STM32F7xx_HAL_Driver/Src/stm32f7xx_ll_fmc.c:317:0
	.fnstart
	.cfi_startproc
@ %bb.0:
	@DEBUG_VALUE: FMC_NORSRAM_Extended_Timing_Init:Device <- $r0
	@DEBUG_VALUE: FMC_NORSRAM_Extended_Timing_Init:Device <- $r0
	@DEBUG_VALUE: FMC_NORSRAM_Extended_Timing_Init:Timing <- $r1
	@DEBUG_VALUE: FMC_NORSRAM_Extended_Timing_Init:Timing <- $r1
	@DEBUG_VALUE: FMC_NORSRAM_Extended_Timing_Init:Bank <- $r2
	@DEBUG_VALUE: FMC_NORSRAM_Extended_Timing_Init:Bank <- $r2
	@DEBUG_VALUE: FMC_NORSRAM_Extended_Timing_Init:ExtendedMode <- $r3
	@DEBUG_VALUE: FMC_NORSRAM_Extended_Timing_Init:ExtendedMode <- $r3
	@DEBUG_VALUE: FMC_NORSRAM_Extended_Timing_Init:tmpr <- 0
	.loc	4 324 6 prologue_end    @ ../Drivers/STM32F7xx_HAL_Driver/Src/stm32f7xx_ll_fmc.c:324:6
	cmp.w	r3, #16384
	bne	.LBB3_2
.Ltmp33:
@ %bb.1:
	@DEBUG_VALUE: FMC_NORSRAM_Extended_Timing_Init:ExtendedMode <- $r3
	@DEBUG_VALUE: FMC_NORSRAM_Extended_Timing_Init:Bank <- $r2
	@DEBUG_VALUE: FMC_NORSRAM_Extended_Timing_Init:Timing <- $r1
	@DEBUG_VALUE: FMC_NORSRAM_Extended_Timing_Init:Device <- $r0
	.loc	4 0 6 is_stmt 0         @ ../Drivers/STM32F7xx_HAL_Driver/Src/stm32f7xx_ll_fmc.c:0:6
	.save	{r4, r5, r7, lr}
	push	{r4, r5, r7, lr}
	.cfi_def_cfa_offset 16
	.cfi_offset lr, -4
	.cfi_offset r7, -8
	.cfi_offset r5, -12
	.cfi_offset r4, -16
.Ltmp34:
	.loc	4 338 12 is_stmt 1      @ ../Drivers/STM32F7xx_HAL_Driver/Src/stm32f7xx_ll_fmc.c:338:12
	ldr.w	r3, [r0, r2, lsl #2]
.Ltmp35:
	@DEBUG_VALUE: FMC_NORSRAM_Extended_Timing_Init:tmpr <- $r3
	.loc	4 341 10                @ ../Drivers/STM32F7xx_HAL_Driver/Src/stm32f7xx_ll_fmc.c:341:10
	ldr	r4, __arm_cp.3_1
	and.w	r12, r3, r4
.Ltmp36:
	@DEBUG_VALUE: FMC_NORSRAM_Extended_Timing_Init:tmpr <- $r12
	.loc	4 344 32                @ ../Drivers/STM32F7xx_HAL_Driver/Src/stm32f7xx_ll_fmc.c:344:32
	ldrd	r4, r3, [r1]
	.loc	4 346 33                @ ../Drivers/STM32F7xx_HAL_Driver/Src/stm32f7xx_ll_fmc.c:346:33
	ldrd	lr, r5, [r1, #8]
	.loc	4 348 32                @ ../Drivers/STM32F7xx_HAL_Driver/Src/stm32f7xx_ll_fmc.c:348:32
	ldr	r1, [r1, #24]
.Ltmp37:
	.loc	4 344 65                @ ../Drivers/STM32F7xx_HAL_Driver/Src/stm32f7xx_ll_fmc.c:344:65
	orr.w	r4, r4, r12
	.loc	4 345 65                @ ../Drivers/STM32F7xx_HAL_Driver/Src/stm32f7xx_ll_fmc.c:345:65
	orr.w	r3, r4, r3, lsl #4
	.loc	4 346 65                @ ../Drivers/STM32F7xx_HAL_Driver/Src/stm32f7xx_ll_fmc.c:346:65
	orr.w	r3, r3, lr, lsl #8
	.loc	4 347 65                @ ../Drivers/STM32F7xx_HAL_Driver/Src/stm32f7xx_ll_fmc.c:347:65
	orr.w	r3, r3, r5, lsl #16
	.loc	4 344 10                @ ../Drivers/STM32F7xx_HAL_Driver/Src/stm32f7xx_ll_fmc.c:344:10
	orrs	r1, r3
.Ltmp38:
	@DEBUG_VALUE: FMC_NORSRAM_Extended_Timing_Init:tmpr <- $r1
	.loc	4 0 10 is_stmt 0        @ ../Drivers/STM32F7xx_HAL_Driver/Src/stm32f7xx_ll_fmc.c:0:10
	pop.w	{r4, r5, r7, lr}
	b	.LBB3_3
.Ltmp39:
.LBB3_2:
	@DEBUG_VALUE: FMC_NORSRAM_Extended_Timing_Init:ExtendedMode <- $r3
	@DEBUG_VALUE: FMC_NORSRAM_Extended_Timing_Init:Bank <- $r2
	@DEBUG_VALUE: FMC_NORSRAM_Extended_Timing_Init:Timing <- $r1
	@DEBUG_VALUE: FMC_NORSRAM_Extended_Timing_Init:Device <- $r0
	ldr	r1, __arm_cp.3_0
.Ltmp40:
.LBB3_3:
	@DEBUG_VALUE: FMC_NORSRAM_Extended_Timing_Init:Bank <- $r2
	@DEBUG_VALUE: FMC_NORSRAM_Extended_Timing_Init:Device <- $r0
	str.w	r1, [r0, r2, lsl #2]
	.loc	4 357 3 is_stmt 1       @ ../Drivers/STM32F7xx_HAL_Driver/Src/stm32f7xx_ll_fmc.c:357:3
	movs	r0, #0
	bx	lr
.Ltmp41:
	.p2align	2
@ %bb.4:
	.loc	4 0 3 is_stmt 0         @ ../Drivers/STM32F7xx_HAL_Driver/Src/stm32f7xx_ll_fmc.c:0:3
__arm_cp.3_0:
	.long	268435455               @ 0xfffffff
.Lcpi_end3:
	.size	__arm_cp.3_0, .Lcpi_end3-__arm_cp.3_0
__arm_cp.3_1:
	.long	3488612352              @ 0xcff00000
.Lcpi_end4:
	.size	__arm_cp.3_1, .Lcpi_end4-__arm_cp.3_1
.Lfunc_end3:
	.size	FMC_NORSRAM_Extended_Timing_Init, .Lfunc_end3-FMC_NORSRAM_Extended_Timing_Init
	.cfi_endproc
	.cantunwind
	.fnend
                                        @ -- End function
	.section	.text.FMC_NORSRAM_WriteOperation_Enable,"ax",%progbits
	.hidden	FMC_NORSRAM_WriteOperation_Enable @ -- Begin function FMC_NORSRAM_WriteOperation_Enable
	.globl	FMC_NORSRAM_WriteOperation_Enable
	.p2align	1
	.type	FMC_NORSRAM_WriteOperation_Enable,%function
	.code	16                      @ @FMC_NORSRAM_WriteOperation_Enable
	.thumb_func
FMC_NORSRAM_WriteOperation_Enable:
.Lfunc_begin4:
	.loc	4 385 0 is_stmt 1       @ ../Drivers/STM32F7xx_HAL_Driver/Src/stm32f7xx_ll_fmc.c:385:0
	.fnstart
	.cfi_startproc
@ %bb.0:
	@DEBUG_VALUE: FMC_NORSRAM_WriteOperation_Enable:Device <- $r0
	@DEBUG_VALUE: FMC_NORSRAM_WriteOperation_Enable:Device <- $r0
	@DEBUG_VALUE: FMC_NORSRAM_WriteOperation_Enable:Bank <- $r1
	@DEBUG_VALUE: FMC_NORSRAM_WriteOperation_Enable:Bank <- $r1
	.loc	4 391 22 prologue_end   @ ../Drivers/STM32F7xx_HAL_Driver/Src/stm32f7xx_ll_fmc.c:391:22
	ldr.w	r2, [r0, r1, lsl #2]
	orr	r2, r2, #4096
	str.w	r2, [r0, r1, lsl #2]
	.loc	4 393 3                 @ ../Drivers/STM32F7xx_HAL_Driver/Src/stm32f7xx_ll_fmc.c:393:3
	movs	r0, #0
	bx	lr
.Ltmp42:
.Lfunc_end4:
	.size	FMC_NORSRAM_WriteOperation_Enable, .Lfunc_end4-FMC_NORSRAM_WriteOperation_Enable
	.cfi_endproc
	.cantunwind
	.fnend
                                        @ -- End function
	.section	.text.FMC_NORSRAM_WriteOperation_Disable,"ax",%progbits
	.hidden	FMC_NORSRAM_WriteOperation_Disable @ -- Begin function FMC_NORSRAM_WriteOperation_Disable
	.globl	FMC_NORSRAM_WriteOperation_Disable
	.p2align	1
	.type	FMC_NORSRAM_WriteOperation_Disable,%function
	.code	16                      @ @FMC_NORSRAM_WriteOperation_Disable
	.thumb_func
FMC_NORSRAM_WriteOperation_Disable:
.Lfunc_begin5:
	.loc	4 403 0                 @ ../Drivers/STM32F7xx_HAL_Driver/Src/stm32f7xx_ll_fmc.c:403:0
	.fnstart
	.cfi_startproc
@ %bb.0:
	@DEBUG_VALUE: FMC_NORSRAM_WriteOperation_Disable:Device <- $r0
	@DEBUG_VALUE: FMC_NORSRAM_WriteOperation_Disable:Device <- $r0
	@DEBUG_VALUE: FMC_NORSRAM_WriteOperation_Disable:Bank <- $r1
	@DEBUG_VALUE: FMC_NORSRAM_WriteOperation_Disable:Bank <- $r1
	.loc	4 409 22 prologue_end   @ ../Drivers/STM32F7xx_HAL_Driver/Src/stm32f7xx_ll_fmc.c:409:22
	ldr.w	r2, [r0, r1, lsl #2]
	bic	r2, r2, #4096
	str.w	r2, [r0, r1, lsl #2]
	.loc	4 411 3                 @ ../Drivers/STM32F7xx_HAL_Driver/Src/stm32f7xx_ll_fmc.c:411:3
	movs	r0, #0
	bx	lr
.Ltmp43:
.Lfunc_end5:
	.size	FMC_NORSRAM_WriteOperation_Disable, .Lfunc_end5-FMC_NORSRAM_WriteOperation_Disable
	.cfi_endproc
	.cantunwind
	.fnend
                                        @ -- End function
	.section	.text.FMC_NAND_Init,"ax",%progbits
	.hidden	FMC_NAND_Init           @ -- Begin function FMC_NAND_Init
	.globl	FMC_NAND_Init
	.p2align	2
	.type	FMC_NAND_Init,%function
	.code	16                      @ @FMC_NAND_Init
	.thumb_func
FMC_NAND_Init:
.Lfunc_begin6:
	.loc	4 472 0                 @ ../Drivers/STM32F7xx_HAL_Driver/Src/stm32f7xx_ll_fmc.c:472:0
	.fnstart
	.cfi_startproc
@ %bb.0:
	.save	{r4, r5, r7, lr}
	push	{r4, r5, r7, lr}
	.cfi_def_cfa_offset 16
	.cfi_offset lr, -4
	.cfi_offset r7, -8
	.cfi_offset r5, -12
	.cfi_offset r4, -16
	@DEBUG_VALUE: FMC_NAND_Init:Device <- $r0
	@DEBUG_VALUE: FMC_NAND_Init:Device <- $r0
	@DEBUG_VALUE: FMC_NAND_Init:Init <- $r1
	@DEBUG_VALUE: FMC_NAND_Init:Init <- $r1
.Ltmp44:
	@DEBUG_VALUE: FMC_NAND_Init:tmpr <- 0
	.loc	4 486 18 prologue_end   @ ../Drivers/STM32F7xx_HAL_Driver/Src/stm32f7xx_ll_fmc.c:486:18
	ldr	r2, [r0]
.Ltmp45:
	@DEBUG_VALUE: FMC_NAND_Init:tmpr <- $r2
	.loc	4 489 8                 @ ../Drivers/STM32F7xx_HAL_Driver/Src/stm32f7xx_ll_fmc.c:489:8
	ldr	r3, __arm_cp.6_0
	and.w	r12, r2, r3
.Ltmp46:
	@DEBUG_VALUE: FMC_NAND_Init:tmpr <- $r12
	.loc	4 493 28                @ ../Drivers/STM32F7xx_HAL_Driver/Src/stm32f7xx_ll_fmc.c:493:28
	ldrd	r3, r2, [r1, #4]
	.loc	4 496 29                @ ../Drivers/STM32F7xx_HAL_Driver/Src/stm32f7xx_ll_fmc.c:496:29
	ldrd	lr, r4, [r1, #12]
	.loc	4 498 31                @ ../Drivers/STM32F7xx_HAL_Driver/Src/stm32f7xx_ll_fmc.c:498:31
	ldrd	r5, r1, [r1, #20]
.Ltmp47:
	.loc	4 495 56                @ ../Drivers/STM32F7xx_HAL_Driver/Src/stm32f7xx_ll_fmc.c:495:56
	orr.w	r3, r3, r12
	.loc	4 496 56                @ ../Drivers/STM32F7xx_HAL_Driver/Src/stm32f7xx_ll_fmc.c:496:56
	orrs	r2, r3
	.loc	4 497 56                @ ../Drivers/STM32F7xx_HAL_Driver/Src/stm32f7xx_ll_fmc.c:497:56
	orr.w	r2, r2, lr
	.loc	4 498 56                @ ../Drivers/STM32F7xx_HAL_Driver/Src/stm32f7xx_ll_fmc.c:498:56
	orrs	r2, r4
	orr.w	r2, r2, r5, lsl #9
	.loc	4 493 8                 @ ../Drivers/STM32F7xx_HAL_Driver/Src/stm32f7xx_ll_fmc.c:493:8
	orr.w	r1, r2, r1, lsl #13
	orr	r1, r1, #8
.Ltmp48:
	@DEBUG_VALUE: FMC_NAND_Init:tmpr <- $r1
	.loc	4 502 18                @ ../Drivers/STM32F7xx_HAL_Driver/Src/stm32f7xx_ll_fmc.c:502:18
	str	r1, [r0]
	.loc	4 504 3                 @ ../Drivers/STM32F7xx_HAL_Driver/Src/stm32f7xx_ll_fmc.c:504:3
	movs	r0, #0
	pop	{r4, r5, r7, pc}
.Ltmp49:
	.p2align	2
@ %bb.1:
	.loc	4 0 3 is_stmt 0         @ ../Drivers/STM32F7xx_HAL_Driver/Src/stm32f7xx_ll_fmc.c:0:3
__arm_cp.6_0:
	.long	4293919105              @ 0xfff00181
.Lcpi_end5:
	.size	__arm_cp.6_0, .Lcpi_end5-__arm_cp.6_0
.Lfunc_end6:
	.size	FMC_NAND_Init, .Lfunc_end6-FMC_NAND_Init
	.cfi_endproc
	.cantunwind
	.fnend
                                        @ -- End function
	.section	.text.FMC_NAND_CommonSpace_Timing_Init,"ax",%progbits
	.hidden	FMC_NAND_CommonSpace_Timing_Init @ -- Begin function FMC_NAND_CommonSpace_Timing_Init
	.globl	FMC_NAND_CommonSpace_Timing_Init
	.p2align	1
	.type	FMC_NAND_CommonSpace_Timing_Init,%function
	.code	16                      @ @FMC_NAND_CommonSpace_Timing_Init
	.thumb_func
FMC_NAND_CommonSpace_Timing_Init:
.Lfunc_begin7:
	.loc	4 517 0 is_stmt 1       @ ../Drivers/STM32F7xx_HAL_Driver/Src/stm32f7xx_ll_fmc.c:517:0
	.fnstart
	.cfi_startproc
@ %bb.0:
	@DEBUG_VALUE: FMC_NAND_CommonSpace_Timing_Init:Device <- $r0
	@DEBUG_VALUE: FMC_NAND_CommonSpace_Timing_Init:Device <- $r0
	@DEBUG_VALUE: FMC_NAND_CommonSpace_Timing_Init:Timing <- $r1
	@DEBUG_VALUE: FMC_NAND_CommonSpace_Timing_Init:Timing <- $r1
	@DEBUG_VALUE: FMC_NAND_CommonSpace_Timing_Init:Bank <- $r2
	@DEBUG_VALUE: FMC_NAND_CommonSpace_Timing_Init:tmpr <- 0
	.loc	4 529 18 prologue_end   @ ../Drivers/STM32F7xx_HAL_Driver/Src/stm32f7xx_ll_fmc.c:529:18
	ldr	r2, [r0, #8]
.Ltmp50:
	.loc	4 535 30                @ ../Drivers/STM32F7xx_HAL_Driver/Src/stm32f7xx_ll_fmc.c:535:30
	ldrd	r12, r3, [r1]
	.loc	4 537 34                @ ../Drivers/STM32F7xx_HAL_Driver/Src/stm32f7xx_ll_fmc.c:537:34
	ldrd	r2, r1, [r1, #8]
.Ltmp51:
	.loc	4 535 57                @ ../Drivers/STM32F7xx_HAL_Driver/Src/stm32f7xx_ll_fmc.c:535:57
	orr.w	r3, r12, r3, lsl #8
	.loc	4 536 59                @ ../Drivers/STM32F7xx_HAL_Driver/Src/stm32f7xx_ll_fmc.c:536:59
	orr.w	r2, r3, r2, lsl #16
	.loc	4 537 59                @ ../Drivers/STM32F7xx_HAL_Driver/Src/stm32f7xx_ll_fmc.c:537:59
	orr.w	r1, r2, r1, lsl #24
.Ltmp52:
	@DEBUG_VALUE: FMC_NAND_CommonSpace_Timing_Init:tmpr <- $r1
	.loc	4 542 18                @ ../Drivers/STM32F7xx_HAL_Driver/Src/stm32f7xx_ll_fmc.c:542:18
	str	r1, [r0, #8]
	.loc	4 544 3                 @ ../Drivers/STM32F7xx_HAL_Driver/Src/stm32f7xx_ll_fmc.c:544:3
	movs	r0, #0
	bx	lr
.Ltmp53:
.Lfunc_end7:
	.size	FMC_NAND_CommonSpace_Timing_Init, .Lfunc_end7-FMC_NAND_CommonSpace_Timing_Init
	.cfi_endproc
	.cantunwind
	.fnend
                                        @ -- End function
	.section	.text.FMC_NAND_AttributeSpace_Timing_Init,"ax",%progbits
	.hidden	FMC_NAND_AttributeSpace_Timing_Init @ -- Begin function FMC_NAND_AttributeSpace_Timing_Init
	.globl	FMC_NAND_AttributeSpace_Timing_Init
	.p2align	1
	.type	FMC_NAND_AttributeSpace_Timing_Init,%function
	.code	16                      @ @FMC_NAND_AttributeSpace_Timing_Init
	.thumb_func
FMC_NAND_AttributeSpace_Timing_Init:
.Lfunc_begin8:
	.loc	4 556 0                 @ ../Drivers/STM32F7xx_HAL_Driver/Src/stm32f7xx_ll_fmc.c:556:0
	.fnstart
	.cfi_startproc
@ %bb.0:
	@DEBUG_VALUE: FMC_NAND_AttributeSpace_Timing_Init:Device <- $r0
	@DEBUG_VALUE: FMC_NAND_AttributeSpace_Timing_Init:Device <- $r0
	@DEBUG_VALUE: FMC_NAND_AttributeSpace_Timing_Init:Timing <- $r1
	@DEBUG_VALUE: FMC_NAND_AttributeSpace_Timing_Init:Timing <- $r1
	@DEBUG_VALUE: FMC_NAND_AttributeSpace_Timing_Init:Bank <- $r2
	@DEBUG_VALUE: FMC_NAND_AttributeSpace_Timing_Init:tmpr <- 0
	.loc	4 568 18 prologue_end   @ ../Drivers/STM32F7xx_HAL_Driver/Src/stm32f7xx_ll_fmc.c:568:18
	ldr	r2, [r0, #12]
.Ltmp54:
	.loc	4 574 30                @ ../Drivers/STM32F7xx_HAL_Driver/Src/stm32f7xx_ll_fmc.c:574:30
	ldrd	r12, r3, [r1]
	.loc	4 576 30                @ ../Drivers/STM32F7xx_HAL_Driver/Src/stm32f7xx_ll_fmc.c:576:30
	ldrd	r2, r1, [r1, #8]
.Ltmp55:
	.loc	4 574 57                @ ../Drivers/STM32F7xx_HAL_Driver/Src/stm32f7xx_ll_fmc.c:574:57
	orr.w	r3, r12, r3, lsl #8
	.loc	4 575 55                @ ../Drivers/STM32F7xx_HAL_Driver/Src/stm32f7xx_ll_fmc.c:575:55
	orr.w	r2, r3, r2, lsl #16
	.loc	4 576 55                @ ../Drivers/STM32F7xx_HAL_Driver/Src/stm32f7xx_ll_fmc.c:576:55
	orr.w	r1, r2, r1, lsl #24
.Ltmp56:
	@DEBUG_VALUE: FMC_NAND_AttributeSpace_Timing_Init:tmpr <- $r1
	.loc	4 580 18                @ ../Drivers/STM32F7xx_HAL_Driver/Src/stm32f7xx_ll_fmc.c:580:18
	str	r1, [r0, #12]
	.loc	4 582 3                 @ ../Drivers/STM32F7xx_HAL_Driver/Src/stm32f7xx_ll_fmc.c:582:3
	movs	r0, #0
	bx	lr
.Ltmp57:
.Lfunc_end8:
	.size	FMC_NAND_AttributeSpace_Timing_Init, .Lfunc_end8-FMC_NAND_AttributeSpace_Timing_Init
	.cfi_endproc
	.cantunwind
	.fnend
                                        @ -- End function
	.section	.text.FMC_NAND_DeInit,"ax",%progbits
	.hidden	FMC_NAND_DeInit         @ -- Begin function FMC_NAND_DeInit
	.globl	FMC_NAND_DeInit
	.p2align	1
	.type	FMC_NAND_DeInit,%function
	.code	16                      @ @FMC_NAND_DeInit
	.thumb_func
FMC_NAND_DeInit:
.Lfunc_begin9:
	.loc	4 592 0                 @ ../Drivers/STM32F7xx_HAL_Driver/Src/stm32f7xx_ll_fmc.c:592:0
	.fnstart
	.cfi_startproc
@ %bb.0:
	@DEBUG_VALUE: FMC_NAND_DeInit:Device <- $r0
	@DEBUG_VALUE: FMC_NAND_DeInit:Device <- $r0
	@DEBUG_VALUE: FMC_NAND_DeInit:Bank <- $r1
	.loc	4 598 3 prologue_end    @ ../Drivers/STM32F7xx_HAL_Driver/Src/stm32f7xx_ll_fmc.c:598:3
	ldr	r1, [r0]
.Ltmp58:
	bic	r1, r1, #4
	str	r1, [r0]
	.loc	4 601 18                @ ../Drivers/STM32F7xx_HAL_Driver/Src/stm32f7xx_ll_fmc.c:601:18
	movs	r1, #24
	str	r1, [r0]
	.loc	4 602 18                @ ../Drivers/STM32F7xx_HAL_Driver/Src/stm32f7xx_ll_fmc.c:602:18
	movs	r1, #64
	str	r1, [r0, #4]
	.loc	4 603 18                @ ../Drivers/STM32F7xx_HAL_Driver/Src/stm32f7xx_ll_fmc.c:603:18
	mov.w	r1, #-50529028
	str	r1, [r0, #8]
	.loc	4 604 18                @ ../Drivers/STM32F7xx_HAL_Driver/Src/stm32f7xx_ll_fmc.c:604:18
	str	r1, [r0, #12]
	.loc	4 606 3                 @ ../Drivers/STM32F7xx_HAL_Driver/Src/stm32f7xx_ll_fmc.c:606:3
	movs	r0, #0
	bx	lr
.Ltmp59:
.Lfunc_end9:
	.size	FMC_NAND_DeInit, .Lfunc_end9-FMC_NAND_DeInit
	.cfi_endproc
	.cantunwind
	.fnend
                                        @ -- End function
	.section	.text.FMC_NAND_ECC_Enable,"ax",%progbits
	.hidden	FMC_NAND_ECC_Enable     @ -- Begin function FMC_NAND_ECC_Enable
	.globl	FMC_NAND_ECC_Enable
	.p2align	1
	.type	FMC_NAND_ECC_Enable,%function
	.code	16                      @ @FMC_NAND_ECC_Enable
	.thumb_func
FMC_NAND_ECC_Enable:
.Lfunc_begin10:
	.loc	4 636 0                 @ ../Drivers/STM32F7xx_HAL_Driver/Src/stm32f7xx_ll_fmc.c:636:0
	.fnstart
	.cfi_startproc
@ %bb.0:
	@DEBUG_VALUE: FMC_NAND_ECC_Enable:Device <- $r0
	@DEBUG_VALUE: FMC_NAND_ECC_Enable:Device <- $r0
	@DEBUG_VALUE: FMC_NAND_ECC_Enable:Bank <- $r1
	.loc	4 642 17 prologue_end   @ ../Drivers/STM32F7xx_HAL_Driver/Src/stm32f7xx_ll_fmc.c:642:17
	ldr	r1, [r0]
.Ltmp60:
	orr	r1, r1, #64
	str	r1, [r0]
	.loc	4 644 3                 @ ../Drivers/STM32F7xx_HAL_Driver/Src/stm32f7xx_ll_fmc.c:644:3
	movs	r0, #0
	bx	lr
.Ltmp61:
.Lfunc_end10:
	.size	FMC_NAND_ECC_Enable, .Lfunc_end10-FMC_NAND_ECC_Enable
	.cfi_endproc
	.cantunwind
	.fnend
                                        @ -- End function
	.section	.text.FMC_NAND_ECC_Disable,"ax",%progbits
	.hidden	FMC_NAND_ECC_Disable    @ -- Begin function FMC_NAND_ECC_Disable
	.globl	FMC_NAND_ECC_Disable
	.p2align	1
	.type	FMC_NAND_ECC_Disable,%function
	.code	16                      @ @FMC_NAND_ECC_Disable
	.thumb_func
FMC_NAND_ECC_Disable:
.Lfunc_begin11:
	.loc	4 655 0                 @ ../Drivers/STM32F7xx_HAL_Driver/Src/stm32f7xx_ll_fmc.c:655:0
	.fnstart
	.cfi_startproc
@ %bb.0:
	@DEBUG_VALUE: FMC_NAND_ECC_Disable:Device <- $r0
	@DEBUG_VALUE: FMC_NAND_ECC_Disable:Device <- $r0
	@DEBUG_VALUE: FMC_NAND_ECC_Disable:Bank <- $r1
	.loc	4 661 17 prologue_end   @ ../Drivers/STM32F7xx_HAL_Driver/Src/stm32f7xx_ll_fmc.c:661:17
	ldr	r1, [r0]
.Ltmp62:
	bic	r1, r1, #64
	str	r1, [r0]
	.loc	4 663 3                 @ ../Drivers/STM32F7xx_HAL_Driver/Src/stm32f7xx_ll_fmc.c:663:3
	movs	r0, #0
	bx	lr
.Ltmp63:
.Lfunc_end11:
	.size	FMC_NAND_ECC_Disable, .Lfunc_end11-FMC_NAND_ECC_Disable
	.cfi_endproc
	.cantunwind
	.fnend
                                        @ -- End function
	.section	.text.FMC_NAND_GetECC,"ax",%progbits
	.hidden	FMC_NAND_GetECC         @ -- Begin function FMC_NAND_GetECC
	.globl	FMC_NAND_GetECC
	.p2align	1
	.type	FMC_NAND_GetECC,%function
	.code	16                      @ @FMC_NAND_GetECC
	.thumb_func
FMC_NAND_GetECC:
.Lfunc_begin12:
	.loc	4 675 0                 @ ../Drivers/STM32F7xx_HAL_Driver/Src/stm32f7xx_ll_fmc.c:675:0
	.fnstart
	.cfi_startproc
@ %bb.0:
	.save	{r4, r5, r6, r7, r8, lr}
	push.w	{r4, r5, r6, r7, r8, lr}
	.cfi_def_cfa_offset 24
	.cfi_offset lr, -4
	.cfi_offset r8, -8
	.cfi_offset r7, -12
	.cfi_offset r6, -16
	.cfi_offset r5, -20
	.cfi_offset r4, -24
	@DEBUG_VALUE: FMC_NAND_GetECC:Device <- $r0
	@DEBUG_VALUE: FMC_NAND_GetECC:ECCval <- $r1
	@DEBUG_VALUE: FMC_NAND_GetECC:Bank <- $r2
	@DEBUG_VALUE: FMC_NAND_GetECC:Timeout <- $r3
	mov	r5, r3
	mov	r8, r1
	mov	r6, r0
.Ltmp64:
	@DEBUG_VALUE: FMC_NAND_GetECC:tickstart <- 0
	@DEBUG_VALUE: FMC_NAND_GetECC:Timeout <- $r5
	@DEBUG_VALUE: FMC_NAND_GetECC:ECCval <- $r8
	@DEBUG_VALUE: FMC_NAND_GetECC:Device <- $r6
	.loc	4 683 15 prologue_end   @ ../Drivers/STM32F7xx_HAL_Driver/Src/stm32f7xx_ll_fmc.c:683:15
	bl	HAL_GetTick
.Ltmp65:
	mov	r7, r0
.Ltmp66:
	@DEBUG_VALUE: FMC_NAND_GetECC:tickstart <- $r7
	.loc	4 0 15 is_stmt 0        @ ../Drivers/STM32F7xx_HAL_Driver/Src/stm32f7xx_ll_fmc.c:0:15
	adds	r4, r5, #1
.Ltmp67:
.LBB12_1:                               @ =>This Inner Loop Header: Depth=1
	@DEBUG_VALUE: FMC_NAND_GetECC:tickstart <- $r7
	@DEBUG_VALUE: FMC_NAND_GetECC:Device <- $r6
	@DEBUG_VALUE: FMC_NAND_GetECC:ECCval <- $r8
	@DEBUG_VALUE: FMC_NAND_GetECC:Timeout <- $r5
	.loc	4 686 9 is_stmt 1       @ ../Drivers/STM32F7xx_HAL_Driver/Src/stm32f7xx_ll_fmc.c:686:9
	ldr	r0, [r6, #4]
	.loc	4 686 3 is_stmt 0       @ ../Drivers/STM32F7xx_HAL_Driver/Src/stm32f7xx_ll_fmc.c:686:3
	tst.w	r0, #64
	bne	.LBB12_6
.Ltmp68:
@ %bb.2:                                @   in Loop: Header=BB12_1 Depth=1
	@DEBUG_VALUE: FMC_NAND_GetECC:tickstart <- $r7
	@DEBUG_VALUE: FMC_NAND_GetECC:Device <- $r6
	@DEBUG_VALUE: FMC_NAND_GetECC:ECCval <- $r8
	@DEBUG_VALUE: FMC_NAND_GetECC:Timeout <- $r5
	.loc	4 689 8 is_stmt 1       @ ../Drivers/STM32F7xx_HAL_Driver/Src/stm32f7xx_ll_fmc.c:689:8
	cmp	r4, #0
	beq	.LBB12_1
.Ltmp69:
@ %bb.3:                                @   in Loop: Header=BB12_1 Depth=1
	@DEBUG_VALUE: FMC_NAND_GetECC:tickstart <- $r7
	@DEBUG_VALUE: FMC_NAND_GetECC:Device <- $r6
	@DEBUG_VALUE: FMC_NAND_GetECC:ECCval <- $r8
	@DEBUG_VALUE: FMC_NAND_GetECC:Timeout <- $r5
	cbz	r5, .LBB12_5
.Ltmp70:
@ %bb.4:                                @   in Loop: Header=BB12_1 Depth=1
	@DEBUG_VALUE: FMC_NAND_GetECC:tickstart <- $r7
	@DEBUG_VALUE: FMC_NAND_GetECC:Device <- $r6
	@DEBUG_VALUE: FMC_NAND_GetECC:ECCval <- $r8
	@DEBUG_VALUE: FMC_NAND_GetECC:Timeout <- $r5
	.loc	4 691 28                @ ../Drivers/STM32F7xx_HAL_Driver/Src/stm32f7xx_ll_fmc.c:691:28
	bl	HAL_GetTick
	.loc	4 691 42 is_stmt 0      @ ../Drivers/STM32F7xx_HAL_Driver/Src/stm32f7xx_ll_fmc.c:691:42
	subs	r0, r0, r7
.Ltmp71:
	.loc	4 691 10                @ ../Drivers/STM32F7xx_HAL_Driver/Src/stm32f7xx_ll_fmc.c:691:10
	cmp	r0, r5
	bls	.LBB12_1
.Ltmp72:
.LBB12_5:
	@DEBUG_VALUE: FMC_NAND_GetECC:tickstart <- $r7
	@DEBUG_VALUE: FMC_NAND_GetECC:Device <- $r6
	@DEBUG_VALUE: FMC_NAND_GetECC:ECCval <- $r8
	@DEBUG_VALUE: FMC_NAND_GetECC:Timeout <- $r5
	.loc	4 0 10                  @ ../Drivers/STM32F7xx_HAL_Driver/Src/stm32f7xx_ll_fmc.c:0:10
	movs	r0, #3
	b	.LBB12_7
.Ltmp73:
.LBB12_6:
	@DEBUG_VALUE: FMC_NAND_GetECC:tickstart <- $r7
	@DEBUG_VALUE: FMC_NAND_GetECC:Device <- $r6
	@DEBUG_VALUE: FMC_NAND_GetECC:ECCval <- $r8
	@DEBUG_VALUE: FMC_NAND_GetECC:Timeout <- $r5
	.loc	4 699 31 is_stmt 1      @ ../Drivers/STM32F7xx_HAL_Driver/Src/stm32f7xx_ll_fmc.c:699:31
	ldr	r0, [r6, #20]
	.loc	4 699 11 is_stmt 0      @ ../Drivers/STM32F7xx_HAL_Driver/Src/stm32f7xx_ll_fmc.c:699:11
	str.w	r0, [r8]
	movs	r0, #0
.Ltmp74:
.LBB12_7:
	@DEBUG_VALUE: FMC_NAND_GetECC:tickstart <- $r7
	@DEBUG_VALUE: FMC_NAND_GetECC:Device <- $r6
	@DEBUG_VALUE: FMC_NAND_GetECC:ECCval <- $r8
	@DEBUG_VALUE: FMC_NAND_GetECC:Timeout <- $r5
	.loc	4 702 1 is_stmt 1       @ ../Drivers/STM32F7xx_HAL_Driver/Src/stm32f7xx_ll_fmc.c:702:1
	uxtb	r0, r0
	pop.w	{r4, r5, r6, r7, r8, pc}
.Ltmp75:
.Lfunc_end12:
	.size	FMC_NAND_GetECC, .Lfunc_end12-FMC_NAND_GetECC
	.cfi_endproc
	.cantunwind
	.fnend
                                        @ -- End function
	.section	.text.FMC_SDRAM_Init,"ax",%progbits
	.hidden	FMC_SDRAM_Init          @ -- Begin function FMC_SDRAM_Init
	.globl	FMC_SDRAM_Init
	.p2align	1
	.type	FMC_SDRAM_Init,%function
	.code	16                      @ @FMC_SDRAM_Init
	.thumb_func
FMC_SDRAM_Init:
.Lfunc_begin13:
	.loc	4 759 0                 @ ../Drivers/STM32F7xx_HAL_Driver/Src/stm32f7xx_ll_fmc.c:759:0
	.fnstart
	.cfi_startproc
@ %bb.0:
	.save	{r4, r5, r6, r7, r8, lr}
	push.w	{r4, r5, r6, r7, r8, lr}
	.cfi_def_cfa_offset 24
	.cfi_offset lr, -4
	.cfi_offset r8, -8
	.cfi_offset r7, -12
	.cfi_offset r6, -16
	.cfi_offset r5, -20
	.cfi_offset r4, -24
	@DEBUG_VALUE: FMC_SDRAM_Init:Device <- $r0
	@DEBUG_VALUE: FMC_SDRAM_Init:Device <- $r0
	@DEBUG_VALUE: FMC_SDRAM_Init:Init <- $r1
	@DEBUG_VALUE: FMC_SDRAM_Init:Init <- $r1
.Ltmp76:
	@DEBUG_VALUE: FMC_SDRAM_Init:tmpr1 <- 0
	@DEBUG_VALUE: FMC_SDRAM_Init:tmpr2 <- 0
	.loc	4 777 13 prologue_end   @ ../Drivers/STM32F7xx_HAL_Driver/Src/stm32f7xx_ll_fmc.c:777:13
	ldr	r3, [r1]
	ldr	r2, [r0]
.Ltmp77:
	@DEBUG_VALUE: FMC_SDRAM_Init:tmpr1 <- $r2
	.loc	4 777 7 is_stmt 0       @ ../Drivers/STM32F7xx_HAL_Driver/Src/stm32f7xx_ll_fmc.c:777:7
	cmp	r3, #1
	bne	.LBB13_2
.Ltmp78:
@ %bb.1:
	@DEBUG_VALUE: FMC_SDRAM_Init:tmpr1 <- $r2
	@DEBUG_VALUE: FMC_SDRAM_Init:Init <- $r1
	@DEBUG_VALUE: FMC_SDRAM_Init:Device <- $r0
	.loc	4 816 31 is_stmt 1      @ ../Drivers/STM32F7xx_HAL_Driver/Src/stm32f7xx_ll_fmc.c:816:31
	ldrd	lr, r7, [r1, #4]
	.loc	4 818 30                @ ../Drivers/STM32F7xx_HAL_Driver/Src/stm32f7xx_ll_fmc.c:818:30
	ldrd	r6, r5, [r1, #12]
	.loc	4 820 30                @ ../Drivers/STM32F7xx_HAL_Driver/Src/stm32f7xx_ll_fmc.c:820:30
	ldrd	r8, r12, [r1, #20]
	.loc	4 805 31                @ ../Drivers/STM32F7xx_HAL_Driver/Src/stm32f7xx_ll_fmc.c:805:31
	ldrd	r3, r4, [r1, #28]
	.loc	4 807 31                @ ../Drivers/STM32F7xx_HAL_Driver/Src/stm32f7xx_ll_fmc.c:807:31
	ldr	r1, [r1, #36]
.Ltmp79:
	.loc	4 803 11                @ ../Drivers/STM32F7xx_HAL_Driver/Src/stm32f7xx_ll_fmc.c:803:11
	bic	r2, r2, #31744
.Ltmp80:
	@DEBUG_VALUE: FMC_SDRAM_Init:tmpr1 <- $r2
	.loc	4 805 50                @ ../Drivers/STM32F7xx_HAL_Driver/Src/stm32f7xx_ll_fmc.c:805:50
	orrs	r2, r3
.Ltmp81:
	.loc	4 806 50                @ ../Drivers/STM32F7xx_HAL_Driver/Src/stm32f7xx_ll_fmc.c:806:50
	orrs	r2, r4
	.loc	4 805 11                @ ../Drivers/STM32F7xx_HAL_Driver/Src/stm32f7xx_ll_fmc.c:805:11
	orrs	r1, r2
.Ltmp82:
	@DEBUG_VALUE: FMC_SDRAM_Init:tmpr1 <- $r1
	.loc	4 809 13                @ ../Drivers/STM32F7xx_HAL_Driver/Src/stm32f7xx_ll_fmc.c:809:13
	ldr	r2, [r0, #4]
.Ltmp83:
	@DEBUG_VALUE: FMC_SDRAM_Init:tmpr2 <- $r2
	.loc	4 823 35                @ ../Drivers/STM32F7xx_HAL_Driver/Src/stm32f7xx_ll_fmc.c:823:35
	str	r1, [r0]
	.loc	4 812 11                @ ../Drivers/STM32F7xx_HAL_Driver/Src/stm32f7xx_ll_fmc.c:812:11
	movw	r1, #32767
.Ltmp84:
	bic.w	r1, r2, r1
.Ltmp85:
	@DEBUG_VALUE: FMC_SDRAM_Init:tmpr2 <- $r1
	.loc	4 816 50                @ ../Drivers/STM32F7xx_HAL_Driver/Src/stm32f7xx_ll_fmc.c:816:50
	orr.w	r1, r1, lr
.Ltmp86:
	.loc	4 817 50                @ ../Drivers/STM32F7xx_HAL_Driver/Src/stm32f7xx_ll_fmc.c:817:50
	orrs	r1, r7
	.loc	4 818 50                @ ../Drivers/STM32F7xx_HAL_Driver/Src/stm32f7xx_ll_fmc.c:818:50
	orrs	r1, r6
	.loc	4 819 50                @ ../Drivers/STM32F7xx_HAL_Driver/Src/stm32f7xx_ll_fmc.c:819:50
	orrs	r1, r5
	.loc	4 820 50                @ ../Drivers/STM32F7xx_HAL_Driver/Src/stm32f7xx_ll_fmc.c:820:50
	orr.w	r1, r1, r8
	.loc	4 816 11                @ ../Drivers/STM32F7xx_HAL_Driver/Src/stm32f7xx_ll_fmc.c:816:11
	orr.w	r1, r1, r12
.Ltmp87:
	@DEBUG_VALUE: FMC_SDRAM_Init:tmpr2 <- $r1
	.loc	4 824 35                @ ../Drivers/STM32F7xx_HAL_Driver/Src/stm32f7xx_ll_fmc.c:824:35
	str	r1, [r0, #4]
	b	.LBB13_3
.Ltmp88:
.LBB13_2:
	@DEBUG_VALUE: FMC_SDRAM_Init:tmpr1 <- $r2
	@DEBUG_VALUE: FMC_SDRAM_Init:Init <- $r1
	@DEBUG_VALUE: FMC_SDRAM_Init:Device <- $r0
	.loc	4 782 11                @ ../Drivers/STM32F7xx_HAL_Driver/Src/stm32f7xx_ll_fmc.c:782:11
	movw	r3, #32767
	.loc	4 790 31                @ ../Drivers/STM32F7xx_HAL_Driver/Src/stm32f7xx_ll_fmc.c:790:31
	add.w	r8, r1, #20
	.loc	4 782 11                @ ../Drivers/STM32F7xx_HAL_Driver/Src/stm32f7xx_ll_fmc.c:782:11
	bic.w	r12, r2, r3
.Ltmp89:
	@DEBUG_VALUE: FMC_SDRAM_Init:tmpr1 <- $r12
	.loc	4 786 31                @ ../Drivers/STM32F7xx_HAL_Driver/Src/stm32f7xx_ll_fmc.c:786:31
	ldrd	r3, r2, [r1, #4]
	.loc	4 788 31                @ ../Drivers/STM32F7xx_HAL_Driver/Src/stm32f7xx_ll_fmc.c:788:31
	ldrd	lr, r4, [r1, #12]
	.loc	4 790 31                @ ../Drivers/STM32F7xx_HAL_Driver/Src/stm32f7xx_ll_fmc.c:790:31
	ldm.w	r8, {r5, r6, r7, r8}
	.loc	4 794 31                @ ../Drivers/STM32F7xx_HAL_Driver/Src/stm32f7xx_ll_fmc.c:794:31
	ldr	r1, [r1, #36]
.Ltmp90:
	.loc	4 786 50                @ ../Drivers/STM32F7xx_HAL_Driver/Src/stm32f7xx_ll_fmc.c:786:50
	orr.w	r3, r3, r12
	.loc	4 787 50                @ ../Drivers/STM32F7xx_HAL_Driver/Src/stm32f7xx_ll_fmc.c:787:50
	orrs	r2, r3
	.loc	4 788 50                @ ../Drivers/STM32F7xx_HAL_Driver/Src/stm32f7xx_ll_fmc.c:788:50
	orr.w	r2, r2, lr
	.loc	4 789 50                @ ../Drivers/STM32F7xx_HAL_Driver/Src/stm32f7xx_ll_fmc.c:789:50
	orrs	r2, r4
	.loc	4 790 50                @ ../Drivers/STM32F7xx_HAL_Driver/Src/stm32f7xx_ll_fmc.c:790:50
	orrs	r2, r5
	.loc	4 791 50                @ ../Drivers/STM32F7xx_HAL_Driver/Src/stm32f7xx_ll_fmc.c:791:50
	orrs	r2, r6
	.loc	4 792 50                @ ../Drivers/STM32F7xx_HAL_Driver/Src/stm32f7xx_ll_fmc.c:792:50
	orrs	r2, r7
	.loc	4 793 50                @ ../Drivers/STM32F7xx_HAL_Driver/Src/stm32f7xx_ll_fmc.c:793:50
	orr.w	r2, r2, r8
	.loc	4 786 11                @ ../Drivers/STM32F7xx_HAL_Driver/Src/stm32f7xx_ll_fmc.c:786:11
	orrs	r1, r2
.Ltmp91:
	@DEBUG_VALUE: FMC_SDRAM_Init:tmpr1 <- $r1
	.loc	4 796 35                @ ../Drivers/STM32F7xx_HAL_Driver/Src/stm32f7xx_ll_fmc.c:796:35
	str	r1, [r0]
.Ltmp92:
.LBB13_3:
	@DEBUG_VALUE: FMC_SDRAM_Init:Device <- $r0
	.loc	4 827 3                 @ ../Drivers/STM32F7xx_HAL_Driver/Src/stm32f7xx_ll_fmc.c:827:3
	movs	r0, #0
	pop.w	{r4, r5, r6, r7, r8, pc}
.Ltmp93:
.Lfunc_end13:
	.size	FMC_SDRAM_Init, .Lfunc_end13-FMC_SDRAM_Init
	.cfi_endproc
	.cantunwind
	.fnend
                                        @ -- End function
	.section	.text.FMC_SDRAM_Timing_Init,"ax",%progbits
	.hidden	FMC_SDRAM_Timing_Init   @ -- Begin function FMC_SDRAM_Timing_Init
	.globl	FMC_SDRAM_Timing_Init
	.p2align	2
	.type	FMC_SDRAM_Timing_Init,%function
	.code	16                      @ @FMC_SDRAM_Timing_Init
	.thumb_func
FMC_SDRAM_Timing_Init:
.Lfunc_begin14:
	.loc	4 840 0                 @ ../Drivers/STM32F7xx_HAL_Driver/Src/stm32f7xx_ll_fmc.c:840:0
	.fnstart
	.cfi_startproc
@ %bb.0:
	.save	{r4, r5, r6, r7, lr}
	push	{r4, r5, r6, r7, lr}
	.cfi_def_cfa_offset 20
	.cfi_offset lr, -4
	.cfi_offset r7, -8
	.cfi_offset r6, -12
	.cfi_offset r5, -16
	.cfi_offset r4, -20
	@DEBUG_VALUE: FMC_SDRAM_Timing_Init:Device <- $r0
	@DEBUG_VALUE: FMC_SDRAM_Timing_Init:Timing <- $r1
	@DEBUG_VALUE: FMC_SDRAM_Timing_Init:Bank <- $r2
.Ltmp94:
	@DEBUG_VALUE: FMC_SDRAM_Timing_Init:tmpr1 <- 0
	ldr	r3, [r0, #8]
.Ltmp95:
	@DEBUG_VALUE: FMC_SDRAM_Timing_Init:tmpr2 <- 0
	@DEBUG_VALUE: FMC_SDRAM_Timing_Init:tmpr1 <- $r3
	@DEBUG_VALUE: FMC_SDRAM_Timing_Init:Bank <- $r2
	@DEBUG_VALUE: FMC_SDRAM_Timing_Init:Timing <- $r1
	@DEBUG_VALUE: FMC_SDRAM_Timing_Init:Device <- $r0
	.loc	4 856 7 prologue_end    @ ../Drivers/STM32F7xx_HAL_Driver/Src/stm32f7xx_ll_fmc.c:856:7
	cmp	r2, #1
	bne	.LBB14_2
.Ltmp96:
@ %bb.1:
	@DEBUG_VALUE: FMC_SDRAM_Timing_Init:tmpr1 <- $r3
	@DEBUG_VALUE: FMC_SDRAM_Timing_Init:Bank <- $r2
	@DEBUG_VALUE: FMC_SDRAM_Timing_Init:Timing <- $r1
	@DEBUG_VALUE: FMC_SDRAM_Timing_Init:Device <- $r0
	.loc	4 879 11                @ ../Drivers/STM32F7xx_HAL_Driver/Src/stm32f7xx_ll_fmc.c:879:11
	ldr	r2, __arm_cp.14_3
.Ltmp97:
	.loc	4 881 54                @ ../Drivers/STM32F7xx_HAL_Driver/Src/stm32f7xx_ll_fmc.c:881:54
	ldr	r7, __arm_cp.14_0
	.loc	4 879 11                @ ../Drivers/STM32F7xx_HAL_Driver/Src/stm32f7xx_ll_fmc.c:879:11
	ands	r2, r3
.Ltmp98:
	@DEBUG_VALUE: FMC_SDRAM_Timing_Init:tmpr1 <- $r2
	.loc	4 891 35                @ ../Drivers/STM32F7xx_HAL_Driver/Src/stm32f7xx_ll_fmc.c:891:35
	ldm.w	r1, {r3, r5, r12}
	.loc	4 881 36                @ ../Drivers/STM32F7xx_HAL_Driver/Src/stm32f7xx_ll_fmc.c:881:36
	ldrd	r4, lr, [r1, #12]
	.loc	4 882 36                @ ../Drivers/STM32F7xx_HAL_Driver/Src/stm32f7xx_ll_fmc.c:882:36
	ldrd	r6, r1, [r1, #20]
.Ltmp99:
	.loc	4 881 54                @ ../Drivers/STM32F7xx_HAL_Driver/Src/stm32f7xx_ll_fmc.c:881:54
	add.w	r4, r7, r4, lsl #12
	.loc	4 891 53                @ ../Drivers/STM32F7xx_HAL_Driver/Src/stm32f7xx_ll_fmc.c:891:53
	subs	r3, #1
	.loc	4 895 48                @ ../Drivers/STM32F7xx_HAL_Driver/Src/stm32f7xx_ll_fmc.c:895:48
	adds	r1, #255
	.loc	4 881 67                @ ../Drivers/STM32F7xx_HAL_Driver/Src/stm32f7xx_ll_fmc.c:881:67
	orrs	r2, r4
.Ltmp100:
	.loc	4 882 48                @ ../Drivers/STM32F7xx_HAL_Driver/Src/stm32f7xx_ll_fmc.c:882:48
	ldr	r4, __arm_cp.14_2
	add.w	r4, r4, r6, lsl #20
	.loc	4 881 11                @ ../Drivers/STM32F7xx_HAL_Driver/Src/stm32f7xx_ll_fmc.c:881:11
	orrs	r2, r4
.Ltmp101:
	@DEBUG_VALUE: FMC_SDRAM_Timing_Init:tmpr1 <- $r2
	.loc	4 884 13                @ ../Drivers/STM32F7xx_HAL_Driver/Src/stm32f7xx_ll_fmc.c:884:13
	ldr	r4, [r0, #12]
.Ltmp102:
	@DEBUG_VALUE: FMC_SDRAM_Timing_Init:tmpr2 <- $r4
	.loc	4 897 35                @ ../Drivers/STM32F7xx_HAL_Driver/Src/stm32f7xx_ll_fmc.c:897:35
	str	r2, [r0, #8]
	.loc	4 892 60                @ ../Drivers/STM32F7xx_HAL_Driver/Src/stm32f7xx_ll_fmc.c:892:60
	mvn	r2, #15
.Ltmp103:
	add.w	r2, r2, r5, lsl #4
	.loc	4 887 11                @ ../Drivers/STM32F7xx_HAL_Driver/Src/stm32f7xx_ll_fmc.c:887:11
	and	r4, r4, #-268435456
.Ltmp104:
	@DEBUG_VALUE: FMC_SDRAM_Timing_Init:tmpr2 <- $r4
	.loc	4 891 67                @ ../Drivers/STM32F7xx_HAL_Driver/Src/stm32f7xx_ll_fmc.c:891:67
	orrs	r3, r4
	.loc	4 892 67                @ ../Drivers/STM32F7xx_HAL_Driver/Src/stm32f7xx_ll_fmc.c:892:67
	orrs	r2, r3
	.loc	4 893 55                @ ../Drivers/STM32F7xx_HAL_Driver/Src/stm32f7xx_ll_fmc.c:893:55
	mvn	r3, #255
	add.w	r3, r3, r12, lsl #8
	.loc	4 893 67 is_stmt 0      @ ../Drivers/STM32F7xx_HAL_Driver/Src/stm32f7xx_ll_fmc.c:893:67
	orrs	r2, r3
	.loc	4 894 57 is_stmt 1      @ ../Drivers/STM32F7xx_HAL_Driver/Src/stm32f7xx_ll_fmc.c:894:57
	ldr	r3, __arm_cp.14_1
	add.w	r3, r3, lr, lsl #16
	.loc	4 894 67 is_stmt 0      @ ../Drivers/STM32F7xx_HAL_Driver/Src/stm32f7xx_ll_fmc.c:894:67
	orrs	r2, r3
	.loc	4 891 11 is_stmt 1      @ ../Drivers/STM32F7xx_HAL_Driver/Src/stm32f7xx_ll_fmc.c:891:11
	orr.w	r1, r2, r1, lsl #24
.Ltmp105:
	@DEBUG_VALUE: FMC_SDRAM_Timing_Init:tmpr2 <- $r1
	.loc	4 898 35                @ ../Drivers/STM32F7xx_HAL_Driver/Src/stm32f7xx_ll_fmc.c:898:35
	str	r1, [r0, #12]
	b	.LBB14_3
.Ltmp106:
.LBB14_2:
	@DEBUG_VALUE: FMC_SDRAM_Timing_Init:tmpr1 <- $r3
	@DEBUG_VALUE: FMC_SDRAM_Timing_Init:Bank <- $r2
	@DEBUG_VALUE: FMC_SDRAM_Timing_Init:Timing <- $r1
	@DEBUG_VALUE: FMC_SDRAM_Timing_Init:Device <- $r0
	.loc	4 865 35                @ ../Drivers/STM32F7xx_HAL_Driver/Src/stm32f7xx_ll_fmc.c:865:35
	ldrd	r12, r2, [r1]
.Ltmp107:
	.loc	4 866 60                @ ../Drivers/STM32F7xx_HAL_Driver/Src/stm32f7xx_ll_fmc.c:866:60
	mvn	r5, #15
	.loc	4 867 35                @ ../Drivers/STM32F7xx_HAL_Driver/Src/stm32f7xx_ll_fmc.c:867:35
	ldrd	lr, r4, [r1, #8]
	.loc	4 861 11                @ ../Drivers/STM32F7xx_HAL_Driver/Src/stm32f7xx_ll_fmc.c:861:11
	and	r3, r3, #-268435456
.Ltmp108:
	@DEBUG_VALUE: FMC_SDRAM_Timing_Init:tmpr1 <- $r3
	.loc	4 866 60                @ ../Drivers/STM32F7xx_HAL_Driver/Src/stm32f7xx_ll_fmc.c:866:60
	add.w	r2, r5, r2, lsl #4
	.loc	4 865 53                @ ../Drivers/STM32F7xx_HAL_Driver/Src/stm32f7xx_ll_fmc.c:865:53
	sub.w	r5, r12, #1
	.loc	4 865 67 is_stmt 0      @ ../Drivers/STM32F7xx_HAL_Driver/Src/stm32f7xx_ll_fmc.c:865:67
	orrs	r3, r5
.Ltmp109:
	.loc	4 866 66 is_stmt 1      @ ../Drivers/STM32F7xx_HAL_Driver/Src/stm32f7xx_ll_fmc.c:866:66
	orrs	r2, r3
	.loc	4 867 55                @ ../Drivers/STM32F7xx_HAL_Driver/Src/stm32f7xx_ll_fmc.c:867:55
	mvn	r3, #255
	add.w	r3, r3, lr, lsl #8
	.loc	4 867 66 is_stmt 0      @ ../Drivers/STM32F7xx_HAL_Driver/Src/stm32f7xx_ll_fmc.c:867:66
	orrs	r2, r3
	.loc	4 868 53 is_stmt 1      @ ../Drivers/STM32F7xx_HAL_Driver/Src/stm32f7xx_ll_fmc.c:868:53
	ldr	r3, __arm_cp.14_0
	add.w	r3, r3, r4, lsl #12
	.loc	4 869 57                @ ../Drivers/STM32F7xx_HAL_Driver/Src/stm32f7xx_ll_fmc.c:869:57
	ldr	r4, __arm_cp.14_1
	.loc	4 868 66                @ ../Drivers/STM32F7xx_HAL_Driver/Src/stm32f7xx_ll_fmc.c:868:66
	orrs	r2, r3
	.loc	4 869 35                @ ../Drivers/STM32F7xx_HAL_Driver/Src/stm32f7xx_ll_fmc.c:869:35
	ldr	r3, [r1, #16]
	.loc	4 869 57 is_stmt 0      @ ../Drivers/STM32F7xx_HAL_Driver/Src/stm32f7xx_ll_fmc.c:869:57
	add.w	r3, r4, r3, lsl #16
	.loc	4 870 47 is_stmt 1      @ ../Drivers/STM32F7xx_HAL_Driver/Src/stm32f7xx_ll_fmc.c:870:47
	ldr	r4, __arm_cp.14_2
	.loc	4 869 66                @ ../Drivers/STM32F7xx_HAL_Driver/Src/stm32f7xx_ll_fmc.c:869:66
	orrs	r2, r3
	.loc	4 870 35                @ ../Drivers/STM32F7xx_HAL_Driver/Src/stm32f7xx_ll_fmc.c:870:35
	ldr	r3, [r1, #20]
	.loc	4 871 35                @ ../Drivers/STM32F7xx_HAL_Driver/Src/stm32f7xx_ll_fmc.c:871:35
	ldr	r1, [r1, #24]
.Ltmp110:
	.loc	4 870 47                @ ../Drivers/STM32F7xx_HAL_Driver/Src/stm32f7xx_ll_fmc.c:870:47
	add.w	r3, r4, r3, lsl #20
	.loc	4 871 48                @ ../Drivers/STM32F7xx_HAL_Driver/Src/stm32f7xx_ll_fmc.c:871:48
	adds	r1, #255
	.loc	4 870 66                @ ../Drivers/STM32F7xx_HAL_Driver/Src/stm32f7xx_ll_fmc.c:870:66
	orrs	r2, r3
	.loc	4 865 11                @ ../Drivers/STM32F7xx_HAL_Driver/Src/stm32f7xx_ll_fmc.c:865:11
	orr.w	r1, r2, r1, lsl #24
.Ltmp111:
	@DEBUG_VALUE: FMC_SDRAM_Timing_Init:tmpr1 <- $r1
	.loc	4 872 35                @ ../Drivers/STM32F7xx_HAL_Driver/Src/stm32f7xx_ll_fmc.c:872:35
	str	r1, [r0, #8]
.Ltmp112:
.LBB14_3:
	@DEBUG_VALUE: FMC_SDRAM_Timing_Init:Device <- $r0
	.loc	4 901 3                 @ ../Drivers/STM32F7xx_HAL_Driver/Src/stm32f7xx_ll_fmc.c:901:3
	movs	r0, #0
	pop	{r4, r5, r6, r7, pc}
.Ltmp113:
	.p2align	2
@ %bb.4:
	.loc	4 0 3 is_stmt 0         @ ../Drivers/STM32F7xx_HAL_Driver/Src/stm32f7xx_ll_fmc.c:0:3
__arm_cp.14_0:
	.long	4294963200              @ 0xfffff000
.Lcpi_end6:
	.size	__arm_cp.14_0, .Lcpi_end6-__arm_cp.14_0
__arm_cp.14_1:
	.long	4294901760              @ 0xffff0000
.Lcpi_end7:
	.size	__arm_cp.14_1, .Lcpi_end7-__arm_cp.14_1
__arm_cp.14_2:
	.long	4293918720              @ 0xfff00000
.Lcpi_end8:
	.size	__arm_cp.14_2, .Lcpi_end8-__arm_cp.14_2
__arm_cp.14_3:
	.long	4279177215              @ 0xff0f0fff
.Lcpi_end9:
	.size	__arm_cp.14_3, .Lcpi_end9-__arm_cp.14_3
.Lfunc_end14:
	.size	FMC_SDRAM_Timing_Init, .Lfunc_end14-FMC_SDRAM_Timing_Init
	.cfi_endproc
	.cantunwind
	.fnend
                                        @ -- End function
	.section	.text.FMC_SDRAM_DeInit,"ax",%progbits
	.hidden	FMC_SDRAM_DeInit        @ -- Begin function FMC_SDRAM_DeInit
	.globl	FMC_SDRAM_DeInit
	.p2align	2
	.type	FMC_SDRAM_DeInit,%function
	.code	16                      @ @FMC_SDRAM_DeInit
	.thumb_func
FMC_SDRAM_DeInit:
.Lfunc_begin15:
	.loc	4 910 0 is_stmt 1       @ ../Drivers/STM32F7xx_HAL_Driver/Src/stm32f7xx_ll_fmc.c:910:0
	.fnstart
	.cfi_startproc
@ %bb.0:
	@DEBUG_VALUE: FMC_SDRAM_DeInit:Device <- $r0
	@DEBUG_VALUE: FMC_SDRAM_DeInit:Device <- $r0
	@DEBUG_VALUE: FMC_SDRAM_DeInit:Bank <- $r1
	@DEBUG_VALUE: FMC_SDRAM_DeInit:Bank <- $r1
	.loc	4 916 22 prologue_end   @ ../Drivers/STM32F7xx_HAL_Driver/Src/stm32f7xx_ll_fmc.c:916:22
	mov.w	r2, #720
	str.w	r2, [r0, r1, lsl #2]
	.loc	4 917 22                @ ../Drivers/STM32F7xx_HAL_Driver/Src/stm32f7xx_ll_fmc.c:917:22
	ldr	r2, __arm_cp.15_0
	.loc	4 916 3                 @ ../Drivers/STM32F7xx_HAL_Driver/Src/stm32f7xx_ll_fmc.c:916:3
	add.w	r1, r0, r1, lsl #2
.Ltmp114:
	.loc	4 917 22                @ ../Drivers/STM32F7xx_HAL_Driver/Src/stm32f7xx_ll_fmc.c:917:22
	str	r2, [r1, #8]
	movs	r1, #0
	.loc	4 918 22                @ ../Drivers/STM32F7xx_HAL_Driver/Src/stm32f7xx_ll_fmc.c:918:22
	str	r1, [r0, #16]
	.loc	4 919 22                @ ../Drivers/STM32F7xx_HAL_Driver/Src/stm32f7xx_ll_fmc.c:919:22
	str	r1, [r0, #20]
	.loc	4 920 22                @ ../Drivers/STM32F7xx_HAL_Driver/Src/stm32f7xx_ll_fmc.c:920:22
	str	r1, [r0, #24]
	.loc	4 922 3                 @ ../Drivers/STM32F7xx_HAL_Driver/Src/stm32f7xx_ll_fmc.c:922:3
	movs	r0, #0
	bx	lr
.Ltmp115:
	.p2align	2
@ %bb.1:
	.loc	4 0 3 is_stmt 0         @ ../Drivers/STM32F7xx_HAL_Driver/Src/stm32f7xx_ll_fmc.c:0:3
__arm_cp.15_0:
	.long	268435455               @ 0xfffffff
.Lcpi_end10:
	.size	__arm_cp.15_0, .Lcpi_end10-__arm_cp.15_0
.Lfunc_end15:
	.size	FMC_SDRAM_DeInit, .Lfunc_end15-FMC_SDRAM_DeInit
	.cfi_endproc
	.cantunwind
	.fnend
                                        @ -- End function
	.section	.text.FMC_SDRAM_WriteProtection_Enable,"ax",%progbits
	.hidden	FMC_SDRAM_WriteProtection_Enable @ -- Begin function FMC_SDRAM_WriteProtection_Enable
	.globl	FMC_SDRAM_WriteProtection_Enable
	.p2align	1
	.type	FMC_SDRAM_WriteProtection_Enable,%function
	.code	16                      @ @FMC_SDRAM_WriteProtection_Enable
	.thumb_func
FMC_SDRAM_WriteProtection_Enable:
.Lfunc_begin16:
	.loc	4 951 0 is_stmt 1       @ ../Drivers/STM32F7xx_HAL_Driver/Src/stm32f7xx_ll_fmc.c:951:0
	.fnstart
	.cfi_startproc
@ %bb.0:
	@DEBUG_VALUE: FMC_SDRAM_WriteProtection_Enable:Device <- $r0
	@DEBUG_VALUE: FMC_SDRAM_WriteProtection_Enable:Device <- $r0
	@DEBUG_VALUE: FMC_SDRAM_WriteProtection_Enable:Bank <- $r1
	@DEBUG_VALUE: FMC_SDRAM_WriteProtection_Enable:Bank <- $r1
	.loc	4 957 22 prologue_end   @ ../Drivers/STM32F7xx_HAL_Driver/Src/stm32f7xx_ll_fmc.c:957:22
	ldr.w	r2, [r0, r1, lsl #2]
	orr	r2, r2, #512
	str.w	r2, [r0, r1, lsl #2]
	.loc	4 959 3                 @ ../Drivers/STM32F7xx_HAL_Driver/Src/stm32f7xx_ll_fmc.c:959:3
	movs	r0, #0
	bx	lr
.Ltmp116:
.Lfunc_end16:
	.size	FMC_SDRAM_WriteProtection_Enable, .Lfunc_end16-FMC_SDRAM_WriteProtection_Enable
	.cfi_endproc
	.cantunwind
	.fnend
                                        @ -- End function
	.section	.text.FMC_SDRAM_WriteProtection_Disable,"ax",%progbits
	.hidden	FMC_SDRAM_WriteProtection_Disable @ -- Begin function FMC_SDRAM_WriteProtection_Disable
	.globl	FMC_SDRAM_WriteProtection_Disable
	.p2align	1
	.type	FMC_SDRAM_WriteProtection_Disable,%function
	.code	16                      @ @FMC_SDRAM_WriteProtection_Disable
	.thumb_func
FMC_SDRAM_WriteProtection_Disable:
.Lfunc_begin17:
	.loc	4 968 0                 @ ../Drivers/STM32F7xx_HAL_Driver/Src/stm32f7xx_ll_fmc.c:968:0
	.fnstart
	.cfi_startproc
@ %bb.0:
	@DEBUG_VALUE: FMC_SDRAM_WriteProtection_Disable:Device <- $r0
	@DEBUG_VALUE: FMC_SDRAM_WriteProtection_Disable:Device <- $r0
	@DEBUG_VALUE: FMC_SDRAM_WriteProtection_Disable:Bank <- $r1
	@DEBUG_VALUE: FMC_SDRAM_WriteProtection_Disable:Bank <- $r1
	.loc	4 974 22 prologue_end   @ ../Drivers/STM32F7xx_HAL_Driver/Src/stm32f7xx_ll_fmc.c:974:22
	ldr.w	r2, [r0, r1, lsl #2]
	bic	r2, r2, #512
	str.w	r2, [r0, r1, lsl #2]
	.loc	4 976 3                 @ ../Drivers/STM32F7xx_HAL_Driver/Src/stm32f7xx_ll_fmc.c:976:3
	movs	r0, #0
	bx	lr
.Ltmp117:
.Lfunc_end17:
	.size	FMC_SDRAM_WriteProtection_Disable, .Lfunc_end17-FMC_SDRAM_WriteProtection_Disable
	.cfi_endproc
	.cantunwind
	.fnend
                                        @ -- End function
	.section	.text.FMC_SDRAM_SendCommand,"ax",%progbits
	.hidden	FMC_SDRAM_SendCommand   @ -- Begin function FMC_SDRAM_SendCommand
	.globl	FMC_SDRAM_SendCommand
	.p2align	1
	.type	FMC_SDRAM_SendCommand,%function
	.code	16                      @ @FMC_SDRAM_SendCommand
	.thumb_func
FMC_SDRAM_SendCommand:
.Lfunc_begin18:
	.loc	4 988 0                 @ ../Drivers/STM32F7xx_HAL_Driver/Src/stm32f7xx_ll_fmc.c:988:0
	.fnstart
	.cfi_startproc
@ %bb.0:
	.save	{r4, r5, r6, r7, lr}
	.pad	#4
	push	{r3, r4, r5, r6, r7, lr}
	.cfi_def_cfa_offset 24
	.cfi_offset lr, -4
	.cfi_offset r7, -8
	.cfi_offset r6, -12
	.cfi_offset r5, -16
	.cfi_offset r4, -20
	@DEBUG_VALUE: FMC_SDRAM_SendCommand:Device <- $r0
	@DEBUG_VALUE: FMC_SDRAM_SendCommand:Command <- $r1
	@DEBUG_VALUE: FMC_SDRAM_SendCommand:Timeout <- $r2
	mov	r5, r0
	movs	r0, #0
.Ltmp118:
	@DEBUG_VALUE: FMC_SDRAM_SendCommand:tmpr <- 0
	@DEBUG_VALUE: FMC_SDRAM_SendCommand:Timeout <- $r4
	@DEBUG_VALUE: FMC_SDRAM_SendCommand:Command <- $r1
	@DEBUG_VALUE: FMC_SDRAM_SendCommand:Device <- $r5
	mov	r4, r2
.Ltmp119:
	.loc	4 1002 55 prologue_end  @ ../Drivers/STM32F7xx_HAL_Driver/Src/stm32f7xx_ll_fmc.c:1002:55
	mvn	r7, #31
	.loc	4 989 17                @ ../Drivers/STM32F7xx_HAL_Driver/Src/stm32f7xx_ll_fmc.c:989:17
	str	r0, [sp]
.Ltmp120:
	@DEBUG_VALUE: FMC_SDRAM_SendCommand:tickstart <- 0
	.loc	4 1000 31               @ ../Drivers/STM32F7xx_HAL_Driver/Src/stm32f7xx_ll_fmc.c:1000:31
	ldm.w	r1, {r0, r2, r3}
	.loc	4 1003 32               @ ../Drivers/STM32F7xx_HAL_Driver/Src/stm32f7xx_ll_fmc.c:1003:32
	ldr	r1, [r1, #12]
.Ltmp121:
	.loc	4 1002 55               @ ../Drivers/STM32F7xx_HAL_Driver/Src/stm32f7xx_ll_fmc.c:1002:55
	add.w	r3, r7, r3, lsl #5
	.loc	4 1000 61               @ ../Drivers/STM32F7xx_HAL_Driver/Src/stm32f7xx_ll_fmc.c:1000:61
	orrs	r0, r2
	.loc	4 1001 61               @ ../Drivers/STM32F7xx_HAL_Driver/Src/stm32f7xx_ll_fmc.c:1001:61
	orrs	r0, r3
	.loc	4 1002 61               @ ../Drivers/STM32F7xx_HAL_Driver/Src/stm32f7xx_ll_fmc.c:1002:61
	orr.w	r0, r0, r1, lsl #9
.Ltmp122:
	@DEBUG_VALUE: FMC_SDRAM_SendCommand:tmpr <- $r0
	.loc	4 1000 8                @ ../Drivers/STM32F7xx_HAL_Driver/Src/stm32f7xx_ll_fmc.c:1000:8
	str	r0, [sp]
	.loc	4 1006 19               @ ../Drivers/STM32F7xx_HAL_Driver/Src/stm32f7xx_ll_fmc.c:1006:19
	ldr	r0, [sp]
.Ltmp123:
	@DEBUG_VALUE: FMC_SDRAM_SendCommand:tmpr <- $r0
	.loc	4 1006 17 is_stmt 0     @ ../Drivers/STM32F7xx_HAL_Driver/Src/stm32f7xx_ll_fmc.c:1006:17
	str	r0, [r5, #16]
	.loc	4 1009 15 is_stmt 1     @ ../Drivers/STM32F7xx_HAL_Driver/Src/stm32f7xx_ll_fmc.c:1009:15
	bl	HAL_GetTick
.Ltmp124:
	mov	r6, r0
.Ltmp125:
	@DEBUG_VALUE: FMC_SDRAM_SendCommand:tickstart <- $r6
	.loc	4 0 15 is_stmt 0        @ ../Drivers/STM32F7xx_HAL_Driver/Src/stm32f7xx_ll_fmc.c:0:15
	adds	r7, r4, #1
.Ltmp126:
.LBB18_1:                               @ =>This Inner Loop Header: Depth=1
	@DEBUG_VALUE: FMC_SDRAM_SendCommand:tickstart <- $r6
	@DEBUG_VALUE: FMC_SDRAM_SendCommand:Device <- $r5
	.loc	4 1012 9 is_stmt 1      @ ../Drivers/STM32F7xx_HAL_Driver/Src/stm32f7xx_ll_fmc.c:1012:9
	ldr	r0, [r5, #24]
	.loc	4 1012 3 is_stmt 0      @ ../Drivers/STM32F7xx_HAL_Driver/Src/stm32f7xx_ll_fmc.c:1012:3
	tst.w	r0, #32
	beq	.LBB18_6
.Ltmp127:
@ %bb.2:                                @   in Loop: Header=BB18_1 Depth=1
	@DEBUG_VALUE: FMC_SDRAM_SendCommand:tickstart <- $r6
	@DEBUG_VALUE: FMC_SDRAM_SendCommand:Device <- $r5
	.loc	4 1015 8 is_stmt 1      @ ../Drivers/STM32F7xx_HAL_Driver/Src/stm32f7xx_ll_fmc.c:1015:8
	cmp	r7, #0
	beq	.LBB18_1
.Ltmp128:
@ %bb.3:                                @   in Loop: Header=BB18_1 Depth=1
	@DEBUG_VALUE: FMC_SDRAM_SendCommand:tickstart <- $r6
	@DEBUG_VALUE: FMC_SDRAM_SendCommand:Device <- $r5
	cbz	r4, .LBB18_5
.Ltmp129:
@ %bb.4:                                @   in Loop: Header=BB18_1 Depth=1
	@DEBUG_VALUE: FMC_SDRAM_SendCommand:tickstart <- $r6
	@DEBUG_VALUE: FMC_SDRAM_SendCommand:Device <- $r5
	.loc	4 1017 28               @ ../Drivers/STM32F7xx_HAL_Driver/Src/stm32f7xx_ll_fmc.c:1017:28
	bl	HAL_GetTick
	.loc	4 1017 42 is_stmt 0     @ ../Drivers/STM32F7xx_HAL_Driver/Src/stm32f7xx_ll_fmc.c:1017:42
	subs	r0, r0, r6
.Ltmp130:
	.loc	4 1017 10               @ ../Drivers/STM32F7xx_HAL_Driver/Src/stm32f7xx_ll_fmc.c:1017:10
	cmp	r0, r4
	bls	.LBB18_1
.Ltmp131:
.LBB18_5:
	@DEBUG_VALUE: FMC_SDRAM_SendCommand:tickstart <- $r6
	@DEBUG_VALUE: FMC_SDRAM_SendCommand:Device <- $r5
	.loc	4 0 10                  @ ../Drivers/STM32F7xx_HAL_Driver/Src/stm32f7xx_ll_fmc.c:0:10
	movs	r0, #3
	b	.LBB18_7
.Ltmp132:
.LBB18_6:
	@DEBUG_VALUE: FMC_SDRAM_SendCommand:tickstart <- $r6
	@DEBUG_VALUE: FMC_SDRAM_SendCommand:Device <- $r5
	movs	r0, #0
.Ltmp133:
.LBB18_7:
	@DEBUG_VALUE: FMC_SDRAM_SendCommand:tickstart <- $r6
	@DEBUG_VALUE: FMC_SDRAM_SendCommand:Device <- $r5
	.loc	4 1025 1 is_stmt 1      @ ../Drivers/STM32F7xx_HAL_Driver/Src/stm32f7xx_ll_fmc.c:1025:1
	uxtb	r0, r0
	add	sp, #4
	pop	{r4, r5, r6, r7, pc}
.Ltmp134:
.Lfunc_end18:
	.size	FMC_SDRAM_SendCommand, .Lfunc_end18-FMC_SDRAM_SendCommand
	.cfi_endproc
	.cantunwind
	.fnend
                                        @ -- End function
	.section	.text.FMC_SDRAM_ProgramRefreshRate,"ax",%progbits
	.hidden	FMC_SDRAM_ProgramRefreshRate @ -- Begin function FMC_SDRAM_ProgramRefreshRate
	.globl	FMC_SDRAM_ProgramRefreshRate
	.p2align	1
	.type	FMC_SDRAM_ProgramRefreshRate,%function
	.code	16                      @ @FMC_SDRAM_ProgramRefreshRate
	.thumb_func
FMC_SDRAM_ProgramRefreshRate:
.Lfunc_begin19:
	.loc	4 1034 0                @ ../Drivers/STM32F7xx_HAL_Driver/Src/stm32f7xx_ll_fmc.c:1034:0
	.fnstart
	.cfi_startproc
@ %bb.0:
	@DEBUG_VALUE: FMC_SDRAM_ProgramRefreshRate:Device <- $r0
	@DEBUG_VALUE: FMC_SDRAM_ProgramRefreshRate:Device <- $r0
	@DEBUG_VALUE: FMC_SDRAM_ProgramRefreshRate:RefreshRate <- $r1
	@DEBUG_VALUE: FMC_SDRAM_ProgramRefreshRate:RefreshRate <- $r1
	.loc	4 1040 17 prologue_end  @ ../Drivers/STM32F7xx_HAL_Driver/Src/stm32f7xx_ll_fmc.c:1040:17
	ldr	r2, [r0, #20]
	orr.w	r1, r2, r1, lsl #1
.Ltmp135:
	str	r1, [r0, #20]
	.loc	4 1042 3                @ ../Drivers/STM32F7xx_HAL_Driver/Src/stm32f7xx_ll_fmc.c:1042:3
	movs	r0, #0
	bx	lr
.Ltmp136:
.Lfunc_end19:
	.size	FMC_SDRAM_ProgramRefreshRate, .Lfunc_end19-FMC_SDRAM_ProgramRefreshRate
	.cfi_endproc
	.cantunwind
	.fnend
                                        @ -- End function
	.section	.text.FMC_SDRAM_SetAutoRefreshNumber,"ax",%progbits
	.hidden	FMC_SDRAM_SetAutoRefreshNumber @ -- Begin function FMC_SDRAM_SetAutoRefreshNumber
	.globl	FMC_SDRAM_SetAutoRefreshNumber
	.p2align	1
	.type	FMC_SDRAM_SetAutoRefreshNumber,%function
	.code	16                      @ @FMC_SDRAM_SetAutoRefreshNumber
	.thumb_func
FMC_SDRAM_SetAutoRefreshNumber:
.Lfunc_begin20:
	.loc	4 1052 0                @ ../Drivers/STM32F7xx_HAL_Driver/Src/stm32f7xx_ll_fmc.c:1052:0
	.fnstart
	.cfi_startproc
@ %bb.0:
	@DEBUG_VALUE: FMC_SDRAM_SetAutoRefreshNumber:Device <- $r0
	@DEBUG_VALUE: FMC_SDRAM_SetAutoRefreshNumber:Device <- $r0
	@DEBUG_VALUE: FMC_SDRAM_SetAutoRefreshNumber:AutoRefreshNumber <- $r1
	@DEBUG_VALUE: FMC_SDRAM_SetAutoRefreshNumber:AutoRefreshNumber <- $r1
	.loc	4 1058 17 prologue_end  @ ../Drivers/STM32F7xx_HAL_Driver/Src/stm32f7xx_ll_fmc.c:1058:17
	ldr	r2, [r0, #16]
	orr.w	r1, r2, r1, lsl #5
.Ltmp137:
	str	r1, [r0, #16]
	.loc	4 1060 3                @ ../Drivers/STM32F7xx_HAL_Driver/Src/stm32f7xx_ll_fmc.c:1060:3
	movs	r0, #0
	bx	lr
.Ltmp138:
.Lfunc_end20:
	.size	FMC_SDRAM_SetAutoRefreshNumber, .Lfunc_end20-FMC_SDRAM_SetAutoRefreshNumber
	.cfi_endproc
	.cantunwind
	.fnend
                                        @ -- End function
	.section	.text.FMC_SDRAM_GetModeStatus,"ax",%progbits
	.hidden	FMC_SDRAM_GetModeStatus @ -- Begin function FMC_SDRAM_GetModeStatus
	.globl	FMC_SDRAM_GetModeStatus
	.p2align	1
	.type	FMC_SDRAM_GetModeStatus,%function
	.code	16                      @ @FMC_SDRAM_GetModeStatus
	.thumb_func
FMC_SDRAM_GetModeStatus:
.Lfunc_begin21:
	.loc	4 1073 0                @ ../Drivers/STM32F7xx_HAL_Driver/Src/stm32f7xx_ll_fmc.c:1073:0
	.fnstart
	.cfi_startproc
@ %bb.0:
	@DEBUG_VALUE: FMC_SDRAM_GetModeStatus:Device <- $r0
	@DEBUG_VALUE: FMC_SDRAM_GetModeStatus:Device <- $r0
	@DEBUG_VALUE: FMC_SDRAM_GetModeStatus:Bank <- $r1
	ldr	r0, [r0, #24]
.Ltmp139:
	@DEBUG_VALUE: FMC_SDRAM_GetModeStatus:tmpreg <- 0
	@DEBUG_VALUE: FMC_SDRAM_GetModeStatus:Bank <- $r1
	.loc	4 1081 6 prologue_end   @ ../Drivers/STM32F7xx_HAL_Driver/Src/stm32f7xx_ll_fmc.c:1081:6
	cmp	r1, #0
	it	ne
	lsrne	r0, r0, #2
	and	r0, r0, #6
.Ltmp140:
	@DEBUG_VALUE: FMC_SDRAM_GetModeStatus:tmpreg <- $r0
	.loc	4 1091 3                @ ../Drivers/STM32F7xx_HAL_Driver/Src/stm32f7xx_ll_fmc.c:1091:3
	bx	lr
.Ltmp141:
.Lfunc_end21:
	.size	FMC_SDRAM_GetModeStatus, .Lfunc_end21-FMC_SDRAM_GetModeStatus
	.cfi_endproc
	.cantunwind
	.fnend
                                        @ -- End function
	.file	5 "../Drivers/CMSIS/Device/ST/STM32F7xx/Include" "stm32f746xx.h"
	.file	6 "../Drivers/STM32F7xx_HAL_Driver/Inc" "stm32f7xx_ll_fmc.h"
	.section	".note.GNU-stack","",%progbits
	.eabi_attribute	30, 4	@ Tag_ABI_optimization_goals
	.ARM_attribute	16, 1	@ Tag_AV_eba