	.text
	.syntax unified
	.eabi_attribute	67, "2.09"	@ Tag_conformance
	.cpu	cortex-m7
	.eabi_attribute	6, 13	@ Tag_CPU_arch
	.eabi_attribute	7, 77	@ Tag_CPU_arch_profile
	.eabi_attribute	8, 0	@ Tag_ARM_ISA_use
	.eabi_attribute	9, 2	@ Tag_THUMB_ISA_use
	.fpu	fpv5-sp-d16
	.eabi_attribute	27, 1	@ Tag_ABI_HardFP_use
	.eabi_attribute	36, 1	@ Tag_FP_HP_extension
	.eabi_attribute	34, 1	@ Tag_CPU_unaligned_access
	.eabi_attribute	17, 1	@ Tag_ABI_PCS_GOT_use
	.eabi_attribute	20, 2	@ Tag_ABI_FP_denormal
	.eabi_attribute	21, 0	@ Tag_ABI_FP_exceptions
	.eabi_attribute	23, 1	@ Tag_ABI_FP_number_model
	.eabi_attribute	24, 1	@ Tag_ABI_align_needed
	.eabi_attribute	25, 1	@ Tag_ABI_align_preserved
	.eabi_attribute	28, 1	@ Tag_ABI_VFP_args
	.eabi_attribute	38, 1	@ Tag_ABI_FP_16bit_format
	.eabi_attribute	18, 2	@ Tag_ABI_PCS_wchar_t
	.eabi_attribute	26, 1	@ Tag_ABI_enum_size
	.eabi_attribute	14, 0	@ Tag_ABI_PCS_R9_use
	.file	"stm32f7xx_hal.c"
	.file	1 "C:\\Keil\\ARM\\ARMCLANG\\Bin\\..\\include" "stdint.h"
	.file	2 "../Drivers/STM32F7xx_HAL_Driver/Src" "stm32f7xx_hal.c"
	.file	3 "../Drivers/STM32F7xx_HAL_Driver/Inc" "stm32f7xx_hal_def.h"
	.file	4 "../Drivers/CMSIS/Device/ST/STM32F7xx/Include" "stm32f746xx.h"
	.file	5 "C:/Keil/ARM/PACK/ARM/CMSIS/5.3.0/CMSIS/Include" "core_cm7.h"
	.section	.text.HAL_Init,"ax",%progbits
	.hidden	HAL_Init                @ -- Begin function HAL_Init
	.globl	HAL_Init
	.p2align	2
	.type	HAL_Init,%function
	.code	16                      @ @HAL_Init
	.thumb_func
HAL_Init:
.Lfunc_begin0:
	.loc	2 153 0                 @ ../Drivers/STM32F7xx_HAL_Driver/Src/stm32f7xx_hal.c:153:0
	.fnstart
	.cfi_sections .debug_frame
	.cfi_startproc
@ %bb.0:
	.save	{r7, lr}
	push	{r7, lr}
	.cfi_def_cfa_offset 8
	.cfi_offset lr, -4
	.cfi_offset r7, -8
.Ltmp0:
	.loc	2 156 4 prologue_end    @ ../Drivers/STM32F7xx_HAL_Driver/Src/stm32f7xx_hal.c:156:4
	ldr	r0, __arm_cp.0_0
	ldr	r1, [r0]
	orr	r1, r1, #512
	str	r1, [r0]
	.loc	2 160 3                 @ ../Drivers/STM32F7xx_HAL_Driver/Src/stm32f7xx_hal.c:160:3
	movs	r0, #3
	bl	HAL_NVIC_SetPriorityGrouping
	.loc	2 163 3                 @ ../Drivers/STM32F7xx_HAL_Driver/Src/stm32f7xx_hal.c:163:3
	movs	r0, #15
	bl	HAL_InitTick
	.loc	2 166 3                 @ ../Drivers/STM32F7xx_HAL_Driver/Src/stm32f7xx_hal.c:166:3
	bl	HAL_MspInit
	.loc	2 169 3                 @ ../Drivers/STM32F7xx_HAL_Driver/Src/stm32f7xx_hal.c:169:3
	movs	r0, #0
	pop	{r7, pc}
.Ltmp1:
	.p2align	2
@ %bb.1:
	.loc	2 0 3 is_stmt 0         @ ../Drivers/STM32F7xx_HAL_Driver/Src/stm32f7xx_hal.c:0:3
__arm_cp.0_0:
	.long	1073888256              @ 0x40023c00
.Lcpi_end0:
	.size	__arm_cp.0_0, .Lcpi_end0-__arm_cp.0_0
.Lfunc_end0:
	.size	HAL_Init, .Lfunc_end0-HAL_Init
	.cfi_endproc
	.cantunwind
	.fnend
                                        @ -- End function
	.section	.text.HAL_InitTick,"ax",%progbits
	.hidden	HAL_InitTick            @ -- Begin function HAL_InitTick
	.weak	HAL_InitTick
	.p2align	2
	.type	HAL_InitTick,%function
	.code	16                      @ @HAL_InitTick
	.thumb_func
HAL_InitTick:
.Lfunc_begin1:
	.loc	2 241 0 is_stmt 1       @ ../Drivers/STM32F7xx_HAL_Driver/Src/stm32f7xx_hal.c:241:0
	.fnstart
	.cfi_startproc
@ %bb.0:
	.save	{r4, lr}
	push	{r4, lr}
	.cfi_def_cfa_offset 8
	.cfi_offset lr, -4
	.cfi_offset r4, -8
	@DEBUG_VALUE: HAL_InitTick:TickPriority <- $r0
	mov	r4, r0
.Ltmp2:
	@DEBUG_VALUE: HAL_InitTick:TickPriority <- $r4
	.loc	2 243 22 prologue_end   @ ../Drivers/STM32F7xx_HAL_Driver/Src/stm32f7xx_hal.c:243:22
	ldr	r0, __arm_cp.1_0
	.loc	2 243 37 is_stmt 0      @ ../Drivers/STM32F7xx_HAL_Driver/Src/stm32f7xx_hal.c:243:37
	mov.w	r1, #1000
	.loc	2 243 22                @ ../Drivers/STM32F7xx_HAL_Driver/Src/stm32f7xx_hal.c:243:22
	ldr	r0, [r0]
	.loc	2 243 37                @ ../Drivers/STM32F7xx_HAL_Driver/Src/stm32f7xx_hal.c:243:37
	udiv	r0, r0, r1
	.loc	2 243 3                 @ ../Drivers/STM32F7xx_HAL_Driver/Src/stm32f7xx_hal.c:243:3
	bl	HAL_SYSTICK_Config
	.loc	2 246 3 is_stmt 1       @ ../Drivers/STM32F7xx_HAL_Driver/Src/stm32f7xx_hal.c:246:3
	mov.w	r0, #-1
	mov	r1, r4
.Ltmp3:
	@DEBUG_VALUE: HAL_InitTick:TickPriority <- $r1
	movs	r2, #0
	bl	HAL_NVIC_SetPriority
.Ltmp4:
	.loc	2 249 3                 @ ../Drivers/STM32F7xx_HAL_Driver/Src/stm32f7xx_hal.c:249:3
	movs	r0, #0
	pop	{r4, pc}
.Ltmp5:
	.p2align	2
@ %bb.1:
	.loc	2 0 3 is_stmt 0         @ ../Drivers/STM32F7xx_HAL_Driver/Src/stm32f7xx_hal.c:0:3
__arm_cp.1_0:
	.long	SystemCoreClock
.Lcpi_end1:
	.size	__arm_cp.1_0, .Lcpi_end1-__arm_cp.1_0
.Lfunc_end1:
	.size	HAL_InitTick, .Lfunc_end1-HAL_InitTick
	.cfi_endproc
	.cantunwind
	.fnend
                                        @ -- End function
	.section	.text.HAL_MspInit,"ax",%progbits
	.hidden	HAL_MspInit             @ -- Begin function HAL_MspInit
	.weak	HAL_MspInit
	.p2align	1
	.type	HAL_MspInit,%function
	.code	16                      @ @HAL_MspInit
	.thumb_func
HAL_MspInit:
.Lfunc_begin2:
	.loc	2 207 0 is_stmt 1       @ ../Drivers/STM32F7xx_HAL_Driver/Src/stm32f7xx_hal.c:207:0
	.fnstart
	.cfi_startproc
@ %bb.0:
	.loc	2 211 1 prologue_end    @ ../Drivers/STM32F7xx_HAL_Driver/Src/stm32f7xx_hal.c:211:1
	bx	lr
.Ltmp6:
.Lfunc_end2:
	.size	HAL_MspInit, .Lfunc_end2-HAL_MspInit
	.cfi_endproc
	.cantunwind
	.fnend
                                        @ -- End function
	.section	.text.HAL_DeInit,"ax",%progbits
	.hidden	HAL_DeInit              @ -- Begin function HAL_DeInit
	.globl	HAL_DeInit
	.p2align	2
	.type	HAL_DeInit,%function
	.code	16                      @ @HAL_DeInit
	.thumb_func
HAL_DeInit:
.Lfunc_begin3:
	.loc	2 178 0                 @ ../Drivers/STM32F7xx_HAL_Driver/Src/stm32f7xx_hal.c:178:0
	.fnstart
	.cfi_startproc
@ %bb.0:
	.save	{r7, lr}
	push	{r7, lr}
	.cfi_def_cfa_offset 8
	.cfi_offset lr, -4
	.cfi_offset r7, -8
	ldr	r0, __arm_cp.3_0
.Ltmp7:
	.loc	2 180 3 prologue_end    @ ../Drivers/STM32F7xx_HAL_Driver/Src/stm32f7xx_hal.c:180:3
	mov.w	r1, #-1
	movs	r2, #0
	str	r1, [r0, #16]
	.loc	2 181 3                 @ ../Drivers/STM32F7xx_HAL_Driver/Src/stm32f7xx_hal.c:181:3
	str	r2, [r0, #16]
	.loc	2 183 3                 @ ../Drivers/STM32F7xx_HAL_Driver/Src/stm32f7xx_hal.c:183:3
	str	r1, [r0, #20]
	.loc	2 184 3                 @ ../Drivers/STM32F7xx_HAL_Driver/Src/stm32f7xx_hal.c:184:3
	str	r2, [r0, #20]
	.loc	2 186 3                 @ ../Drivers/STM32F7xx_HAL_Driver/Src/stm32f7xx_hal.c:186:3
	str	r1, [r0]
	.loc	2 187 3                 @ ../Drivers/STM32F7xx_HAL_Driver/Src/stm32f7xx_hal.c:187:3
	str	r2, [r0]
	.loc	2 189 3                 @ ../Drivers/STM32F7xx_HAL_Driver/Src/stm32f7xx_hal.c:189:3
	str	r1, [r0, #4]
	.loc	2 190 3                 @ ../Drivers/STM32F7xx_HAL_Driver/Src/stm32f7xx_hal.c:190:3
	str	r2, [r0, #4]
	.loc	2 192 3                 @ ../Drivers/STM32F7xx_HAL_Driver/Src/stm32f7xx_hal.c:192:3
	str	r1, [r0, #8]
	.loc	2 193 3                 @ ../Drivers/STM32F7xx_HAL_Driver/Src/stm32f7xx_hal.c:193:3
	str	r2, [r0, #8]
	.loc	2 196 3                 @ ../Drivers/STM32F7xx_HAL_Driver/Src/stm32f7xx_hal.c:196:3
	bl	HAL_MspDeInit
	.loc	2 199 3                 @ ../Drivers/STM32F7xx_HAL_Driver/Src/stm32f7xx_hal.c:199:3
	movs	r0, #0
	pop	{r7, pc}
.Ltmp8:
	.p2align	2
@ %bb.1:
	.loc	2 0 3 is_stmt 0         @ ../Drivers/STM32F7xx_HAL_Driver/Src/stm32f7xx_hal.c:0:3
__arm_cp.3_0:
	.long	1073887248              @ 0x40023810
.Lcpi_end2:
	.size	__arm_cp.3_0, .Lcpi_end2-__arm_cp.3_0
.Lfunc_end3:
	.size	HAL_DeInit, .Lfunc_end3-HAL_DeInit
	.cfi_endproc
	.cantunwind
	.fnend
                                        @ -- End function
	.section	.text.HAL_MspDeInit,"ax",%progbits
	.hidden	HAL_MspDeInit           @ -- Begin function HAL_MspDeInit
	.weak	HAL_MspDeInit
	.p2align	1
	.type	HAL_MspDeInit,%function
	.code	16                      @ @HAL_MspDeInit
	.thumb_func
HAL_MspDeInit:
.Lfunc_begin4:
	.loc	2 218 0 is_stmt 1       @ ../Drivers/STM32F7xx_HAL_Driver/Src/stm32f7xx_hal.c:218:0
	.fnstart
	.cfi_startproc
@ %bb.0:
	.loc	2 222 1 prologue_end    @ ../Drivers/STM32F7xx_HAL_Driver/Src/stm32f7xx_hal.c:222:1
	bx	lr
.Ltmp9:
.Lfunc_end4:
	.size	HAL_MspDeInit, .Lfunc_end4-HAL_MspDeInit
	.cfi_endproc
	.cantunwind
	.fnend
                                        @ -- End function
	.section	.text.HAL_IncTick,"ax",%progbits
	.hidden	HAL_IncTick             @ -- Begin function HAL_IncTick
	.weak	HAL_IncTick
	.p2align	2
	.type	HAL_IncTick,%function
	.code	16                      @ @HAL_IncTick
	.thumb_func
HAL_IncTick:
.Lfunc_begin5:
	.loc	2 289 0                 @ ../Drivers/STM32F7xx_HAL_Driver/Src/stm32f7xx_hal.c:289:0
	.fnstart
	.cfi_startproc
@ %bb.0:
	.loc	2 290 9 prologue_end    @ ../Drivers/STM32F7xx_HAL_Driver/Src/stm32f7xx_hal.c:290:9
	ldr	r0, __arm_cp.5_0
	ldr	r1, [r0]
	adds	r1, #1
	str	r1, [r0]
	.loc	2 291 1                 @ ../Drivers/STM32F7xx_HAL_Driver/Src/stm32f7xx_hal.c:291:1
	bx	lr
.Ltmp10:
	.p2align	2
@ %bb.1:
	.loc	2 0 1 is_stmt 0         @ ../Drivers/STM32F7xx_HAL_Driver/Src/stm32f7xx_hal.c:0:1
__arm_cp.5_0:
	.long	uwTick
.Lcpi_end3:
	.size	__arm_cp.5_0, .Lcpi_end3-__arm_cp.5_0
.Lfunc_end5:
	.size	HAL_IncTick, .Lfunc_end5-HAL_IncTick
	.cfi_endproc
	.cantunwind
	.fnend
                                        @ -- End function
	.section	.text.HAL_GetTick,"ax",%progbits
	.hidden	HAL_GetTick             @ -- Begin function HAL_GetTick
	.weak	HAL_GetTick
	.p2align	2
	.type	HAL_GetTick,%function
	.code	16                      @ @HAL_GetTick
	.thumb_func
HAL_GetTick:
.Lfunc_begin6:
	.loc	2 300 0 is_stmt 1       @ ../Drivers/STM32F7xx_HAL_Driver/Src/stm32f7xx_hal.c:300:0
	.fnstart
	.cfi_startproc
@ %bb.0:
	.loc	2 301 10 prologue_end   @ ../Drivers/STM32F7xx_HAL_Driver/Src/stm32f7xx_hal.c:301:10
	ldr	r0, __arm_cp.6_0
	ldr	r0, [r0]
	.loc	2 301 3 is_stmt 0       @ ../Drivers/STM32F7xx_HAL_Driver/Src/stm32f7xx_hal.c:301:3
	bx	lr
.Ltmp11:
	.p2align	2
@ %bb.1:
	.loc	2 0 3                   @ ../Drivers/STM32F7xx_HAL_Driver/Src/stm32f7xx_hal.c:0:3
__arm_cp.6_0:
	.long	uwTick
.Lcpi_end4:
	.size	__arm_cp.6_0, .Lcpi_end4-__arm_cp.6_0
.Lfunc_end6:
	.size	HAL_GetTick, .Lfunc_end6-HAL_GetTick
	.cfi_endproc
	.cantunwind
	.fnend
                                        @ -- End function
	.section	.text.HAL_Delay,"ax",%progbits
	.hidden	HAL_Delay               @ -- Begin function HAL_Delay
	.weak	HAL_Delay
	.p2align	1
	.type	HAL_Delay,%function
	.code	16                      @ @HAL_Delay
	.thumb_func
HAL_Delay:
.Lfunc_begin7:
	.loc	2 316 0 is_stmt 1       @ ../Drivers/STM32F7xx_HAL_Driver/Src/stm32f7xx_hal.c:316:0
	.fnstart
	.cfi_startproc
@ %bb.0:
	.save	{r4, lr}
	.pad	#8
	push	{r2, r3, r4, lr}
	.cfi_def_cfa_offset 16
	.cfi_offset lr, -4
	.cfi_offset r4, -8
	@DEBUG_VALUE: HAL_Delay:Delay <- $r0
	@DEBUG_VALUE: HAL_Delay:Delay <- $r0
	str	r0, [sp, #4]
.Ltmp12:
	@DEBUG_VALUE: HAL_Delay:tickstart <- 0
	.loc	2 318 15 prologue_end   @ ../Drivers/STM32F7xx_HAL_Driver/Src/stm32f7xx_hal.c:318:15
	bl	HAL_GetTick
.Ltmp13:
	mov	r4, r0
.Ltmp14:
	@DEBUG_VALUE: HAL_Delay:tickstart <- $r4
.LBB7_1:                                @ =>This Inner Loop Header: Depth=1
	@DEBUG_VALUE: HAL_Delay:tickstart <- $r4
	.loc	2 319 10                @ ../Drivers/STM32F7xx_HAL_Driver/Src/stm32f7xx_hal.c:319:10
	bl	HAL_GetTick
	.loc	2 319 39 is_stmt 0      @ ../Drivers/STM32F7xx_HAL_Driver/Src/stm32f7xx_hal.c:319:39
	ldr	r1, [sp, #4]
.Ltmp15:
	@DEBUG_VALUE: HAL_Delay:Delay <- $r1
	.loc	2 319 24                @ ../Drivers/STM32F7xx_HAL_Driver/Src/stm32f7xx_hal.c:319:24
	subs	r0, r0, r4
	.loc	2 319 3                 @ ../Drivers/STM32F7xx_HAL_Driver/Src/stm32f7xx_hal.c:319:3
	cmp	r0, r1
	blo	.LBB7_1
.Ltmp16:
@ %bb.2:
	@DEBUG_VALUE: HAL_Delay:Delay <- $r1
	@DEBUG_VALUE: HAL_Delay:tickstart <- $r4
	.loc	2 322 1 is_stmt 1       @ ../Drivers/STM32F7xx_HAL_Driver/Src/stm32f7xx_hal.c:322:1
	pop	{r2, r3, r4, pc}
.Ltmp17:
.Lfunc_end7:
	.size	HAL_Delay, .Lfunc_end7-HAL_Delay
	.cfi_endproc
	.cantunwind
	.fnend
                                        @ -- End function
	.section	.text.HAL_SuspendTick,"ax",%progbits
	.hidden	HAL_SuspendTick         @ -- Begin function HAL_SuspendTick
	.weak	HAL_SuspendTick
	.p2align	2
	.type	HAL_SuspendTick,%function
	.code	16                      @ @HAL_SuspendTick
	.thumb_func
HAL_SuspendTick:
.Lfunc_begin8:
	.loc	2 335 0                 @ ../Drivers/STM32F7xx_HAL_Driver/Src/stm32f7xx_hal.c:335:0
	.fnstart
	.cfi_startproc
@ %bb.0:
	.loc	2 337 17 prologue_end   @ ../Drivers/STM32F7xx_HAL_Driver/Src/stm32f7xx_hal.c:337:17
	ldr	r0, __arm_cp.8_0
	ldr	r1, [r0]
	bic	r1, r1, #2
	str	r1, [r0]
	.loc	2 338 1                 @ ../Drivers/STM32F7xx_HAL_Driver/Src/stm32f7xx_hal.c:338:1
	bx	lr
.Ltmp18:
	.p2align	2
@ %bb.1:
	.loc	2 0 1 is_stmt 0         @ ../Drivers/STM32F7xx_HAL_Driver/Src/stm32f7xx_hal.c:0:1
__arm_cp.8_0:
	.long	3758153744              @ 0xe000e010
.Lcpi_end5:
	.size	__arm_cp.8_0, .Lcpi_end5-__arm_cp.8_0
.Lfunc_end8:
	.size	HAL_SuspendTick, .Lfunc_end8-HAL_SuspendTick
	.cfi_endproc
	.cantunwind
	.fnend
                                        @ -- End function
	.section	.text.HAL_ResumeTick,"ax",%progbits
	.hidden	HAL_ResumeTick          @ -- Begin function HAL_ResumeTick
	.weak	HAL_ResumeTick
	.p2align	2
	.type	HAL_ResumeTick,%function
	.code	16                      @ @HAL_ResumeTick
	.thumb_func
HAL_ResumeTick:
.Lfunc_begin9:
	.loc	2 351 0 is_stmt 1       @ ../Drivers/STM32F7xx_HAL_Driver/Src/stm32f7xx_hal.c:351:0
	.fnstart
	.cfi_startproc
@ %bb.0:
	.loc	2 353 18 prologue_end   @ ../Drivers/STM32F7xx_HAL_Driver/Src/stm32f7xx_hal.c:353:18
	ldr	r0, __arm_cp.9_0
	ldr	r1, [r0]
	orr	r1, r1, #2
	str	r1, [r0]
	.loc	2 354 1                 @ ../Drivers/STM32F7xx_HAL_Driver/Src/stm32f7xx_hal.c:354:1
	bx	lr
.Ltmp19:
	.p2align	2
@ %bb.1:
	.loc	2 0 1 is_stmt 0         @ ../Drivers/STM32F7xx_HAL_Driver/Src/stm32f7xx_hal.c:0:1
__arm_cp.9_0:
	.long	3758153744              @ 0xe000e010
.Lcpi_end6:
	.size	__arm_cp.9_0, .Lcpi_end6-__arm_cp.9_0
.Lfunc_end9:
	.size	HAL_ResumeTick, .Lfunc_end9-HAL_ResumeTick
	.cfi_endproc
	.cantunwind
	.fnend
                                        @ -- End function
	.section	.text.HAL_GetHalVersion,"ax",%progbits
	.hidden	HAL_GetHalVersion       @ -- Begin function HAL_GetHalVersion
	.globl	HAL_GetHalVersion
	.p2align	2
	.type	HAL_GetHalVersion,%function
	.code	16                      @ @HAL_GetHalVersion
	.thumb_func
HAL_GetHalVersion:
.Lfunc_begin10:
	.loc	2 361 0 is_stmt 1       @ ../Drivers/STM32F7xx_HAL_Driver/Src/stm32f7xx_hal.c:361:0
	.fnstart
	.cfi_startproc
@ %bb.0:
	.loc	2 362 2 prologue_end    @ ../Drivers/STM32F7xx_HAL_Driver/Src/stm32f7xx_hal.c:362:2
	ldr	r0, __arm_cp.10_0
	bx	lr
.Ltmp20:
	.p2align	2
@ %bb.1:
	.loc	2 0 2 is_stmt 0         @ ../Drivers/STM32F7xx_HAL_Driver/Src/stm32f7xx_hal.c:0:2
__arm_cp.10_0:
	.long	16909056                @ 0x1020300
.Lcpi_end7:
	.size	__arm_cp.10_0, .Lcpi_end7-__arm_cp.10_0
.Lfunc_end10:
	.size	HAL_GetHalVersion, .Lfunc_end10-HAL_GetHalVersion
	.cfi_endproc
	.cantunwind
	.fnend
                                        @ -- End function
	.section	.text.HAL_GetREVID,"ax",%progbits
	.hidden	HAL_GetREVID            @ -- Begin function HAL_GetREVID
	.globl	HAL_GetREVID
	.p2align	2
	.type	HAL_GetREVID,%function
	.code	16                      @ @HAL_GetREVID
	.thumb_func
HAL_GetREVID:
.Lfunc_begin11:
	.loc	2 370 0 is_stmt 1       @ ../Drivers/STM32F7xx_HAL_Driver/Src/stm32f7xx_hal.c:370:0
	.fnstart
	.cfi_startproc
@ %bb.0:
	.loc	2 371 20 prologue_end   @ ../Drivers/STM32F7xx_HAL_Driver/Src/stm32f7xx_hal.c:371:20
	ldr	r0, __arm_cp.11_0
	ldr	r0, [r0]
	.loc	2 371 28 is_stmt 0      @ ../Drivers/STM32F7xx_HAL_Driver/Src/stm32f7xx_hal.c:371:28
	lsrs	r0, r0, #16
	.loc	2 371 4                 @ ../Drivers/STM32F7xx_HAL_Driver/Src/stm32f7xx_hal.c:371:4
	bx	lr
.Ltmp21:
	.p2align	2
@ %bb.1:
	.loc	2 0 4                   @ ../Drivers/STM32F7xx_HAL_Driver/Src/stm32f7xx_hal.c:0:4
__arm_cp.11_0:
	.long	3758366720              @ 0xe0042000
.Lcpi_end8:
	.size	__arm_cp.11_0, .Lcpi_end8-__arm_cp.11_0
.Lfunc_end11:
	.size	HAL_GetREVID, .Lfunc_end11-HAL_GetREVID
	.cfi_endproc
	.cantunwind
	.fnend
                                        @ -- End function
	.section	.text.HAL_GetDEVID,"ax",%progbits
	.hidden	HAL_GetDEVID            @ -- Begin function HAL_GetDEVID
	.globl	HAL_GetDEVID
	.p2align	2
	.type	HAL_GetDEVID,%function
	.code	16                      @ @HAL_GetDEVID
	.thumb_func
HAL_GetDEVID:
.Lfunc_begin12:
	.loc	2 379 0 is_stmt 1       @ ../Drivers/STM32F7xx_HAL_Driver/Src/stm32f7xx_hal.c:379:0
	.fnstart
	.cfi_startproc
@ %bb.0:
	.loc	2 380 20 prologue_end   @ ../Drivers/STM32F7xx_HAL_Driver/Src/stm32f7xx_hal.c:380:20
	ldr	r0, __arm_cp.12_0
	ldr	r0, [r0]
	.loc	2 380 28 is_stmt 0      @ ../Drivers/STM32F7xx_HAL_Driver/Src/stm32f7xx_hal.c:380:28
	bfc	r0, #12, #20
	.loc	2 380 4                 @ ../Drivers/STM32F7xx_HAL_Driver/Src/stm32f7xx_hal.c:380:4
	bx	lr
.Ltmp22:
	.p2align	2
@ %bb.1:
	.loc	2 0 4                   @ ../Drivers/STM32F7xx_HAL_Driver/Src/stm32f7xx_hal.c:0:4
__arm_cp.12_0:
	.long	3758366720              @ 0xe0042000
.Lcpi_end9:
	.size	__arm_cp.12_0, .Lcpi_end9-__arm_cp.12_0
.Lfunc_end12:
	.size	HAL_GetDEVID, .Lfunc_end12-HAL_GetDEVID
	.cfi_endproc
	.cantunwind
	.fnend
                                        @ -- End function
	.section	.text.HAL_GetUIDw0,"ax",%progbits
	.hidden	HAL_GetUIDw0            @ -- Begin function HAL_GetUIDw0
	.globl	HAL_GetUIDw0
	.p2align	2
	.type	HAL_GetUIDw0,%function
	.code	16                      @ @HAL_GetUIDw0
	.thumb_func
HAL_GetUIDw0:
.Lfunc_begin13:
	.loc	2 388 0 is_stmt 1       @ ../Drivers/STM32F7xx_HAL_Driver/Src/stm32f7xx_hal.c:388:0
	.fnstart
	.cfi_startproc
@ %bb.0:
	.loc	2 389 11 prologue_end   @ ../Drivers/STM32F7xx_HAL_Driver/Src/stm32f7xx_hal.c:389:11
	ldr	r0, __arm_cp.13_0
	ldr	r0, [r0]
	.loc	2 389 4 is_stmt 0       @ ../Drivers/STM32F7xx_HAL_Driver/Src/stm32f7xx_hal.c:389:4
	bx	lr
.Ltmp23:
	.p2align	2
@ %bb.1:
	.loc	2 0 4                   @ ../Drivers/STM32F7xx_HAL_Driver/Src/stm32f7xx_hal.c:0:4
__arm_cp.13_0:
	.long	535884832               @ 0x1ff0f420
.Lcpi_end10:
	.size	__arm_cp.13_0, .Lcpi_end10-__arm_cp.13_0
.Lfunc_end13:
	.size	HAL_GetUIDw0, .Lfunc_end13-HAL_GetUIDw0
	.cfi_endproc
	.cantunwind
	.fnend
                                        @ -- End function
	.section	.text.HAL_GetUIDw1,"ax",%progbits
	.hidden	HAL_GetUIDw1            @ -- Begin function HAL_GetUIDw1
	.globl	HAL_GetUIDw1
	.p2align	2
	.type	HAL_GetUIDw1,%function
	.code	16                      @ @HAL_GetUIDw1
	.thumb_func
HAL_GetUIDw1:
.Lfunc_begin14:
	.loc	2 397 0 is_stmt 1       @ ../Drivers/STM32F7xx_HAL_Driver/Src/stm32f7xx_hal.c:397:0
	.fnstart
	.cfi_startproc
@ %bb.0:
	.loc	2 398 11 prologue_end   @ ../Drivers/STM32F7xx_HAL_Driver/Src/stm32f7xx_hal.c:398:11
	ldr	r0, __arm_cp.14_0
	ldr	r0, [r0]
	.loc	2 398 4 is_stmt 0       @ ../Drivers/STM32F7xx_HAL_Driver/Src/stm32f7xx_hal.c:398:4
	bx	lr
.Ltmp24:
	.p2align	2
@ %bb.1:
	.loc	2 0 4                   @ ../Drivers/STM32F7xx_HAL_Driver/Src/stm32f7xx_hal.c:0:4
__arm_cp.14_0:
	.long	535884836               @ 0x1ff0f424
.Lcpi_end11:
	.size	__arm_cp.14_0, .Lcpi_end11-__arm_cp.14_0
.Lfunc_end14:
	.size	HAL_GetUIDw1, .Lfunc_end14-HAL_GetUIDw1
	.cfi_endproc
	.cantunwind
	.fnend
                                        @ -- End function
	.section	.text.HAL_GetUIDw2,"ax",%progbits
	.hidden	HAL_GetUIDw2            @ -- Begin function HAL_GetUIDw2
	.globl	HAL_GetUIDw2
	.p2align	2
	.type	HAL_GetUIDw2,%function
	.code	16                      @ @HAL_GetUIDw2
	.thumb_func
HAL_GetUIDw2:
.Lfunc_begin15:
	.loc	2 406 0 is_stmt 1       @ ../Drivers/STM32F7xx_HAL_Driver/Src/stm32f7xx_hal.c:406:0
	.fnstart
	.cfi_startproc
@ %bb.0:
	.loc	2 407 11 prologue_end   @ ../Drivers/STM32F7xx_HAL_Driver/Src/stm32f7xx_hal.c:407:11
	ldr	r0, __arm_cp.15_0
	ldr	r0, [r0]
	.loc	2 407 4 is_stmt 0       @ ../Drivers/STM32F7xx_HAL_Driver/Src/stm32f7xx_hal.c:407:4
	bx	lr
.Ltmp25:
	.p2align	2
@ %bb.1:
	.loc	2 0 4                   @ ../Drivers/STM32F7xx_HAL_Driver/Src/stm32f7xx_hal.c:0:4
__arm_cp.15_0:
	.long	535884840               @ 0x1ff0f428
.Lcpi_end12:
	.size	__arm_cp.15_0, .Lcpi_end12-__arm_cp.15_0
.Lfunc_end15:
	.size	HAL_GetUIDw2, .Lfunc_end15-HAL_GetUIDw2
	.cfi_endproc
	.cantunwind
	.fnend
                                        @ -- End function
	.section	.text.HAL_DBGMCU_EnableDBGSleepMode,"ax",%progbits
	.hidden	HAL_DBGMCU_EnableDBGSleepMode @ -- Begin function HAL_DBGMCU_EnableDBGSleepMode
	.globl	HAL_DBGMCU_EnableDBGSleepMode
	.p2align	2
	.type	HAL_DBGMCU_EnableDBGSleepMode,%function
	.code	16                      @ @HAL_DBGMCU_EnableDBGSleepMode
	.thumb_func
HAL_DBGMCU_EnableDBGSleepMode:
.Lfunc_begin16:
	.loc	2 415 0 is_stmt 1       @ ../Drivers/STM32F7xx_HAL_Driver/Src/stm32f7xx_hal.c:415:0
	.fnstart
	.cfi_startproc
@ %bb.0:
	.loc	2 416 3 prologue_end    @ ../Drivers/STM32F7xx_HAL_Driver/Src/stm32f7xx_hal.c:416:3
	ldr	r0, __arm_cp.16_0
	ldr	r1, [r0]
	orr	r1, r1, #1
	str	r1, [r0]
	.loc	2 417 1                 @ ../Drivers/STM32F7xx_HAL_Driver/Src/stm32f7xx_hal.c:417:1
	bx	lr
.Ltmp26:
	.p2align	2
@ %bb.1:
	.loc	2 0 1 is_stmt 0         @ ../Drivers/STM32F7xx_HAL_Driver/Src/stm32f7xx_hal.c:0:1
__arm_cp.16_0:
	.long	3758366724              @ 0xe0042004
.Lcpi_end13:
	.size	__arm_cp.16_0, .Lcpi_end13-__arm_cp.16_0
.Lfunc_end16:
	.size	HAL_DBGMCU_EnableDBGSleepMode, .Lfunc_end16-HAL_DBGMCU_EnableDBGSleepMode
	.cfi_endproc
	.cantunwind
	.fnend
                                        @ -- End function
	.section	.text.HAL_DBGMCU_DisableDBGSleepMode,"ax",%progbits
	.hidden	HAL_DBGMCU_DisableDBGSleepMode @ -- Begin function HAL_DBGMCU_DisableDBGSleepMode
	.globl	HAL_DBGMCU_DisableDBGSleepMode
	.p2align	2
	.type	HAL_DBGMCU_DisableDBGSleepMode,%function
	.code	16                      @ @HAL_DBGMCU_DisableDBGSleepMode
	.thumb_func
HAL_DBGMCU_DisableDBGSleepMode:
.Lfunc_begin17:
	.loc	2 424 0 is_stmt 1       @ ../Drivers/STM32F7xx_HAL_Driver/Src/stm32f7xx_hal.c:424:0
	.fnstart
	.cfi_startproc
@ %bb.0:
	.loc	2 425 3 prologue_end    @ ../Drivers/STM32F7xx_HAL_Driver/Src/stm32f7xx_hal.c:425:3
	ldr	r0, __arm_cp.17_0
	ldr	r1, [r0]
	bic	r1, r1, #1
	str	r1, [r0]
	.loc	2 426 1                 @ ../Drivers/STM32F7xx_HAL_Driver/Src/stm32f7xx_hal.c:426:1
	bx	lr
.Ltmp27:
	.p2align	2
@ %bb.1:
	.loc	2 0 1 is_stmt 0         @ ../Drivers/STM32F7xx_HAL_Driver/Src/stm32f7xx_hal.c:0:1
__arm_cp.17_0:
	.long	3758366724              @ 0xe0042004
.Lcpi_end14:
	.size	__arm_cp.17_0, .Lcpi_end14-__arm_cp.17_0
.Lfunc_end17:
	.size	HAL_DBGMCU_DisableDBGSleepMode, .Lfunc_end17-HAL_DBGMCU_DisableDBGSleepMode
	.cfi_endproc
	.cantunwind
	.fnend
                                        @ -- End function
	.section	.text.HAL_DBGMCU_EnableDBGStopMode,"ax",%progbits
	.hidden	HAL_DBGMCU_EnableDBGStopMode @ -- Begin function HAL_DBGMCU_EnableDBGStopMode
	.globl	HAL_DBGMCU_EnableDBGStopMode
	.p2align	2
	.type	HAL_DBGMCU_EnableDBGStopMode,%function
	.code	16                      @ @HAL_DBGMCU_EnableDBGStopMode
	.thumb_func
HAL_DBGMCU_EnableDBGStopMode:
.Lfunc_begin18:
	.loc	2 433 0 is_stmt 1       @ ../Drivers/STM32F7xx_HAL_Driver/Src/stm32f7xx_hal.c:433:0
	.fnstart
	.cfi_startproc
@ %bb.0:
	.loc	2 434 3 prologue_end    @ ../Drivers/STM32F7xx_HAL_Driver/Src/stm32f7xx_hal.c:434:3
	ldr	r0, __arm_cp.18_0
	ldr	r1, [r0]
	orr	r1, r1, #2
	str	r1, [r0]
	.loc	2 435 1                 @ ../Drivers/STM32F7xx_HAL_Driver/Src/stm32f7xx_hal.c:435:1
	bx	lr
.Ltmp28:
	.p2align	2
@ %bb.1:
	.loc	2 0 1 is_stmt 0         @ ../Drivers/STM32F7xx_HAL_Driver/Src/stm32f7xx_hal.c:0:1
__arm_cp.18_0:
	.long	3758366724              @ 0xe0042004
.Lcpi_end15:
	.size	__arm_cp.18_0, .Lcpi_end15-__arm_cp.18_0
.Lfunc_end18:
	.size	HAL_DBGMCU_EnableDBGStopMode, .Lfunc_end18-HAL_DBGMCU_EnableDBGStopMode
	.cfi_endproc
	.cantunwind
	.fnend
                                        @ -- End function
	.section	.text.HAL_DBGMCU_DisableDBGStopMode,"ax",%progbits
	.hidden	HAL_DBGMCU_DisableDBGStopMode @ -- Begin function HAL_DBGMCU_DisableDBGStopMode
	.globl	HAL_DBGMCU_DisableDBGStopMode
	.p2align	2
	.type	HAL_DBGMCU_DisableDBGStopMode,%function
	.code	16                      @ @HAL_DBGMCU_DisableDBGStopMode
	.thumb_func
HAL_DBGMCU_DisableDBGStopMode:
.Lfunc_begin19:
	.loc	2 442 0 is_stmt 1       @ ../Drivers/STM32F7xx_HAL_Driver/Src/stm32f7xx_hal.c:442:0
	.fnstart
	.cfi_startproc
@ %bb.0:
	.loc	2 443 3 prologue_end    @ ../Drivers/STM32F7xx_HAL_Driver/Src/stm32f7xx_hal.c:443:3
	ldr	r0, __arm_cp.19_0
	ldr	r1, [r0]
	bic	r1, r1, #2
	str	r1, [r0]
	.loc	2 444 1                 @ ../Drivers/STM32F7xx_HAL_Driver/Src/stm32f7xx_hal.c:444:1
	bx	lr
.Ltmp29:
	.p2align	2
@ %bb.1:
	.loc	2 0 1 is_stmt 0         @ ../Drivers/STM32F7xx_HAL_Driver/Src/stm32f7xx_hal.c:0:1
__arm_cp.19_0:
	.long	3758366724              @ 0xe0042004
.Lcpi_end16:
	.size	__arm_cp.19_0, .Lcpi_end16-__arm_cp.19_0
.Lfunc_end19:
	.size	HAL_DBGMCU_DisableDBGStopMode, .Lfunc_end19-HAL_DBGMCU_DisableDBGStopMode
	.cfi_endproc
	.cantunwind
	.fnend
                                        @ -- End function
	.section	.text.HAL_DBGMCU_EnableDBGStandbyMode,"ax",%progbits
	.hidden	HAL_DBGMCU_EnableDBGStandbyMode @ -- Begin function HAL_DBGMCU_EnableDBGStandbyMode
	.globl	HAL_DBGMCU_EnableDBGStandbyMode
	.p2align	2
	.type	HAL_DBGMCU_EnableDBGStandbyMode,%function
	.code	16                      @ @HAL_DBGMCU_EnableDBGStandbyMode
	.thumb_func
HAL_DBGMCU_EnableDBGStandbyMode:
.Lfunc_begin20:
	.loc	2 451 0 is_stmt 1       @ ../Drivers/STM32F7xx_HAL_Driver/Src/stm32f7xx_hal.c:451:0
	.fnstart
	.cfi_startproc
@ %bb.0:
	.loc	2 452 3 prologue_end    @ ../Drivers/STM32F7xx_HAL_Driver/Src/stm32f7xx_hal.c:452:3
	ldr	r0, __arm_cp.20_0
	ldr	r1, [r0]
	orr	r1, r1, #4
	str	r1, [r0]
	.loc	2 453 1                 @ ../Drivers/STM32F7xx_HAL_Driver/Src/stm32f7xx_hal.c:453:1
	bx	lr
.Ltmp30:
	.p2align	2
@ %bb.1:
	.loc	2 0 1 is_stmt 0         @ ../Drivers/STM32F7xx_HAL_Driver/Src/stm32f7xx_hal.c:0:1
__arm_cp.20_0:
	.long	3758366724              @ 0xe0042004
.Lcpi_end17:
	.size	__arm_cp.20_0, .Lcpi_end17-__arm_cp.20_0
.Lfunc_end20:
	.size	HAL_DBGMCU_EnableDBGStandbyMode, .Lfunc_end20-HAL_DBGMCU_EnableDBGStandbyMode
	.cfi_endproc
	.cantunwind
	.fnend
                                        @ -- End function
	.section	.text.HAL_DBGMCU_DisableDBGStandbyMode,"ax",%progbits
	.hidden	HAL_DBGMCU_DisableDBGStandbyMode @ -- Begin function HAL_DBGMCU_DisableDBGStandbyMode
	.globl	HAL_DBGMCU_DisableDBGStandbyMode
	.p2align	2
	.type	HAL_DBGMCU_DisableDBGStandbyMode,%function
	.code	16                      @ @HAL_DBGMCU_DisableDBGStandbyMode
	.thumb_func
HAL_DBGMCU_DisableDBGStandbyMode:
.Lfunc_begin21:
	.loc	2 460 0 is_stmt 1       @ ../Drivers/STM32F7xx_HAL_Driver/Src/stm32f7xx_hal.c:460:0
	.fnstart
	.cfi_startproc
@ %bb.0:
	.loc	2 461 3 prologue_end    @ ../Drivers/STM32F7xx_HAL_Driver/Src/stm32f7xx_hal.c:461:3
	ldr	r0, __arm_cp.21_0
	ldr	r1, [r0]
	bic	r1, r1, #4
	str	r1, [r0]
	.loc	2 462 1                 @ ../Drivers/STM32F7xx_HAL_Driver/Src/stm32f7xx_hal.c:462:1
	bx	lr
.Ltmp31:
	.p2align	2
@ %bb.1:
	.loc	2 0 1 is_stmt 0         @ ../Drivers/STM32F7xx_HAL_Driver/Src/stm32f7xx_hal.c:0:1
__arm_cp.21_0:
	.long	3758366724              @ 0xe0042004
.Lcpi_end18:
	.size	__arm_cp.21_0, .Lcpi_end18-__arm_cp.21_0
.Lfunc_end21:
	.size	HAL_DBGMCU_DisableDBGStandbyMode, .Lfunc_end21-HAL_DBGMCU_DisableDBGStandbyMode
	.cfi_endproc
	.cantunwind
	.fnend
                                        @ -- End function
	.section	.text.HAL_EnableCompensationCell,"ax",%progbits
	.hidden	HAL_EnableCompensationCell @ -- Begin function HAL_EnableCompensationCell
	.globl	HAL_EnableCompensationCell
	.p2align	2
	.type	HAL_EnableCompensationCell,%function
	.code	16                      @ @HAL_EnableCompensationCell
	.thumb_func
HAL_EnableCompensationCell:
.Lfunc_begin22:
	.loc	2 471 0 is_stmt 1       @ ../Drivers/STM32F7xx_HAL_Driver/Src/stm32f7xx_hal.c:471:0
	.fnstart
	.cfi_startproc
@ %bb.0:
	.loc	2 472 17 prologue_end   @ ../Drivers/STM32F7xx_HAL_Driver/Src/stm32f7xx_hal.c:472:17
	ldr	r0, __arm_cp.22_0
	ldr	r1, [r0]
	orr	r1, r1, #1
	str	r1, [r0]
	.loc	2 473 1                 @ ../Drivers/STM32F7xx_HAL_Driver/Src/stm32f7xx_hal.c:473:1
	bx	lr
.Ltmp32:
	.p2align	2
@ %bb.1:
	.loc	2 0 1 is_stmt 0         @ ../Drivers/STM32F7xx_HAL_Driver/Src/stm32f7xx_hal.c:0:1
__arm_cp.22_0:
	.long	1073821728              @ 0x40013820
.Lcpi_end19:
	.size	__arm_cp.22_0, .Lcpi_end19-__arm_cp.22_0
.Lfunc_end22:
	.size	HAL_EnableCompensationCell, .Lfunc_end22-HAL_EnableCompensationCell
	.cfi_endproc
	.cantunwind
	.fnend
                                        @ -- End function
	.section	.text.HAL_DisableCompensationCell,"ax",%progbits
	.hidden	HAL_DisableCompensationCell @ -- Begin function HAL_DisableCompensationCell
	.globl	HAL_DisableCompensationCell
	.p2align	2
	.type	HAL_DisableCompensationCell,%function
	.code	16                      @ @HAL_DisableCompensationCell
	.thumb_func
HAL_DisableCompensationCell:
.Lfunc_begin23:
	.loc	2 482 0 is_stmt 1       @ ../Drivers/STM32F7xx_HAL_Driver/Src/stm32f7xx_hal.c:482:0
	.fnstart
	.cfi_startproc
@ %bb.0:
	.loc	2 483 17 prologue_end   @ ../Drivers/STM32F7xx_HAL_Driver/Src/stm32f7xx_hal.c:483:17
	ldr	r0, __arm_cp.23_0
	ldr	r1, [r0]
	bic	r1, r1, #1
	str	r1, [r0]
	.loc	2 484 1                 @ ../Drivers/STM32F7xx_HAL_Driver/Src/stm32f7xx_hal.c:484:1
	bx	lr
.Ltmp33:
	.p2align	2
@ %bb.1:
	.loc	2 0 1 is_stmt 0         @ ../Drivers/STM32F7xx_HAL_Driver/Src/stm32f7xx_hal.c:0:1
__arm_cp.23_0:
	.long	1073821728              @ 0x40013820
.Lcpi_end20:
	.size	__arm_cp.23_0, .Lcpi_end20-__arm_cp.23_0
.Lfunc_end23:
	.size	HAL_DisableCompensationCell, .Lfunc_end23-HAL_DisableCompensationCell
	.cfi_endproc
	.cantunwind
	.fnend
                                        @ -- End function
	.section	.text.HAL_EnableFMCMemorySwapping,"ax",%progbits
	.hidden	HAL_EnableFMCMemorySwapping @ -- Begin function HAL_EnableFMCMemorySwapping
	.globl	HAL_EnableFMCMemorySwapping
	.p2align	2
	.type	HAL_EnableFMCMemorySwapping,%function
	.code	16                      @ @HAL_EnableFMCMemorySwapping
	.thumb_func
HAL_EnableFMCMemorySwapping:
.Lfunc_begin24:
	.loc	2 495 0 is_stmt 1       @ ../Drivers/STM32F7xx_HAL_Driver/Src/stm32f7xx_hal.c:495:0
	.fnstart
	.cfi_startproc
@ %bb.0:
	.loc	2 496 18 prologue_end   @ ../Drivers/STM32F7xx_HAL_Driver/Src/stm32f7xx_hal.c:496:18
	ldr	r0, __arm_cp.24_0
	ldr	r1, [r0]
	orr	r1, r1, #1024
	str	r1, [r0]
	.loc	2 497 1                 @ ../Drivers/STM32F7xx_HAL_Driver/Src/stm32f7xx_hal.c:497:1
	bx	lr
.Ltmp34:
	.p2align	2
@ %bb.1:
	.loc	2 0 1 is_stmt 0         @ ../Drivers/STM32F7xx_HAL_Driver/Src/stm32f7xx_hal.c:0:1
__arm_cp.24_0:
	.long	1073821696              @ 0x40013800
.Lcpi_end21:
	.size	__arm_cp.24_0, .Lcpi_end21-__arm_cp.24_0
.Lfunc_end24:
	.size	HAL_EnableFMCMemorySwapping, .Lfunc_end24-HAL_EnableFMCMemorySwapping
	.cfi_endproc
	.cantunwind
	.fnend
                                        @ -- End function
	.section	.text.HAL_DisableFMCMemorySwapping,"ax",%progbits
	.hidden	HAL_DisableFMCMemorySwapping @ -- Begin function HAL_DisableFMCMemorySwapping
	.globl	HAL_DisableFMCMemorySwapping
	.p2align	2
	.type	HAL_DisableFMCMemorySwapping,%function
	.code	16                      @ @HAL_DisableFMCMemorySwapping
	.thumb_func
HAL_DisableFMCMemorySwapping:
.Lfunc_begin25:
	.loc	2 508 0 is_stmt 1       @ ../Drivers/STM32F7xx_HAL_Driver/Src/stm32f7xx_hal.c:508:0
	.fnstart
	.cfi_startproc
@ %bb.0:
	.loc	2 510 18 prologue_end   @ ../Drivers/STM32F7xx_HAL_Driver/Src/stm32f7xx_hal.c:510:18
	ldr	r0, __arm_cp.25_0
	ldr	r1, [r0]
	bic	r1, r1, #3072
	str	r1, [r0]
	.loc	2 511 1                 @ ../Drivers/STM32F7xx_HAL_Driver/Src/stm32f7xx_hal.c:511:1
	bx	lr
.Ltmp35:
	.p2align	2
@ %bb.1:
	.loc	2 0 1 is_stmt 0         @ ../Drivers/STM32F7xx_HAL_Driver/Src/stm32f7xx_hal.c:0:1
__arm_cp.25_0:
	.long	1073821696              @ 0x40013800
.Lcpi_end22:
	.size	__arm_cp.25_0, .Lcpi_end22-__arm_cp.25_0
.Lfunc_end25:
	.size	HAL_DisableFMCMemorySwapping, .Lfunc_end25-HAL_DisableFMCMemorySwapping
	.cfi_endproc
	.cantunwind
	.fnend
                                        @ -- End function
	.hidden	uwTick                  @ @uwTick
	.type	uwTick,%object
	.section	.bss.uwTick,"aw",%nobits
	.globl	uwTick
	.p2align	2
uwTick:
	.long	0                       @ 0x0
	.size	uwTick, 4

	.section	".note.GNU-stack","",%progbits
	.eabi_attribute	30, 4	@ Tag_ABI_optimization_goals
	.ARM_attribute	16, 1	@ Tag_AV_eba