	.text
	.syntax unified
	.eabi_attribute	67, "2.09"	@ Tag_conformance
	.cpu	cortex-m7
	.eabi_attribute	6, 13	@ Tag_CPU_arch
	.eabi_attribute	7, 77	@ Tag_CPU_arch_profile
	.eabi_attribute	8, 0	@ Tag_ARM_ISA_use
	.eabi_attribute	9, 2	@ Tag_THUMB_ISA_use
	.fpu	fpv5-sp-d16
	.eabi_attribute	27, 1	@ Tag_ABI_HardFP_use
	.eabi_attribute	36, 1	@ Tag_FP_HP_extension
	.eabi_attribute	34, 1	@ Tag_CPU_unaligned_access
	.eabi_attribute	17, 1	@ Tag_ABI_PCS_GOT_use
	.eabi_attribute	20, 2	@ Tag_ABI_FP_denormal
	.eabi_attribute	21, 0	@ Tag_ABI_FP_exceptions
	.eabi_attribute	23, 1	@ Tag_ABI_FP_number_model
	.eabi_attribute	24, 1	@ Tag_ABI_align_needed
	.eabi_attribute	25, 1	@ Tag_ABI_align_preserved
	.eabi_attribute	28, 1	@ Tag_ABI_VFP_args
	.eabi_attribute	38, 1	@ Tag_ABI_FP_16bit_format
	.eabi_attribute	18, 2	@ Tag_ABI_PCS_wchar_t
	.eabi_attribute	26, 1	@ Tag_ABI_enum_size
	.eabi_attribute	14, 0	@ Tag_ABI_PCS_R9_use
	.file	"stm32f7xx_hal_i2s.c"
	.file	1 "../Drivers/STM32F7xx_HAL_Driver/Inc" "stm32f7xx_hal_def.h"
	.file	2 "../Drivers/STM32F7xx_HAL_Driver/Inc" "stm32f7xx_hal_dma.h"
	.file	3 "../Drivers/STM32F7xx_HAL_Driver/Inc" "stm32f7xx_hal_i2s.h"
	.file	4 "../Drivers/CMSIS/Device/ST/STM32F7xx/Include" "stm32f7xx.h"
	.file	5 "C:\\Keil\\ARM\\ARMCLANG\\Bin\\..\\include" "stdint.h"
	.file	6 "../Drivers/CMSIS/Device/ST/STM32F7xx/Include" "stm32f746xx.h"
	.section	.text.HAL_I2S_Init,"ax",%progbits
	.hidden	HAL_I2S_Init            @ -- Begin function HAL_I2S_Init
	.globl	HAL_I2S_Init
	.p2align	2
	.type	HAL_I2S_Init,%function
	.code	16                      @ @HAL_I2S_Init
	.thumb_func
HAL_I2S_Init:
.Lfunc_begin0:
	.file	7 "../Drivers/STM32F7xx_HAL_Driver/Src" "stm32f7xx_hal_i2s.c"
	.loc	7 215 0                 @ ../Drivers/STM32F7xx_HAL_Driver/Src/stm32f7xx_hal_i2s.c:215:0
	.fnstart
	.cfi_sections .debug_frame
	.cfi_startproc
@ %bb.0:
	.save	{r4, r5, r6, lr}
	push	{r4, r5, r6, lr}
	.cfi_def_cfa_offset 16
	.cfi_offset lr, -4
	.cfi_offset r6, -8
	.cfi_offset r5, -12
	.cfi_offset r4, -16
	@DEBUG_VALUE: HAL_I2S_Init:hi2s <- $r0
	mov	r4, r0
.Ltmp0:
	@DEBUG_VALUE: HAL_I2S_Init:i2sclk <- 0
	@DEBUG_VALUE: HAL_I2S_Init:tmp <- 0
	@DEBUG_VALUE: HAL_I2S_Init:packetlength <- 1
	@DEBUG_VALUE: HAL_I2S_Init:i2sodd <- 0
	@DEBUG_VALUE: HAL_I2S_Init:i2sdiv <- 2
	@DEBUG_VALUE: HAL_I2S_Init:tmpreg <- 0
	@DEBUG_VALUE: HAL_I2S_Init:hi2s <- $r4
	.loc	7 220 6 prologue_end    @ ../Drivers/STM32F7xx_HAL_Driver/Src/stm32f7xx_hal_i2s.c:220:6
	cbz	r0, .LBB0_5
.Ltmp1:
@ %bb.1:
	@DEBUG_VALUE: HAL_I2S_Init:hi2s <- $r4
	.loc	7 235 12                @ ../Drivers/STM32F7xx_HAL_Driver/Src/stm32f7xx_hal_i2s.c:235:12
	ldrb.w	r0, [r4, #57]
.Ltmp2:
	.loc	7 235 6 is_stmt 0       @ ../Drivers/STM32F7xx_HAL_Driver/Src/stm32f7xx_hal_i2s.c:235:6
	cbnz	r0, .LBB0_3
.Ltmp3:
@ %bb.2:
	@DEBUG_VALUE: HAL_I2S_Init:hi2s <- $r4
	.loc	7 238 16 is_stmt 1      @ ../Drivers/STM32F7xx_HAL_Driver/Src/stm32f7xx_hal_i2s.c:238:16
	movs	r0, #0
	strb.w	r0, [r4, #56]
	.loc	7 240 5                 @ ../Drivers/STM32F7xx_HAL_Driver/Src/stm32f7xx_hal_i2s.c:240:5
	mov	r0, r4
	bl	HAL_I2S_MspInit
.Ltmp4:
.LBB0_3:
	@DEBUG_VALUE: HAL_I2S_Init:hi2s <- $r4
	.loc	7 0 5 is_stmt 0         @ ../Drivers/STM32F7xx_HAL_Driver/Src/stm32f7xx_hal_i2s.c:0:5
	movs	r1, #2
	.loc	7 247 27 is_stmt 1      @ ../Drivers/STM32F7xx_HAL_Driver/Src/stm32f7xx_hal_i2s.c:247:27
	movw	r3, #4031
	.loc	7 243 15                @ ../Drivers/STM32F7xx_HAL_Driver/Src/stm32f7xx_hal_i2s.c:243:15
	strb.w	r1, [r4, #57]
	.loc	7 247 9                 @ ../Drivers/STM32F7xx_HAL_Driver/Src/stm32f7xx_hal_i2s.c:247:9
	ldr	r0, [r4]
	.loc	7 247 27 is_stmt 0      @ ../Drivers/STM32F7xx_HAL_Driver/Src/stm32f7xx_hal_i2s.c:247:27
	ldr	r2, [r0, #28]
	bics	r2, r3
	str	r2, [r0, #28]
	.loc	7 250 25 is_stmt 1      @ ../Drivers/STM32F7xx_HAL_Driver/Src/stm32f7xx_hal_i2s.c:250:25
	str	r1, [r0, #32]
	.loc	7 253 28                @ ../Drivers/STM32F7xx_HAL_Driver/Src/stm32f7xx_hal_i2s.c:253:28
	ldr.w	r12, [r0, #28]
.Ltmp5:
	.loc	7 256 17                @ ../Drivers/STM32F7xx_HAL_Driver/Src/stm32f7xx_hal_i2s.c:256:17
	ldr	r3, [r4, #20]
.Ltmp6:
	.loc	7 256 6 is_stmt 0       @ ../Drivers/STM32F7xx_HAL_Driver/Src/stm32f7xx_hal_i2s.c:256:6
	cmp	r3, #2
	bne	.LBB0_6
.Ltmp7:
@ %bb.4:
	@DEBUG_VALUE: HAL_I2S_Init:hi2s <- $r4
	.loc	7 329 79 is_stmt 1      @ ../Drivers/STM32F7xx_HAL_Driver/Src/stm32f7xx_hal_i2s.c:329:79
	ldrd	lr, r1, [r4, #12]
	movs	r2, #0
	movs	r3, #2
	b	.LBB0_12
.Ltmp8:
.LBB0_5:
	@DEBUG_VALUE: HAL_I2S_Init:hi2s <- $r4
	.loc	7 0 79 is_stmt 0        @ ../Drivers/STM32F7xx_HAL_Driver/Src/stm32f7xx_hal_i2s.c:0:79
	movs	r0, #1
	.loc	7 339 1 is_stmt 1       @ ../Drivers/STM32F7xx_HAL_Driver/Src/stm32f7xx_hal_i2s.c:339:1
	pop	{r4, r5, r6, pc}
.Ltmp9:
.LBB0_6:
	@DEBUG_VALUE: HAL_I2S_Init:hi2s <- $r4
	.loc	7 280 19                @ ../Drivers/STM32F7xx_HAL_Driver/Src/stm32f7xx_hal_i2s.c:280:19
	ldr	r1, [r4, #28]
.Ltmp10:
	.loc	7 265 19                @ ../Drivers/STM32F7xx_HAL_Driver/Src/stm32f7xx_hal_i2s.c:265:19
	ldr.w	lr, [r4, #12]
.Ltmp11:
	.loc	7 280 8                 @ ../Drivers/STM32F7xx_HAL_Driver/Src/stm32f7xx_hal_i2s.c:280:8
	cmp	r1, #1
	beq	.LBB0_9
.Ltmp12:
@ %bb.7:
	@DEBUG_VALUE: HAL_I2S_Init:hi2s <- $r4
	cmp	r1, #2
	bne	.LBB0_10
.Ltmp13:
@ %bb.8:
	@DEBUG_VALUE: HAL_I2S_Init:hi2s <- $r4
	.loc	7 0 8 is_stmt 0         @ ../Drivers/STM32F7xx_HAL_Driver/Src/stm32f7xx_hal_i2s.c:0:8
	ldr	r1, __arm_cp.0_1
.Ltmp14:
	.loc	7 1352 10 is_stmt 1     @ ../Drivers/STM32F7xx_HAL_Driver/Src/stm32f7xx_hal_i2s.c:1352:10
	ldr	r5, __arm_cp.0_2
.Ltmp15:
	.loc	7 1352 16 is_stmt 0     @ ../Drivers/STM32F7xx_HAL_Driver/Src/stm32f7xx_hal_i2s.c:1352:16
	ldr	r2, [r1]
.Ltmp16:
	.loc	7 1352 10               @ ../Drivers/STM32F7xx_HAL_Driver/Src/stm32f7xx_hal_i2s.c:1352:10
	tst.w	r2, #4194304
	itt	eq
	movweq	r5, #9216
	movteq	r5, #244
	ldr	r2, [r1]
	and	r2, r2, #63
	udiv	r2, r5, r2
.Ltmp17:
	@DEBUG_VALUE: I2S_GetClockFreq:vcoinput <- $r2
	.loc	7 1365 22 is_stmt 1     @ ../Drivers/STM32F7xx_HAL_Driver/Src/stm32f7xx_hal_i2s.c:1365:22
	ldr.w	r5, [r1, #128]
	.loc	7 1366 43               @ ../Drivers/STM32F7xx_HAL_Driver/Src/stm32f7xx_hal_i2s.c:1366:43
	ldr.w	r1, [r1, #128]
	.loc	7 1366 80 is_stmt 0     @ ../Drivers/STM32F7xx_HAL_Driver/Src/stm32f7xx_hal_i2s.c:1366:80
	ubfx	r1, r1, #6, #9
	.loc	7 1366 34               @ ../Drivers/STM32F7xx_HAL_Driver/Src/stm32f7xx_hal_i2s.c:1366:34
	muls	r1, r2, r1
	.loc	7 1365 59 is_stmt 1     @ ../Drivers/STM32F7xx_HAL_Driver/Src/stm32f7xx_hal_i2s.c:1365:59
	ubfx	r2, r5, #28, #3
.Ltmp18:
	@DEBUG_VALUE: I2S_GetClockFreq:tmpreg <- $r2
	.loc	7 1366 86               @ ../Drivers/STM32F7xx_HAL_Driver/Src/stm32f7xx_hal_i2s.c:1366:86
	udiv	r2, r1, r2
.Ltmp19:
	@DEBUG_VALUE: I2S_GetClockFreq:i2sclocksource <- $r2
	.loc	7 0 86 is_stmt 0        @ ../Drivers/STM32F7xx_HAL_Driver/Src/stm32f7xx_hal_i2s.c:0:86
	b	.LBB0_11
.Ltmp20:
.LBB0_9:
	@DEBUG_VALUE: HAL_I2S_Init:hi2s <- $r4
	ldr	r2, __arm_cp.0_0
	b	.LBB0_11
.Ltmp21:
.LBB0_10:
	@DEBUG_VALUE: HAL_I2S_Init:hi2s <- $r4
	movs	r2, #0
.Ltmp22:
.LBB0_11:
	@DEBUG_VALUE: HAL_I2S_Init:hi2s <- $r4
	@DEBUG_VALUE: HAL_I2S_Init:i2sclk <- $r2
	.loc	7 300 35 is_stmt 1      @ ../Drivers/STM32F7xx_HAL_Driver/Src/stm32f7xx_hal_i2s.c:300:35
	movs	r5, #6
	cmp.w	lr, #0
.Ltmp23:
	.loc	7 317 19                @ ../Drivers/STM32F7xx_HAL_Driver/Src/stm32f7xx_hal_i2s.c:317:19
	mvn	r6, #1
.Ltmp24:
	.loc	7 300 35                @ ../Drivers/STM32F7xx_HAL_Driver/Src/stm32f7xx_hal_i2s.c:300:35
	it	eq
	moveq	r5, #5
.Ltmp25:
	.loc	7 292 19                @ ../Drivers/STM32F7xx_HAL_Driver/Src/stm32f7xx_hal_i2s.c:292:19
	ldr	r1, [r4, #16]
.Ltmp26:
	.loc	7 292 8 is_stmt 0       @ ../Drivers/STM32F7xx_HAL_Driver/Src/stm32f7xx_hal_i2s.c:292:8
	cmp.w	r1, #512
	it	eq
	moveq	r5, #8
	lsrs	r2, r5
.Ltmp27:
	.loc	7 0 8                   @ ../Drivers/STM32F7xx_HAL_Driver/Src/stm32f7xx_hal_i2s.c:0:8
	add.w	r2, r2, r2, lsl #2
	lsls	r2, r2, #1
	udiv	r2, r2, r3
	movs	r3, #10
	adds	r2, #5
	uxth	r2, r2
.Ltmp28:
	@DEBUG_VALUE: HAL_I2S_Init:tmp <- $r2
	.loc	7 304 15 is_stmt 1      @ ../Drivers/STM32F7xx_HAL_Driver/Src/stm32f7xx_hal_i2s.c:304:15
	udiv	r2, r2, r3
.Ltmp29:
	@DEBUG_VALUE: HAL_I2S_Init:tmp <- $r2
	.loc	7 307 14                @ ../Drivers/STM32F7xx_HAL_Driver/Src/stm32f7xx_hal_i2s.c:307:14
	and	r5, r2, #1
	.loc	7 310 30                @ ../Drivers/STM32F7xx_HAL_Driver/Src/stm32f7xx_hal_i2s.c:310:30
	subs	r2, r2, r5
.Ltmp30:
	.loc	7 310 40 is_stmt 0      @ ../Drivers/STM32F7xx_HAL_Driver/Src/stm32f7xx_hal_i2s.c:310:40
	lsrs	r3, r2, #1
.Ltmp31:
	.loc	7 317 19 is_stmt 1      @ ../Drivers/STM32F7xx_HAL_Driver/Src/stm32f7xx_hal_i2s.c:317:19
	add.w	r2, r6, r2, lsr #1
	uxth	r2, r2
	cmp	r2, #253
.Ltmp32:
	.loc	7 313 14                @ ../Drivers/STM32F7xx_HAL_Driver/Src/stm32f7xx_hal_i2s.c:313:14
	lsl.w	r2, r5, #8
.Ltmp33:
	.loc	7 317 19                @ ../Drivers/STM32F7xx_HAL_Driver/Src/stm32f7xx_hal_i2s.c:317:19
	it	hi
	movhi	r3, #2
	it	hi
	movhi	r2, #0
.Ltmp34:
.LBB0_12:
	@DEBUG_VALUE: HAL_I2S_Init:hi2s <- $r4
	.loc	7 325 75                @ ../Drivers/STM32F7xx_HAL_Driver/Src/stm32f7xx_hal_i2s.c:325:75
	orrs	r2, r3
	.loc	7 325 27 is_stmt 0      @ ../Drivers/STM32F7xx_HAL_Driver/Src/stm32f7xx_hal_i2s.c:325:27
	orrs	r1, r2
	uxth	r1, r1
	.loc	7 325 25                @ ../Drivers/STM32F7xx_HAL_Driver/Src/stm32f7xx_hal_i2s.c:325:25
	str	r1, [r0, #32]
	.loc	7 328 77 is_stmt 1      @ ../Drivers/STM32F7xx_HAL_Driver/Src/stm32f7xx_hal_i2s.c:328:77
	ldrd	r1, r2, [r4, #4]
	.loc	7 330 45                @ ../Drivers/STM32F7xx_HAL_Driver/Src/stm32f7xx_hal_i2s.c:330:45
	ldr	r3, [r4, #24]
	.loc	7 329 55                @ ../Drivers/STM32F7xx_HAL_Driver/Src/stm32f7xx_hal_i2s.c:329:55
	orr.w	r1, r1, r12
	.loc	7 328 82                @ ../Drivers/STM32F7xx_HAL_Driver/Src/stm32f7xx_hal_i2s.c:328:82
	orrs	r1, r2
	.loc	7 333 29                @ ../Drivers/STM32F7xx_HAL_Driver/Src/stm32f7xx_hal_i2s.c:333:29
	movw	r2, #63487
	.loc	7 328 13                @ ../Drivers/STM32F7xx_HAL_Driver/Src/stm32f7xx_hal_i2s.c:328:13
	orr.w	r1, r1, lr
	.loc	7 328 10 is_stmt 0      @ ../Drivers/STM32F7xx_HAL_Driver/Src/stm32f7xx_hal_i2s.c:328:10
	orrs	r1, r3
	.loc	7 333 29 is_stmt 1      @ ../Drivers/STM32F7xx_HAL_Driver/Src/stm32f7xx_hal_i2s.c:333:29
	ands	r1, r2
	orr	r1, r1, #2048
	.loc	7 333 27 is_stmt 0      @ ../Drivers/STM32F7xx_HAL_Driver/Src/stm32f7xx_hal_i2s.c:333:27
	str	r1, [r0, #28]
	movs	r0, #0
	.loc	7 336 14 is_stmt 1      @ ../Drivers/STM32F7xx_HAL_Driver/Src/stm32f7xx_hal_i2s.c:336:14
	movs	r1, #1
	.loc	7 335 19                @ ../Drivers/STM32F7xx_HAL_Driver/Src/stm32f7xx_hal_i2s.c:335:19
	str	r0, [r4, #60]
	.loc	7 336 14                @ ../Drivers/STM32F7xx_HAL_Driver/Src/stm32f7xx_hal_i2s.c:336:14
	strb.w	r1, [r4, #57]
	.loc	7 339 1                 @ ../Drivers/STM32F7xx_HAL_Driver/Src/stm32f7xx_hal_i2s.c:339:1
	pop	{r4, r5, r6, pc}
.Ltmp35:
	.p2align	2
@ %bb.13:
	.loc	7 0 1 is_stmt 0         @ ../Drivers/STM32F7xx_HAL_Driver/Src/stm32f7xx_hal_i2s.c:0:1
__arm_cp.0_0:
	.long	12288000                @ 0xbb8000
.Lcpi_end0:
	.size	__arm_cp.0_0, .Lcpi_end0-__arm_cp.0_0
__arm_cp.0_1:
	.long	1073887236              @ 0x40023804
.Lcpi_end1:
	.size	__arm_cp.0_1, .Lcpi_end1-__arm_cp.0_1
__arm_cp.0_2:
	.long	8000000                 @ 0x7a1200
.Lcpi_end2:
	.size	__arm_cp.0_2, .Lcpi_end2-__arm_cp.0_2
.Lfunc_end0:
	.size	HAL_I2S_Init, .Lfunc_end0-HAL_I2S_Init
	.cfi_endproc
	.cantunwind
	.fnend
                                        @ -- End function
	.section	.text.HAL_I2S_MspInit,"ax",%progbits
	.hidden	HAL_I2S_MspInit         @ -- Begin function HAL_I2S_MspInit
	.weak	HAL_I2S_MspInit
	.p2align	1
	.type	HAL_I2S_MspInit,%function
	.code	16                      @ @HAL_I2S_MspInit
	.thumb_func
HAL_I2S_MspInit:
.Lfunc_begin1:
	.loc	7 379 0 is_stmt 1       @ ../Drivers/STM32F7xx_HAL_Driver/Src/stm32f7xx_hal_i2s.c:379:0
	.fnstart
	.cfi_startproc
@ %bb.0:
	@DEBUG_VALUE: HAL_I2S_MspInit:hi2s <- $r0
	.loc	7 386 1 prologue_end    @ ../Drivers/STM32F7xx_HAL_Driver/Src/stm32f7xx_hal_i2s.c:386:1
	bx	lr
.Ltmp36:
.Lfunc_end1:
	.size	HAL_I2S_MspInit, .Lfunc_end1-HAL_I2S_MspInit
	.cfi_endproc
	.cantunwind
	.fnend
                                        @ -- End function
	.section	.text.HAL_I2S_DeInit,"ax",%progbits
	.hidden	HAL_I2S_DeInit          @ -- Begin function HAL_I2S_DeInit
	.globl	HAL_I2S_DeInit
	.p2align	1
	.type	HAL_I2S_DeInit,%function
	.code	16                      @ @HAL_I2S_DeInit
	.thumb_func
HAL_I2S_DeInit:
.Lfunc_begin2:
	.loc	7 348 0                 @ ../Drivers/STM32F7xx_HAL_Driver/Src/stm32f7xx_hal_i2s.c:348:0
	.fnstart
	.cfi_startproc
@ %bb.0:
	.save	{r4, lr}
	push	{r4, lr}
	.cfi_def_cfa_offset 8
	.cfi_offset lr, -4
	.cfi_offset r4, -8
	@DEBUG_VALUE: HAL_I2S_DeInit:hi2s <- $r0
	mov	r4, r0
.Ltmp37:
	@DEBUG_VALUE: HAL_I2S_DeInit:hi2s <- $r4
	.loc	7 350 6 prologue_end    @ ../Drivers/STM32F7xx_HAL_Driver/Src/stm32f7xx_hal_i2s.c:350:6
	cbz	r0, .LBB2_2
.Ltmp38:
@ %bb.1:
	@DEBUG_VALUE: HAL_I2S_DeInit:hi2s <- $r4
	.loc	7 358 15                @ ../Drivers/STM32F7xx_HAL_Driver/Src/stm32f7xx_hal_i2s.c:358:15
	movs	r0, #2
	strb.w	r0, [r4, #57]
	.loc	7 361 3                 @ ../Drivers/STM32F7xx_HAL_Driver/Src/stm32f7xx_hal_i2s.c:361:3
	mov	r0, r4
	bl	HAL_I2S_MspDeInit
	movs	r0, #0
	.loc	7 363 19                @ ../Drivers/STM32F7xx_HAL_Driver/Src/stm32f7xx_hal_i2s.c:363:19
	str	r0, [r4, #60]
	.loc	7 364 15                @ ../Drivers/STM32F7xx_HAL_Driver/Src/stm32f7xx_hal_i2s.c:364:15
	strb.w	r0, [r4, #57]
.Ltmp39:
	.loc	7 367 3                 @ ../Drivers/STM32F7xx_HAL_Driver/Src/stm32f7xx_hal_i2s.c:367:3
	strb.w	r0, [r4, #56]
.Ltmp40:
	.loc	7 370 1                 @ ../Drivers/STM32F7xx_HAL_Driver/Src/stm32f7xx_hal_i2s.c:370:1
	pop	{r4, pc}
.Ltmp41:
.LBB2_2:
	@DEBUG_VALUE: HAL_I2S_DeInit:hi2s <- $r4
	.loc	7 0 1 is_stmt 0         @ ../Drivers/STM32F7xx_HAL_Driver/Src/stm32f7xx_hal_i2s.c:0:1
	movs	r0, #1
	.loc	7 370 1                 @ ../Drivers/STM32F7xx_HAL_Driver/Src/stm32f7xx_hal_i2s.c:370:1
	pop	{r4, pc}
.Ltmp42:
.Lfunc_end2:
	.size	HAL_I2S_DeInit, .Lfunc_end2-HAL_I2S_DeInit
	.cfi_endproc
	.cantunwind
	.fnend
                                        @ -- End function
	.section	.text.HAL_I2S_MspDeInit,"ax",%progbits
	.hidden	HAL_I2S_MspDeInit       @ -- Begin function HAL_I2S_MspDeInit
	.weak	HAL_I2S_MspDeInit
	.p2align	1
	.type	HAL_I2S_MspDeInit,%function
	.code	16                      @ @HAL_I2S_MspDeInit
	.thumb_func
HAL_I2S_MspDeInit:
.Lfunc_begin3:
	.loc	7 395 0 is_stmt 1       @ ../Drivers/STM32F7xx_HAL_Driver/Src/stm32f7xx_hal_i2s.c:395:0
	.fnstart
	.cfi_startproc
@ %bb.0:
	@DEBUG_VALUE: HAL_I2S_MspDeInit:hi2s <- $r0
	.loc	7 402 1 prologue_end    @ ../Drivers/STM32F7xx_HAL_Driver/Src/stm32f7xx_hal_i2s.c:402:1
	bx	lr
.Ltmp43:
.Lfunc_end3:
	.size	HAL_I2S_MspDeInit, .Lfunc_end3-HAL_I2S_MspDeInit
	.cfi_endproc
	.cantunwind
	.fnend
                                        @ -- End function
	.section	.text.HAL_I2S_Transmit,"ax",%progbits
	.hidden	HAL_I2S_Transmit        @ -- Begin function HAL_I2S_Transmit
	.globl	HAL_I2S_Transmit
	.p2align	1
	.type	HAL_I2S_Transmit,%function
	.code	16                      @ @HAL_I2S_Transmit
	.thumb_func
HAL_I2S_Transmit:
.Lfunc_begin4:
	.loc	7 466 0                 @ ../Drivers/STM32F7xx_HAL_Driver/Src/stm32f7xx_hal_i2s.c:466:0
	.fnstart
	.cfi_startproc
@ %bb.0:
	.save	{r4, r5, r6, r7, lr}
	.pad	#4
	push	{r3, r4, r5, r6, r7, lr}
	.cfi_def_cfa_offset 24
	.cfi_offset lr, -4
	.cfi_offset r7, -8
	.cfi_offset r6, -12
	.cfi_offset r5, -16
	.cfi_offset r4, -20
	@DEBUG_VALUE: HAL_I2S_Transmit:hi2s <- $r0
	@DEBUG_VALUE: HAL_I2S_Transmit:pData <- $r1
	@DEBUG_VALUE: HAL_I2S_Transmit:Size <- $r2
	@DEBUG_VALUE: HAL_I2S_Transmit:Timeout <- $r3
	mov	r5, r3
	mov	r6, r1
	mov	r4, r0
	movs	r7, #1
.Ltmp44:
	@DEBUG_VALUE: HAL_I2S_Transmit:Timeout <- $r5
	@DEBUG_VALUE: HAL_I2S_Transmit:Size <- $r2
	@DEBUG_VALUE: HAL_I2S_Transmit:pData <- $r6
	@DEBUG_VALUE: HAL_I2S_Transmit:hi2s <- $r4
	.loc	7 467 23 prologue_end   @ ../Drivers/STM32F7xx_HAL_Driver/Src/stm32f7xx_hal_i2s.c:467:23
	cbz	r1, .LBB4_8
.Ltmp45:
@ %bb.1:
	@DEBUG_VALUE: HAL_I2S_Transmit:hi2s <- $r4
	@DEBUG_VALUE: HAL_I2S_Transmit:pData <- $r6
	@DEBUG_VALUE: HAL_I2S_Transmit:Timeout <- $r5
	@DEBUG_VALUE: HAL_I2S_Transmit:Size <- $r2
	cbz	r2, .LBB4_8
.Ltmp46:
@ %bb.2:
	@DEBUG_VALUE: HAL_I2S_Transmit:hi2s <- $r4
	@DEBUG_VALUE: HAL_I2S_Transmit:pData <- $r6
	@DEBUG_VALUE: HAL_I2S_Transmit:Timeout <- $r5
	@DEBUG_VALUE: HAL_I2S_Transmit:Size <- $r2
	.loc	7 472 12                @ ../Drivers/STM32F7xx_HAL_Driver/Src/stm32f7xx_hal_i2s.c:472:12
	ldrb.w	r0, [r4, #57]
.Ltmp47:
	.loc	7 472 6 is_stmt 0       @ ../Drivers/STM32F7xx_HAL_Driver/Src/stm32f7xx_hal_i2s.c:472:6
	cmp	r0, #1
	bne	.LBB4_7
.Ltmp48:
@ %bb.3:
	@DEBUG_VALUE: HAL_I2S_Transmit:hi2s <- $r4
	@DEBUG_VALUE: HAL_I2S_Transmit:pData <- $r6
	@DEBUG_VALUE: HAL_I2S_Transmit:Timeout <- $r5
	@DEBUG_VALUE: HAL_I2S_Transmit:Size <- $r2
	.loc	7 474 16 is_stmt 1      @ ../Drivers/STM32F7xx_HAL_Driver/Src/stm32f7xx_hal_i2s.c:474:16
	ldr	r0, [r4]
	.loc	7 474 26 is_stmt 0      @ ../Drivers/STM32F7xx_HAL_Driver/Src/stm32f7xx_hal_i2s.c:474:26
	ldr	r1, [r0, #28]
	.loc	7 474 34                @ ../Drivers/STM32F7xx_HAL_Driver/Src/stm32f7xx_hal_i2s.c:474:34
	and	r1, r1, #7
	.loc	7 474 100               @ ../Drivers/STM32F7xx_HAL_Driver/Src/stm32f7xx_hal_i2s.c:474:100
	cmp	r1, #3
	bne	.LBB4_5
.Ltmp49:
@ %bb.4:
	@DEBUG_VALUE: HAL_I2S_Transmit:hi2s <- $r4
	@DEBUG_VALUE: HAL_I2S_Transmit:pData <- $r6
	@DEBUG_VALUE: HAL_I2S_Transmit:Timeout <- $r5
	@DEBUG_VALUE: HAL_I2S_Transmit:Size <- $r2
	.loc	7 477 32 is_stmt 1      @ ../Drivers/STM32F7xx_HAL_Driver/Src/stm32f7xx_hal_i2s.c:477:32
	lsls	r2, r2, #1
.Ltmp50:
	.loc	7 0 32 is_stmt 0        @ ../Drivers/STM32F7xx_HAL_Driver/Src/stm32f7xx_hal_i2s.c:0:32
	b	.LBB4_6
.Ltmp51:
.LBB4_5:
	@DEBUG_VALUE: HAL_I2S_Transmit:hi2s <- $r4
	@DEBUG_VALUE: HAL_I2S_Transmit:pData <- $r6
	@DEBUG_VALUE: HAL_I2S_Transmit:Timeout <- $r5
	@DEBUG_VALUE: HAL_I2S_Transmit:Size <- $r2
	@DEBUG_VALUE: HAL_I2S_Transmit:Size <- $r2
	.loc	7 475 26 is_stmt 1      @ ../Drivers/STM32F7xx_HAL_Driver/Src/stm32f7xx_hal_i2s.c:475:26
	ldr	r1, [r0, #28]
	.loc	7 475 34 is_stmt 0      @ ../Drivers/STM32F7xx_HAL_Driver/Src/stm32f7xx_hal_i2s.c:475:34
	and	r1, r1, #7
.Ltmp52:
	.loc	7 474 8 is_stmt 1       @ ../Drivers/STM32F7xx_HAL_Driver/Src/stm32f7xx_hal_i2s.c:474:8
	cmp	r1, #5
.Ltmp53:
	.loc	7 477 32                @ ../Drivers/STM32F7xx_HAL_Driver/Src/stm32f7xx_hal_i2s.c:477:32
	it	eq
	lsleq	r2, r2, #1
.Ltmp54:
.LBB4_6:
	@DEBUG_VALUE: HAL_I2S_Transmit:hi2s <- $r4
	@DEBUG_VALUE: HAL_I2S_Transmit:pData <- $r6
	@DEBUG_VALUE: HAL_I2S_Transmit:Timeout <- $r5
	.loc	7 0 32 is_stmt 0        @ ../Drivers/STM32F7xx_HAL_Driver/Src/stm32f7xx_hal_i2s.c:0:32
	strh	r2, [r4, #36]
	strh	r2, [r4, #38]
.Ltmp55:
	.loc	7 487 5 is_stmt 1       @ ../Drivers/STM32F7xx_HAL_Driver/Src/stm32f7xx_hal_i2s.c:487:5
	ldrb.w	r1, [r4, #56]
.Ltmp56:
	.loc	7 487 5 is_stmt 0       @ ../Drivers/STM32F7xx_HAL_Driver/Src/stm32f7xx_hal_i2s.c:487:5
	cmp	r1, #1
	bne	.LBB4_9
.Ltmp57:
.LBB4_7:
	@DEBUG_VALUE: HAL_I2S_Transmit:hi2s <- $r4
	@DEBUG_VALUE: HAL_I2S_Transmit:pData <- $r6
	@DEBUG_VALUE: HAL_I2S_Transmit:Timeout <- $r5
	.loc	7 0 5                   @ ../Drivers/STM32F7xx_HAL_Driver/Src/stm32f7xx_hal_i2s.c:0:5
	movs	r7, #2
.Ltmp58:
.LBB4_8:
	@DEBUG_VALUE: HAL_I2S_Transmit:hi2s <- $r4
	@DEBUG_VALUE: HAL_I2S_Transmit:pData <- $r6
	@DEBUG_VALUE: HAL_I2S_Transmit:Timeout <- $r5
	.loc	7 553 1 is_stmt 1       @ ../Drivers/STM32F7xx_HAL_Driver/Src/stm32f7xx_hal_i2s.c:553:1
	uxtb	r0, r7
	add	sp, #4
	pop	{r4, r5, r6, r7, pc}
.Ltmp59:
.LBB4_9:
	@DEBUG_VALUE: HAL_I2S_Transmit:hi2s <- $r4
	@DEBUG_VALUE: HAL_I2S_Transmit:pData <- $r6
	@DEBUG_VALUE: HAL_I2S_Transmit:Timeout <- $r5
	.loc	7 0 1 is_stmt 0         @ ../Drivers/STM32F7xx_HAL_Driver/Src/stm32f7xx_hal_i2s.c:0:1
	movs	r1, #1
.Ltmp60:
	.loc	7 487 5 is_stmt 1       @ ../Drivers/STM32F7xx_HAL_Driver/Src/stm32f7xx_hal_i2s.c:487:5
	strb.w	r1, [r4, #56]
	movs	r1, #0
.Ltmp61:
	.loc	7 489 21                @ ../Drivers/STM32F7xx_HAL_Driver/Src/stm32f7xx_hal_i2s.c:489:21
	str	r1, [r4, #60]
	.loc	7 490 17                @ ../Drivers/STM32F7xx_HAL_Driver/Src/stm32f7xx_hal_i2s.c:490:17
	movs	r1, #3
	strb.w	r1, [r4, #57]
.Ltmp62:
	.loc	7 493 25                @ ../Drivers/STM32F7xx_HAL_Driver/Src/stm32f7xx_hal_i2s.c:493:25
	ldr	r1, [r0, #28]
.Ltmp63:
	.loc	7 493 8 is_stmt 0       @ ../Drivers/STM32F7xx_HAL_Driver/Src/stm32f7xx_hal_i2s.c:493:8
	tst.w	r1, #1024
.Ltmp64:
	.loc	7 496 7 is_stmt 1       @ ../Drivers/STM32F7xx_HAL_Driver/Src/stm32f7xx_hal_i2s.c:496:7
	ittt	eq
	ldreq	r1, [r0, #28]
	orreq	r1, r1, #1024
	streq	r1, [r0, #28]
.Ltmp65:
.LBB4_10:                               @ =>This Inner Loop Header: Depth=1
	@DEBUG_VALUE: HAL_I2S_Transmit:hi2s <- $r4
	@DEBUG_VALUE: HAL_I2S_Transmit:pData <- $r6
	@DEBUG_VALUE: HAL_I2S_Transmit:Timeout <- $r5
	.loc	7 499 17                @ ../Drivers/STM32F7xx_HAL_Driver/Src/stm32f7xx_hal_i2s.c:499:17
	ldrh	r1, [r4, #38]
	.loc	7 499 5 is_stmt 0       @ ../Drivers/STM32F7xx_HAL_Driver/Src/stm32f7xx_hal_i2s.c:499:5
	cbz	r1, .LBB4_14
.Ltmp66:
@ %bb.11:                               @   in Loop: Header=BB4_10 Depth=1
	@DEBUG_VALUE: HAL_I2S_Transmit:hi2s <- $r4
	@DEBUG_VALUE: HAL_I2S_Transmit:pData <- $r6
	@DEBUG_VALUE: HAL_I2S_Transmit:Timeout <- $r5
	@DEBUG_VALUE: HAL_I2S_Transmit:pData <- $r6
	.loc	7 501 28 is_stmt 1      @ ../Drivers/STM32F7xx_HAL_Driver/Src/stm32f7xx_hal_i2s.c:501:28
	ldrh	r1, [r6]
.Ltmp67:
	.loc	7 504 11                @ ../Drivers/STM32F7xx_HAL_Driver/Src/stm32f7xx_hal_i2s.c:504:11
	mov	r2, r5
.Ltmp68:
	.loc	7 501 26                @ ../Drivers/STM32F7xx_HAL_Driver/Src/stm32f7xx_hal_i2s.c:501:26
	str	r1, [r0, #12]
.Ltmp69:
	.loc	7 504 11                @ ../Drivers/STM32F7xx_HAL_Driver/Src/stm32f7xx_hal_i2s.c:504:11
	movs	r1, #2
.Ltmp70:
	.loc	7 502 24                @ ../Drivers/STM32F7xx_HAL_Driver/Src/stm32f7xx_hal_i2s.c:502:24
	ldrh	r0, [r4, #38]
	subs	r0, #1
	strh	r0, [r4, #38]
.Ltmp71:
	.loc	7 504 11                @ ../Drivers/STM32F7xx_HAL_Driver/Src/stm32f7xx_hal_i2s.c:504:11
	mov	r0, r4
	bl	I2S_WaitFlagStateUntilTimeout
.Ltmp72:
	.loc	7 504 11 is_stmt 0      @ ../Drivers/STM32F7xx_HAL_Driver/Src/stm32f7xx_hal_i2s.c:504:11
	cbnz	r0, .LBB4_17
.Ltmp73:
@ %bb.12:                               @   in Loop: Header=BB4_10 Depth=1
	@DEBUG_VALUE: HAL_I2S_Transmit:hi2s <- $r4
	@DEBUG_VALUE: HAL_I2S_Transmit:pData <- $r6
	@DEBUG_VALUE: HAL_I2S_Transmit:Timeout <- $r5
	.loc	7 513 10 is_stmt 1      @ ../Drivers/STM32F7xx_HAL_Driver/Src/stm32f7xx_hal_i2s.c:513:10
	ldr	r0, [r4]
.Ltmp74:
	.loc	7 501 35                @ ../Drivers/STM32F7xx_HAL_Driver/Src/stm32f7xx_hal_i2s.c:501:35
	adds	r6, #2
.Ltmp75:
	@DEBUG_VALUE: HAL_I2S_Transmit:pData <- $r6
	.loc	7 513 10                @ ../Drivers/STM32F7xx_HAL_Driver/Src/stm32f7xx_hal_i2s.c:513:10
	ldr	r1, [r0, #8]
.Ltmp76:
	.loc	7 513 10 is_stmt 0      @ ../Drivers/STM32F7xx_HAL_Driver/Src/stm32f7xx_hal_i2s.c:513:10
	tst.w	r1, #8
	beq	.LBB4_10
.Ltmp77:
@ %bb.13:
	@DEBUG_VALUE: HAL_I2S_Transmit:hi2s <- $r4
	@DEBUG_VALUE: HAL_I2S_Transmit:pData <- $r6
	@DEBUG_VALUE: HAL_I2S_Transmit:Timeout <- $r5
	.loc	7 0 10                  @ ../Drivers/STM32F7xx_HAL_Driver/Src/stm32f7xx_hal_i2s.c:0:10
	movs	r7, #1
.Ltmp78:
	.loc	7 519 9 is_stmt 1       @ ../Drivers/STM32F7xx_HAL_Driver/Src/stm32f7xx_hal_i2s.c:519:9
	movs	r0, #0
.Ltmp79:
	.loc	7 516 21                @ ../Drivers/STM32F7xx_HAL_Driver/Src/stm32f7xx_hal_i2s.c:516:21
	strb.w	r7, [r4, #57]
.Ltmp80:
	.loc	7 519 9                 @ ../Drivers/STM32F7xx_HAL_Driver/Src/stm32f7xx_hal_i2s.c:519:9
	strb.w	r0, [r4, #56]
.Ltmp81:
	.loc	7 522 25                @ ../Drivers/STM32F7xx_HAL_Driver/Src/stm32f7xx_hal_i2s.c:522:25
	ldr	r0, [r4, #60]
	orr	r0, r0, #4
	str	r0, [r4, #60]
	.loc	7 523 9                 @ ../Drivers/STM32F7xx_HAL_Driver/Src/stm32f7xx_hal_i2s.c:523:9
	mov	r0, r4
	bl	HAL_I2S_ErrorCallback
	b	.LBB4_8
.Ltmp82:
.LBB4_14:
	@DEBUG_VALUE: HAL_I2S_Transmit:hi2s <- $r4
	@DEBUG_VALUE: HAL_I2S_Transmit:pData <- $r6
	@DEBUG_VALUE: HAL_I2S_Transmit:Timeout <- $r5
	.loc	7 530 26                @ ../Drivers/STM32F7xx_HAL_Driver/Src/stm32f7xx_hal_i2s.c:530:26
	ldr	r1, [r0, #28]
	.loc	7 530 78 is_stmt 0      @ ../Drivers/STM32F7xx_HAL_Driver/Src/stm32f7xx_hal_i2s.c:530:78
	tst.w	r1, #768
	beq	.LBB4_16
.Ltmp83:
@ %bb.15:
	@DEBUG_VALUE: HAL_I2S_Transmit:hi2s <- $r4
	@DEBUG_VALUE: HAL_I2S_Transmit:pData <- $r6
	@DEBUG_VALUE: HAL_I2S_Transmit:Timeout <- $r5
	.loc	7 530 99                @ ../Drivers/STM32F7xx_HAL_Driver/Src/stm32f7xx_hal_i2s.c:530:99
	ldr	r0, [r0, #28]
	.loc	7 530 107               @ ../Drivers/STM32F7xx_HAL_Driver/Src/stm32f7xx_hal_i2s.c:530:107
	and	r0, r0, #768
.Ltmp84:
	.loc	7 530 8                 @ ../Drivers/STM32F7xx_HAL_Driver/Src/stm32f7xx_hal_i2s.c:530:8
	cmp.w	r0, #256
	bne	.LBB4_18
.Ltmp85:
.LBB4_16:
	@DEBUG_VALUE: HAL_I2S_Transmit:hi2s <- $r4
	@DEBUG_VALUE: HAL_I2S_Transmit:pData <- $r6
	@DEBUG_VALUE: HAL_I2S_Transmit:Timeout <- $r5
	.loc	7 533 11 is_stmt 1      @ ../Drivers/STM32F7xx_HAL_Driver/Src/stm32f7xx_hal_i2s.c:533:11
	mov	r0, r4
	movs	r1, #128
	mov	r2, r5
	bl	I2S_WaitFlagStateUntilTimeout
.Ltmp86:
	.loc	7 533 11 is_stmt 0      @ ../Drivers/STM32F7xx_HAL_Driver/Src/stm32f7xx_hal_i2s.c:533:11
	cbz	r0, .LBB4_18
.Ltmp87:
.LBB4_17:
	@DEBUG_VALUE: HAL_I2S_Transmit:hi2s <- $r4
	@DEBUG_VALUE: HAL_I2S_Transmit:pData <- $r6
	@DEBUG_VALUE: HAL_I2S_Transmit:Timeout <- $r5
	.loc	7 0 11                  @ ../Drivers/STM32F7xx_HAL_Driver/Src/stm32f7xx_hal_i2s.c:0:11
	ldr	r0, [r4, #60]
	orr	r0, r0, #1
	str	r0, [r4, #60]
	mov	r0, r4
	bl	HAL_I2S_ErrorCallback
	movs	r7, #3
	b	.LBB4_8
.Ltmp88:
.LBB4_18:
	@DEBUG_VALUE: HAL_I2S_Transmit:hi2s <- $r4
	@DEBUG_VALUE: HAL_I2S_Transmit:pData <- $r6
	@DEBUG_VALUE: HAL_I2S_Transmit:Timeout <- $r5
	.loc	7 542 17 is_stmt 1      @ ../Drivers/STM32F7xx_HAL_Driver/Src/stm32f7xx_hal_i2s.c:542:17
	movs	r0, #1
	movs	r7, #0
	strb.w	r0, [r4, #57]
.Ltmp89:
	.loc	7 545 5                 @ ../Drivers/STM32F7xx_HAL_Driver/Src/stm32f7xx_hal_i2s.c:545:5
	strb.w	r7, [r4, #56]
	b	.LBB4_8
.Ltmp90:
.Lfunc_end4:
	.size	HAL_I2S_Transmit, .Lfunc_end4-HAL_I2S_Transmit
	.cfi_endproc
	.cantunwind
	.fnend
                                        @ -- End function
	.section	.text.I2S_WaitFlagStateUntilTimeout,"ax",%progbits
	.p2align	1               @ -- Begin function I2S_WaitFlagStateUntilTimeout
	.type	I2S_WaitFlagStateUntilTimeout,%function
	.code	16                      @ @I2S_WaitFlagStateUntilTimeout
	.thumb_func
I2S_WaitFlagStateUntilTimeout:
.Lfunc_begin5:
	.loc	7 1143 0                @ ../Drivers/STM32F7xx_HAL_Driver/Src/stm32f7xx_hal_i2s.c:1143:0
	.fnstart
	.cfi_startproc
@ %bb.0:
	.save	{r4, r5, r6, r7, r8, lr}
	push.w	{r4, r5, r6, r7, r8, lr}
	.cfi_def_cfa_offset 24
	.cfi_offset lr, -4
	.cfi_offset r8, -8
	.cfi_offset r7, -12
	.cfi_offset r6, -16
	.cfi_offset r5, -20
	.cfi_offset r4, -24
	@DEBUG_VALUE: I2S_WaitFlagStateUntilTimeout:hi2s <- $r0
	@DEBUG_VALUE: I2S_WaitFlagStateUntilTimeout:Flag <- $r1
	@DEBUG_VALUE: I2S_WaitFlagStateUntilTimeout:Timeout <- $r2
	mov	r5, r2
	mov	r6, r1
	mov	r4, r0
.Ltmp91:
	@DEBUG_VALUE: I2S_WaitFlagStateUntilTimeout:tickstart <- 0
	@DEBUG_VALUE: I2S_WaitFlagStateUntilTimeout:State <- 1
	@DEBUG_VALUE: I2S_WaitFlagStateUntilTimeout:Timeout <- $r5
	@DEBUG_VALUE: I2S_WaitFlagStateUntilTimeout:Flag <- $r6
	@DEBUG_VALUE: I2S_WaitFlagStateUntilTimeout:hi2s <- $r4
	.loc	7 1147 15 prologue_end  @ ../Drivers/STM32F7xx_HAL_Driver/Src/stm32f7xx_hal_i2s.c:1147:15
	bl	HAL_GetTick
	mov	r8, r0
.Ltmp92:
	@DEBUG_VALUE: I2S_WaitFlagStateUntilTimeout:tickstart <- $r8
	.loc	7 0 15 is_stmt 0        @ ../Drivers/STM32F7xx_HAL_Driver/Src/stm32f7xx_hal_i2s.c:0:15
	adds	r7, r5, #1
.Ltmp93:
.LBB5_1:                                @ =>This Inner Loop Header: Depth=1
	@DEBUG_VALUE: I2S_WaitFlagStateUntilTimeout:tickstart <- $r8
	@DEBUG_VALUE: I2S_WaitFlagStateUntilTimeout:hi2s <- $r4
	@DEBUG_VALUE: I2S_WaitFlagStateUntilTimeout:Flag <- $r6
	@DEBUG_VALUE: I2S_WaitFlagStateUntilTimeout:Timeout <- $r5
	.loc	7 1171 11 is_stmt 1     @ ../Drivers/STM32F7xx_HAL_Driver/Src/stm32f7xx_hal_i2s.c:1171:11
	ldr	r0, [r4]
	ldr	r0, [r0, #8]
	ands	r0, r6
	.loc	7 1171 5 is_stmt 0      @ ../Drivers/STM32F7xx_HAL_Driver/Src/stm32f7xx_hal_i2s.c:1171:5
	cmp	r0, r6
	bne	.LBB5_6
.Ltmp94:
@ %bb.2:                                @   in Loop: Header=BB5_1 Depth=1
	@DEBUG_VALUE: I2S_WaitFlagStateUntilTimeout:tickstart <- $r8
	@DEBUG_VALUE: I2S_WaitFlagStateUntilTimeout:hi2s <- $r4
	@DEBUG_VALUE: I2S_WaitFlagStateUntilTimeout:Flag <- $r6
	@DEBUG_VALUE: I2S_WaitFlagStateUntilTimeout:Timeout <- $r5
	.loc	7 1173 10 is_stmt 1     @ ../Drivers/STM32F7xx_HAL_Driver/Src/stm32f7xx_hal_i2s.c:1173:10
	cmp	r7, #0
	beq	.LBB5_1
.Ltmp95:
@ %bb.3:                                @   in Loop: Header=BB5_1 Depth=1
	@DEBUG_VALUE: I2S_WaitFlagStateUntilTimeout:tickstart <- $r8
	@DEBUG_VALUE: I2S_WaitFlagStateUntilTimeout:hi2s <- $r4
	@DEBUG_VALUE: I2S_WaitFlagStateUntilTimeout:Flag <- $r6
	@DEBUG_VALUE: I2S_WaitFlagStateUntilTimeout:Timeout <- $r5
	cbz	r5, .LBB5_5
.Ltmp96:
@ %bb.4:                                @   in Loop: Header=BB5_1 Depth=1
	@DEBUG_VALUE: I2S_WaitFlagStateUntilTimeout:tickstart <- $r8
	@DEBUG_VALUE: I2S_WaitFlagStateUntilTimeout:hi2s <- $r4
	@DEBUG_VALUE: I2S_WaitFlagStateUntilTimeout:Flag <- $r6
	@DEBUG_VALUE: I2S_WaitFlagStateUntilTimeout:Timeout <- $r5
	.loc	7 1175 30               @ ../Drivers/STM32F7xx_HAL_Driver/Src/stm32f7xx_hal_i2s.c:1175:30
	bl	HAL_GetTick
	.loc	7 1175 44 is_stmt 0     @ ../Drivers/STM32F7xx_HAL_Driver/Src/stm32f7xx_hal_i2s.c:1175:44
	sub.w	r0, r0, r8
.Ltmp97:
	.loc	7 1175 12               @ ../Drivers/STM32F7xx_HAL_Driver/Src/stm32f7xx_hal_i2s.c:1175:12
	cmp	r0, r5
	bls	.LBB5_1
.Ltmp98:
.LBB5_5:
	@DEBUG_VALUE: I2S_WaitFlagStateUntilTimeout:tickstart <- $r8
	@DEBUG_VALUE: I2S_WaitFlagStateUntilTimeout:hi2s <- $r4
	@DEBUG_VALUE: I2S_WaitFlagStateUntilTimeout:Flag <- $r6
	@DEBUG_VALUE: I2S_WaitFlagStateUntilTimeout:Timeout <- $r5
	.loc	7 1178 22 is_stmt 1     @ ../Drivers/STM32F7xx_HAL_Driver/Src/stm32f7xx_hal_i2s.c:1178:22
	movs	r0, #1
	strb.w	r0, [r4, #57]
.Ltmp99:
	.loc	7 1181 11               @ ../Drivers/STM32F7xx_HAL_Driver/Src/stm32f7xx_hal_i2s.c:1181:11
	movs	r0, #0
	strb.w	r0, [r4, #56]
	movs	r0, #3
	b	.LBB5_7
.Ltmp100:
.LBB5_6:
	@DEBUG_VALUE: I2S_WaitFlagStateUntilTimeout:tickstart <- $r8
	@DEBUG_VALUE: I2S_WaitFlagStateUntilTimeout:hi2s <- $r4
	@DEBUG_VALUE: I2S_WaitFlagStateUntilTimeout:Flag <- $r6
	@DEBUG_VALUE: I2S_WaitFlagStateUntilTimeout:Timeout <- $r5
	.loc	7 0 11 is_stmt 0        @ ../Drivers/STM32F7xx_HAL_Driver/Src/stm32f7xx_hal_i2s.c:0:11
	movs	r0, #0
.Ltmp101:
.LBB5_7:
	@DEBUG_VALUE: I2S_WaitFlagStateUntilTimeout:tickstart <- $r8
	@DEBUG_VALUE: I2S_WaitFlagStateUntilTimeout:hi2s <- $r4
	@DEBUG_VALUE: I2S_WaitFlagStateUntilTimeout:Flag <- $r6
	@DEBUG_VALUE: I2S_WaitFlagStateUntilTimeout:Timeout <- $r5
	.loc	7 1189 1 is_stmt 1      @ ../Drivers/STM32F7xx_HAL_Driver/Src/stm32f7xx_hal_i2s.c:1189:1
	uxtb	r0, r0
	pop.w	{r4, r5, r6, r7, r8, pc}
.Ltmp102:
.Lfunc_end5:
	.size	I2S_WaitFlagStateUntilTimeout, .Lfunc_end5-I2S_WaitFlagStateUntilTimeout
	.cfi_endproc
	.cantunwind
	.fnend
                                        @ -- End function
	.section	.text.HAL_I2S_ErrorCallback,"ax",%progbits
	.hidden	HAL_I2S_ErrorCallback   @ -- Begin function HAL_I2S_ErrorCallback
	.weak	HAL_I2S_ErrorCallback
	.p2align	1
	.type	HAL_I2S_ErrorCallback,%function
	.code	16                      @ @HAL_I2S_ErrorCallback
	.thumb_func
HAL_I2S_ErrorCallback:
.Lfunc_begin6:
	.loc	7 1272 0                @ ../Drivers/STM32F7xx_HAL_Driver/Src/stm32f7xx_hal_i2s.c:1272:0
	.fnstart
	.cfi_startproc
@ %bb.0:
	@DEBUG_VALUE: HAL_I2S_ErrorCallback:hi2s <- $r0
	.loc	7 1279 1 prologue_end   @ ../Drivers/STM32F7xx_HAL_Driver/Src/stm32f7xx_hal_i2s.c:1279:1
	bx	lr
.Ltmp103:
.Lfunc_end6:
	.size	HAL_I2S_ErrorCallback, .Lfunc_end6-HAL_I2S_ErrorCallback
	.cfi_endproc
	.cantunwind
	.fnend
                                        @ -- End function
	.section	.text.HAL_I2S_Receive,"ax",%progbits
	.hidden	HAL_I2S_Receive         @ -- Begin function HAL_I2S_Receive
	.globl	HAL_I2S_Receive
	.p2align	1
	.type	HAL_I2S_Receive,%function
	.code	16                      @ @HAL_I2S_Receive
	.thumb_func
HAL_I2S_Receive:
.Lfunc_begin7:
	.loc	7 573 0                 @ ../Drivers/STM32F7xx_HAL_Driver/Src/stm32f7xx_hal_i2s.c:573:0
	.fnstart
	.cfi_startproc
@ %bb.0:
	.save	{r4, r5, r6, r7, lr}
	.pad	#4
	push	{r3, r4, r5, r6, r7, lr}
	.cfi_def_cfa_offset 24
	.cfi_offset lr, -4
	.cfi_offset r7, -8
	.cfi_offset r6, -12
	.cfi_offset r5, -16
	.cfi_offset r4, -20
	@DEBUG_VALUE: HAL_I2S_Receive:hi2s <- $r0
	@DEBUG_VALUE: HAL_I2S_Receive:pData <- $r1
	@DEBUG_VALUE: HAL_I2S_Receive:Size <- $r2
	@DEBUG_VALUE: HAL_I2S_Receive:Timeout <- $r3
	mov	r5, r3
	mov	r6, r1
	mov	r4, r0
	movs	r7, #1
.Ltmp104:
	@DEBUG_VALUE: HAL_I2S_Receive:Timeout <- $r5
	@DEBUG_VALUE: HAL_I2S_Receive:Size <- $r2
	@DEBUG_VALUE: HAL_I2S_Receive:pData <- $r6
	@DEBUG_VALUE: HAL_I2S_Receive:hi2s <- $r4
	.loc	7 574 23 prologue_end   @ ../Drivers/STM32F7xx_HAL_Driver/Src/stm32f7xx_hal_i2s.c:574:23
	cbz	r1, .LBB7_8
.Ltmp105:
@ %bb.1:
	@DEBUG_VALUE: HAL_I2S_Receive:hi2s <- $r4
	@DEBUG_VALUE: HAL_I2S_Receive:pData <- $r6
	@DEBUG_VALUE: HAL_I2S_Receive:Timeout <- $r5
	@DEBUG_VALUE: HAL_I2S_Receive:Size <- $r2
	cbz	r2, .LBB7_8
.Ltmp106:
@ %bb.2:
	@DEBUG_VALUE: HAL_I2S_Receive:hi2s <- $r4
	@DEBUG_VALUE: HAL_I2S_Receive:pData <- $r6
	@DEBUG_VALUE: HAL_I2S_Receive:Timeout <- $r5
	@DEBUG_VALUE: HAL_I2S_Receive:Size <- $r2
	.loc	7 579 12                @ ../Drivers/STM32F7xx_HAL_Driver/Src/stm32f7xx_hal_i2s.c:579:12
	ldrb.w	r0, [r4, #57]
.Ltmp107:
	.loc	7 579 6 is_stmt 0       @ ../Drivers/STM32F7xx_HAL_Driver/Src/stm32f7xx_hal_i2s.c:579:6
	cmp	r0, #1
	bne	.LBB7_7
.Ltmp108:
@ %bb.3:
	@DEBUG_VALUE: HAL_I2S_Receive:hi2s <- $r4
	@DEBUG_VALUE: HAL_I2S_Receive:pData <- $r6
	@DEBUG_VALUE: HAL_I2S_Receive:Timeout <- $r5
	@DEBUG_VALUE: HAL_I2S_Receive:Size <- $r2
	.loc	7 581 16 is_stmt 1      @ ../Drivers/STM32F7xx_HAL_Driver/Src/stm32f7xx_hal_i2s.c:581:16
	ldr	r0, [r4]
	.loc	7 581 26 is_stmt 0      @ ../Drivers/STM32F7xx_HAL_Driver/Src/stm32f7xx_hal_i2s.c:581:26
	ldr	r1, [r0, #28]
	.loc	7 581 34                @ ../Drivers/STM32F7xx_HAL_Driver/Src/stm32f7xx_hal_i2s.c:581:34
	and	r1, r1, #7
	.loc	7 581 100               @ ../Drivers/STM32F7xx_HAL_Driver/Src/stm32f7xx_hal_i2s.c:581:100
	cmp	r1, #3
	bne	.LBB7_5
.Ltmp109:
@ %bb.4:
	@DEBUG_VALUE: HAL_I2S_Receive:hi2s <- $r4
	@DEBUG_VALUE: HAL_I2S_Receive:pData <- $r6
	@DEBUG_VALUE: HAL_I2S_Receive:Timeout <- $r5
	@DEBUG_VALUE: HAL_I2S_Receive:Size <- $r2
	.loc	7 584 32 is_stmt 1      @ ../Drivers/STM32F7xx_HAL_Driver/Src/stm32f7xx_hal_i2s.c:584:32
	lsls	r2, r2, #1
.Ltmp110:
	.loc	7 0 32 is_stmt 0        @ ../Drivers/STM32F7xx_HAL_Driver/Src/stm32f7xx_hal_i2s.c:0:32
	b	.LBB7_6
.Ltmp111:
.LBB7_5:
	@DEBUG_VALUE: HAL_I2S_Receive:hi2s <- $r4
	@DEBUG_VALUE: HAL_I2S_Receive:pData <- $r6
	@DEBUG_VALUE: HAL_I2S_Receive:Timeout <- $r5
	@DEBUG_VALUE: HAL_I2S_Receive:Size <- $r2
	@DEBUG_VALUE: HAL_I2S_Receive:Size <- $r2
	.loc	7 582 26 is_stmt 1      @ ../Drivers/STM32F7xx_HAL_Driver/Src/stm32f7xx_hal_i2s.c:582:26
	ldr	r1, [r0, #28]
	.loc	7 582 34 is_stmt 0      @ ../Drivers/STM32F7xx_HAL_Driver/Src/stm32f7xx_hal_i2s.c:582:34
	and	r1, r1, #7
.Ltmp112:
	.loc	7 581 8 is_stmt 1       @ ../Drivers/STM32F7xx_HAL_Driver/Src/stm32f7xx_hal_i2s.c:581:8
	cmp	r1, #5
.Ltmp113:
	.loc	7 584 32                @ ../Drivers/STM32F7xx_HAL_Driver/Src/stm32f7xx_hal_i2s.c:584:32
	it	eq
	lsleq	r2, r2, #1
.Ltmp114:
.LBB7_6:
	@DEBUG_VALUE: HAL_I2S_Receive:hi2s <- $r4
	@DEBUG_VALUE: HAL_I2S_Receive:pData <- $r6
	@DEBUG_VALUE: HAL_I2S_Receive:Timeout <- $r5
	.loc	7 0 32 is_stmt 0        @ ../Drivers/STM32F7xx_HAL_Driver/Src/stm32f7xx_hal_i2s.c:0:32
	strh	r2, [r4, #44]
	strh	r2, [r4, #46]
.Ltmp115:
	.loc	7 593 5 is_stmt 1       @ ../Drivers/STM32F7xx_HAL_Driver/Src/stm32f7xx_hal_i2s.c:593:5
	ldrb.w	r1, [r4, #56]
.Ltmp116:
	.loc	7 593 5 is_stmt 0       @ ../Drivers/STM32F7xx_HAL_Driver/Src/stm32f7xx_hal_i2s.c:593:5
	cmp	r1, #1
	bne	.LBB7_9
.Ltmp117:
.LBB7_7:
	@DEBUG_VALUE: HAL_I2S_Receive:hi2s <- $r4
	@DEBUG_VALUE: HAL_I2S_Receive:pData <- $r6
	@DEBUG_VALUE: HAL_I2S_Receive:Timeout <- $r5
	.loc	7 0 5                   @ ../Drivers/STM32F7xx_HAL_Driver/Src/stm32f7xx_hal_i2s.c:0:5
	movs	r7, #2
.Ltmp118:
.LBB7_8:
	@DEBUG_VALUE: HAL_I2S_Receive:hi2s <- $r4
	@DEBUG_VALUE: HAL_I2S_Receive:pData <- $r6
	@DEBUG_VALUE: HAL_I2S_Receive:Timeout <- $r5
	.loc	7 656 1 is_stmt 1       @ ../Drivers/STM32F7xx_HAL_Driver/Src/stm32f7xx_hal_i2s.c:656:1
	uxtb	r0, r7
	add	sp, #4
	pop	{r4, r5, r6, r7, pc}
.Ltmp119:
.LBB7_9:
	@DEBUG_VALUE: HAL_I2S_Receive:hi2s <- $r4
	@DEBUG_VALUE: HAL_I2S_Receive:pData <- $r6
	@DEBUG_VALUE: HAL_I2S_Receive:Timeout <- $r5
	.loc	7 0 1 is_stmt 0         @ ../Drivers/STM32F7xx_HAL_Driver/Src/stm32f7xx_hal_i2s.c:0:1
	movs	r1, #1
.Ltmp120:
	.loc	7 593 5 is_stmt 1       @ ../Drivers/STM32F7xx_HAL_Driver/Src/stm32f7xx_hal_i2s.c:593:5
	strb.w	r1, [r4, #56]
	movs	r1, #0
.Ltmp121:
	.loc	7 595 21                @ ../Drivers/STM32F7xx_HAL_Driver/Src/stm32f7xx_hal_i2s.c:595:21
	str	r1, [r4, #60]
	.loc	7 596 17                @ ../Drivers/STM32F7xx_HAL_Driver/Src/stm32f7xx_hal_i2s.c:596:17
	movs	r1, #4
	strb.w	r1, [r4, #57]
.Ltmp122:
	.loc	7 599 25                @ ../Drivers/STM32F7xx_HAL_Driver/Src/stm32f7xx_hal_i2s.c:599:25
	ldr	r1, [r0, #28]
.Ltmp123:
	.loc	7 599 8 is_stmt 0       @ ../Drivers/STM32F7xx_HAL_Driver/Src/stm32f7xx_hal_i2s.c:599:8
	tst.w	r1, #1024
.Ltmp124:
	.loc	7 602 7 is_stmt 1       @ ../Drivers/STM32F7xx_HAL_Driver/Src/stm32f7xx_hal_i2s.c:602:7
	ittt	eq
	ldreq	r1, [r0, #28]
	orreq	r1, r1, #1024
	streq	r1, [r0, #28]
.Ltmp125:
	.loc	7 606 25                @ ../Drivers/STM32F7xx_HAL_Driver/Src/stm32f7xx_hal_i2s.c:606:25
	ldr	r1, [r0, #28]
	.loc	7 606 33 is_stmt 0      @ ../Drivers/STM32F7xx_HAL_Driver/Src/stm32f7xx_hal_i2s.c:606:33
	and	r1, r1, #768
.Ltmp126:
	.loc	7 606 8                 @ ../Drivers/STM32F7xx_HAL_Driver/Src/stm32f7xx_hal_i2s.c:606:8
	cmp.w	r1, #768
	bne	.LBB7_12
.Ltmp127:
@ %bb.10:
	@DEBUG_VALUE: HAL_I2S_Receive:hi2s <- $r4
	@DEBUG_VALUE: HAL_I2S_Receive:pData <- $r6
	@DEBUG_VALUE: HAL_I2S_Receive:Timeout <- $r5
	.loc	7 610 7 is_stmt 1       @ ../Drivers/STM32F7xx_HAL_Driver/Src/stm32f7xx_hal_i2s.c:610:7
	ldr	r1, [r0, #12]
.Ltmp128:
	@DEBUG_VALUE: tmpreg <- $r1
	str	r1, [sp]
	ldr	r0, [r0, #8]
.Ltmp129:
	@DEBUG_VALUE: tmpreg <- $r0
	str	r0, [sp]
	ldr	r0, [sp]
.Ltmp130:
	@DEBUG_VALUE: tmpreg <- $r0
	.loc	7 0 7 is_stmt 0         @ ../Drivers/STM32F7xx_HAL_Driver/Src/stm32f7xx_hal_i2s.c:0:7
	b	.LBB7_12
.Ltmp131:
.LBB7_11:                               @   in Loop: Header=BB7_12 Depth=1
	@DEBUG_VALUE: HAL_I2S_Receive:hi2s <- $r4
	@DEBUG_VALUE: HAL_I2S_Receive:pData <- $r6
	@DEBUG_VALUE: HAL_I2S_Receive:Timeout <- $r5
	@DEBUG_VALUE: HAL_I2S_Receive:pData <- $r6
	.loc	7 641 36 is_stmt 1      @ ../Drivers/STM32F7xx_HAL_Driver/Src/stm32f7xx_hal_i2s.c:641:36
	ldr	r0, [r0, #12]
	.loc	7 641 18 is_stmt 0      @ ../Drivers/STM32F7xx_HAL_Driver/Src/stm32f7xx_hal_i2s.c:641:18
	strh	r0, [r6], #2
.Ltmp132:
	.loc	7 642 24 is_stmt 1      @ ../Drivers/STM32F7xx_HAL_Driver/Src/stm32f7xx_hal_i2s.c:642:24
	ldrh	r0, [r4, #46]
	subs	r0, #1
	strh	r0, [r4, #46]
.Ltmp133:
.LBB7_12:                               @ =>This Inner Loop Header: Depth=1
	@DEBUG_VALUE: HAL_I2S_Receive:hi2s <- $r4
	@DEBUG_VALUE: HAL_I2S_Receive:pData <- $r6
	@DEBUG_VALUE: HAL_I2S_Receive:Timeout <- $r5
	.loc	7 614 17                @ ../Drivers/STM32F7xx_HAL_Driver/Src/stm32f7xx_hal_i2s.c:614:17
	ldrh	r0, [r4, #46]
	.loc	7 614 5 is_stmt 0       @ ../Drivers/STM32F7xx_HAL_Driver/Src/stm32f7xx_hal_i2s.c:614:5
	cbz	r0, .LBB7_16
.Ltmp134:
@ %bb.13:                               @   in Loop: Header=BB7_12 Depth=1
	@DEBUG_VALUE: HAL_I2S_Receive:hi2s <- $r4
	@DEBUG_VALUE: HAL_I2S_Receive:pData <- $r6
	@DEBUG_VALUE: HAL_I2S_Receive:Timeout <- $r5
	.loc	7 617 11 is_stmt 1      @ ../Drivers/STM32F7xx_HAL_Driver/Src/stm32f7xx_hal_i2s.c:617:11
	mov	r0, r4
	movs	r1, #1
	mov	r2, r5
	bl	I2S_WaitFlagStateUntilTimeout
.Ltmp135:
	.loc	7 617 11 is_stmt 0      @ ../Drivers/STM32F7xx_HAL_Driver/Src/stm32f7xx_hal_i2s.c:617:11
	cbnz	r0, .LBB7_17
.Ltmp136:
@ %bb.14:                               @   in Loop: Header=BB7_12 Depth=1
	@DEBUG_VALUE: HAL_I2S_Receive:hi2s <- $r4
	@DEBUG_VALUE: HAL_I2S_Receive:pData <- $r6
	@DEBUG_VALUE: HAL_I2S_Receive:Timeout <- $r5
	.loc	7 626 10 is_stmt 1      @ ../Drivers/STM32F7xx_HAL_Driver/Src/stm32f7xx_hal_i2s.c:626:10
	ldr	r0, [r4]
	ldr	r1, [r0, #8]
.Ltmp137:
	.loc	7 626 10 is_stmt 0      @ ../Drivers/STM32F7xx_HAL_Driver/Src/stm32f7xx_hal_i2s.c:626:10
	tst.w	r1, #64
	beq	.LBB7_11
.Ltmp138:
@ %bb.15:
	@DEBUG_VALUE: HAL_I2S_Receive:hi2s <- $r4
	@DEBUG_VALUE: HAL_I2S_Receive:pData <- $r6
	@DEBUG_VALUE: HAL_I2S_Receive:Timeout <- $r5
	.loc	7 0 10                  @ ../Drivers/STM32F7xx_HAL_Driver/Src/stm32f7xx_hal_i2s.c:0:10
	movs	r7, #1
.Ltmp139:
	.loc	7 632 9 is_stmt 1       @ ../Drivers/STM32F7xx_HAL_Driver/Src/stm32f7xx_hal_i2s.c:632:9
	movs	r0, #0
.Ltmp140:
	.loc	7 629 21                @ ../Drivers/STM32F7xx_HAL_Driver/Src/stm32f7xx_hal_i2s.c:629:21
	strb.w	r7, [r4, #57]
.Ltmp141:
	.loc	7 632 9                 @ ../Drivers/STM32F7xx_HAL_Driver/Src/stm32f7xx_hal_i2s.c:632:9
	strb.w	r0, [r4, #56]
.Ltmp142:
	.loc	7 635 25                @ ../Drivers/STM32F7xx_HAL_Driver/Src/stm32f7xx_hal_i2s.c:635:25
	ldr	r0, [r4, #60]
	orr	r0, r0, #2
	str	r0, [r4, #60]
	.loc	7 636 9                 @ ../Drivers/STM32F7xx_HAL_Driver/Src/stm32f7xx_hal_i2s.c:636:9
	mov	r0, r4
	bl	HAL_I2S_ErrorCallback
	b	.LBB7_8
.Ltmp143:
.LBB7_16:
	@DEBUG_VALUE: HAL_I2S_Receive:hi2s <- $r4
	@DEBUG_VALUE: HAL_I2S_Receive:pData <- $r6
	@DEBUG_VALUE: HAL_I2S_Receive:Timeout <- $r5
	.loc	7 645 17                @ ../Drivers/STM32F7xx_HAL_Driver/Src/stm32f7xx_hal_i2s.c:645:17
	movs	r0, #1
	movs	r7, #0
	strb.w	r0, [r4, #57]
.Ltmp144:
	.loc	7 648 5                 @ ../Drivers/STM32F7xx_HAL_Driver/Src/stm32f7xx_hal_i2s.c:648:5
	strb.w	r7, [r4, #56]
	b	.LBB7_8
.Ltmp145:
.LBB7_17:
	@DEBUG_VALUE: HAL_I2S_Receive:hi2s <- $r4
	@DEBUG_VALUE: HAL_I2S_Receive:pData <- $r6
	@DEBUG_VALUE: HAL_I2S_Receive:Timeout <- $r5
	.loc	7 620 25                @ ../Drivers/STM32F7xx_HAL_Driver/Src/stm32f7xx_hal_i2s.c:620:25
	ldr	r0, [r4, #60]
	orr	r0, r0, #1
	str	r0, [r4, #60]
	.loc	7 621 9                 @ ../Drivers/STM32F7xx_HAL_Driver/Src/stm32f7xx_hal_i2s.c:621:9
	mov	r0, r4
	bl	HAL_I2S_ErrorCallback
	movs	r7, #3
	b	.LBB7_8
.Ltmp146:
.Lfunc_end7:
	.size	HAL_I2S_Receive, .Lfunc_end7-HAL_I2S_Receive
	.cfi_endproc
	.cantunwind
	.fnend
                                        @ -- End function
	.section	.text.HAL_I2S_Transmit_IT,"ax",%progbits
	.hidden	HAL_I2S_Transmit_IT     @ -- Begin function HAL_I2S_Transmit_IT
	.globl	HAL_I2S_Transmit_IT
	.p2align	1
	.type	HAL_I2S_Transmit_IT,%function
	.code	16                      @ @HAL_I2S_Transmit_IT
	.thumb_func
HAL_I2S_Transmit_IT:
.Lfunc_begin8:
	.loc	7 673 0                 @ ../Drivers/STM32F7xx_HAL_Driver/Src/stm32f7xx_hal_i2s.c:673:0
	.fnstart
	.cfi_startproc
@ %bb.0:
	@DEBUG_VALUE: HAL_I2S_Transmit_IT:hi2s <- $r0
	@DEBUG_VALUE: HAL_I2S_Transmit_IT:hi2s <- $r0
	@DEBUG_VALUE: HAL_I2S_Transmit_IT:pData <- $r1
	@DEBUG_VALUE: HAL_I2S_Transmit_IT:pData <- $r1
	@DEBUG_VALUE: HAL_I2S_Transmit_IT:Size <- $r2
	@DEBUG_VALUE: HAL_I2S_Transmit_IT:Size <- $r2
	.loc	7 674 12 prologue_end   @ ../Drivers/STM32F7xx_HAL_Driver/Src/stm32f7xx_hal_i2s.c:674:12
	ldrb.w	r3, [r0, #57]
.Ltmp147:
	.loc	7 674 6 is_stmt 0       @ ../Drivers/STM32F7xx_HAL_Driver/Src/stm32f7xx_hal_i2s.c:674:6
	cmp	r3, #1
	bne	.LBB8_7
.Ltmp148:
@ %bb.1:
	@DEBUG_VALUE: HAL_I2S_Transmit_IT:Size <- $r2
	@DEBUG_VALUE: HAL_I2S_Transmit_IT:pData <- $r1
	@DEBUG_VALUE: HAL_I2S_Transmit_IT:hi2s <- $r0
	.loc	7 0 6                   @ ../Drivers/STM32F7xx_HAL_Driver/Src/stm32f7xx_hal_i2s.c:0:6
	movs	r3, #1
.Ltmp149:
	.loc	7 676 24 is_stmt 1      @ ../Drivers/STM32F7xx_HAL_Driver/Src/stm32f7xx_hal_i2s.c:676:24
	cbz	r1, .LBB8_8
.Ltmp150:
@ %bb.2:
	@DEBUG_VALUE: HAL_I2S_Transmit_IT:Size <- $r2
	@DEBUG_VALUE: HAL_I2S_Transmit_IT:pData <- $r1
	@DEBUG_VALUE: HAL_I2S_Transmit_IT:hi2s <- $r0
	cbz	r2, .LBB8_8
.Ltmp151:
@ %bb.3:
	@DEBUG_VALUE: HAL_I2S_Transmit_IT:Size <- $r2
	@DEBUG_VALUE: HAL_I2S_Transmit_IT:pData <- $r1
	@DEBUG_VALUE: HAL_I2S_Transmit_IT:hi2s <- $r0
	.loc	7 681 22                @ ../Drivers/STM32F7xx_HAL_Driver/Src/stm32f7xx_hal_i2s.c:681:22
	str	r1, [r0, #32]
.Ltmp152:
	.loc	7 682 16                @ ../Drivers/STM32F7xx_HAL_Driver/Src/stm32f7xx_hal_i2s.c:682:16
	ldr	r1, [r0]
.Ltmp153:
	.loc	7 682 26 is_stmt 0      @ ../Drivers/STM32F7xx_HAL_Driver/Src/stm32f7xx_hal_i2s.c:682:26
	ldr	r3, [r1, #28]
	.loc	7 682 34                @ ../Drivers/STM32F7xx_HAL_Driver/Src/stm32f7xx_hal_i2s.c:682:34
	and	r3, r3, #7
	.loc	7 682 100               @ ../Drivers/STM32F7xx_HAL_Driver/Src/stm32f7xx_hal_i2s.c:682:100
	cmp	r3, #3
	bne	.LBB8_5
.Ltmp154:
@ %bb.4:
	@DEBUG_VALUE: HAL_I2S_Transmit_IT:Size <- $r2
	@DEBUG_VALUE: HAL_I2S_Transmit_IT:hi2s <- $r0
	.loc	7 685 32 is_stmt 1      @ ../Drivers/STM32F7xx_HAL_Driver/Src/stm32f7xx_hal_i2s.c:685:32
	lsls	r2, r2, #1
.Ltmp155:
	.loc	7 0 32 is_stmt 0        @ ../Drivers/STM32F7xx_HAL_Driver/Src/stm32f7xx_hal_i2s.c:0:32
	b	.LBB8_6
.Ltmp156:
.LBB8_5:
	@DEBUG_VALUE: HAL_I2S_Transmit_IT:Size <- $r2
	@DEBUG_VALUE: HAL_I2S_Transmit_IT:hi2s <- $r0
	@DEBUG_VALUE: HAL_I2S_Transmit_IT:Size <- $r2
	.loc	7 683 25 is_stmt 1      @ ../Drivers/STM32F7xx_HAL_Driver/Src/stm32f7xx_hal_i2s.c:683:25
	ldr	r3, [r1, #28]
	.loc	7 683 33 is_stmt 0      @ ../Drivers/STM32F7xx_HAL_Driver/Src/stm32f7xx_hal_i2s.c:683:33
	and	r3, r3, #7
.Ltmp157:
	.loc	7 682 8 is_stmt 1       @ ../Drivers/STM32F7xx_HAL_Driver/Src/stm32f7xx_hal_i2s.c:682:8
	cmp	r3, #5
.Ltmp158:
	.loc	7 685 32                @ ../Drivers/STM32F7xx_HAL_Driver/Src/stm32f7xx_hal_i2s.c:685:32
	it	eq
	lsleq	r2, r2, #1
.Ltmp159:
.LBB8_6:
	@DEBUG_VALUE: HAL_I2S_Transmit_IT:hi2s <- $r0
	.loc	7 0 32 is_stmt 0        @ ../Drivers/STM32F7xx_HAL_Driver/Src/stm32f7xx_hal_i2s.c:0:32
	strh	r2, [r0, #36]
	strh	r2, [r0, #38]
.Ltmp160:
	.loc	7 695 5 is_stmt 1       @ ../Drivers/STM32F7xx_HAL_Driver/Src/stm32f7xx_hal_i2s.c:695:5
	ldrb.w	r2, [r0, #56]
.Ltmp161:
	.loc	7 695 5 is_stmt 0       @ ../Drivers/STM32F7xx_HAL_Driver/Src/stm32f7xx_hal_i2s.c:695:5
	cmp	r2, #1
	bne	.LBB8_9
.Ltmp162:
.LBB8_7:
	@DEBUG_VALUE: HAL_I2S_Transmit_IT:hi2s <- $r0
	.loc	7 0 5                   @ ../Drivers/STM32F7xx_HAL_Driver/Src/stm32f7xx_hal_i2s.c:0:5
	movs	r3, #2
.LBB8_8:
	@DEBUG_VALUE: HAL_I2S_Transmit_IT:hi2s <- $r0
	.loc	7 719 1 is_stmt 1       @ ../Drivers/STM32F7xx_HAL_Driver/Src/stm32f7xx_hal_i2s.c:719:1
	uxtb	r0, r3
	bx	lr
.LBB8_9:
	@DEBUG_VALUE: HAL_I2S_Transmit_IT:hi2s <- $r0
	.loc	7 0 1 is_stmt 0         @ ../Drivers/STM32F7xx_HAL_Driver/Src/stm32f7xx_hal_i2s.c:0:1
	movs	r2, #1
	movs	r3, #0
.Ltmp163:
	.loc	7 695 5 is_stmt 1       @ ../Drivers/STM32F7xx_HAL_Driver/Src/stm32f7xx_hal_i2s.c:695:5
	strb.w	r2, [r0, #56]
.Ltmp164:
	.loc	7 698 17                @ ../Drivers/STM32F7xx_HAL_Driver/Src/stm32f7xx_hal_i2s.c:698:17
	movs	r2, #3
	.loc	7 697 21                @ ../Drivers/STM32F7xx_HAL_Driver/Src/stm32f7xx_hal_i2s.c:697:21
	str	r3, [r0, #60]
	.loc	7 698 17                @ ../Drivers/STM32F7xx_HAL_Driver/Src/stm32f7xx_hal_i2s.c:698:17
	strb.w	r2, [r0, #57]
	.loc	7 701 5                 @ ../Drivers/STM32F7xx_HAL_Driver/Src/stm32f7xx_hal_i2s.c:701:5
	ldr	r2, [r1, #4]
	orr	r2, r2, #160
	str	r2, [r1, #4]
.Ltmp165:
	.loc	7 704 25                @ ../Drivers/STM32F7xx_HAL_Driver/Src/stm32f7xx_hal_i2s.c:704:25
	ldr	r2, [r1, #28]
.Ltmp166:
	.loc	7 704 8 is_stmt 0       @ ../Drivers/STM32F7xx_HAL_Driver/Src/stm32f7xx_hal_i2s.c:704:8
	tst.w	r2, #1024
.Ltmp167:
	.loc	7 707 7 is_stmt 1       @ ../Drivers/STM32F7xx_HAL_Driver/Src/stm32f7xx_hal_i2s.c:707:7
	ittt	eq
	ldreq	r2, [r1, #28]
	orreq	r2, r2, #1024
	streq	r2, [r1, #28]
.Ltmp168:
	.loc	7 711 5                 @ ../Drivers/STM32F7xx_HAL_Driver/Src/stm32f7xx_hal_i2s.c:711:5
	strb.w	r3, [r0, #56]
	b	.LBB8_8
.Ltmp169:
.Lfunc_end8:
	.size	HAL_I2S_Transmit_IT, .Lfunc_end8-HAL_I2S_Transmit_IT
	.cfi_endproc
	.cantunwind
	.fnend
                                        @ -- End function
	.section	.text.HAL_I2S_Receive_IT,"ax",%progbits
	.hidden	HAL_I2S_Receive_IT      @ -- Begin function HAL_I2S_Receive_IT
	.globl	HAL_I2S_Receive_IT
	.p2align	1
	.type	HAL_I2S_Receive_IT,%function
	.code	16                      @ @HAL_I2S_Receive_IT
	.thumb_func
HAL_I2S_Receive_IT:
.Lfunc_begin9:
	.loc	7 738 0                 @ ../Drivers/STM32F7xx_HAL_Driver/Src/stm32f7xx_hal_i2s.c:738:0
	.fnstart
	.cfi_startproc
@ %bb.0:
	@DEBUG_VALUE: HAL_I2S_Receive_IT:hi2s <- $r0
	@DEBUG_VALUE: HAL_I2S_Receive_IT:hi2s <- $r0
	@DEBUG_VALUE: HAL_I2S_Receive_IT:pData <- $r1
	@DEBUG_VALUE: HAL_I2S_Receive_IT:pData <- $r1
	@DEBUG_VALUE: HAL_I2S_Receive_IT:Size <- $r2
	@DEBUG_VALUE: HAL_I2S_Receive_IT:Size <- $r2
	.loc	7 739 12 prologue_end   @ ../Drivers/STM32F7xx_HAL_Driver/Src/stm32f7xx_hal_i2s.c:739:12
	ldrb.w	r3, [r0, #57]
.Ltmp170:
	.loc	7 739 6 is_stmt 0       @ ../Drivers/STM32F7xx_HAL_Driver/Src/stm32f7xx_hal_i2s.c:739:6
	cmp	r3, #1
	bne	.LBB9_7
.Ltmp171:
@ %bb.1:
	@DEBUG_VALUE: HAL_I2S_Receive_IT:Size <- $r2
	@DEBUG_VALUE: HAL_I2S_Receive_IT:pData <- $r1
	@DEBUG_VALUE: HAL_I2S_Receive_IT:hi2s <- $r0
	.loc	7 0 6                   @ ../Drivers/STM32F7xx_HAL_Driver/Src/stm32f7xx_hal_i2s.c:0:6
	movs	r3, #1
.Ltmp172:
	.loc	7 741 24 is_stmt 1      @ ../Drivers/STM32F7xx_HAL_Driver/Src/stm32f7xx_hal_i2s.c:741:24
	cbz	r1, .LBB9_8
.Ltmp173:
@ %bb.2:
	@DEBUG_VALUE: HAL_I2S_Receive_IT:Size <- $r2
	@DEBUG_VALUE: HAL_I2S_Receive_IT:pData <- $r1
	@DEBUG_VALUE: HAL_I2S_Receive_IT:hi2s <- $r0
	cbz	r2, .LBB9_8
.Ltmp174:
@ %bb.3:
	@DEBUG_VALUE: HAL_I2S_Receive_IT:Size <- $r2
	@DEBUG_VALUE: HAL_I2S_Receive_IT:pData <- $r1
	@DEBUG_VALUE: HAL_I2S_Receive_IT:hi2s <- $r0
	.loc	7 746 22                @ ../Drivers/STM32F7xx_HAL_Driver/Src/stm32f7xx_hal_i2s.c:746:22
	str	r1, [r0, #40]
.Ltmp175:
	.loc	7 747 16                @ ../Drivers/STM32F7xx_HAL_Driver/Src/stm32f7xx_hal_i2s.c:747:16
	ldr	r1, [r0]
.Ltmp176:
	.loc	7 747 26 is_stmt 0      @ ../Drivers/STM32F7xx_HAL_Driver/Src/stm32f7xx_hal_i2s.c:747:26
	ldr	r3, [r1, #28]
	.loc	7 747 34                @ ../Drivers/STM32F7xx_HAL_Driver/Src/stm32f7xx_hal_i2s.c:747:34
	and	r3, r3, #7
	.loc	7 747 100               @ ../Drivers/STM32F7xx_HAL_Driver/Src/stm32f7xx_hal_i2s.c:747:100
	cmp	r3, #3
	bne	.LBB9_5
.Ltmp177:
@ %bb.4:
	@DEBUG_VALUE: HAL_I2S_Receive_IT:Size <- $r2
	@DEBUG_VALUE: HAL_I2S_Receive_IT:hi2s <- $r0
	.loc	7 750 32 is_stmt 1      @ ../Drivers/STM32F7xx_HAL_Driver/Src/stm32f7xx_hal_i2s.c:750:32
	lsls	r2, r2, #1
.Ltmp178:
	.loc	7 0 32 is_stmt 0        @ ../Drivers/STM32F7xx_HAL_Driver/Src/stm32f7xx_hal_i2s.c:0:32
	b	.LBB9_6
.Ltmp179:
.LBB9_5:
	@DEBUG_VALUE: HAL_I2S_Receive_IT:Size <- $r2
	@DEBUG_VALUE: HAL_I2S_Receive_IT:hi2s <- $r0
	@DEBUG_VALUE: HAL_I2S_Receive_IT:Size <- $r2
	.loc	7 748 25 is_stmt 1      @ ../Drivers/STM32F7xx_HAL_Driver/Src/stm32f7xx_hal_i2s.c:748:25
	ldr	r3, [r1, #28]
	.loc	7 748 33 is_stmt 0      @ ../Drivers/STM32F7xx_HAL_Driver/Src/stm32f7xx_hal_i2s.c:748:33
	and	r3, r3, #7
.Ltmp180:
	.loc	7 747 8 is_stmt 1       @ ../Drivers/STM32F7xx_HAL_Driver/Src/stm32f7xx_hal_i2s.c:747:8
	cmp	r3, #5
.Ltmp181:
	.loc	7 750 32                @ ../Drivers/STM32F7xx_HAL_Driver/Src/stm32f7xx_hal_i2s.c:750:32
	it	eq
	lsleq	r2, r2, #1
.Ltmp182:
.LBB9_6:
	@DEBUG_VALUE: HAL_I2S_Receive_IT:hi2s <- $r0
	.loc	7 0 32 is_stmt 0        @ ../Drivers/STM32F7xx_HAL_Driver/Src/stm32f7xx_hal_i2s.c:0:32
	strh	r2, [r0, #44]
	strh	r2, [r0, #46]
.Ltmp183:
	.loc	7 759 5 is_stmt 1       @ ../Drivers/STM32F7xx_HAL_Driver/Src/stm32f7xx_hal_i2s.c:759:5
	ldrb.w	r2, [r0, #56]
.Ltmp184:
	.loc	7 759 5 is_stmt 0       @ ../Drivers/STM32F7xx_HAL_Driver/Src/stm32f7xx_hal_i2s.c:759:5
	cmp	r2, #1
	bne	.LBB9_9
.Ltmp185:
.LBB9_7:
	@DEBUG_VALUE: HAL_I2S_Receive_IT:hi2s <- $r0
	.loc	7 0 5                   @ ../Drivers/STM32F7xx_HAL_Driver/Src/stm32f7xx_hal_i2s.c:0:5
	movs	r3, #2
.LBB9_8:
	@DEBUG_VALUE: HAL_I2S_Receive_IT:hi2s <- $r0
	.loc	7 783 1 is_stmt 1       @ ../Drivers/STM32F7xx_HAL_Driver/Src/stm32f7xx_hal_i2s.c:783:1
	uxtb	r0, r3
	bx	lr
.LBB9_9:
	@DEBUG_VALUE: HAL_I2S_Receive_IT:hi2s <- $r0
	.loc	7 0 1 is_stmt 0         @ ../Drivers/STM32F7xx_HAL_Driver/Src/stm32f7xx_hal_i2s.c:0:1
	movs	r2, #1
	movs	r3, #0
.Ltmp186:
	.loc	7 759 5 is_stmt 1       @ ../Drivers/STM32F7xx_HAL_Driver/Src/stm32f7xx_hal_i2s.c:759:5
	strb.w	r2, [r0, #56]
	movs	r2, #4
.Ltmp187:
	.loc	7 761 21                @ ../Drivers/STM32F7xx_HAL_Driver/Src/stm32f7xx_hal_i2s.c:761:21
	str	r3, [r0, #60]
	.loc	7 762 17                @ ../Drivers/STM32F7xx_HAL_Driver/Src/stm32f7xx_hal_i2s.c:762:17
	strb.w	r2, [r0, #57]
	.loc	7 765 5                 @ ../Drivers/STM32F7xx_HAL_Driver/Src/stm32f7xx_hal_i2s.c:765:5
	ldr	r2, [r1, #4]
	orr	r2, r2, #96
	str	r2, [r1, #4]
.Ltmp188:
	.loc	7 768 25                @ ../Drivers/STM32F7xx_HAL_Driver/Src/stm32f7xx_hal_i2s.c:768:25
	ldr	r2, [r1, #28]
.Ltmp189:
	.loc	7 768 8 is_stmt 0       @ ../Drivers/STM32F7xx_HAL_Driver/Src/stm32f7xx_hal_i2s.c:768:8
	tst.w	r2, #1024
.Ltmp190:
	.loc	7 771 7 is_stmt 1       @ ../Drivers/STM32F7xx_HAL_Driver/Src/stm32f7xx_hal_i2s.c:771:7
	ittt	eq
	ldreq	r2, [r1, #28]
	orreq	r2, r2, #1024
	streq	r2, [r1, #28]
.Ltmp191:
	.loc	7 775 5                 @ ../Drivers/STM32F7xx_HAL_Driver/Src/stm32f7xx_hal_i2s.c:775:5
	strb.w	r3, [r0, #56]
	b	.LBB9_8
.Ltmp192:
.Lfunc_end9:
	.size	HAL_I2S_Receive_IT, .Lfunc_end9-HAL_I2S_Receive_IT
	.cfi_endproc
	.cantunwind
	.fnend
                                        @ -- End function
	.section	.text.HAL_I2S_Transmit_DMA,"ax",%progbits
	.hidden	HAL_I2S_Transmit_DMA    @ -- Begin function HAL_I2S_Transmit_DMA
	.globl	HAL_I2S_Transmit_DMA
	.p2align	2
	.type	HAL_I2S_Transmit_DMA,%function
	.code	16                      @ @HAL_I2S_Transmit_DMA
	.thumb_func
HAL_I2S_Transmit_DMA:
.Lfunc_begin10:
	.loc	7 800 0                 @ ../Drivers/STM32F7xx_HAL_Driver/Src/stm32f7xx_hal_i2s.c:800:0
	.fnstart
	.cfi_startproc
@ %bb.0:
	.save	{r4, r5, r7, lr}
	push	{r4, r5, r7, lr}
	.cfi_def_cfa_offset 16
	.cfi_offset lr, -4
	.cfi_offset r7, -8
	.cfi_offset r5, -12
	.cfi_offset r4, -16
	@DEBUG_VALUE: HAL_I2S_Transmit_DMA:hi2s <- $r0
	@DEBUG_VALUE: HAL_I2S_Transmit_DMA:Size <- $r2
	mov	r4, r0
	movs	r5, #1
	@DEBUG_VALUE: HAL_I2S_Transmit_DMA:Size <- $r2
.Ltmp193:
	@DEBUG_VALUE: HAL_I2S_Transmit_DMA:hi2s <- $r4
	.loc	7 803 22 prologue_end   @ ../Drivers/STM32F7xx_HAL_Driver/Src/stm32f7xx_hal_i2s.c:803:22
	cmp	r1, #0
	beq	.LBB10_9
.Ltmp194:
@ %bb.1:
	@DEBUG_VALUE: HAL_I2S_Transmit_DMA:hi2s <- $r4
	@DEBUG_VALUE: HAL_I2S_Transmit_DMA:Size <- $r2
	cmp	r2, #0
	beq	.LBB10_9
.Ltmp195:
@ %bb.2:
	@DEBUG_VALUE: HAL_I2S_Transmit_DMA:hi2s <- $r4
	@DEBUG_VALUE: HAL_I2S_Transmit_DMA:Size <- $r2
	.loc	7 808 12                @ ../Drivers/STM32F7xx_HAL_Driver/Src/stm32f7xx_hal_i2s.c:808:12
	ldrb.w	r0, [r4, #57]
.Ltmp196:
	.loc	7 808 6 is_stmt 0       @ ../Drivers/STM32F7xx_HAL_Driver/Src/stm32f7xx_hal_i2s.c:808:6
	cmp	r0, #1
	bne	.LBB10_7
.Ltmp197:
@ %bb.3:
	@DEBUG_VALUE: HAL_I2S_Transmit_DMA:hi2s <- $r4
	@DEBUG_VALUE: HAL_I2S_Transmit_DMA:Size <- $r2
	.loc	7 810 22 is_stmt 1      @ ../Drivers/STM32F7xx_HAL_Driver/Src/stm32f7xx_hal_i2s.c:810:22
	str	r1, [r4, #32]
.Ltmp198:
	.loc	7 811 16                @ ../Drivers/STM32F7xx_HAL_Driver/Src/stm32f7xx_hal_i2s.c:811:16
	ldr.w	r12, [r4]
	.loc	7 811 26 is_stmt 0      @ ../Drivers/STM32F7xx_HAL_Driver/Src/stm32f7xx_hal_i2s.c:811:26
	ldr.w	r0, [r12, #28]
	.loc	7 811 34                @ ../Drivers/STM32F7xx_HAL_Driver/Src/stm32f7xx_hal_i2s.c:811:34
	and	r0, r0, #7
	.loc	7 811 100               @ ../Drivers/STM32F7xx_HAL_Driver/Src/stm32f7xx_hal_i2s.c:811:100
	cmp	r0, #3
	bne	.LBB10_5
.Ltmp199:
@ %bb.4:
	@DEBUG_VALUE: HAL_I2S_Transmit_DMA:hi2s <- $r4
	@DEBUG_VALUE: HAL_I2S_Transmit_DMA:Size <- $r2
	.loc	7 814 32 is_stmt 1      @ ../Drivers/STM32F7xx_HAL_Driver/Src/stm32f7xx_hal_i2s.c:814:32
	lsls	r2, r2, #1
.Ltmp200:
	.loc	7 0 32 is_stmt 0        @ ../Drivers/STM32F7xx_HAL_Driver/Src/stm32f7xx_hal_i2s.c:0:32
	b	.LBB10_6
.Ltmp201:
.LBB10_5:
	@DEBUG_VALUE: HAL_I2S_Transmit_DMA:hi2s <- $r4
	@DEBUG_VALUE: HAL_I2S_Transmit_DMA:Size <- $r2
	@DEBUG_VALUE: HAL_I2S_Transmit_DMA:Size <- $r2
	.loc	7 812 25 is_stmt 1      @ ../Drivers/STM32F7xx_HAL_Driver/Src/stm32f7xx_hal_i2s.c:812:25
	ldr.w	r0, [r12, #28]
	.loc	7 812 33 is_stmt 0      @ ../Drivers/STM32F7xx_HAL_Driver/Src/stm32f7xx_hal_i2s.c:812:33
	and	r0, r0, #7
.Ltmp202:
	.loc	7 811 8 is_stmt 1       @ ../Drivers/STM32F7xx_HAL_Driver/Src/stm32f7xx_hal_i2s.c:811:8
	cmp	r0, #5
.Ltmp203:
	.loc	7 814 32                @ ../Drivers/STM32F7xx_HAL_Driver/Src/stm32f7xx_hal_i2s.c:814:32
	it	eq
	lsleq	r2, r2, #1
.Ltmp204:
.LBB10_6:
	@DEBUG_VALUE: HAL_I2S_Transmit_DMA:hi2s <- $r4
	.loc	7 0 32 is_stmt 0        @ ../Drivers/STM32F7xx_HAL_Driver/Src/stm32f7xx_hal_i2s.c:0:32
	strh	r2, [r4, #36]
	strh	r2, [r4, #38]
.Ltmp205:
	.loc	7 824 5 is_stmt 1       @ ../Drivers/STM32F7xx_HAL_Driver/Src/stm32f7xx_hal_i2s.c:824:5
	ldrb.w	r0, [r4, #56]
.Ltmp206:
	.loc	7 824 5 is_stmt 0       @ ../Drivers/STM32F7xx_HAL_Driver/Src/stm32f7xx_hal_i2s.c:824:5
	cmp	r0, #1
	bne	.LBB10_8
.Ltmp207:
.LBB10_7:
	@DEBUG_VALUE: HAL_I2S_Transmit_DMA:hi2s <- $r4
	.loc	7 0 5                   @ ../Drivers/STM32F7xx_HAL_Driver/Src/stm32f7xx_hal_i2s.c:0:5
	movs	r5, #2
	b	.LBB10_9
.Ltmp208:
.LBB10_8:
	@DEBUG_VALUE: HAL_I2S_Transmit_DMA:hi2s <- $r4
	movs	r0, #1
	movs	r5, #0
	.loc	7 833 36 is_stmt 1      @ ../Drivers/STM32F7xx_HAL_Driver/Src/stm32f7xx_hal_i2s.c:833:36
	ldr	r2, __arm_cp.10_0
	.loc	7 830 40                @ ../Drivers/STM32F7xx_HAL_Driver/Src/stm32f7xx_hal_i2s.c:830:40
	ldr	r3, __arm_cp.10_1
.Ltmp209:
	.loc	7 824 5                 @ ../Drivers/STM32F7xx_HAL_Driver/Src/stm32f7xx_hal_i2s.c:824:5
	strb.w	r0, [r4, #56]
.Ltmp210:
	.loc	7 827 17                @ ../Drivers/STM32F7xx_HAL_Driver/Src/stm32f7xx_hal_i2s.c:827:17
	movs	r0, #3
	.loc	7 826 21                @ ../Drivers/STM32F7xx_HAL_Driver/Src/stm32f7xx_hal_i2s.c:826:21
	str	r5, [r4, #60]
	.loc	7 827 17                @ ../Drivers/STM32F7xx_HAL_Driver/Src/stm32f7xx_hal_i2s.c:827:17
	strb.w	r0, [r4, #57]
	.loc	7 830 11                @ ../Drivers/STM32F7xx_HAL_Driver/Src/stm32f7xx_hal_i2s.c:830:11
	ldr	r0, [r4, #48]
	.loc	7 833 36                @ ../Drivers/STM32F7xx_HAL_Driver/Src/stm32f7xx_hal_i2s.c:833:36
	strd	r2, r3, [r0, #60]
	.loc	7 836 37                @ ../Drivers/STM32F7xx_HAL_Driver/Src/stm32f7xx_hal_i2s.c:836:37
	ldr	r2, __arm_cp.10_2
	str	r2, [r0, #76]
	.loc	7 840 80                @ ../Drivers/STM32F7xx_HAL_Driver/Src/stm32f7xx_hal_i2s.c:840:80
	add.w	r2, r12, #12
	.loc	7 840 84 is_stmt 0      @ ../Drivers/STM32F7xx_HAL_Driver/Src/stm32f7xx_hal_i2s.c:840:84
	ldrh	r3, [r4, #36]
	.loc	7 840 5                 @ ../Drivers/STM32F7xx_HAL_Driver/Src/stm32f7xx_hal_i2s.c:840:5
	bl	HAL_DMA_Start_IT
.Ltmp211:
	.loc	7 843 15 is_stmt 1      @ ../Drivers/STM32F7xx_HAL_Driver/Src/stm32f7xx_hal_i2s.c:843:15
	ldr	r0, [r4]
	.loc	7 843 25 is_stmt 0      @ ../Drivers/STM32F7xx_HAL_Driver/Src/stm32f7xx_hal_i2s.c:843:25
	ldr	r1, [r0, #28]
.Ltmp212:
	.loc	7 843 8                 @ ../Drivers/STM32F7xx_HAL_Driver/Src/stm32f7xx_hal_i2s.c:843:8
	tst.w	r1, #1024
.Ltmp213:
	.loc	7 846 7 is_stmt 1       @ ../Drivers/STM32F7xx_HAL_Driver/Src/stm32f7xx_hal_i2s.c:846:7
	ittt	eq
	ldreq	r1, [r0, #28]
	orreq	r1, r1, #1024
	streq	r1, [r0, #28]
.Ltmp214:
	.loc	7 850 25                @ ../Drivers/STM32F7xx_HAL_Driver/Src/stm32f7xx_hal_i2s.c:850:25
	ldr	r1, [r0, #4]
	orr	r1, r1, #2
	str	r1, [r0, #4]
.Ltmp215:
	.loc	7 853 5                 @ ../Drivers/STM32F7xx_HAL_Driver/Src/stm32f7xx_hal_i2s.c:853:5
	strb.w	r5, [r4, #56]
.Ltmp216:
.LBB10_9:
	@DEBUG_VALUE: HAL_I2S_Transmit_DMA:hi2s <- $r4
	.loc	7 861 1                 @ ../Drivers/STM32F7xx_HAL_Driver/Src/stm32f7xx_hal_i2s.c:861:1
	uxtb	r0, r5
	pop	{r4, r5, r7, pc}
.Ltmp217:
	.p2align	2
@ %bb.10:
	.loc	7 0 1 is_stmt 0         @ ../Drivers/STM32F7xx_HAL_Driver/Src/stm32f7xx_hal_i2s.c:0:1
__arm_cp.10_0:
	.long	I2S_DMATxCplt
.Lcpi_end3:
	.size	__arm_cp.10_0, .Lcpi_end3-__arm_cp.10_0
__arm_cp.10_1:
	.long	I2S_DMATxHalfCplt
.Lcpi_end4:
	.size	__arm_cp.10_1, .Lcpi_end4-__arm_cp.10_1
__arm_cp.10_2:
	.long	I2S_DMAError
.Lcpi_end5:
	.size	__arm_cp.10_2, .Lcpi_end5-__arm_cp.10_2
.Lfunc_end10:
	.size	HAL_I2S_Transmit_DMA, .Lfunc_end10-HAL_I2S_Transmit_DMA
	.cfi_endproc
	.cantunwind
	.fnend
                                        @ -- End function
	.section	.text.I2S_DMATxHalfCplt,"ax",%progbits
	.p2align	1               @ -- Begin function I2S_DMATxHalfCplt
	.type	I2S_DMATxHalfCplt,%function
	.code	16                      @ @I2S_DMATxHalfCplt
	.thumb_func
I2S_DMATxHalfCplt:
.Lfunc_begin11:
	.loc	7 1427 0 is_stmt 1      @ ../Drivers/STM32F7xx_HAL_Driver/Src/stm32f7xx_hal_i2s.c:1427:0
	.fnstart
	.cfi_startproc
@ %bb.0:
	@DEBUG_VALUE: I2S_DMATxHalfCplt:hdma <- $r0
	@DEBUG_VALUE: I2S_DMATxHalfCplt:hdma <- $r0
	.loc	7 1428 77 prologue_end  @ ../Drivers/STM32F7xx_HAL_Driver/Src/stm32f7xx_hal_i2s.c:1428:77
	ldr	r0, [r0, #56]
.Ltmp218:
	@DEBUG_VALUE: I2S_DMATxHalfCplt:hi2s <- $r0
	.loc	7 1430 3                @ ../Drivers/STM32F7xx_HAL_Driver/Src/stm32f7xx_hal_i2s.c:1430:3
	b	HAL_I2S_TxHalfCpltCallback
.Ltmp219:
.Lfunc_end11:
	.size	I2S_DMATxHalfCplt, .Lfunc_end11-I2S_DMATxHalfCplt
	.cfi_endproc
	.cantunwind
	.fnend
                                        @ -- End function
	.section	.text.I2S_DMATxCplt,"ax",%progbits
	.p2align	1               @ -- Begin function I2S_DMATxCplt
	.type	I2S_DMATxCplt,%function
	.code	16                      @ @I2S_DMATxCplt
	.thumb_func
I2S_DMATxCplt:
.Lfunc_begin12:
	.loc	7 1395 0                @ ../Drivers/STM32F7xx_HAL_Driver/Src/stm32f7xx_hal_i2s.c:1395:0
	.fnstart
	.cfi_startproc
@ %bb.0:
	@DEBUG_VALUE: I2S_DMATxCplt:hdma <- $r0
	@DEBUG_VALUE: I2S_DMATxCplt:hdma <- $r0
	.loc	7 1398 13 prologue_end  @ ../Drivers/STM32F7xx_HAL_Driver/Src/stm32f7xx_hal_i2s.c:1398:13
	ldr	r1, [r0]
.Ltmp220:
	.loc	7 1396 77               @ ../Drivers/STM32F7xx_HAL_Driver/Src/stm32f7xx_hal_i2s.c:1396:77
	ldr	r0, [r0, #56]
.Ltmp221:
	@DEBUG_VALUE: I2S_DMATxCplt:hi2s <- $r0
	.loc	7 1398 23               @ ../Drivers/STM32F7xx_HAL_Driver/Src/stm32f7xx_hal_i2s.c:1398:23
	ldr	r1, [r1]
.Ltmp222:
	.loc	7 1398 6 is_stmt 0      @ ../Drivers/STM32F7xx_HAL_Driver/Src/stm32f7xx_hal_i2s.c:1398:6
	tst.w	r1, #256
	bne	.LBB12_4
.Ltmp223:
@ %bb.1:
	@DEBUG_VALUE: I2S_DMATxCplt:hi2s <- $r0
	.loc	7 1400 23 is_stmt 1     @ ../Drivers/STM32F7xx_HAL_Driver/Src/stm32f7xx_hal_i2s.c:1400:23
	movs	r1, #0
	strh	r1, [r0, #38]
	.loc	7 1403 11               @ ../Drivers/STM32F7xx_HAL_Driver/Src/stm32f7xx_hal_i2s.c:1403:11
	ldr	r1, [r0]
	.loc	7 1403 25 is_stmt 0     @ ../Drivers/STM32F7xx_HAL_Driver/Src/stm32f7xx_hal_i2s.c:1403:25
	ldr	r2, [r1, #4]
	bic	r2, r2, #2
	str	r2, [r1, #4]
.Ltmp224:
	.loc	7 1405 14 is_stmt 1     @ ../Drivers/STM32F7xx_HAL_Driver/Src/stm32f7xx_hal_i2s.c:1405:14
	ldrb.w	r1, [r0, #57]
.Ltmp225:
	.loc	7 1405 8 is_stmt 0      @ ../Drivers/STM32F7xx_HAL_Driver/Src/stm32f7xx_hal_i2s.c:1405:8
	cmp	r1, #5
	bne	.LBB12_3
.Ltmp226:
@ %bb.2:
	@DEBUG_VALUE: I2S_DMATxCplt:hi2s <- $r0
	.loc	7 1407 16 is_stmt 1     @ ../Drivers/STM32F7xx_HAL_Driver/Src/stm32f7xx_hal_i2s.c:1407:16
	ldrh	r1, [r0, #46]
.Ltmp227:
	.loc	7 1407 10 is_stmt 0     @ ../Drivers/STM32F7xx_HAL_Driver/Src/stm32f7xx_hal_i2s.c:1407:10
	cmp	r1, #0
.Ltmp228:
	.loc	7 1417 3 is_stmt 1      @ ../Drivers/STM32F7xx_HAL_Driver/Src/stm32f7xx_hal_i2s.c:1417:3
	it	ne
	bne	HAL_I2S_TxCpltCallback
.Ltmp229:
.LBB12_3:
	@DEBUG_VALUE: I2S_DMATxCplt:hi2s <- $r0
	.loc	7 0 3 is_stmt 0         @ ../Drivers/STM32F7xx_HAL_Driver/Src/stm32f7xx_hal_i2s.c:0:3
	movs	r1, #1
	strb.w	r1, [r0, #57]
.Ltmp230:
.LBB12_4:
	@DEBUG_VALUE: I2S_DMATxCplt:hi2s <- $r0
	.loc	7 1417 3                @ ../Drivers/STM32F7xx_HAL_Driver/Src/stm32f7xx_hal_i2s.c:1417:3
	b	HAL_I2S_TxCpltCallback
.Ltmp231:
.Lfunc_end12:
	.size	I2S_DMATxCplt, .Lfunc_end12-I2S_DMATxCplt
	.cfi_endproc
	.cantunwind
	.fnend
                                        @ -- End function
	.section	.text.I2S_DMAError,"ax",%progbits
	.p2align	1               @ -- Begin function I2S_DMAError
	.type	I2S_DMAError,%function
	.code	16                      @ @I2S_DMAError
	.thumb_func
I2S_DMAError:
.Lfunc_begin13:
	.loc	7 1484 0 is_stmt 1      @ ../Drivers/STM32F7xx_HAL_Driver/Src/stm32f7xx_hal_i2s.c:1484:0
	.fnstart
	.cfi_startproc
@ %bb.0:
	@DEBUG_VALUE: I2S_DMAError:hdma <- $r0
	@DEBUG_VALUE: I2S_DMAError:hdma <- $r0
	.loc	7 1485 80 prologue_end  @ ../Drivers/STM32F7xx_HAL_Driver/Src/stm32f7xx_hal_i2s.c:1485:80
	ldr	r0, [r0, #56]
.Ltmp232:
	@DEBUG_VALUE: I2S_DMAError:hi2s <- $r0
	.loc	7 1488 9                @ ../Drivers/STM32F7xx_HAL_Driver/Src/stm32f7xx_hal_i2s.c:1488:9
	ldr	r1, [r0]
	.loc	7 1488 23 is_stmt 0     @ ../Drivers/STM32F7xx_HAL_Driver/Src/stm32f7xx_hal_i2s.c:1488:23
	ldr	r2, [r1, #4]
	bic	r2, r2, #3
	str	r2, [r1, #4]
	.loc	7 1489 21 is_stmt 1     @ ../Drivers/STM32F7xx_HAL_Driver/Src/stm32f7xx_hal_i2s.c:1489:21
	movs	r1, #0
	strh	r1, [r0, #38]
	.loc	7 1490 21               @ ../Drivers/STM32F7xx_HAL_Driver/Src/stm32f7xx_hal_i2s.c:1490:21
	strh	r1, [r0, #46]
	.loc	7 1492 14               @ ../Drivers/STM32F7xx_HAL_Driver/Src/stm32f7xx_hal_i2s.c:1492:14
	movs	r1, #1
	strb.w	r1, [r0, #57]
	.loc	7 1495 19               @ ../Drivers/STM32F7xx_HAL_Driver/Src/stm32f7xx_hal_i2s.c:1495:19
	ldr	r1, [r0, #60]
	orr	r1, r1, #8
	str	r1, [r0, #60]
	.loc	7 1496 3                @ ../Drivers/STM32F7xx_HAL_Driver/Src/stm32f7xx_hal_i2s.c:1496:3
	b	HAL_I2S_ErrorCallback
.Ltmp233:
.Lfunc_end13:
	.size	I2S_DMAError, .Lfunc_end13-I2S_DMAError
	.cfi_endproc
	.cantunwind
	.fnend
                                        @ -- End function
	.section	.text.HAL_I2S_Receive_DMA,"ax",%progbits
	.hidden	HAL_I2S_Receive_DMA     @ -- Begin function HAL_I2S_Receive_DMA
	.globl	HAL_I2S_Receive_DMA
	.p2align	2
	.type	HAL_I2S_Receive_DMA,%function
	.code	16                      @ @HAL_I2S_Receive_DMA
	.thumb_func
HAL_I2S_Receive_DMA:
.Lfunc_begin14:
	.loc	7 878 0                 @ ../Drivers/STM32F7xx_HAL_Driver/Src/stm32f7xx_hal_i2s.c:878:0
	.fnstart
	.cfi_startproc
@ %bb.0:
	.save	{r4, lr}
	.pad	#8
	push	{r2, r3, r4, lr}
	.cfi_def_cfa_offset 16
	.cfi_offset lr, -4
	.cfi_offset r4, -8
	@DEBUG_VALUE: HAL_I2S_Receive_DMA:hi2s <- $r0
	@DEBUG_VALUE: HAL_I2S_Receive_DMA:Size <- $r2
	mov	r4, r0
	mov	r12, r1
	movs	r0, #1
.Ltmp234:
	@DEBUG_VALUE: HAL_I2S_Receive_DMA:Size <- $r2
	@DEBUG_VALUE: HAL_I2S_Receive_DMA:hi2s <- $r4
	.loc	7 881 22 prologue_end   @ ../Drivers/STM32F7xx_HAL_Driver/Src/stm32f7xx_hal_i2s.c:881:22
	cmp	r1, #0
	beq	.LBB14_12
.Ltmp235:
@ %bb.1:
	@DEBUG_VALUE: HAL_I2S_Receive_DMA:hi2s <- $r4
	@DEBUG_VALUE: HAL_I2S_Receive_DMA:Size <- $r2
	cmp	r2, #0
	beq	.LBB14_12
.Ltmp236:
@ %bb.2:
	@DEBUG_VALUE: HAL_I2S_Receive_DMA:hi2s <- $r4
	@DEBUG_VALUE: HAL_I2S_Receive_DMA:Size <- $r2
	.loc	7 886 12                @ ../Drivers/STM32F7xx_HAL_Driver/Src/stm32f7xx_hal_i2s.c:886:12
	ldrb.w	r0, [r4, #57]
.Ltmp237:
	.loc	7 886 6 is_stmt 0       @ ../Drivers/STM32F7xx_HAL_Driver/Src/stm32f7xx_hal_i2s.c:886:6
	cmp	r0, #1
	bne	.LBB14_7
.Ltmp238:
@ %bb.3:
	@DEBUG_VALUE: HAL_I2S_Receive_DMA:hi2s <- $r4
	@DEBUG_VALUE: HAL_I2S_Receive_DMA:Size <- $r2
	.loc	7 888 22 is_stmt 1      @ ../Drivers/STM32F7xx_HAL_Driver/Src/stm32f7xx_hal_i2s.c:888:22
	str.w	r12, [r4, #40]
.Ltmp239:
	.loc	7 889 16                @ ../Drivers/STM32F7xx_HAL_Driver/Src/stm32f7xx_hal_i2s.c:889:16
	ldr	r1, [r4]
	.loc	7 889 26 is_stmt 0      @ ../Drivers/STM32F7xx_HAL_Driver/Src/stm32f7xx_hal_i2s.c:889:26
	ldr	r0, [r1, #28]
	.loc	7 889 34                @ ../Drivers/STM32F7xx_HAL_Driver/Src/stm32f7xx_hal_i2s.c:889:34
	and	r0, r0, #7
	.loc	7 889 100               @ ../Drivers/STM32F7xx_HAL_Driver/Src/stm32f7xx_hal_i2s.c:889:100
	cmp	r0, #3
	bne	.LBB14_5
.Ltmp240:
@ %bb.4:
	@DEBUG_VALUE: HAL_I2S_Receive_DMA:hi2s <- $r4
	@DEBUG_VALUE: HAL_I2S_Receive_DMA:Size <- $r2
	.loc	7 892 32 is_stmt 1      @ ../Drivers/STM32F7xx_HAL_Driver/Src/stm32f7xx_hal_i2s.c:892:32
	lsls	r2, r2, #1
.Ltmp241:
	.loc	7 0 32 is_stmt 0        @ ../Drivers/STM32F7xx_HAL_Driver/Src/stm32f7xx_hal_i2s.c:0:32
	b	.LBB14_6
.Ltmp242:
.LBB14_5:
	@DEBUG_VALUE: HAL_I2S_Receive_DMA:hi2s <- $r4
	@DEBUG_VALUE: HAL_I2S_Receive_DMA:Size <- $r2
	@DEBUG_VALUE: HAL_I2S_Receive_DMA:Size <- $r2
	.loc	7 890 25 is_stmt 1      @ ../Drivers/STM32F7xx_HAL_Driver/Src/stm32f7xx_hal_i2s.c:890:25
	ldr	r0, [r1, #28]
	.loc	7 890 33 is_stmt 0      @ ../Drivers/STM32F7xx_HAL_Driver/Src/stm32f7xx_hal_i2s.c:890:33
	and	r0, r0, #7
.Ltmp243:
	.loc	7 889 8 is_stmt 1       @ ../Drivers/STM32F7xx_HAL_Driver/Src/stm32f7xx_hal_i2s.c:889:8
	cmp	r0, #5
.Ltmp244:
	.loc	7 892 32                @ ../Drivers/STM32F7xx_HAL_Driver/Src/stm32f7xx_hal_i2s.c:892:32
	it	eq
	lsleq	r2, r2, #1
.Ltmp245:
.LBB14_6:
	@DEBUG_VALUE: HAL_I2S_Receive_DMA:hi2s <- $r4
	.loc	7 0 32 is_stmt 0        @ ../Drivers/STM32F7xx_HAL_Driver/Src/stm32f7xx_hal_i2s.c:0:32
	strh	r2, [r4, #44]
	strh	r2, [r4, #46]
.Ltmp246:
	.loc	7 901 5 is_stmt 1       @ ../Drivers/STM32F7xx_HAL_Driver/Src/stm32f7xx_hal_i2s.c:901:5
	ldrb.w	r0, [r4, #56]
.Ltmp247:
	.loc	7 901 5 is_stmt 0       @ ../Drivers/STM32F7xx_HAL_Driver/Src/stm32f7xx_hal_i2s.c:901:5
	cmp	r0, #1
	bne	.LBB14_8
.Ltmp248:
.LBB14_7:
	@DEBUG_VALUE: HAL_I2S_Receive_DMA:hi2s <- $r4
	.loc	7 0 5                   @ ../Drivers/STM32F7xx_HAL_Driver/Src/stm32f7xx_hal_i2s.c:0:5
	movs	r0, #2
	b	.LBB14_12
.Ltmp249:
.LBB14_8:
	@DEBUG_VALUE: HAL_I2S_Receive_DMA:hi2s <- $r4
	.loc	7 901 5                 @ ../Drivers/STM32F7xx_HAL_Driver/Src/stm32f7xx_hal_i2s.c:901:5
	movs	r0, #1
.Ltmp250:
	.loc	7 910 36 is_stmt 1      @ ../Drivers/STM32F7xx_HAL_Driver/Src/stm32f7xx_hal_i2s.c:910:36
	ldr	r2, __arm_cp.14_0
	.loc	7 907 40                @ ../Drivers/STM32F7xx_HAL_Driver/Src/stm32f7xx_hal_i2s.c:907:40
	ldr	r3, __arm_cp.14_1
.Ltmp251:
	.loc	7 901 5                 @ ../Drivers/STM32F7xx_HAL_Driver/Src/stm32f7xx_hal_i2s.c:901:5
	strb.w	r0, [r4, #56]
	movs	r0, #0
.Ltmp252:
	.loc	7 903 21                @ ../Drivers/STM32F7xx_HAL_Driver/Src/stm32f7xx_hal_i2s.c:903:21
	str	r0, [r4, #60]
	.loc	7 904 17                @ ../Drivers/STM32F7xx_HAL_Driver/Src/stm32f7xx_hal_i2s.c:904:17
	movs	r0, #4
	strb.w	r0, [r4, #57]
	.loc	7 907 11                @ ../Drivers/STM32F7xx_HAL_Driver/Src/stm32f7xx_hal_i2s.c:907:11
	ldr	r0, [r4, #52]
	.loc	7 910 36                @ ../Drivers/STM32F7xx_HAL_Driver/Src/stm32f7xx_hal_i2s.c:910:36
	strd	r2, r3, [r0, #60]
	.loc	7 913 37                @ ../Drivers/STM32F7xx_HAL_Driver/Src/stm32f7xx_hal_i2s.c:913:37
	ldr	r2, __arm_cp.14_2
	str	r2, [r0, #76]
.Ltmp253:
	.loc	7 916 25                @ ../Drivers/STM32F7xx_HAL_Driver/Src/stm32f7xx_hal_i2s.c:916:25
	ldr	r2, [r1, #28]
	.loc	7 916 33 is_stmt 0      @ ../Drivers/STM32F7xx_HAL_Driver/Src/stm32f7xx_hal_i2s.c:916:33
	and	r2, r2, #768
.Ltmp254:
	.loc	7 916 8                 @ ../Drivers/STM32F7xx_HAL_Driver/Src/stm32f7xx_hal_i2s.c:916:8
	cmp.w	r2, #768
	bne	.LBB14_10
.Ltmp255:
@ %bb.9:
	@DEBUG_VALUE: HAL_I2S_Receive_DMA:hi2s <- $r4
	.loc	7 920 7 is_stmt 1       @ ../Drivers/STM32F7xx_HAL_Driver/Src/stm32f7xx_hal_i2s.c:920:7
	ldr	r2, [r1, #12]!
.Ltmp256:
	@DEBUG_VALUE: tmpreg <- $r2
	str	r2, [sp, #4]
	ldr	r2, [r1, #-4]
.Ltmp257:
	@DEBUG_VALUE: tmpreg <- $r2
	str	r2, [sp, #4]
	ldr	r2, [sp, #4]
.Ltmp258:
	@DEBUG_VALUE: tmpreg <- $r2
	.loc	7 0 7 is_stmt 0         @ ../Drivers/STM32F7xx_HAL_Driver/Src/stm32f7xx_hal_i2s.c:0:7
	b	.LBB14_11
.Ltmp259:
.LBB14_10:
	@DEBUG_VALUE: HAL_I2S_Receive_DMA:hi2s <- $r4
	.loc	7 925 63 is_stmt 1      @ ../Drivers/STM32F7xx_HAL_Driver/Src/stm32f7xx_hal_i2s.c:925:63
	adds	r1, #12
.Ltmp260:
.LBB14_11:
	@DEBUG_VALUE: HAL_I2S_Receive_DMA:hi2s <- $r4
	.loc	7 925 84 is_stmt 0      @ ../Drivers/STM32F7xx_HAL_Driver/Src/stm32f7xx_hal_i2s.c:925:84
	ldrh	r3, [r4, #44]
	.loc	7 925 5                 @ ../Drivers/STM32F7xx_HAL_Driver/Src/stm32f7xx_hal_i2s.c:925:5
	mov	r2, r12
	bl	HAL_DMA_Start_IT
.Ltmp261:
	.loc	7 928 15 is_stmt 1      @ ../Drivers/STM32F7xx_HAL_Driver/Src/stm32f7xx_hal_i2s.c:928:15
	ldr	r0, [r4]
	.loc	7 928 25 is_stmt 0      @ ../Drivers/STM32F7xx_HAL_Driver/Src/stm32f7xx_hal_i2s.c:928:25
	ldr	r1, [r0, #28]
.Ltmp262:
	.loc	7 928 8                 @ ../Drivers/STM32F7xx_HAL_Driver/Src/stm32f7xx_hal_i2s.c:928:8
	tst.w	r1, #1024
.Ltmp263:
	.loc	7 931 7 is_stmt 1       @ ../Drivers/STM32F7xx_HAL_Driver/Src/stm32f7xx_hal_i2s.c:931:7
	ittt	eq
	ldreq	r1, [r0, #28]
	orreq	r1, r1, #1024
	streq	r1, [r0, #28]
.Ltmp264:
	.loc	7 935 25                @ ../Drivers/STM32F7xx_HAL_Driver/Src/stm32f7xx_hal_i2s.c:935:25
	ldr	r1, [r0, #4]
	orr	r1, r1, #1
	str	r1, [r0, #4]
	movs	r0, #0
.Ltmp265:
	.loc	7 938 5                 @ ../Drivers/STM32F7xx_HAL_Driver/Src/stm32f7xx_hal_i2s.c:938:5
	strb.w	r0, [r4, #56]
.Ltmp266:
.LBB14_12:
	@DEBUG_VALUE: HAL_I2S_Receive_DMA:hi2s <- $r4
	.loc	7 946 1                 @ ../Drivers/STM32F7xx_HAL_Driver/Src/stm32f7xx_hal_i2s.c:946:1
	uxtb	r0, r0
	add	sp, #8
	pop	{r4, pc}
.Ltmp267:
	.p2align	2
@ %bb.13:
	.loc	7 0 1 is_stmt 0         @ ../Drivers/STM32F7xx_HAL_Driver/Src/stm32f7xx_hal_i2s.c:0:1
__arm_cp.14_0:
	.long	I2S_DMARxCplt
.Lcpi_end6:
	.size	__arm_cp.14_0, .Lcpi_end6-__arm_cp.14_0
__arm_cp.14_1:
	.long	I2S_DMARxHalfCplt
.Lcpi_end7:
	.size	__arm_cp.14_1, .Lcpi_end7-__arm_cp.14_1
__arm_cp.14_2:
	.long	I2S_DMAError
.Lcpi_end8:
	.size	__arm_cp.14_2, .Lcpi_end8-__arm_cp.14_2
.Lfunc_end14:
	.size	HAL_I2S_Receive_DMA, .Lfunc_end14-HAL_I2S_Receive_DMA
	.cfi_endproc
	.cantunwind
	.fnend
                                        @ -- End function
	.section	.text.I2S_DMARxHalfCplt,"ax",%progbits
	.p2align	1               @ -- Begin function I2S_DMARxHalfCplt
	.type	I2S_DMARxHalfCplt,%function
	.code	16                      @ @I2S_DMARxHalfCplt
	.thumb_func
I2S_DMARxHalfCplt:
.Lfunc_begin15:
	.loc	7 1471 0 is_stmt 1      @ ../Drivers/STM32F7xx_HAL_Driver/Src/stm32f7xx_hal_i2s.c:1471:0
	.fnstart
	.cfi_startproc
@ %bb.0:
	@DEBUG_VALUE: I2S_DMARxHalfCplt:hdma <- $r0
	@DEBUG_VALUE: I2S_DMARxHalfCplt:hdma <- $r0
	.loc	7 1472 77 prologue_end  @ ../Drivers/STM32F7xx_HAL_Driver/Src/stm32f7xx_hal_i2s.c:1472:77
	ldr	r0, [r0, #56]
.Ltmp268:
	@DEBUG_VALUE: I2S_DMARxHalfCplt:hi2s <- $r0
	.loc	7 1474 3                @ ../Drivers/STM32F7xx_HAL_Driver/Src/stm32f7xx_hal_i2s.c:1474:3
	b	HAL_I2S_RxHalfCpltCallback
.Ltmp269:
.Lfunc_end15:
	.size	I2S_DMARxHalfCplt, .Lfunc_end15-I2S_DMARxHalfCplt
	.cfi_endproc
	.cantunwind
	.fnend
                                        @ -- End function
	.section	.text.I2S_DMARxCplt,"ax",%progbits
	.p2align	1               @ -- Begin function I2S_DMARxCplt
	.type	I2S_DMARxCplt,%function
	.code	16                      @ @I2S_DMARxCplt
	.thumb_func
I2S_DMARxCplt:
.Lfunc_begin16:
	.loc	7 1440 0                @ ../Drivers/STM32F7xx_HAL_Driver/Src/stm32f7xx_hal_i2s.c:1440:0
	.fnstart
	.cfi_startproc
@ %bb.0:
	@DEBUG_VALUE: I2S_DMARxCplt:hdma <- $r0
	@DEBUG_VALUE: I2S_DMARxCplt:hdma <- $r0
	.loc	7 1443 13 prologue_end  @ ../Drivers/STM32F7xx_HAL_Driver/Src/stm32f7xx_hal_i2s.c:1443:13
	ldr	r1, [r0]
.Ltmp270:
	.loc	7 1441 77               @ ../Drivers/STM32F7xx_HAL_Driver/Src/stm32f7xx_hal_i2s.c:1441:77
	ldr	r0, [r0, #56]
.Ltmp271:
	@DEBUG_VALUE: I2S_DMARxCplt:hi2s <- $r0
	.loc	7 1443 23               @ ../Drivers/STM32F7xx_HAL_Driver/Src/stm32f7xx_hal_i2s.c:1443:23
	ldr	r1, [r1]
.Ltmp272:
	.loc	7 1443 6 is_stmt 0      @ ../Drivers/STM32F7xx_HAL_Driver/Src/stm32f7xx_hal_i2s.c:1443:6
	tst.w	r1, #256
	bne	.LBB16_4
.Ltmp273:
@ %bb.1:
	@DEBUG_VALUE: I2S_DMARxCplt:hi2s <- $r0
	.loc	7 1446 11 is_stmt 1     @ ../Drivers/STM32F7xx_HAL_Driver/Src/stm32f7xx_hal_i2s.c:1446:11
	ldr	r1, [r0]
	.loc	7 1446 25 is_stmt 0     @ ../Drivers/STM32F7xx_HAL_Driver/Src/stm32f7xx_hal_i2s.c:1446:25
	ldr	r2, [r1, #4]
	bic	r2, r2, #1
	str	r2, [r1, #4]
	.loc	7 1448 23 is_stmt 1     @ ../Drivers/STM32F7xx_HAL_Driver/Src/stm32f7xx_hal_i2s.c:1448:23
	movs	r1, #0
	strh	r1, [r0, #46]
.Ltmp274:
	.loc	7 1449 14               @ ../Drivers/STM32F7xx_HAL_Driver/Src/stm32f7xx_hal_i2s.c:1449:14
	ldrb.w	r1, [r0, #57]
.Ltmp275:
	.loc	7 1449 8 is_stmt 0      @ ../Drivers/STM32F7xx_HAL_Driver/Src/stm32f7xx_hal_i2s.c:1449:8
	cmp	r1, #5
	bne	.LBB16_3
.Ltmp276:
@ %bb.2:
	@DEBUG_VALUE: I2S_DMARxCplt:hi2s <- $r0
	.loc	7 1451 16 is_stmt 1     @ ../Drivers/STM32F7xx_HAL_Driver/Src/stm32f7xx_hal_i2s.c:1451:16
	ldrh	r1, [r0, #38]
.Ltmp277:
	.loc	7 1451 10 is_stmt 0     @ ../Drivers/STM32F7xx_HAL_Driver/Src/stm32f7xx_hal_i2s.c:1451:10
	cmp	r1, #0
.Ltmp278:
	.loc	7 1461 3 is_stmt 1      @ ../Drivers/STM32F7xx_HAL_Driver/Src/stm32f7xx_hal_i2s.c:1461:3
	it	ne
	bne	HAL_I2S_RxCpltCallback
.Ltmp279:
.LBB16_3:
	@DEBUG_VALUE: I2S_DMARxCplt:hi2s <- $r0
	.loc	7 0 3 is_stmt 0         @ ../Drivers/STM32F7xx_HAL_Driver/Src/stm32f7xx_hal_i2s.c:0:3
	movs	r1, #1
	strb.w	r1, [r0, #57]
.Ltmp280:
.LBB16_4:
	@DEBUG_VALUE: I2S_DMARxCplt:hi2s <- $r0
	.loc	7 1461 3                @ ../Drivers/STM32F7xx_HAL_Driver/Src/stm32f7xx_hal_i2s.c:1461:3
	b	HAL_I2S_RxCpltCallback
.Ltmp281:
.Lfunc_end16:
	.size	I2S_DMARxCplt, .Lfunc_end16-I2S_DMARxCplt
	.cfi_endproc
	.cantunwind
	.fnend
                                        @ -- End function
	.section	.text.HAL_I2S_DMAPause,"ax",%progbits
	.hidden	HAL_I2S_DMAPause        @ -- Begin function HAL_I2S_DMAPause
	.globl	HAL_I2S_DMAPause
	.p2align	1
	.type	HAL_I2S_DMAPause,%function
	.code	16                      @ @HAL_I2S_DMAPause
	.thumb_func
HAL_I2S_DMAPause:
.Lfunc_begin17:
	.loc	7 955 0 is_stmt 1       @ ../Drivers/STM32F7xx_HAL_Driver/Src/stm32f7xx_hal_i2s.c:955:0
	.fnstart
	.cfi_startproc
@ %bb.0:
	@DEBUG_VALUE: HAL_I2S_DMAPause:hi2s <- $r0
	@DEBUG_VALUE: HAL_I2S_DMAPause:hi2s <- $r0
	.loc	7 957 3 prologue_end    @ ../Drivers/STM32F7xx_HAL_Driver/Src/stm32f7xx_hal_i2s.c:957:3
	ldrb.w	r1, [r0, #56]
.Ltmp282:
	.loc	7 957 3 is_stmt 0       @ ../Drivers/STM32F7xx_HAL_Driver/Src/stm32f7xx_hal_i2s.c:957:3
	cmp	r1, #1
	bne	.LBB17_2
@ %bb.1:
	@DEBUG_VALUE: HAL_I2S_DMAPause:hi2s <- $r0
	.loc	7 0 3                   @ ../Drivers/STM32F7xx_HAL_Driver/Src/stm32f7xx_hal_i2s.c:0:3
	movs	r1, #2
	b	.LBB17_8
.LBB17_2:
	@DEBUG_VALUE: HAL_I2S_DMAPause:hi2s <- $r0
	movs	r1, #1
.Ltmp283:
	.loc	7 957 3                 @ ../Drivers/STM32F7xx_HAL_Driver/Src/stm32f7xx_hal_i2s.c:957:3
	strb.w	r1, [r0, #56]
.Ltmp284:
	.loc	7 959 12 is_stmt 1      @ ../Drivers/STM32F7xx_HAL_Driver/Src/stm32f7xx_hal_i2s.c:959:12
	ldrb.w	r1, [r0, #57]
.Ltmp285:
	.loc	7 959 6 is_stmt 0       @ ../Drivers/STM32F7xx_HAL_Driver/Src/stm32f7xx_hal_i2s.c:959:6
	cmp	r1, #3
	bne	.LBB17_4
.LBB17_3:
	@DEBUG_VALUE: HAL_I2S_DMAPause:hi2s <- $r0
	.loc	7 0 6                   @ ../Drivers/STM32F7xx_HAL_Driver/Src/stm32f7xx_hal_i2s.c:0:6
	mvn	r1, #2
	b	.LBB17_6
.LBB17_4:
	@DEBUG_VALUE: HAL_I2S_DMAPause:hi2s <- $r0
.Ltmp286:
	.loc	7 964 17 is_stmt 1      @ ../Drivers/STM32F7xx_HAL_Driver/Src/stm32f7xx_hal_i2s.c:964:17
	ldrb.w	r1, [r0, #57]
.Ltmp287:
	.loc	7 964 11 is_stmt 0      @ ../Drivers/STM32F7xx_HAL_Driver/Src/stm32f7xx_hal_i2s.c:964:11
	cmp	r1, #4
	bne	.LBB17_9
.Ltmp288:
.LBB17_5:
	@DEBUG_VALUE: HAL_I2S_DMAPause:hi2s <- $r0
	.loc	7 0 11                  @ ../Drivers/STM32F7xx_HAL_Driver/Src/stm32f7xx_hal_i2s.c:0:11
	mvn	r1, #1
.LBB17_6:
	@DEBUG_VALUE: HAL_I2S_DMAPause:hi2s <- $r0
	ldr	r2, [r0]
	ldr	r3, [r2, #4]
	ands	r1, r3
	str	r1, [r2, #4]
.LBB17_7:
	@DEBUG_VALUE: HAL_I2S_DMAPause:hi2s <- $r0
	movs	r1, #0
.Ltmp289:
	.loc	7 984 3 is_stmt 1       @ ../Drivers/STM32F7xx_HAL_Driver/Src/stm32f7xx_hal_i2s.c:984:3
	strb.w	r1, [r0, #56]
.Ltmp290:
.LBB17_8:
	@DEBUG_VALUE: HAL_I2S_DMAPause:hi2s <- $r0
	.loc	7 987 1                 @ ../Drivers/STM32F7xx_HAL_Driver/Src/stm32f7xx_hal_i2s.c:987:1
	uxtb	r0, r1
	bx	lr
.LBB17_9:
	@DEBUG_VALUE: HAL_I2S_DMAPause:hi2s <- $r0
.Ltmp291:
	.loc	7 969 17                @ ../Drivers/STM32F7xx_HAL_Driver/Src/stm32f7xx_hal_i2s.c:969:17
	ldrb.w	r1, [r0, #57]
.Ltmp292:
	.loc	7 969 11 is_stmt 0      @ ../Drivers/STM32F7xx_HAL_Driver/Src/stm32f7xx_hal_i2s.c:969:11
	cmp	r1, #5
	bne	.LBB17_7
@ %bb.10:
	@DEBUG_VALUE: HAL_I2S_DMAPause:hi2s <- $r0
.Ltmp293:
	.loc	7 971 20 is_stmt 1      @ ../Drivers/STM32F7xx_HAL_Driver/Src/stm32f7xx_hal_i2s.c:971:20
	ldr	r1, [r0, #4]
	.loc	7 971 46 is_stmt 0      @ ../Drivers/STM32F7xx_HAL_Driver/Src/stm32f7xx_hal_i2s.c:971:46
	orr	r1, r1, #512
	cmp.w	r1, #512
	beq	.LBB17_3
	b	.LBB17_5
.Ltmp294:
.Lfunc_end17:
	.size	HAL_I2S_DMAPause, .Lfunc_end17-HAL_I2S_DMAPause
	.cfi_endproc
	.cantunwind
	.fnend
                                        @ -- End function
	.section	.text.HAL_I2S_DMAResume,"ax",%progbits
	.hidden	HAL_I2S_DMAResume       @ -- Begin function HAL_I2S_DMAResume
	.globl	HAL_I2S_DMAResume
	.p2align	1
	.type	HAL_I2S_DMAResume,%function
	.code	16                      @ @HAL_I2S_DMAResume
	.thumb_func
HAL_I2S_DMAResume:
.Lfunc_begin18:
	.loc	7 996 0 is_stmt 1       @ ../Drivers/STM32F7xx_HAL_Driver/Src/stm32f7xx_hal_i2s.c:996:0
	.fnstart
	.cfi_startproc
@ %bb.0:
	@DEBUG_VALUE: HAL_I2S_DMAResume:hi2s <- $r0
	@DEBUG_VALUE: HAL_I2S_DMAResume:hi2s <- $r0
	.loc	7 998 3 prologue_end    @ ../Drivers/STM32F7xx_HAL_Driver/Src/stm32f7xx_hal_i2s.c:998:3
	ldrb.w	r1, [r0, #56]
.Ltmp295:
	.loc	7 998 3 is_stmt 0       @ ../Drivers/STM32F7xx_HAL_Driver/Src/stm32f7xx_hal_i2s.c:998:3
	cmp	r1, #1
	bne	.LBB18_2
@ %bb.1:
	@DEBUG_VALUE: HAL_I2S_DMAResume:hi2s <- $r0
	.loc	7 0 3                   @ ../Drivers/STM32F7xx_HAL_Driver/Src/stm32f7xx_hal_i2s.c:0:3
	movs	r1, #2
	b	.LBB18_8
.LBB18_2:
	@DEBUG_VALUE: HAL_I2S_DMAResume:hi2s <- $r0
	movs	r1, #1
.Ltmp296:
	.loc	7 998 3                 @ ../Drivers/STM32F7xx_HAL_Driver/Src/stm32f7xx_hal_i2s.c:998:3
	strb.w	r1, [r0, #56]
.Ltmp297:
	.loc	7 1000 12 is_stmt 1     @ ../Drivers/STM32F7xx_HAL_Driver/Src/stm32f7xx_hal_i2s.c:1000:12
	ldrb.w	r1, [r0, #57]
.Ltmp298:
	.loc	7 1000 6 is_stmt 0      @ ../Drivers/STM32F7xx_HAL_Driver/Src/stm32f7xx_hal_i2s.c:1000:6
	cmp	r1, #3
	bne	.LBB18_4
@ %bb.3:
	@DEBUG_VALUE: HAL_I2S_DMAResume:hi2s <- $r0
.Ltmp299:
	.loc	7 1003 5 is_stmt 1      @ ../Drivers/STM32F7xx_HAL_Driver/Src/stm32f7xx_hal_i2s.c:1003:5
	ldr	r1, [r0]
	movs	r2, #2
	b	.LBB18_6
.Ltmp300:
.LBB18_4:
	@DEBUG_VALUE: HAL_I2S_DMAResume:hi2s <- $r0
	.loc	7 0 5 is_stmt 0         @ ../Drivers/STM32F7xx_HAL_Driver/Src/stm32f7xx_hal_i2s.c:0:5
	ldr	r1, [r0]
.Ltmp301:
	.loc	7 1005 17 is_stmt 1     @ ../Drivers/STM32F7xx_HAL_Driver/Src/stm32f7xx_hal_i2s.c:1005:17
	ldrb.w	r2, [r0, #57]
.Ltmp302:
	.loc	7 1005 11 is_stmt 0     @ ../Drivers/STM32F7xx_HAL_Driver/Src/stm32f7xx_hal_i2s.c:1005:11
	cmp	r2, #4
	bne	.LBB18_7
.Ltmp303:
@ %bb.5:
	@DEBUG_VALUE: HAL_I2S_DMAResume:hi2s <- $r0
	.loc	7 0 11                  @ ../Drivers/STM32F7xx_HAL_Driver/Src/stm32f7xx_hal_i2s.c:0:11
	movs	r2, #1
.LBB18_6:
	@DEBUG_VALUE: HAL_I2S_DMAResume:hi2s <- $r0
	ldr	r3, [r1, #4]
	orrs	r2, r3
	str	r2, [r1, #4]
.LBB18_7:
	@DEBUG_VALUE: HAL_I2S_DMAResume:hi2s <- $r0
.Ltmp304:
	.loc	7 1012 6 is_stmt 1      @ ../Drivers/STM32F7xx_HAL_Driver/Src/stm32f7xx_hal_i2s.c:1012:6
	ldr	r2, [r1, #28]
.Ltmp305:
	.loc	7 1012 6 is_stmt 0      @ ../Drivers/STM32F7xx_HAL_Driver/Src/stm32f7xx_hal_i2s.c:1012:6
	tst.w	r2, #1024
.Ltmp306:
	.loc	7 1015 5 is_stmt 1      @ ../Drivers/STM32F7xx_HAL_Driver/Src/stm32f7xx_hal_i2s.c:1015:5
	ittt	eq
	ldreq	r2, [r1, #28]
	orreq	r2, r2, #1024
	streq	r2, [r1, #28]
	movs	r1, #0
.Ltmp307:
	.loc	7 1019 3                @ ../Drivers/STM32F7xx_HAL_Driver/Src/stm32f7xx_hal_i2s.c:1019:3
	strb.w	r1, [r0, #56]
.Ltmp308:
.LBB18_8:
	@DEBUG_VALUE: HAL_I2S_DMAResume:hi2s <- $r0
	.loc	7 1022 1                @ ../Drivers/STM32F7xx_HAL_Driver/Src/stm32f7xx_hal_i2s.c:1022:1
	uxtb	r0, r1
	bx	lr
.Ltmp309:
.Lfunc_end18:
	.size	HAL_I2S_DMAResume, .Lfunc_end18-HAL_I2S_DMAResume
	.cfi_endproc
	.cantunwind
	.fnend
                                        @ -- End function
	.section	.text.HAL_I2S_DMAStop,"ax",%progbits
	.hidden	HAL_I2S_DMAStop         @ -- Begin function HAL_I2S_DMAStop
	.globl	HAL_I2S_DMAStop
	.p2align	1
	.type	HAL_I2S_DMAStop,%function
	.code	16                      @ @HAL_I2S_DMAStop
	.thumb_func
HAL_I2S_DMAStop:
.Lfunc_begin19:
	.loc	7 1031 0                @ ../Drivers/STM32F7xx_HAL_Driver/Src/stm32f7xx_hal_i2s.c:1031:0
	.fnstart
	.cfi_startproc
@ %bb.0:
	.save	{r4, lr}
	push	{r4, lr}
	.cfi_def_cfa_offset 8
	.cfi_offset lr, -4
	.cfi_offset r4, -8
	@DEBUG_VALUE: HAL_I2S_DMAStop:hi2s <- $r0
	mov	r4, r0
.Ltmp310:
	@DEBUG_VALUE: HAL_I2S_DMAStop:hi2s <- $r4
	.loc	7 1033 3 prologue_end   @ ../Drivers/STM32F7xx_HAL_Driver/Src/stm32f7xx_hal_i2s.c:1033:3
	ldrb.w	r0, [r0, #56]
.Ltmp311:
	.loc	7 1033 3 is_stmt 0      @ ../Drivers/STM32F7xx_HAL_Driver/Src/stm32f7xx_hal_i2s.c:1033:3
	cmp	r0, #1
	bne	.LBB19_2
.Ltmp312:
@ %bb.1:
	@DEBUG_VALUE: HAL_I2S_DMAStop:hi2s <- $r4
	.loc	7 0 3                   @ ../Drivers/STM32F7xx_HAL_Driver/Src/stm32f7xx_hal_i2s.c:0:3
	movs	r0, #2
	b	.LBB19_7
.Ltmp313:
.LBB19_2:
	@DEBUG_VALUE: HAL_I2S_DMAStop:hi2s <- $r4
	.loc	7 1033 3                @ ../Drivers/STM32F7xx_HAL_Driver/Src/stm32f7xx_hal_i2s.c:1033:3
	movs	r0, #1
	strb.w	r0, [r4, #56]
.Ltmp314:
	.loc	7 1036 3 is_stmt 1      @ ../Drivers/STM32F7xx_HAL_Driver/Src/stm32f7xx_hal_i2s.c:1036:3
	ldr	r0, [r4]
	ldr	r1, [r0, #4]
	bic	r1, r1, #2
	str	r1, [r0, #4]
	.loc	7 1037 3                @ ../Drivers/STM32F7xx_HAL_Driver/Src/stm32f7xx_hal_i2s.c:1037:3
	ldr	r1, [r0, #4]
	bic	r1, r1, #1
	str	r1, [r0, #4]
.Ltmp315:
	.loc	7 1040 12               @ ../Drivers/STM32F7xx_HAL_Driver/Src/stm32f7xx_hal_i2s.c:1040:12
	ldr	r0, [r4, #48]
.Ltmp316:
	.loc	7 1040 6 is_stmt 0      @ ../Drivers/STM32F7xx_HAL_Driver/Src/stm32f7xx_hal_i2s.c:1040:6
	cbz	r0, .LBB19_4
.Ltmp317:
@ %bb.3:
	@DEBUG_VALUE: HAL_I2S_DMAStop:hi2s <- $r4
	.loc	7 1043 5 is_stmt 1      @ ../Drivers/STM32F7xx_HAL_Driver/Src/stm32f7xx_hal_i2s.c:1043:5
	ldr	r1, [r0]
	ldr	r2, [r1]
	bic	r2, r2, #1
	str	r2, [r1]
	.loc	7 1044 5                @ ../Drivers/STM32F7xx_HAL_Driver/Src/stm32f7xx_hal_i2s.c:1044:5
	bl	HAL_DMA_Abort
.Ltmp318:
.LBB19_4:
	@DEBUG_VALUE: HAL_I2S_DMAStop:hi2s <- $r4
	.loc	7 1047 12               @ ../Drivers/STM32F7xx_HAL_Driver/Src/stm32f7xx_hal_i2s.c:1047:12
	ldr	r0, [r4, #52]
.Ltmp319:
	.loc	7 1047 6 is_stmt 0      @ ../Drivers/STM32F7xx_HAL_Driver/Src/stm32f7xx_hal_i2s.c:1047:6
	cbz	r0, .LBB19_6
.Ltmp320:
@ %bb.5:
	@DEBUG_VALUE: HAL_I2S_DMAStop:hi2s <- $r4
	.loc	7 1050 5 is_stmt 1      @ ../Drivers/STM32F7xx_HAL_Driver/Src/stm32f7xx_hal_i2s.c:1050:5
	ldr	r1, [r0]
	ldr	r2, [r1]
	bic	r2, r2, #1
	str	r2, [r1]
	.loc	7 1051 5                @ ../Drivers/STM32F7xx_HAL_Driver/Src/stm32f7xx_hal_i2s.c:1051:5
	bl	HAL_DMA_Abort
.Ltmp321:
.LBB19_6:
	@DEBUG_VALUE: HAL_I2S_DMAStop:hi2s <- $r4
	.loc	7 1055 3                @ ../Drivers/STM32F7xx_HAL_Driver/Src/stm32f7xx_hal_i2s.c:1055:3
	ldr	r0, [r4]
	ldr	r1, [r0, #28]
	bic	r1, r1, #1024
	str	r1, [r0, #28]
	.loc	7 1057 15               @ ../Drivers/STM32F7xx_HAL_Driver/Src/stm32f7xx_hal_i2s.c:1057:15
	movs	r0, #1
	strb.w	r0, [r4, #57]
	movs	r0, #0
.Ltmp322:
	.loc	7 1060 3                @ ../Drivers/STM32F7xx_HAL_Driver/Src/stm32f7xx_hal_i2s.c:1060:3
	strb.w	r0, [r4, #56]
.Ltmp323:
.LBB19_7:
	@DEBUG_VALUE: HAL_I2S_DMAStop:hi2s <- $r4
	.loc	7 1063 1                @ ../Drivers/STM32F7xx_HAL_Driver/Src/stm32f7xx_hal_i2s.c:1063:1
	uxtb	r0, r0
	pop	{r4, pc}
.Ltmp324:
.Lfunc_end19:
	.size	HAL_I2S_DMAStop, .Lfunc_end19-HAL_I2S_DMAStop
	.cfi_endproc
	.cantunwind
	.fnend
                                        @ -- End function
	.section	.text.HAL_I2S_IRQHandler,"ax",%progbits
	.hidden	HAL_I2S_IRQHandler      @ -- Begin function HAL_I2S_IRQHandler
	.globl	HAL_I2S_IRQHandler
	.p2align	1
	.type	HAL_I2S_IRQHandler,%function
	.code	16                      @ @HAL_I2S_IRQHandler
	.thumb_func
HAL_I2S_IRQHandler:
.Lfunc_begin20:
	.loc	7 1072 0                @ ../Drivers/STM32F7xx_HAL_Driver/Src/stm32f7xx_hal_i2s.c:1072:0
	.fnstart
	.cfi_startproc
@ %bb.0:
	.save	{r4, lr}
	.pad	#8
	push	{r2, r3, r4, lr}
	.cfi_def_cfa_offset 16
	.cfi_offset lr, -4
	.cfi_offset r4, -8
	@DEBUG_VALUE: HAL_I2S_IRQHandler:hi2s <- $r0
.Ltmp325:
	@DEBUG_VALUE: I2S_Transmit_IT:hi2s <- $r0
	@DEBUG_VALUE: I2S_Receive_IT:hi2s <- $r0
	mov	r4, r0
.Ltmp326:
	@DEBUG_VALUE: I2S_Receive_IT:hi2s <- $r4
	@DEBUG_VALUE: I2S_Transmit_IT:hi2s <- $r4
	@DEBUG_VALUE: HAL_I2S_IRQHandler:hi2s <- $r4
	.loc	7 1073 31 prologue_end  @ ../Drivers/STM32F7xx_HAL_Driver/Src/stm32f7xx_hal_i2s.c:1073:31
	ldr	r0, [r0]
	.loc	7 1073 41 is_stmt 0     @ ../Drivers/STM32F7xx_HAL_Driver/Src/stm32f7xx_hal_i2s.c:1073:41
	ldr	r1, [r0, #8]
.Ltmp327:
	@DEBUG_VALUE: HAL_I2S_IRQHandler:i2ssr <- $r1
	.loc	7 1073 17               @ ../Drivers/STM32F7xx_HAL_Driver/Src/stm32f7xx_hal_i2s.c:1073:17
	str	r1, [sp, #4]
.Ltmp328:
	.loc	7 1075 12 is_stmt 1     @ ../Drivers/STM32F7xx_HAL_Driver/Src/stm32f7xx_hal_i2s.c:1075:12
	ldrb.w	r1, [r4, #57]
.Ltmp329:
	.loc	7 1075 6 is_stmt 0      @ ../Drivers/STM32F7xx_HAL_Driver/Src/stm32f7xx_hal_i2s.c:1075:6
	cmp	r1, #4
	bne	.LBB20_5
.Ltmp330:
@ %bb.1:
	@DEBUG_VALUE: HAL_I2S_IRQHandler:hi2s <- $r4
	.loc	7 1078 10 is_stmt 1     @ ../Drivers/STM32F7xx_HAL_Driver/Src/stm32f7xx_hal_i2s.c:1078:10
	ldr	r1, [sp, #4]
.Ltmp331:
	@DEBUG_VALUE: HAL_I2S_IRQHandler:i2ssr <- $r1
	.loc	7 1078 51 is_stmt 0     @ ../Drivers/STM32F7xx_HAL_Driver/Src/stm32f7xx_hal_i2s.c:1078:51
	tst.w	r1, #1
	.loc	7 1078 55               @ ../Drivers/STM32F7xx_HAL_Driver/Src/stm32f7xx_hal_i2s.c:1078:55
	itt	ne
	ldrne	r1, [r0, #4]
.Ltmp332:
	.loc	7 1078 8                @ ../Drivers/STM32F7xx_HAL_Driver/Src/stm32f7xx_hal_i2s.c:1078:8
	tstne.w	r1, #64
	bne	.LBB20_11
.Ltmp333:
.LBB20_2:
	@DEBUG_VALUE: HAL_I2S_IRQHandler:hi2s <- $r4
	.loc	7 1084 10 is_stmt 1     @ ../Drivers/STM32F7xx_HAL_Driver/Src/stm32f7xx_hal_i2s.c:1084:10
	ldr	r0, [sp, #4]
.Ltmp334:
	@DEBUG_VALUE: HAL_I2S_IRQHandler:i2ssr <- $r0
	.loc	7 1084 49 is_stmt 0     @ ../Drivers/STM32F7xx_HAL_Driver/Src/stm32f7xx_hal_i2s.c:1084:49
	tst.w	r0, #64
	beq	.LBB20_10
.Ltmp335:
@ %bb.3:
	@DEBUG_VALUE: HAL_I2S_IRQHandler:i2ssr <- $r0
	@DEBUG_VALUE: HAL_I2S_IRQHandler:hi2s <- $r4
	.loc	7 1084 53               @ ../Drivers/STM32F7xx_HAL_Driver/Src/stm32f7xx_hal_i2s.c:1084:53
	ldr	r0, [r4]
.Ltmp336:
	ldr	r1, [r0, #4]
.Ltmp337:
	.loc	7 1084 8                @ ../Drivers/STM32F7xx_HAL_Driver/Src/stm32f7xx_hal_i2s.c:1084:8
	tst.w	r1, #32
	beq	.LBB20_10
.Ltmp338:
@ %bb.4:
	@DEBUG_VALUE: HAL_I2S_IRQHandler:hi2s <- $r4
	.loc	7 1087 7 is_stmt 1      @ ../Drivers/STM32F7xx_HAL_Driver/Src/stm32f7xx_hal_i2s.c:1087:7
	ldr	r1, [r0, #4]
	bic	r1, r1, #96
	str	r1, [r0, #4]
	.loc	7 1090 19               @ ../Drivers/STM32F7xx_HAL_Driver/Src/stm32f7xx_hal_i2s.c:1090:19
	movs	r0, #1
	strb.w	r0, [r4, #57]
	.loc	7 1093 23               @ ../Drivers/STM32F7xx_HAL_Driver/Src/stm32f7xx_hal_i2s.c:1093:23
	ldr	r0, [r4, #60]
	orr	r0, r0, #2
	b	.LBB20_9
.Ltmp339:
.LBB20_5:
	@DEBUG_VALUE: HAL_I2S_IRQHandler:hi2s <- $r4
	.loc	7 1097 17               @ ../Drivers/STM32F7xx_HAL_Driver/Src/stm32f7xx_hal_i2s.c:1097:17
	ldrb.w	r1, [r4, #57]
.Ltmp340:
	.loc	7 1097 11 is_stmt 0     @ ../Drivers/STM32F7xx_HAL_Driver/Src/stm32f7xx_hal_i2s.c:1097:11
	cmp	r1, #3
	bne	.LBB20_10
.Ltmp341:
@ %bb.6:
	@DEBUG_VALUE: HAL_I2S_IRQHandler:hi2s <- $r4
	.loc	7 1100 10 is_stmt 1     @ ../Drivers/STM32F7xx_HAL_Driver/Src/stm32f7xx_hal_i2s.c:1100:10
	ldr	r1, [sp, #4]
.Ltmp342:
	@DEBUG_VALUE: HAL_I2S_IRQHandler:i2ssr <- $r1
	.loc	7 1100 49 is_stmt 0     @ ../Drivers/STM32F7xx_HAL_Driver/Src/stm32f7xx_hal_i2s.c:1100:49
	tst.w	r1, #2
	.loc	7 1100 53               @ ../Drivers/STM32F7xx_HAL_Driver/Src/stm32f7xx_hal_i2s.c:1100:53
	itt	ne
	ldrne	r1, [r0, #4]
.Ltmp343:
	.loc	7 1100 8                @ ../Drivers/STM32F7xx_HAL_Driver/Src/stm32f7xx_hal_i2s.c:1100:8
	tstne.w	r1, #128
	bne	.LBB20_13
.Ltmp344:
.LBB20_7:
	@DEBUG_VALUE: HAL_I2S_IRQHandler:hi2s <- $r4
	.loc	7 1106 10 is_stmt 1     @ ../Drivers/STM32F7xx_HAL_Driver/Src/stm32f7xx_hal_i2s.c:1106:10
	ldr	r0, [sp, #4]
.Ltmp345:
	@DEBUG_VALUE: HAL_I2S_IRQHandler:i2ssr <- $r0
	.loc	7 1106 49 is_stmt 0     @ ../Drivers/STM32F7xx_HAL_Driver/Src/stm32f7xx_hal_i2s.c:1106:49
	tst.w	r0, #8
	beq	.LBB20_10
.Ltmp346:
@ %bb.8:
	@DEBUG_VALUE: HAL_I2S_IRQHandler:i2ssr <- $r0
	@DEBUG_VALUE: HAL_I2S_IRQHandler:hi2s <- $r4
	.loc	7 1106 53               @ ../Drivers/STM32F7xx_HAL_Driver/Src/stm32f7xx_hal_i2s.c:1106:53
	ldr	r0, [r4]
.Ltmp347:
	ldr	r1, [r0, #4]
.Ltmp348:
	.loc	7 1106 8                @ ../Drivers/STM32F7xx_HAL_Driver/Src/stm32f7xx_hal_i2s.c:1106:8
	tst.w	r1, #32
.Ltmp349:
	.loc	7 1119 1 is_stmt 1      @ ../Drivers/STM32F7xx_HAL_Driver/Src/stm32f7xx_hal_i2s.c:1119:1
	it	eq
	popeq	{r2, r3, r4, pc}
.Ltmp350:
	.loc	7 1109 7                @ ../Drivers/STM32F7xx_HAL_Driver/Src/stm32f7xx_hal_i2s.c:1109:7
	ldr	r1, [r0, #4]
	bic	r1, r1, #160
	str	r1, [r0, #4]
	.loc	7 1112 19               @ ../Drivers/STM32F7xx_HAL_Driver/Src/stm32f7xx_hal_i2s.c:1112:19
	movs	r0, #1
	strb.w	r0, [r4, #57]
	.loc	7 1115 23               @ ../Drivers/STM32F7xx_HAL_Driver/Src/stm32f7xx_hal_i2s.c:1115:23
	ldr	r0, [r4, #60]
	orr	r0, r0, #4
.Ltmp351:
.LBB20_9:
	.loc	7 0 23 is_stmt 0        @ ../Drivers/STM32F7xx_HAL_Driver/Src/stm32f7xx_hal_i2s.c:0:23
	str	r0, [r4, #60]
	mov	r0, r4
	bl	HAL_I2S_ErrorCallback
.LBB20_10:
	.loc	7 1119 1 is_stmt 1      @ ../Drivers/STM32F7xx_HAL_Driver/Src/stm32f7xx_hal_i2s.c:1119:1
	pop	{r2, r3, r4, pc}
.LBB20_11:
.Ltmp352:
	@DEBUG_VALUE: HAL_I2S_IRQHandler:hi2s <- $r4
	.loc	7 1529 43               @ ../Drivers/STM32F7xx_HAL_Driver/Src/stm32f7xx_hal_i2s.c:1529:43
	ldr	r1, [r0, #12]
	.loc	7 1529 21 is_stmt 0     @ ../Drivers/STM32F7xx_HAL_Driver/Src/stm32f7xx_hal_i2s.c:1529:21
	ldr	r2, [r4, #40]
	adds	r3, r2, #2
	str	r3, [r4, #40]
	.loc	7 1529 25               @ ../Drivers/STM32F7xx_HAL_Driver/Src/stm32f7xx_hal_i2s.c:1529:25
	strh	r1, [r2]
	.loc	7 1530 20 is_stmt 1     @ ../Drivers/STM32F7xx_HAL_Driver/Src/stm32f7xx_hal_i2s.c:1530:20
	ldrh	r1, [r4, #46]
	subs	r1, #1
	strh	r1, [r4, #46]
.Ltmp353:
	.loc	7 1532 12               @ ../Drivers/STM32F7xx_HAL_Driver/Src/stm32f7xx_hal_i2s.c:1532:12
	ldrh	r1, [r4, #46]
.Ltmp354:
	.loc	7 1532 6 is_stmt 0      @ ../Drivers/STM32F7xx_HAL_Driver/Src/stm32f7xx_hal_i2s.c:1532:6
	cmp	r1, #0
	bne	.LBB20_2
.Ltmp355:
@ %bb.12:
	@DEBUG_VALUE: HAL_I2S_IRQHandler:hi2s <- $r4
	.loc	7 1535 5 is_stmt 1      @ ../Drivers/STM32F7xx_HAL_Driver/Src/stm32f7xx_hal_i2s.c:1535:5
	ldr	r1, [r0, #4]
	bic	r1, r1, #96
	str	r1, [r0, #4]
	.loc	7 1537 17               @ ../Drivers/STM32F7xx_HAL_Driver/Src/stm32f7xx_hal_i2s.c:1537:17
	movs	r0, #1
	strb.w	r0, [r4, #57]
	.loc	7 1538 5                @ ../Drivers/STM32F7xx_HAL_Driver/Src/stm32f7xx_hal_i2s.c:1538:5
	mov	r0, r4
	bl	HAL_I2S_RxCpltCallback
	b	.LBB20_2
.Ltmp356:
.LBB20_13:
	@DEBUG_VALUE: HAL_I2S_IRQHandler:hi2s <- $r4
	.loc	7 1508 42               @ ../Drivers/STM32F7xx_HAL_Driver/Src/stm32f7xx_hal_i2s.c:1508:42
	ldr	r1, [r4, #32]
	adds	r2, r1, #2
	str	r2, [r4, #32]
	.loc	7 1508 24 is_stmt 0     @ ../Drivers/STM32F7xx_HAL_Driver/Src/stm32f7xx_hal_i2s.c:1508:24
	ldrh	r1, [r1]
	.loc	7 1508 22               @ ../Drivers/STM32F7xx_HAL_Driver/Src/stm32f7xx_hal_i2s.c:1508:22
	str	r1, [r0, #12]
	.loc	7 1509 20 is_stmt 1     @ ../Drivers/STM32F7xx_HAL_Driver/Src/stm32f7xx_hal_i2s.c:1509:20
	ldrh	r1, [r4, #38]
	subs	r1, #1
	strh	r1, [r4, #38]
.Ltmp357:
	.loc	7 1511 12               @ ../Drivers/STM32F7xx_HAL_Driver/Src/stm32f7xx_hal_i2s.c:1511:12
	ldrh	r1, [r4, #38]
.Ltmp358:
	.loc	7 1511 6 is_stmt 0      @ ../Drivers/STM32F7xx_HAL_Driver/Src/stm32f7xx_hal_i2s.c:1511:6
	cmp	r1, #0
	bne	.LBB20_7
.Ltmp359:
@ %bb.14:
	@DEBUG_VALUE: HAL_I2S_IRQHandler:hi2s <- $r4
	.loc	7 1514 5 is_stmt 1      @ ../Drivers/STM32F7xx_HAL_Driver/Src/stm32f7xx_hal_i2s.c:1514:5
	ldr	r1, [r0, #4]
	bic	r1, r1, #160
	str	r1, [r0, #4]
	.loc	7 1516 17               @ ../Drivers/STM32F7xx_HAL_Driver/Src/stm32f7xx_hal_i2s.c:1516:17
	movs	r0, #1
	strb.w	r0, [r4, #57]
	.loc	7 1517 5                @ ../Drivers/STM32F7xx_HAL_Driver/Src/stm32f7xx_hal_i2s.c:1517:5
	mov	r0, r4
	bl	HAL_I2S_TxCpltCallback
	b	.LBB20_7
.Ltmp360:
.Lfunc_end20:
	.size	HAL_I2S_IRQHandler, .Lfunc_end20-HAL_I2S_IRQHandler
	.cfi_endproc
	.cantunwind
	.fnend
                                        @ -- End function
	.section	.text.HAL_I2S_TxHalfCpltCallback,"ax",%progbits
	.hidden	HAL_I2S_TxHalfCpltCallback @ -- Begin function HAL_I2S_TxHalfCpltCallback
	.weak	HAL_I2S_TxHalfCpltCallback
	.p2align	1
	.type	HAL_I2S_TxHalfCpltCallback,%function
	.code	16                      @ @HAL_I2S_TxHalfCpltCallback
	.thumb_func
HAL_I2S_TxHalfCpltCallback:
.Lfunc_begin21:
	.loc	7 1208 0                @ ../Drivers/STM32F7xx_HAL_Driver/Src/stm32f7xx_hal_i2s.c:1208:0
	.fnstart
	.cfi_startproc
@ %bb.0:
	@DEBUG_VALUE: HAL_I2S_TxHalfCpltCallback:hi2s <- $r0
	.loc	7 1215 1 prologue_end   @ ../Drivers/STM32F7xx_HAL_Driver/Src/stm32f7xx_hal_i2s.c:1215:1
	bx	lr
.Ltmp361:
.Lfunc_end21:
	.size	HAL_I2S_TxHalfCpltCallback, .Lfunc_end21-HAL_I2S_TxHalfCpltCallback
	.cfi_endproc
	.cantunwind
	.fnend
                                        @ -- End function
	.section	.text.HAL_I2S_TxCpltCallback,"ax",%progbits
	.hidden	HAL_I2S_TxCpltCallback  @ -- Begin function HAL_I2S_TxCpltCallback
	.weak	HAL_I2S_TxCpltCallback
	.p2align	1
	.type	HAL_I2S_TxCpltCallback,%function
	.code	16                      @ @HAL_I2S_TxCpltCallback
	.thumb_func
HAL_I2S_TxCpltCallback:
.Lfunc_begin22:
	.loc	7 1224 0                @ ../Drivers/STM32F7xx_HAL_Driver/Src/stm32f7xx_hal_i2s.c:1224:0
	.fnstart
	.cfi_startproc
@ %bb.0:
	@DEBUG_VALUE: HAL_I2S_TxCpltCallback:hi2s <- $r0
	.loc	7 1231 1 prologue_end   @ ../Drivers/STM32F7xx_HAL_Driver/Src/stm32f7xx_hal_i2s.c:1231:1
	bx	lr
.Ltmp362:
.Lfunc_end22:
	.size	HAL_I2S_TxCpltCallback, .Lfunc_end22-HAL_I2S_TxCpltCallback
	.cfi_endproc
	.cantunwind
	.fnend
                                        @ -- End function
	.section	.text.HAL_I2S_RxHalfCpltCallback,"ax",%progbits
	.hidden	HAL_I2S_RxHalfCpltCallback @ -- Begin function HAL_I2S_RxHalfCpltCallback
	.weak	HAL_I2S_RxHalfCpltCallback
	.p2align	1
	.type	HAL_I2S_RxHalfCpltCallback,%function
	.code	16                      @ @HAL_I2S_RxHalfCpltCallback
	.thumb_func
HAL_I2S_RxHalfCpltCallback:
.Lfunc_begin23:
	.loc	7 1240 0                @ ../Drivers/STM32F7xx_HAL_Driver/Src/stm32f7xx_hal_i2s.c:1240:0
	.fnstart
	.cfi_startproc
@ %bb.0:
	@DEBUG_VALUE: HAL_I2S_RxHalfCpltCallback:hi2s <- $r0
	.loc	7 1247 1 prologue_end   @ ../Drivers/STM32F7xx_HAL_Driver/Src/stm32f7xx_hal_i2s.c:1247:1
	bx	lr
.Ltmp363:
.Lfunc_end23:
	.size	HAL_I2S_RxHalfCpltCallback, .Lfunc_end23-HAL_I2S_RxHalfCpltCallback
	.cfi_endproc
	.cantunwind
	.fnend
                                        @ -- End function
	.section	.text.HAL_I2S_RxCpltCallback,"ax",%progbits
	.hidden	HAL_I2S_RxCpltCallback  @ -- Begin function HAL_I2S_RxCpltCallback
	.weak	HAL_I2S_RxCpltCallback
	.p2align	1
	.type	HAL_I2S_RxCpltCallback,%function
	.code	16                      @ @HAL_I2S_RxCpltCallback
	.thumb_func
HAL_I2S_RxCpltCallback:
.Lfunc_begin24:
	.loc	7 1256 0                @ ../Drivers/STM32F7xx_HAL_Driver/Src/stm32f7xx_hal_i2s.c:1256:0
	.fnstart
	.cfi_startproc
@ %bb.0:
	@DEBUG_VALUE: HAL_I2S_RxCpltCallback:hi2s <- $r0
	.loc	7 1263 1 prologue_end   @ ../Drivers/STM32F7xx_HAL_Driver/Src/stm32f7xx_hal_i2s.c:1263:1
	bx	lr
.Ltmp364:
.Lfunc_end24:
	.size	HAL_I2S_RxCpltCallback, .Lfunc_end24-HAL_I2S_RxCpltCallback
	.cfi_endproc
	.cantunwind
	.fnend
                                        @ -- End function
	.section	.text.HAL_I2S_GetState,"ax",%progbits
	.hidden	HAL_I2S_GetState        @ -- Begin function HAL_I2S_GetState
	.globl	HAL_I2S_GetState
	.p2align	1
	.type	HAL_I2S_GetState,%function
	.code	16                      @ @HAL_I2S_GetState
	.thumb_func
HAL_I2S_GetState:
.Lfunc_begin25:
	.loc	7 1307 0                @ ../Drivers/STM32F7xx_HAL_Driver/Src/stm32f7xx_hal_i2s.c:1307:0
	.fnstart
	.cfi_startproc
@ %bb.0:
	@DEBUG_VALUE: HAL_I2S_GetState:hi2s <- $r0
	@DEBUG_VALUE: HAL_I2S_GetState:hi2s <- $r0
	.loc	7 1308 3 prologue_end   @ ../Drivers/STM32F7xx_HAL_Driver/Src/stm32f7xx_hal_i2s.c:1308:3
	ldrb.w	r0, [r0, #57]
	bx	lr
.Ltmp365:
.Lfunc_end25:
	.size	HAL_I2S_GetState, .Lfunc_end25-HAL_I2S_GetState
	.cfi_endproc
	.cantunwind
	.fnend
                                        @ -- End function
	.section	.text.HAL_I2S_GetError,"ax",%progbits
	.hidden	HAL_I2S_GetError        @ -- Begin function HAL_I2S_GetError
	.globl	HAL_I2S_GetError
	.p2align	1
	.type	HAL_I2S_GetError,%function
	.code	16                      @ @HAL_I2S_GetError
	.thumb_func
HAL_I2S_GetError:
.Lfunc_begin26:
	.loc	7 1318 0                @ ../Drivers/STM32F7xx_HAL_Driver/Src/stm32f7xx_hal_i2s.c:1318:0
	.fnstart
	.cfi_startproc
@ %bb.0:
	@DEBUG_VALUE: HAL_I2S_GetError:hi2s <- $r0
	@DEBUG_VALUE: HAL_I2S_GetError:hi2s <- $r0
	.loc	7 1319 16 prologue_end  @ ../Drivers/STM32F7xx_HAL_Driver/Src/stm32f7xx_hal_i2s.c:1319:16
	ldr	r0, [r0, #60]
.Ltmp366:
	.loc	7 1319 3 is_stmt 0      @ ../Drivers/STM32F7xx_HAL_Driver/Src/stm32f7xx_hal_i2s.c:1319:3
	bx	lr
.Ltmp367:
.Lfunc_end26:
	.size	HAL_I2S_GetError, .Lfunc_end26-HAL_I2S_GetError
	.cfi_endproc
	.cantunwind
	.fnend
                                        @ -- End function
	.section	".note.GNU-stack","",%progbits
	.eabi_attribute	30, 4	@ Tag_ABI_optimization_goals
	.ARM_attribute	16, 1	@ Tag_AV_eba