	.text
	.syntax unified
	.eabi_attribute	67, "2.09"	@ Tag_conformance
	.cpu	cortex-m7
	.eabi_attribute	6, 13	@ Tag_CPU_arch
	.eabi_attribute	7, 77	@ Tag_CPU_arch_profile
	.eabi_attribute	8, 0	@ Tag_ARM_ISA_use
	.eabi_attribute	9, 2	@ Tag_THUMB_ISA_use
	.fpu	fpv5-sp-d16
	.eabi_attribute	27, 1	@ Tag_ABI_HardFP_use
	.eabi_attribute	36, 1	@ Tag_FP_HP_extension
	.eabi_attribute	34, 1	@ Tag_CPU_unaligned_access
	.eabi_attribute	17, 1	@ Tag_ABI_PCS_GOT_use
	.eabi_attribute	20, 2	@ Tag_ABI_FP_denormal
	.eabi_attribute	21, 0	@ Tag_ABI_FP_exceptions
	.eabi_attribute	23, 1	@ Tag_ABI_FP_number_model
	.eabi_attribute	24, 1	@ Tag_ABI_align_needed
	.eabi_attribute	25, 1	@ Tag_ABI_align_preserved
	.eabi_attribute	28, 1	@ Tag_ABI_VFP_args
	.eabi_attribute	38, 1	@ Tag_ABI_FP_16bit_format
	.eabi_attribute	18, 2	@ Tag_ABI_PCS_wchar_t
	.eabi_attribute	26, 1	@ Tag_ABI_enum_size
	.eabi_attribute	14, 0	@ Tag_ABI_PCS_R9_use
	.file	"stm32f7xx_hal_rtc_ex.c"
	.file	1 "../Drivers/STM32F7xx_HAL_Driver/Inc" "stm32f7xx_hal_def.h"
	.file	2 "../Drivers/STM32F7xx_HAL_Driver/Inc" "stm32f7xx_hal_rtc.h"
	.file	3 "../Drivers/CMSIS/Device/ST/STM32F7xx/Include" "stm32f7xx.h"
	.file	4 "C:\\Keil\\ARM\\ARMCLANG\\Bin\\..\\include" "stdint.h"
	.file	5 "../Drivers/CMSIS/Device/ST/STM32F7xx/Include" "stm32f746xx.h"
	.section	.text.HAL_RTCEx_SetTimeStamp,"ax",%progbits
	.hidden	HAL_RTCEx_SetTimeStamp  @ -- Begin function HAL_RTCEx_SetTimeStamp
	.globl	HAL_RTCEx_SetTimeStamp
	.p2align	1
	.type	HAL_RTCEx_SetTimeStamp,%function
	.code	16                      @ @HAL_RTCEx_SetTimeStamp
	.thumb_func
HAL_RTCEx_SetTimeStamp:
.Lfunc_begin0:
	.file	6 "../Drivers/STM32F7xx_HAL_Driver/Src" "stm32f7xx_hal_rtc_ex.c"
	.loc	6 158 0                 @ ../Drivers/STM32F7xx_HAL_Driver/Src/stm32f7xx_hal_rtc_ex.c:158:0
	.fnstart
	.cfi_sections .debug_frame
	.cfi_startproc
@ %bb.0:
	@DEBUG_VALUE: HAL_RTCEx_SetTimeStamp:hrtc <- $r0
	@DEBUG_VALUE: HAL_RTCEx_SetTimeStamp:hrtc <- $r0
	@DEBUG_VALUE: HAL_RTCEx_SetTimeStamp:TimeStampEdge <- $r1
	@DEBUG_VALUE: HAL_RTCEx_SetTimeStamp:TimeStampEdge <- $r1
	@DEBUG_VALUE: HAL_RTCEx_SetTimeStamp:RTC_TimeStampPin <- $r2
	@DEBUG_VALUE: HAL_RTCEx_SetTimeStamp:RTC_TimeStampPin <- $r2
	@DEBUG_VALUE: HAL_RTCEx_SetTimeStamp:tmpreg <- 0
	.loc	6 166 3 prologue_end    @ ../Drivers/STM32F7xx_HAL_Driver/Src/stm32f7xx_hal_rtc_ex.c:166:3
	ldrb.w	r12, [r0, #28]
	movs	r3, #2
.Ltmp0:
	.loc	6 166 3 is_stmt 0       @ ../Drivers/STM32F7xx_HAL_Driver/Src/stm32f7xx_hal_rtc_ex.c:166:3
	cmp.w	r12, #1
	beq	.LBB0_2
.Ltmp1:
@ %bb.1:
	@DEBUG_VALUE: HAL_RTCEx_SetTimeStamp:RTC_TimeStampPin <- $r2
	@DEBUG_VALUE: HAL_RTCEx_SetTimeStamp:TimeStampEdge <- $r1
	@DEBUG_VALUE: HAL_RTCEx_SetTimeStamp:hrtc <- $r0
	.loc	6 0 3                   @ ../Drivers/STM32F7xx_HAL_Driver/Src/stm32f7xx_hal_rtc_ex.c:0:3
	.save	{r7, lr}
	push	{r7, lr}
	.cfi_def_cfa_offset 8
	.cfi_offset lr, -4
	.cfi_offset r7, -8
	.loc	6 168 15 is_stmt 1      @ ../Drivers/STM32F7xx_HAL_Driver/Src/stm32f7xx_hal_rtc_ex.c:168:15
	strb	r3, [r0, #29]
.Ltmp2:
	.loc	6 176 3                 @ ../Drivers/STM32F7xx_HAL_Driver/Src/stm32f7xx_hal_rtc_ex.c:176:3
	movs	r3, #202
.Ltmp3:
	.loc	6 171 29                @ ../Drivers/STM32F7xx_HAL_Driver/Src/stm32f7xx_hal_rtc_ex.c:171:29
	ldr.w	lr, [r0]
	.loc	6 171 39 is_stmt 0      @ ../Drivers/STM32F7xx_HAL_Driver/Src/stm32f7xx_hal_rtc_ex.c:171:39
	ldr.w	r12, [lr, #8]
.Ltmp4:
	.loc	6 176 3 is_stmt 1       @ ../Drivers/STM32F7xx_HAL_Driver/Src/stm32f7xx_hal_rtc_ex.c:176:3
	str.w	r3, [lr, #36]
	movs	r3, #83
	str.w	r3, [lr, #36]
.Ltmp5:
	.loc	6 178 22                @ ../Drivers/STM32F7xx_HAL_Driver/Src/stm32f7xx_hal_rtc_ex.c:178:22
	ldr.w	r3, [lr, #76]
	bic	r3, r3, #6
	str.w	r3, [lr, #76]
	.loc	6 179 22                @ ../Drivers/STM32F7xx_HAL_Driver/Src/stm32f7xx_hal_rtc_ex.c:179:22
	ldr.w	r3, [lr, #76]
	orrs	r2, r3
.Ltmp6:
	.loc	6 0 22 is_stmt 0        @ ../Drivers/STM32F7xx_HAL_Driver/Src/stm32f7xx_hal_rtc_ex.c:0:22
	movs	r3, #0
	.loc	6 179 22                @ ../Drivers/STM32F7xx_HAL_Driver/Src/stm32f7xx_hal_rtc_ex.c:179:22
	str.w	r2, [lr, #76]
	.loc	6 171 42 is_stmt 1      @ ../Drivers/STM32F7xx_HAL_Driver/Src/stm32f7xx_hal_rtc_ex.c:171:42
	movw	r2, #2056
	bic.w	r2, r12, r2
.Ltmp7:
	@DEBUG_VALUE: HAL_RTCEx_SetTimeStamp:tmpreg <- $r2
	.loc	6 173 9                 @ ../Drivers/STM32F7xx_HAL_Driver/Src/stm32f7xx_hal_rtc_ex.c:173:9
	orrs	r1, r2
.Ltmp8:
	@DEBUG_VALUE: HAL_RTCEx_SetTimeStamp:tmpreg <- $r1
	.loc	6 182 22                @ ../Drivers/STM32F7xx_HAL_Driver/Src/stm32f7xx_hal_rtc_ex.c:182:22
	str.w	r1, [lr, #8]
	.loc	6 184 3                 @ ../Drivers/STM32F7xx_HAL_Driver/Src/stm32f7xx_hal_rtc_ex.c:184:3
	ldr.w	r1, [lr, #8]
.Ltmp9:
	orr	r1, r1, #2048
	str.w	r1, [lr, #8]
.Ltmp10:
	.loc	6 187 3                 @ ../Drivers/STM32F7xx_HAL_Driver/Src/stm32f7xx_hal_rtc_ex.c:187:3
	movs	r1, #255
	str.w	r1, [lr, #36]
.Ltmp11:
	.loc	6 190 15                @ ../Drivers/STM32F7xx_HAL_Driver/Src/stm32f7xx_hal_rtc_ex.c:190:15
	movs	r1, #1
.Ltmp12:
	.loc	6 193 3                 @ ../Drivers/STM32F7xx_HAL_Driver/Src/stm32f7xx_hal_rtc_ex.c:193:3
	strb	r3, [r0, #28]
.Ltmp13:
	.loc	6 190 15                @ ../Drivers/STM32F7xx_HAL_Driver/Src/stm32f7xx_hal_rtc_ex.c:190:15
	strb	r1, [r0, #29]
	pop.w	{r7, lr}
.LBB0_2:
	@DEBUG_VALUE: HAL_RTCEx_SetTimeStamp:hrtc <- $r0
	.loc	6 196 1                 @ ../Drivers/STM32F7xx_HAL_Driver/Src/stm32f7xx_hal_rtc_ex.c:196:1
	uxtb	r0, r3
	bx	lr
.Ltmp14:
.Lfunc_end0:
	.size	HAL_RTCEx_SetTimeStamp, .Lfunc_end0-HAL_RTCEx_SetTimeStamp
	.cfi_endproc
	.cantunwind
	.fnend
                                        @ -- End function
	.section	.text.HAL_RTCEx_SetTimeStamp_IT,"ax",%progbits
	.hidden	HAL_RTCEx_SetTimeStamp_IT @ -- Begin function HAL_RTCEx_SetTimeStamp_IT
	.globl	HAL_RTCEx_SetTimeStamp_IT
	.p2align	2
	.type	HAL_RTCEx_SetTimeStamp_IT,%function
	.code	16                      @ @HAL_RTCEx_SetTimeStamp_IT
	.thumb_func
HAL_RTCEx_SetTimeStamp_IT:
.Lfunc_begin1:
	.loc	6 218 0                 @ ../Drivers/STM32F7xx_HAL_Driver/Src/stm32f7xx_hal_rtc_ex.c:218:0
	.fnstart
	.cfi_startproc
@ %bb.0:
	@DEBUG_VALUE: HAL_RTCEx_SetTimeStamp_IT:hrtc <- $r0
	@DEBUG_VALUE: HAL_RTCEx_SetTimeStamp_IT:hrtc <- $r0
	@DEBUG_VALUE: HAL_RTCEx_SetTimeStamp_IT:TimeStampEdge <- $r1
	@DEBUG_VALUE: HAL_RTCEx_SetTimeStamp_IT:TimeStampEdge <- $r1
	@DEBUG_VALUE: HAL_RTCEx_SetTimeStamp_IT:RTC_TimeStampPin <- $r2
	@DEBUG_VALUE: HAL_RTCEx_SetTimeStamp_IT:RTC_TimeStampPin <- $r2
	@DEBUG_VALUE: HAL_RTCEx_SetTimeStamp_IT:tmpreg <- 0
	.loc	6 226 3 prologue_end    @ ../Drivers/STM32F7xx_HAL_Driver/Src/stm32f7xx_hal_rtc_ex.c:226:3
	ldrb.w	r12, [r0, #28]
	movs	r3, #2
.Ltmp15:
	.loc	6 226 3 is_stmt 0       @ ../Drivers/STM32F7xx_HAL_Driver/Src/stm32f7xx_hal_rtc_ex.c:226:3
	cmp.w	r12, #1
	beq	.LBB1_2
.Ltmp16:
@ %bb.1:
	@DEBUG_VALUE: HAL_RTCEx_SetTimeStamp_IT:RTC_TimeStampPin <- $r2
	@DEBUG_VALUE: HAL_RTCEx_SetTimeStamp_IT:TimeStampEdge <- $r1
	@DEBUG_VALUE: HAL_RTCEx_SetTimeStamp_IT:hrtc <- $r0
	.loc	6 0 3                   @ ../Drivers/STM32F7xx_HAL_Driver/Src/stm32f7xx_hal_rtc_ex.c:0:3
	.save	{r7, lr}
	push	{r7, lr}
	.cfi_def_cfa_offset 8
	.cfi_offset lr, -4
	.cfi_offset r7, -8
	.loc	6 228 15 is_stmt 1      @ ../Drivers/STM32F7xx_HAL_Driver/Src/stm32f7xx_hal_rtc_ex.c:228:15
	strb	r3, [r0, #29]
.Ltmp17:
	.loc	6 236 3                 @ ../Drivers/STM32F7xx_HAL_Driver/Src/stm32f7xx_hal_rtc_ex.c:236:3
	movs	r3, #202
.Ltmp18:
	.loc	6 231 29                @ ../Drivers/STM32F7xx_HAL_Driver/Src/stm32f7xx_hal_rtc_ex.c:231:29
	ldr.w	lr, [r0]
	.loc	6 231 39 is_stmt 0      @ ../Drivers/STM32F7xx_HAL_Driver/Src/stm32f7xx_hal_rtc_ex.c:231:39
	ldr.w	r12, [lr, #8]
.Ltmp19:
	.loc	6 236 3 is_stmt 1       @ ../Drivers/STM32F7xx_HAL_Driver/Src/stm32f7xx_hal_rtc_ex.c:236:3
	str.w	r3, [lr, #36]
	movs	r3, #83
	str.w	r3, [lr, #36]
.Ltmp20:
	.loc	6 231 42                @ ../Drivers/STM32F7xx_HAL_Driver/Src/stm32f7xx_hal_rtc_ex.c:231:42
	movw	r3, #2056
	bic.w	r3, r12, r3
.Ltmp21:
	@DEBUG_VALUE: HAL_RTCEx_SetTimeStamp_IT:tmpreg <- $r3
	.loc	6 233 10                @ ../Drivers/STM32F7xx_HAL_Driver/Src/stm32f7xx_hal_rtc_ex.c:233:10
	orrs	r1, r3
.Ltmp22:
	@DEBUG_VALUE: HAL_RTCEx_SetTimeStamp_IT:tmpreg <- $r1
	.loc	6 0 10 is_stmt 0        @ ../Drivers/STM32F7xx_HAL_Driver/Src/stm32f7xx_hal_rtc_ex.c:0:10
	movs	r3, #0
	.loc	6 239 22 is_stmt 1      @ ../Drivers/STM32F7xx_HAL_Driver/Src/stm32f7xx_hal_rtc_ex.c:239:22
	str.w	r1, [lr, #8]
	.loc	6 241 22                @ ../Drivers/STM32F7xx_HAL_Driver/Src/stm32f7xx_hal_rtc_ex.c:241:22
	ldr.w	r1, [lr, #76]
.Ltmp23:
	bic	r1, r1, #6
	str.w	r1, [lr, #76]
	.loc	6 242 22                @ ../Drivers/STM32F7xx_HAL_Driver/Src/stm32f7xx_hal_rtc_ex.c:242:22
	ldr.w	r1, [lr, #76]
	orrs	r1, r2
	str.w	r1, [lr, #76]
	.loc	6 245 3                 @ ../Drivers/STM32F7xx_HAL_Driver/Src/stm32f7xx_hal_rtc_ex.c:245:3
	ldr.w	r1, [lr, #12]
	and	r1, r1, #128
	orn	r1, r1, #2176
	str.w	r1, [lr, #12]
	.loc	6 247 3                 @ ../Drivers/STM32F7xx_HAL_Driver/Src/stm32f7xx_hal_rtc_ex.c:247:3
	ldr.w	r1, [lr, #8]
	orr	r1, r1, #2048
	str.w	r1, [lr, #8]
	.loc	6 250 3                 @ ../Drivers/STM32F7xx_HAL_Driver/Src/stm32f7xx_hal_rtc_ex.c:250:3
	ldr.w	r1, [lr, #8]
	orr	r1, r1, #32768
	str.w	r1, [lr, #8]
	ldr	r1, __arm_cp.1_0
	.loc	6 253 3                 @ ../Drivers/STM32F7xx_HAL_Driver/Src/stm32f7xx_hal_rtc_ex.c:253:3
	ldr	r2, [r1]
.Ltmp24:
	orr	r2, r2, #2097152
	str	r2, [r1]
	.loc	6 255 14                @ ../Drivers/STM32F7xx_HAL_Driver/Src/stm32f7xx_hal_rtc_ex.c:255:14
	ldr	r2, [r1, #8]
	orr	r2, r2, #2097152
	str	r2, [r1, #8]
.Ltmp25:
	.loc	6 258 3                 @ ../Drivers/STM32F7xx_HAL_Driver/Src/stm32f7xx_hal_rtc_ex.c:258:3
	movs	r1, #255
	str.w	r1, [lr, #36]
.Ltmp26:
	.loc	6 260 15                @ ../Drivers/STM32F7xx_HAL_Driver/Src/stm32f7xx_hal_rtc_ex.c:260:15
	movs	r1, #1
.Ltmp27:
	.loc	6 263 3                 @ ../Drivers/STM32F7xx_HAL_Driver/Src/stm32f7xx_hal_rtc_ex.c:263:3
	strb	r3, [r0, #28]
.Ltmp28:
	.loc	6 260 15                @ ../Drivers/STM32F7xx_HAL_Driver/Src/stm32f7xx_hal_rtc_ex.c:260:15
	strb	r1, [r0, #29]
	pop.w	{r7, lr}
.LBB1_2:
	@DEBUG_VALUE: HAL_RTCEx_SetTimeStamp_IT:hrtc <- $r0
	.loc	6 266 1                 @ ../Drivers/STM32F7xx_HAL_Driver/Src/stm32f7xx_hal_rtc_ex.c:266:1
	uxtb	r0, r3
	bx	lr
.Ltmp29:
	.p2align	2
@ %bb.3:
	.loc	6 0 1 is_stmt 0         @ ../Drivers/STM32F7xx_HAL_Driver/Src/stm32f7xx_hal_rtc_ex.c:0:1
__arm_cp.1_0:
	.long	1073822720              @ 0x40013c00
.Lcpi_end0:
	.size	__arm_cp.1_0, .Lcpi_end0-__arm_cp.1_0
.Lfunc_end1:
	.size	HAL_RTCEx_SetTimeStamp_IT, .Lfunc_end1-HAL_RTCEx_SetTimeStamp_IT
	.cfi_endproc
	.cantunwind
	.fnend
                                        @ -- End function
	.section	.text.HAL_RTCEx_DeactivateTimeStamp,"ax",%progbits
	.hidden	HAL_RTCEx_DeactivateTimeStamp @ -- Begin function HAL_RTCEx_DeactivateTimeStamp
	.globl	HAL_RTCEx_DeactivateTimeStamp
	.p2align	1
	.type	HAL_RTCEx_DeactivateTimeStamp,%function
	.code	16                      @ @HAL_RTCEx_DeactivateTimeStamp
	.thumb_func
HAL_RTCEx_DeactivateTimeStamp:
.Lfunc_begin2:
	.loc	6 275 0 is_stmt 1       @ ../Drivers/STM32F7xx_HAL_Driver/Src/stm32f7xx_hal_rtc_ex.c:275:0
	.fnstart
	.cfi_startproc
@ %bb.0:
	@DEBUG_VALUE: HAL_RTCEx_DeactivateTimeStamp:hrtc <- $r0
	@DEBUG_VALUE: HAL_RTCEx_DeactivateTimeStamp:hrtc <- $r0
	@DEBUG_VALUE: HAL_RTCEx_DeactivateTimeStamp:tmpreg <- 0
	.loc	6 279 3 prologue_end    @ ../Drivers/STM32F7xx_HAL_Driver/Src/stm32f7xx_hal_rtc_ex.c:279:3
	ldrb	r2, [r0, #28]
	movs	r1, #2
.Ltmp30:
	.loc	6 279 3 is_stmt 0       @ ../Drivers/STM32F7xx_HAL_Driver/Src/stm32f7xx_hal_rtc_ex.c:279:3
	cmp	r2, #1
	beq	.LBB2_2
.Ltmp31:
@ %bb.1:
	@DEBUG_VALUE: HAL_RTCEx_DeactivateTimeStamp:hrtc <- $r0
	.loc	6 281 15 is_stmt 1      @ ../Drivers/STM32F7xx_HAL_Driver/Src/stm32f7xx_hal_rtc_ex.c:281:15
	strb	r1, [r0, #29]
.Ltmp32:
	.loc	6 284 3                 @ ../Drivers/STM32F7xx_HAL_Driver/Src/stm32f7xx_hal_rtc_ex.c:284:3
	movs	r2, #202
.Ltmp33:
	.loc	6 290 42                @ ../Drivers/STM32F7xx_HAL_Driver/Src/stm32f7xx_hal_rtc_ex.c:290:42
	movw	r3, #2056
.Ltmp34:
	.loc	6 284 3                 @ ../Drivers/STM32F7xx_HAL_Driver/Src/stm32f7xx_hal_rtc_ex.c:284:3
	ldr	r1, [r0]
	str	r2, [r1, #36]
	movs	r2, #83
	str	r2, [r1, #36]
.Ltmp35:
	.loc	6 287 3                 @ ../Drivers/STM32F7xx_HAL_Driver/Src/stm32f7xx_hal_rtc_ex.c:287:3
	ldr	r2, [r1, #8]
	bic	r2, r2, #32768
	str	r2, [r1, #8]
	.loc	6 290 39                @ ../Drivers/STM32F7xx_HAL_Driver/Src/stm32f7xx_hal_rtc_ex.c:290:39
	ldr	r2, [r1, #8]
	.loc	6 290 42 is_stmt 0      @ ../Drivers/STM32F7xx_HAL_Driver/Src/stm32f7xx_hal_rtc_ex.c:290:42
	bics	r2, r3
.Ltmp36:
	@DEBUG_VALUE: HAL_RTCEx_DeactivateTimeStamp:tmpreg <- $r2
	.loc	6 293 22 is_stmt 1      @ ../Drivers/STM32F7xx_HAL_Driver/Src/stm32f7xx_hal_rtc_ex.c:293:22
	str	r2, [r1, #8]
.Ltmp37:
	.loc	6 296 3                 @ ../Drivers/STM32F7xx_HAL_Driver/Src/stm32f7xx_hal_rtc_ex.c:296:3
	movs	r2, #255
.Ltmp38:
	str	r2, [r1, #36]
	movs	r1, #0
.Ltmp39:
	.loc	6 298 15                @ ../Drivers/STM32F7xx_HAL_Driver/Src/stm32f7xx_hal_rtc_ex.c:298:15
	movs	r2, #1
.Ltmp40:
	.loc	6 301 3                 @ ../Drivers/STM32F7xx_HAL_Driver/Src/stm32f7xx_hal_rtc_ex.c:301:3
	strb	r1, [r0, #28]
.Ltmp41:
	.loc	6 298 15                @ ../Drivers/STM32F7xx_HAL_Driver/Src/stm32f7xx_hal_rtc_ex.c:298:15
	strb	r2, [r0, #29]
.LBB2_2:
	@DEBUG_VALUE: HAL_RTCEx_DeactivateTimeStamp:hrtc <- $r0
	.loc	6 304 1                 @ ../Drivers/STM32F7xx_HAL_Driver/Src/stm32f7xx_hal_rtc_ex.c:304:1
	uxtb	r0, r1
	bx	lr
.Ltmp42:
.Lfunc_end2:
	.size	HAL_RTCEx_DeactivateTimeStamp, .Lfunc_end2-HAL_RTCEx_DeactivateTimeStamp
	.cfi_endproc
	.cantunwind
	.fnend
                                        @ -- End function
	.section	.text.HAL_RTCEx_SetInternalTimeStamp,"ax",%progbits
	.hidden	HAL_RTCEx_SetInternalTimeStamp @ -- Begin function HAL_RTCEx_SetInternalTimeStamp
	.globl	HAL_RTCEx_SetInternalTimeStamp
	.p2align	1
	.type	HAL_RTCEx_SetInternalTimeStamp,%function
	.code	16                      @ @HAL_RTCEx_SetInternalTimeStamp
	.thumb_func
HAL_RTCEx_SetInternalTimeStamp:
.Lfunc_begin3:
	.loc	6 314 0                 @ ../Drivers/STM32F7xx_HAL_Driver/Src/stm32f7xx_hal_rtc_ex.c:314:0
	.fnstart
	.cfi_startproc
@ %bb.0:
	@DEBUG_VALUE: HAL_RTCEx_SetInternalTimeStamp:hrtc <- $r0
	@DEBUG_VALUE: HAL_RTCEx_SetInternalTimeStamp:hrtc <- $r0
	.loc	6 316 3 prologue_end    @ ../Drivers/STM32F7xx_HAL_Driver/Src/stm32f7xx_hal_rtc_ex.c:316:3
	ldrb	r2, [r0, #28]
	movs	r1, #2
.Ltmp43:
	.loc	6 316 3 is_stmt 0       @ ../Drivers/STM32F7xx_HAL_Driver/Src/stm32f7xx_hal_rtc_ex.c:316:3
	cmp	r2, #1
	beq	.LBB3_2
.Ltmp44:
@ %bb.1:
	@DEBUG_VALUE: HAL_RTCEx_SetInternalTimeStamp:hrtc <- $r0
	.loc	6 318 15 is_stmt 1      @ ../Drivers/STM32F7xx_HAL_Driver/Src/stm32f7xx_hal_rtc_ex.c:318:15
	strb	r1, [r0, #29]
.Ltmp45:
	.loc	6 321 3                 @ ../Drivers/STM32F7xx_HAL_Driver/Src/stm32f7xx_hal_rtc_ex.c:321:3
	movs	r2, #202
	ldr	r1, [r0]
	str	r2, [r1, #36]
	movs	r2, #83
	str	r2, [r1, #36]
.Ltmp46:
	.loc	6 324 3                 @ ../Drivers/STM32F7xx_HAL_Driver/Src/stm32f7xx_hal_rtc_ex.c:324:3
	ldr	r2, [r1, #8]
	orr	r2, r2, #16777216
	str	r2, [r1, #8]
.Ltmp47:
	.loc	6 327 3                 @ ../Drivers/STM32F7xx_HAL_Driver/Src/stm32f7xx_hal_rtc_ex.c:327:3
	movs	r2, #255
	str	r2, [r1, #36]
	movs	r1, #0
.Ltmp48:
	.loc	6 330 15                @ ../Drivers/STM32F7xx_HAL_Driver/Src/stm32f7xx_hal_rtc_ex.c:330:15
	movs	r2, #1
.Ltmp49:
	.loc	6 333 3                 @ ../Drivers/STM32F7xx_HAL_Driver/Src/stm32f7xx_hal_rtc_ex.c:333:3
	strb	r1, [r0, #28]
.Ltmp50:
	.loc	6 330 15                @ ../Drivers/STM32F7xx_HAL_Driver/Src/stm32f7xx_hal_rtc_ex.c:330:15
	strb	r2, [r0, #29]
.LBB3_2:
	@DEBUG_VALUE: HAL_RTCEx_SetInternalTimeStamp:hrtc <- $r0
	.loc	6 336 1                 @ ../Drivers/STM32F7xx_HAL_Driver/Src/stm32f7xx_hal_rtc_ex.c:336:1
	uxtb	r0, r1
	bx	lr
.Ltmp51:
.Lfunc_end3:
	.size	HAL_RTCEx_SetInternalTimeStamp, .Lfunc_end3-HAL_RTCEx_SetInternalTimeStamp
	.cfi_endproc
	.cantunwind
	.fnend
                                        @ -- End function
	.section	.text.HAL_RTCEx_DeactivateInternalTimeStamp,"ax",%progbits
	.hidden	HAL_RTCEx_DeactivateInternalTimeStamp @ -- Begin function HAL_RTCEx_DeactivateInternalTimeStamp
	.globl	HAL_RTCEx_DeactivateInternalTimeStamp
	.p2align	1
	.type	HAL_RTCEx_DeactivateInternalTimeStamp,%function
	.code	16                      @ @HAL_RTCEx_DeactivateInternalTimeStamp
	.thumb_func
HAL_RTCEx_DeactivateInternalTimeStamp:
.Lfunc_begin4:
	.loc	6 345 0                 @ ../Drivers/STM32F7xx_HAL_Driver/Src/stm32f7xx_hal_rtc_ex.c:345:0
	.fnstart
	.cfi_startproc
@ %bb.0:
	@DEBUG_VALUE: HAL_RTCEx_DeactivateInternalTimeStamp:hrtc <- $r0
	@DEBUG_VALUE: HAL_RTCEx_DeactivateInternalTimeStamp:hrtc <- $r0
	.loc	6 347 3 prologue_end    @ ../Drivers/STM32F7xx_HAL_Driver/Src/stm32f7xx_hal_rtc_ex.c:347:3
	ldrb	r2, [r0, #28]
	movs	r1, #2
.Ltmp52:
	.loc	6 347 3 is_stmt 0       @ ../Drivers/STM32F7xx_HAL_Driver/Src/stm32f7xx_hal_rtc_ex.c:347:3
	cmp	r2, #1
	beq	.LBB4_2
.Ltmp53:
@ %bb.1:
	@DEBUG_VALUE: HAL_RTCEx_DeactivateInternalTimeStamp:hrtc <- $r0
	.loc	6 349 15 is_stmt 1      @ ../Drivers/STM32F7xx_HAL_Driver/Src/stm32f7xx_hal_rtc_ex.c:349:15
	strb	r1, [r0, #29]
.Ltmp54:
	.loc	6 352 3                 @ ../Drivers/STM32F7xx_HAL_Driver/Src/stm32f7xx_hal_rtc_ex.c:352:3
	movs	r2, #202
	ldr	r1, [r0]
	str	r2, [r1, #36]
	movs	r2, #83
	str	r2, [r1, #36]
.Ltmp55:
	.loc	6 355 3                 @ ../Drivers/STM32F7xx_HAL_Driver/Src/stm32f7xx_hal_rtc_ex.c:355:3
	ldr	r2, [r1, #8]
	bic	r2, r2, #16777216
	str	r2, [r1, #8]
.Ltmp56:
	.loc	6 358 3                 @ ../Drivers/STM32F7xx_HAL_Driver/Src/stm32f7xx_hal_rtc_ex.c:358:3
	movs	r2, #255
	str	r2, [r1, #36]
	movs	r1, #0
.Ltmp57:
	.loc	6 360 15                @ ../Drivers/STM32F7xx_HAL_Driver/Src/stm32f7xx_hal_rtc_ex.c:360:15
	movs	r2, #1
.Ltmp58:
	.loc	6 363 3                 @ ../Drivers/STM32F7xx_HAL_Driver/Src/stm32f7xx_hal_rtc_ex.c:363:3
	strb	r1, [r0, #28]
.Ltmp59:
	.loc	6 360 15                @ ../Drivers/STM32F7xx_HAL_Driver/Src/stm32f7xx_hal_rtc_ex.c:360:15
	strb	r2, [r0, #29]
.LBB4_2:
	@DEBUG_VALUE: HAL_RTCEx_DeactivateInternalTimeStamp:hrtc <- $r0
	.loc	6 366 1                 @ ../Drivers/STM32F7xx_HAL_Driver/Src/stm32f7xx_hal_rtc_ex.c:366:1
	uxtb	r0, r1
	bx	lr
.Ltmp60:
.Lfunc_end4:
	.size	HAL_RTCEx_DeactivateInternalTimeStamp, .Lfunc_end4-HAL_RTCEx_DeactivateInternalTimeStamp
	.cfi_endproc
	.cantunwind
	.fnend
                                        @ -- End function
	.section	.text.HAL_RTCEx_GetTimeStamp,"ax",%progbits
	.hidden	HAL_RTCEx_GetTimeStamp  @ -- Begin function HAL_RTCEx_GetTimeStamp
	.globl	HAL_RTCEx_GetTimeStamp
	.p2align	2
	.type	HAL_RTCEx_GetTimeStamp,%function
	.code	16                      @ @HAL_RTCEx_GetTimeStamp
	.thumb_func
HAL_RTCEx_GetTimeStamp:
.Lfunc_begin5:
	.loc	6 381 0                 @ ../Drivers/STM32F7xx_HAL_Driver/Src/stm32f7xx_hal_rtc_ex.c:381:0
	.fnstart
	.cfi_startproc
@ %bb.0:
	.save	{r4, r5, r6, r7, r8, lr}
	push.w	{r4, r5, r6, r7, r8, lr}
	.cfi_def_cfa_offset 24
	.cfi_offset lr, -4
	.cfi_offset r8, -8
	.cfi_offset r7, -12
	.cfi_offset r6, -16
	.cfi_offset r5, -20
	.cfi_offset r4, -24
	@DEBUG_VALUE: HAL_RTCEx_GetTimeStamp:hrtc <- $r0
	@DEBUG_VALUE: HAL_RTCEx_GetTimeStamp:sTimeStamp <- $r1
	@DEBUG_VALUE: HAL_RTCEx_GetTimeStamp:sTimeStampDate <- $r2
	@DEBUG_VALUE: HAL_RTCEx_GetTimeStamp:Format <- $r3
	mov	r8, r0
.Ltmp61:
	@DEBUG_VALUE: HAL_RTCEx_GetTimeStamp:tmpdate <- 0
	@DEBUG_VALUE: HAL_RTCEx_GetTimeStamp:tmptime <- 0
	@DEBUG_VALUE: HAL_RTCEx_GetTimeStamp:Format <- $r3
	@DEBUG_VALUE: HAL_RTCEx_GetTimeStamp:sTimeStampDate <- $r4
	@DEBUG_VALUE: HAL_RTCEx_GetTimeStamp:sTimeStamp <- $r6
	@DEBUG_VALUE: HAL_RTCEx_GetTimeStamp:hrtc <- $r8
	.loc	6 388 30 prologue_end   @ ../Drivers/STM32F7xx_HAL_Driver/Src/stm32f7xx_hal_rtc_ex.c:388:30
	ldr	r0, [r0]
	mov	r4, r2
.Ltmp62:
	.loc	6 0 30 is_stmt 0        @ ../Drivers/STM32F7xx_HAL_Driver/Src/stm32f7xx_hal_rtc_ex.c:0:30
	mov	r6, r1
.Ltmp63:
	.loc	6 405 6 is_stmt 1       @ ../Drivers/STM32F7xx_HAL_Driver/Src/stm32f7xx_hal_rtc_ex.c:405:6
	cmp	r3, #0
	.loc	6 388 40                @ ../Drivers/STM32F7xx_HAL_Driver/Src/stm32f7xx_hal_rtc_ex.c:388:40
	ldr	r2, [r0, #48]
	.loc	6 389 40                @ ../Drivers/STM32F7xx_HAL_Driver/Src/stm32f7xx_hal_rtc_ex.c:389:40
	ldr	r7, [r0, #52]
	.loc	6 393 25                @ ../Drivers/STM32F7xx_HAL_Driver/Src/stm32f7xx_hal_rtc_ex.c:393:25
	ubfx	r1, r2, #8, #7
	.loc	6 394 25                @ ../Drivers/STM32F7xx_HAL_Driver/Src/stm32f7xx_hal_rtc_ex.c:394:25
	and	r5, r2, #127
	.loc	6 393 23                @ ../Drivers/STM32F7xx_HAL_Driver/Src/stm32f7xx_hal_rtc_ex.c:393:23
	strb	r1, [r6, #1]
	.loc	6 392 23                @ ../Drivers/STM32F7xx_HAL_Driver/Src/stm32f7xx_hal_rtc_ex.c:392:23
	ubfx	r1, r2, #16, #6
	.loc	6 392 21 is_stmt 0      @ ../Drivers/STM32F7xx_HAL_Driver/Src/stm32f7xx_hal_rtc_ex.c:392:21
	strb	r1, [r6]
	.loc	6 394 23 is_stmt 1      @ ../Drivers/STM32F7xx_HAL_Driver/Src/stm32f7xx_hal_rtc_ex.c:394:23
	strb	r5, [r6, #2]
	.loc	6 395 28                @ ../Drivers/STM32F7xx_HAL_Driver/Src/stm32f7xx_hal_rtc_ex.c:395:28
	mov.w	r5, #64
	and.w	r2, r5, r2, lsr #16
	.loc	6 395 26 is_stmt 0      @ ../Drivers/STM32F7xx_HAL_Driver/Src/stm32f7xx_hal_rtc_ex.c:395:26
	strb	r2, [r6, #12]
	.loc	6 396 55 is_stmt 1      @ ../Drivers/STM32F7xx_HAL_Driver/Src/stm32f7xx_hal_rtc_ex.c:396:55
	ldr	r2, [r0, #56]
	.loc	6 396 26 is_stmt 0      @ ../Drivers/STM32F7xx_HAL_Driver/Src/stm32f7xx_hal_rtc_ex.c:396:26
	str	r2, [r6, #4]
	.loc	6 400 27 is_stmt 1      @ ../Drivers/STM32F7xx_HAL_Driver/Src/stm32f7xx_hal_rtc_ex.c:400:27
	ubfx	r2, r7, #8, #5
	.loc	6 400 25 is_stmt 0      @ ../Drivers/STM32F7xx_HAL_Driver/Src/stm32f7xx_hal_rtc_ex.c:400:25
	strb	r2, [r4, #1]
	mov.w	r2, #0
	.loc	6 399 24 is_stmt 1      @ ../Drivers/STM32F7xx_HAL_Driver/Src/stm32f7xx_hal_rtc_ex.c:399:24
	strb	r2, [r4, #3]
	.loc	6 401 26                @ ../Drivers/STM32F7xx_HAL_Driver/Src/stm32f7xx_hal_rtc_ex.c:401:26
	and	r2, r7, #63
	.loc	6 401 24 is_stmt 0      @ ../Drivers/STM32F7xx_HAL_Driver/Src/stm32f7xx_hal_rtc_ex.c:401:24
	strb	r2, [r4, #2]
	.loc	6 402 29 is_stmt 1      @ ../Drivers/STM32F7xx_HAL_Driver/Src/stm32f7xx_hal_rtc_ex.c:402:29
	ubfx	r2, r7, #13, #3
	.loc	6 402 27 is_stmt 0      @ ../Drivers/STM32F7xx_HAL_Driver/Src/stm32f7xx_hal_rtc_ex.c:402:27
	strb	r2, [r4]
	.loc	6 405 6 is_stmt 1       @ ../Drivers/STM32F7xx_HAL_Driver/Src/stm32f7xx_hal_rtc_ex.c:405:6
	bne	.LBB5_2
.Ltmp64:
@ %bb.1:
	@DEBUG_VALUE: HAL_RTCEx_GetTimeStamp:hrtc <- $r8
	@DEBUG_VALUE: HAL_RTCEx_GetTimeStamp:Format <- $r3
	.loc	6 408 34                @ ../Drivers/STM32F7xx_HAL_Driver/Src/stm32f7xx_hal_rtc_ex.c:408:34
	ldr	r7, __arm_cp.5_0
	uxtb	r0, r1
	blx	r7
.Ltmp65:
	.loc	6 408 23 is_stmt 0      @ ../Drivers/STM32F7xx_HAL_Driver/Src/stm32f7xx_hal_rtc_ex.c:408:23
	strb	r0, [r6]
	.loc	6 409 36 is_stmt 1      @ ../Drivers/STM32F7xx_HAL_Driver/Src/stm32f7xx_hal_rtc_ex.c:409:36
	ldrb	r0, [r6, #1]
	blx	r7
	.loc	6 409 25 is_stmt 0      @ ../Drivers/STM32F7xx_HAL_Driver/Src/stm32f7xx_hal_rtc_ex.c:409:25
	strb	r0, [r6, #1]
	.loc	6 410 36 is_stmt 1      @ ../Drivers/STM32F7xx_HAL_Driver/Src/stm32f7xx_hal_rtc_ex.c:410:36
	ldrb	r0, [r6, #2]
	blx	r7
	.loc	6 410 25 is_stmt 0      @ ../Drivers/STM32F7xx_HAL_Driver/Src/stm32f7xx_hal_rtc_ex.c:410:25
	strb	r0, [r6, #2]
	.loc	6 413 38 is_stmt 1      @ ../Drivers/STM32F7xx_HAL_Driver/Src/stm32f7xx_hal_rtc_ex.c:413:38
	ldrb	r0, [r4, #1]
	blx	r7
	.loc	6 413 27 is_stmt 0      @ ../Drivers/STM32F7xx_HAL_Driver/Src/stm32f7xx_hal_rtc_ex.c:413:27
	strb	r0, [r4, #1]
	.loc	6 414 37 is_stmt 1      @ ../Drivers/STM32F7xx_HAL_Driver/Src/stm32f7xx_hal_rtc_ex.c:414:37
	ldrb	r0, [r4, #2]
	blx	r7
	.loc	6 414 26 is_stmt 0      @ ../Drivers/STM32F7xx_HAL_Driver/Src/stm32f7xx_hal_rtc_ex.c:414:26
	strb	r0, [r4, #2]
	.loc	6 415 40 is_stmt 1      @ ../Drivers/STM32F7xx_HAL_Driver/Src/stm32f7xx_hal_rtc_ex.c:415:40
	ldrb	r0, [r4]
	blx	r7
	.loc	6 415 29 is_stmt 0      @ ../Drivers/STM32F7xx_HAL_Driver/Src/stm32f7xx_hal_rtc_ex.c:415:29
	strb	r0, [r4]
.Ltmp66:
	.loc	6 419 3 is_stmt 1       @ ../Drivers/STM32F7xx_HAL_Driver/Src/stm32f7xx_hal_rtc_ex.c:419:3
	ldr.w	r0, [r8]
.Ltmp67:
.LBB5_2:
	@DEBUG_VALUE: HAL_RTCEx_GetTimeStamp:hrtc <- $r8
	ldr	r1, [r0, #12]
	and	r1, r1, #128
	orn	r1, r1, #2176
	str	r1, [r0, #12]
	.loc	6 421 3                 @ ../Drivers/STM32F7xx_HAL_Driver/Src/stm32f7xx_hal_rtc_ex.c:421:3
	movs	r0, #0
	pop.w	{r4, r5, r6, r7, r8, pc}
.Ltmp68:
	.p2align	2
@ %bb.3:
	.loc	6 0 3 is_stmt 0         @ ../Drivers/STM32F7xx_HAL_Driver/Src/stm32f7xx_hal_rtc_ex.c:0:3
__arm_cp.5_0:
	.long	RTC_Bcd2ToByte
.Lcpi_end1:
	.size	__arm_cp.5_0, .Lcpi_end1-__arm_cp.5_0
.Lfunc_end5:
	.size	HAL_RTCEx_GetTimeStamp, .Lfunc_end5-HAL_RTCEx_GetTimeStamp
	.cfi_endproc
	.cantunwind
	.fnend
                                        @ -- End function
	.section	.text.HAL_RTCEx_SetTamper,"ax",%progbits
	.hidden	HAL_RTCEx_SetTamper     @ -- Begin function HAL_RTCEx_SetTamper
	.globl	HAL_RTCEx_SetTamper
	.p2align	2
	.type	HAL_RTCEx_SetTamper,%function
	.code	16                      @ @HAL_RTCEx_SetTamper
	.thumb_func
HAL_RTCEx_SetTamper:
.Lfunc_begin6:
	.loc	6 433 0 is_stmt 1       @ ../Drivers/STM32F7xx_HAL_Driver/Src/stm32f7xx_hal_rtc_ex.c:433:0
	.fnstart
	.cfi_startproc
@ %bb.0:
	@DEBUG_VALUE: HAL_RTCEx_SetTamper:hrtc <- $r0
	@DEBUG_VALUE: HAL_RTCEx_SetTamper:hrtc <- $r0
	@DEBUG_VALUE: HAL_RTCEx_SetTamper:sTamper <- $r1
	@DEBUG_VALUE: HAL_RTCEx_SetTamper:sTamper <- $r1
	@DEBUG_VALUE: HAL_RTCEx_SetTamper:tmpreg <- 0
	.loc	6 448 3 prologue_end    @ ../Drivers/STM32F7xx_HAL_Driver/Src/stm32f7xx_hal_rtc_ex.c:448:3
	ldrb	r2, [r0, #28]
	movs	r3, #2
.Ltmp69:
	.loc	6 448 3 is_stmt 0       @ ../Drivers/STM32F7xx_HAL_Driver/Src/stm32f7xx_hal_rtc_ex.c:448:3
	cmp	r2, #1
	beq	.LBB6_11
.Ltmp70:
@ %bb.1:
	@DEBUG_VALUE: HAL_RTCEx_SetTamper:sTamper <- $r1
	@DEBUG_VALUE: HAL_RTCEx_SetTamper:hrtc <- $r0
	.loc	6 448 3                 @ ../Drivers/STM32F7xx_HAL_Driver/Src/stm32f7xx_hal_rtc_ex.c:448:3
	movs	r2, #1
.Ltmp71:
	.loc	6 450 15 is_stmt 1      @ ../Drivers/STM32F7xx_HAL_Driver/Src/stm32f7xx_hal_rtc_ex.c:450:15
	strb	r3, [r0, #29]
.Ltmp72:
	.loc	6 448 3                 @ ../Drivers/STM32F7xx_HAL_Driver/Src/stm32f7xx_hal_rtc_ex.c:448:3
	strb	r2, [r0, #28]
.Ltmp73:
	.loc	6 452 15                @ ../Drivers/STM32F7xx_HAL_Driver/Src/stm32f7xx_hal_rtc_ex.c:452:15
	ldr	r2, [r1, #8]
.Ltmp74:
	.loc	6 452 6 is_stmt 0       @ ../Drivers/STM32F7xx_HAL_Driver/Src/stm32f7xx_hal_rtc_ex.c:452:6
	cbz	r2, .LBB6_3
.Ltmp75:
@ %bb.2:
	@DEBUG_VALUE: HAL_RTCEx_SetTamper:sTamper <- $r1
	@DEBUG_VALUE: HAL_RTCEx_SetTamper:hrtc <- $r0
	.loc	6 454 44 is_stmt 1      @ ../Drivers/STM32F7xx_HAL_Driver/Src/stm32f7xx_hal_rtc_ex.c:454:44
	ldr	r2, [r1]
	.loc	6 454 51 is_stmt 0      @ ../Drivers/STM32F7xx_HAL_Driver/Src/stm32f7xx_hal_rtc_ex.c:454:51
	lsl.w	r12, r2, #1
	.loc	6 454 22                @ ../Drivers/STM32F7xx_HAL_Driver/Src/stm32f7xx_hal_rtc_ex.c:454:22
	str.w	r12, [r1, #8]
	b	.LBB6_4
.Ltmp76:
.LBB6_3:
	@DEBUG_VALUE: HAL_RTCEx_SetTamper:sTamper <- $r1
	@DEBUG_VALUE: HAL_RTCEx_SetTamper:hrtc <- $r0
	.loc	6 0 22                  @ ../Drivers/STM32F7xx_HAL_Driver/Src/stm32f7xx_hal_rtc_ex.c:0:22
	mov.w	r12, #0
.Ltmp77:
.LBB6_4:
	@DEBUG_VALUE: HAL_RTCEx_SetTamper:sTamper <- $r1
	@DEBUG_VALUE: HAL_RTCEx_SetTamper:hrtc <- $r0
	.save	{r4, r5, r6, r7, r8, r9, r10, r11, lr}
	push.w	{r4, r5, r6, r7, r8, r9, r10, r11, lr}
	.cfi_def_cfa_offset 36
	.cfi_offset lr, -4
	.cfi_offset r11, -8
	.cfi_offset r10, -12
	.cfi_offset r9, -16
	.cfi_offset r8, -20
	.cfi_offset r7, -24
	.cfi_offset r6, -28
	.cfi_offset r5, -32
	.cfi_offset r4, -36
.Ltmp78:
	.loc	6 457 15 is_stmt 1      @ ../Drivers/STM32F7xx_HAL_Driver/Src/stm32f7xx_hal_rtc_ex.c:457:15
	ldr	r2, [r1, #12]
.Ltmp79:
	.loc	6 457 6 is_stmt 0       @ ../Drivers/STM32F7xx_HAL_Driver/Src/stm32f7xx_hal_rtc_ex.c:457:6
	cbz	r2, .LBB6_6
.Ltmp80:
@ %bb.5:
	@DEBUG_VALUE: HAL_RTCEx_SetTamper:sTamper <- $r1
	@DEBUG_VALUE: HAL_RTCEx_SetTamper:hrtc <- $r0
	.loc	6 460 18 is_stmt 1      @ ../Drivers/STM32F7xx_HAL_Driver/Src/stm32f7xx_hal_rtc_ex.c:460:18
	ldr	r2, [r1]
.Ltmp81:
	.loc	6 464 8                 @ ../Drivers/STM32F7xx_HAL_Driver/Src/stm32f7xx_hal_rtc_ex.c:464:8
	mov.w	r3, #1179648
	and.w	lr, r3, r2, lsl #17
	.loc	6 468 8                 @ ../Drivers/STM32F7xx_HAL_Driver/Src/stm32f7xx_hal_rtc_ex.c:468:8
	tst.w	r2, #32
	str.w	lr, [r1, #12]
.Ltmp82:
	.loc	6 470 24                @ ../Drivers/STM32F7xx_HAL_Driver/Src/stm32f7xx_hal_rtc_ex.c:470:24
	itt	ne
	orrne	lr, lr, #8388608
	strne.w	lr, [r1, #12]
	b	.LBB6_7
.Ltmp83:
.LBB6_6:
	@DEBUG_VALUE: HAL_RTCEx_SetTamper:sTamper <- $r1
	@DEBUG_VALUE: HAL_RTCEx_SetTamper:hrtc <- $r0
	.loc	6 0 24 is_stmt 0        @ ../Drivers/STM32F7xx_HAL_Driver/Src/stm32f7xx_hal_rtc_ex.c:0:24
	mov.w	lr, #0
.Ltmp84:
.LBB6_7:
	@DEBUG_VALUE: HAL_RTCEx_SetTamper:sTamper <- $r1
	@DEBUG_VALUE: HAL_RTCEx_SetTamper:hrtc <- $r0
	.loc	6 474 15 is_stmt 1      @ ../Drivers/STM32F7xx_HAL_Driver/Src/stm32f7xx_hal_rtc_ex.c:474:15
	ldr	r4, [r1, #16]
	ldr	r2, [r1]
	movs	r3, #0
.Ltmp85:
	.loc	6 474 6 is_stmt 0       @ ../Drivers/STM32F7xx_HAL_Driver/Src/stm32f7xx_hal_rtc_ex.c:474:6
	cbz	r4, .LBB6_9
.Ltmp86:
@ %bb.8:
	@DEBUG_VALUE: HAL_RTCEx_SetTamper:sTamper <- $r1
	@DEBUG_VALUE: HAL_RTCEx_SetTamper:hrtc <- $r0
	.loc	6 481 8 is_stmt 1       @ ../Drivers/STM32F7xx_HAL_Driver/Src/stm32f7xx_hal_rtc_ex.c:481:8
	mov.w	r4, #2359296
	.loc	6 485 8                 @ ../Drivers/STM32F7xx_HAL_Driver/Src/stm32f7xx_hal_rtc_ex.c:485:8
	tst.w	r2, #32
	.loc	6 481 8                 @ ../Drivers/STM32F7xx_HAL_Driver/Src/stm32f7xx_hal_rtc_ex.c:481:8
	and.w	r4, r4, r2, lsl #18
	str	r4, [r1, #16]
.Ltmp87:
	.loc	6 487 25                @ ../Drivers/STM32F7xx_HAL_Driver/Src/stm32f7xx_hal_rtc_ex.c:487:25
	itt	ne
	orrne	r4, r4, #16777216
	strne	r4, [r1, #16]
	b	.LBB6_10
.Ltmp88:
.LBB6_9:
	@DEBUG_VALUE: HAL_RTCEx_SetTamper:sTamper <- $r1
	@DEBUG_VALUE: HAL_RTCEx_SetTamper:hrtc <- $r0
	.loc	6 492 32                @ ../Drivers/STM32F7xx_HAL_Driver/Src/stm32f7xx_hal_rtc_ex.c:492:32
	movs	r4, #0
.Ltmp89:
.LBB6_10:
	@DEBUG_VALUE: HAL_RTCEx_SetTamper:sTamper <- $r1
	@DEBUG_VALUE: HAL_RTCEx_SetTamper:hrtc <- $r0
	.loc	6 493 32                @ ../Drivers/STM32F7xx_HAL_Driver/Src/stm32f7xx_hal_rtc_ex.c:493:32
	add.w	r9, r1, #28
	.loc	6 492 62                @ ../Drivers/STM32F7xx_HAL_Driver/Src/stm32f7xx_hal_rtc_ex.c:492:62
	ldrd	r10, r11, [r1, #20]
	.loc	6 500 69                @ ../Drivers/STM32F7xx_HAL_Driver/Src/stm32f7xx_hal_rtc_ex.c:500:69
	orr.w	r6, r2, r2, lsl #1
	.loc	6 491 39                @ ../Drivers/STM32F7xx_HAL_Driver/Src/stm32f7xx_hal_rtc_ex.c:491:39
	orr.w	r2, r2, r12
	.loc	6 493 32                @ ../Drivers/STM32F7xx_HAL_Driver/Src/stm32f7xx_hal_rtc_ex.c:493:32
	ldm.w	r9, {r7, r8, r9}
	.loc	6 495 9                 @ ../Drivers/STM32F7xx_HAL_Driver/Src/stm32f7xx_hal_rtc_ex.c:495:9
	ldr	r1, [r0]
.Ltmp90:
	.loc	6 491 69                @ ../Drivers/STM32F7xx_HAL_Driver/Src/stm32f7xx_hal_rtc_ex.c:491:69
	orr.w	r2, r2, lr
	.loc	6 491 98 is_stmt 0      @ ../Drivers/STM32F7xx_HAL_Driver/Src/stm32f7xx_hal_rtc_ex.c:491:98
	orrs	r2, r4
	.loc	6 492 41 is_stmt 1      @ ../Drivers/STM32F7xx_HAL_Driver/Src/stm32f7xx_hal_rtc_ex.c:492:41
	orr.w	r2, r2, r10
	.loc	6 495 26                @ ../Drivers/STM32F7xx_HAL_Driver/Src/stm32f7xx_hal_rtc_ex.c:495:26
	ldr	r5, [r1, #64]
	.loc	6 492 69                @ ../Drivers/STM32F7xx_HAL_Driver/Src/stm32f7xx_hal_rtc_ex.c:492:69
	orr.w	r2, r2, r11
	.loc	6 492 108 is_stmt 0     @ ../Drivers/STM32F7xx_HAL_Driver/Src/stm32f7xx_hal_rtc_ex.c:492:108
	orrs	r2, r7
	.loc	6 493 50 is_stmt 1      @ ../Drivers/STM32F7xx_HAL_Driver/Src/stm32f7xx_hal_rtc_ex.c:493:50
	orr.w	r2, r2, r8
	.loc	6 493 84 is_stmt 0      @ ../Drivers/STM32F7xx_HAL_Driver/Src/stm32f7xx_hal_rtc_ex.c:493:84
	orr.w	r2, r2, r9
.Ltmp91:
	@DEBUG_VALUE: HAL_RTCEx_SetTamper:tmpreg <- $r2
	.loc	6 495 26 is_stmt 1      @ ../Drivers/STM32F7xx_HAL_Driver/Src/stm32f7xx_hal_rtc_ex.c:495:26
	bics	r5, r6
	.loc	6 500 69                @ ../Drivers/STM32F7xx_HAL_Driver/Src/stm32f7xx_hal_rtc_ex.c:500:69
	ldr	r6, __arm_cp.6_0
	.loc	6 495 26                @ ../Drivers/STM32F7xx_HAL_Driver/Src/stm32f7xx_hal_rtc_ex.c:495:26
	ands	r5, r6
	str	r5, [r1, #64]
	.loc	6 502 26                @ ../Drivers/STM32F7xx_HAL_Driver/Src/stm32f7xx_hal_rtc_ex.c:502:26
	ldr	r7, [r1, #64]
	orrs	r2, r7
.Ltmp92:
	str	r2, [r1, #64]
	movs	r1, #1
.Ltmp93:
	.loc	6 507 3                 @ ../Drivers/STM32F7xx_HAL_Driver/Src/stm32f7xx_hal_rtc_ex.c:507:3
	strb	r3, [r0, #28]
.Ltmp94:
	.loc	6 504 15                @ ../Drivers/STM32F7xx_HAL_Driver/Src/stm32f7xx_hal_rtc_ex.c:504:15
	strb	r1, [r0, #29]
	pop.w	{r4, r5, r6, r7, r8, r9, r10, r11, lr}
.LBB6_11:
	@DEBUG_VALUE: HAL_RTCEx_SetTamper:hrtc <- $r0
	.loc	6 510 1                 @ ../Drivers/STM32F7xx_HAL_Driver/Src/stm32f7xx_hal_rtc_ex.c:510:1
	uxtb	r0, r3
	bx	lr
.Ltmp95:
	.p2align	2
@ %bb.12:
	.loc	6 0 1 is_stmt 0         @ ../Drivers/STM32F7xx_HAL_Driver/Src/stm32f7xx_hal_rtc_ex.c:0:1
__arm_cp.6_0:
	.long	4261412987              @ 0xfe00007b
.Lcpi_end2:
	.size	__arm_cp.6_0, .Lcpi_end2-__arm_cp.6_0
.Lfunc_end6:
	.size	HAL_RTCEx_SetTamper, .Lfunc_end6-HAL_RTCEx_SetTamper
	.cfi_endproc
	.cantunwind
	.fnend
                                        @ -- End function
	.section	.text.HAL_RTCEx_SetTamper_IT,"ax",%progbits
	.hidden	HAL_RTCEx_SetTamper_IT  @ -- Begin function HAL_RTCEx_SetTamper_IT
	.globl	HAL_RTCEx_SetTamper_IT
	.p2align	2
	.type	HAL_RTCEx_SetTamper_IT,%function
	.code	16                      @ @HAL_RTCEx_SetTamper_IT
	.thumb_func
HAL_RTCEx_SetTamper_IT:
.Lfunc_begin7:
	.loc	6 521 0 is_stmt 1       @ ../Drivers/STM32F7xx_HAL_Driver/Src/stm32f7xx_hal_rtc_ex.c:521:0
	.fnstart
	.cfi_startproc
@ %bb.0:
	@DEBUG_VALUE: HAL_RTCEx_SetTamper_IT:hrtc <- $r0
	@DEBUG_VALUE: HAL_RTCEx_SetTamper_IT:hrtc <- $r0
	@DEBUG_VALUE: HAL_RTCEx_SetTamper_IT:sTamper <- $r1
	@DEBUG_VALUE: HAL_RTCEx_SetTamper_IT:sTamper <- $r1
	@DEBUG_VALUE: HAL_RTCEx_SetTamper_IT:tmpreg <- 0
	.loc	6 537 3 prologue_end    @ ../Drivers/STM32F7xx_HAL_Driver/Src/stm32f7xx_hal_rtc_ex.c:537:3
	ldrb	r3, [r0, #28]
	movs	r2, #2
.Ltmp96:
	.loc	6 537 3 is_stmt 0       @ ../Drivers/STM32F7xx_HAL_Driver/Src/stm32f7xx_hal_rtc_ex.c:537:3
	cmp	r3, #1
	beq	.LBB7_14
.Ltmp97:
@ %bb.1:
	@DEBUG_VALUE: HAL_RTCEx_SetTamper_IT:sTamper <- $r1
	@DEBUG_VALUE: HAL_RTCEx_SetTamper_IT:hrtc <- $r0
	.loc	6 539 15 is_stmt 1      @ ../Drivers/STM32F7xx_HAL_Driver/Src/stm32f7xx_hal_rtc_ex.c:539:15
	strb	r2, [r0, #29]
.Ltmp98:
	.loc	6 537 3                 @ ../Drivers/STM32F7xx_HAL_Driver/Src/stm32f7xx_hal_rtc_ex.c:537:3
	movs	r2, #1
	strb	r2, [r0, #28]
.Ltmp99:
	.loc	6 542 15                @ ../Drivers/STM32F7xx_HAL_Driver/Src/stm32f7xx_hal_rtc_ex.c:542:15
	ldr	r2, [r1, #8]
.Ltmp100:
	.loc	6 542 6 is_stmt 0       @ ../Drivers/STM32F7xx_HAL_Driver/Src/stm32f7xx_hal_rtc_ex.c:542:6
	cbz	r2, .LBB7_3
.Ltmp101:
@ %bb.2:
	@DEBUG_VALUE: HAL_RTCEx_SetTamper_IT:sTamper <- $r1
	@DEBUG_VALUE: HAL_RTCEx_SetTamper_IT:hrtc <- $r0
	.loc	6 544 44 is_stmt 1      @ ../Drivers/STM32F7xx_HAL_Driver/Src/stm32f7xx_hal_rtc_ex.c:544:44
	ldr	r2, [r1]
	.loc	6 544 51 is_stmt 0      @ ../Drivers/STM32F7xx_HAL_Driver/Src/stm32f7xx_hal_rtc_ex.c:544:51
	lsl.w	r12, r2, #1
	.loc	6 544 22                @ ../Drivers/STM32F7xx_HAL_Driver/Src/stm32f7xx_hal_rtc_ex.c:544:22
	str.w	r12, [r1, #8]
	b	.LBB7_4
.Ltmp102:
.LBB7_3:
	@DEBUG_VALUE: HAL_RTCEx_SetTamper_IT:sTamper <- $r1
	@DEBUG_VALUE: HAL_RTCEx_SetTamper_IT:hrtc <- $r0
	.loc	6 0 22                  @ ../Drivers/STM32F7xx_HAL_Driver/Src/stm32f7xx_hal_rtc_ex.c:0:22
	mov.w	r12, #0
.Ltmp103:
.LBB7_4:
	@DEBUG_VALUE: HAL_RTCEx_SetTamper_IT:sTamper <- $r1
	@DEBUG_VALUE: HAL_RTCEx_SetTamper_IT:hrtc <- $r0
	.save	{r4, r5, r6, r7, r8, r9, r10, r11, lr}
	push.w	{r4, r5, r6, r7, r8, r9, r10, r11, lr}
	.cfi_def_cfa_offset 36
	.cfi_offset lr, -4
	.cfi_offset r11, -8
	.cfi_offset r10, -12
	.cfi_offset r9, -16
	.cfi_offset r8, -20
	.cfi_offset r7, -24
	.cfi_offset r6, -28
	.cfi_offset r5, -32
	.cfi_offset r4, -36
.Ltmp104:
	.loc	6 547 15 is_stmt 1      @ ../Drivers/STM32F7xx_HAL_Driver/Src/stm32f7xx_hal_rtc_ex.c:547:15
	ldr	r2, [r1, #12]
.Ltmp105:
	.loc	6 547 6 is_stmt 0       @ ../Drivers/STM32F7xx_HAL_Driver/Src/stm32f7xx_hal_rtc_ex.c:547:6
	cbz	r2, .LBB7_6
.Ltmp106:
@ %bb.5:
	@DEBUG_VALUE: HAL_RTCEx_SetTamper_IT:sTamper <- $r1
	@DEBUG_VALUE: HAL_RTCEx_SetTamper_IT:hrtc <- $r0
	.loc	6 550 18 is_stmt 1      @ ../Drivers/STM32F7xx_HAL_Driver/Src/stm32f7xx_hal_rtc_ex.c:550:18
	ldr	r2, [r1]
.Ltmp107:
	.loc	6 554 8                 @ ../Drivers/STM32F7xx_HAL_Driver/Src/stm32f7xx_hal_rtc_ex.c:554:8
	mov.w	r3, #1179648
	and.w	lr, r3, r2, lsl #17
	.loc	6 558 8                 @ ../Drivers/STM32F7xx_HAL_Driver/Src/stm32f7xx_hal_rtc_ex.c:558:8
	tst.w	r2, #32
	str.w	lr, [r1, #12]
.Ltmp108:
	.loc	6 560 24                @ ../Drivers/STM32F7xx_HAL_Driver/Src/stm32f7xx_hal_rtc_ex.c:560:24
	itt	ne
	orrne	lr, lr, #8388608
	strne.w	lr, [r1, #12]
	b	.LBB7_7
.Ltmp109:
.LBB7_6:
	@DEBUG_VALUE: HAL_RTCEx_SetTamper_IT:sTamper <- $r1
	@DEBUG_VALUE: HAL_RTCEx_SetTamper_IT:hrtc <- $r0
	.loc	6 0 24 is_stmt 0        @ ../Drivers/STM32F7xx_HAL_Driver/Src/stm32f7xx_hal_rtc_ex.c:0:24
	mov.w	lr, #0
.Ltmp110:
.LBB7_7:
	@DEBUG_VALUE: HAL_RTCEx_SetTamper_IT:sTamper <- $r1
	@DEBUG_VALUE: HAL_RTCEx_SetTamper_IT:hrtc <- $r0
	.loc	6 564 15 is_stmt 1      @ ../Drivers/STM32F7xx_HAL_Driver/Src/stm32f7xx_hal_rtc_ex.c:564:15
	ldr	r3, [r1, #16]
	ldr	r2, [r1]
.Ltmp111:
	.loc	6 564 6 is_stmt 0       @ ../Drivers/STM32F7xx_HAL_Driver/Src/stm32f7xx_hal_rtc_ex.c:564:6
	cbz	r3, .LBB7_9
.Ltmp112:
@ %bb.8:
	@DEBUG_VALUE: HAL_RTCEx_SetTamper_IT:sTamper <- $r1
	@DEBUG_VALUE: HAL_RTCEx_SetTamper_IT:hrtc <- $r0
	.loc	6 571 8 is_stmt 1       @ ../Drivers/STM32F7xx_HAL_Driver/Src/stm32f7xx_hal_rtc_ex.c:571:8
	mov.w	r3, #2359296
	.loc	6 575 8                 @ ../Drivers/STM32F7xx_HAL_Driver/Src/stm32f7xx_hal_rtc_ex.c:575:8
	tst.w	r2, #32
	.loc	6 571 8                 @ ../Drivers/STM32F7xx_HAL_Driver/Src/stm32f7xx_hal_rtc_ex.c:571:8
	and.w	r3, r3, r2, lsl #18
	str	r3, [r1, #16]
.Ltmp113:
	.loc	6 577 25                @ ../Drivers/STM32F7xx_HAL_Driver/Src/stm32f7xx_hal_rtc_ex.c:577:25
	itt	ne
	orrne	r3, r3, #16777216
	strne	r3, [r1, #16]
	b	.LBB7_10
.Ltmp114:
.LBB7_9:
	@DEBUG_VALUE: HAL_RTCEx_SetTamper_IT:sTamper <- $r1
	@DEBUG_VALUE: HAL_RTCEx_SetTamper_IT:hrtc <- $r0
	.loc	6 0 25 is_stmt 0        @ ../Drivers/STM32F7xx_HAL_Driver/Src/stm32f7xx_hal_rtc_ex.c:0:25
	movs	r3, #0
.Ltmp115:
.LBB7_10:
	@DEBUG_VALUE: HAL_RTCEx_SetTamper_IT:sTamper <- $r1
	@DEBUG_VALUE: HAL_RTCEx_SetTamper_IT:hrtc <- $r0
	.loc	6 582 62 is_stmt 1      @ ../Drivers/STM32F7xx_HAL_Driver/Src/stm32f7xx_hal_rtc_ex.c:582:62
	add.w	r11, r1, #20
	.loc	6 590 69                @ ../Drivers/STM32F7xx_HAL_Driver/Src/stm32f7xx_hal_rtc_ex.c:590:69
	orr.w	r6, r2, r2, lsl #1
	.loc	6 594 6                 @ ../Drivers/STM32F7xx_HAL_Driver/Src/stm32f7xx_hal_rtc_ex.c:594:6
	cmp	r2, #1
	.loc	6 582 62                @ ../Drivers/STM32F7xx_HAL_Driver/Src/stm32f7xx_hal_rtc_ex.c:582:62
	ldm.w	r11, {r9, r10, r11}
	.loc	6 583 71                @ ../Drivers/STM32F7xx_HAL_Driver/Src/stm32f7xx_hal_rtc_ex.c:583:71
	ldrd	r7, r8, [r1, #32]
	.loc	6 581 60                @ ../Drivers/STM32F7xx_HAL_Driver/Src/stm32f7xx_hal_rtc_ex.c:581:60
	ldr	r4, [r1, #4]
	.loc	6 585 9                 @ ../Drivers/STM32F7xx_HAL_Driver/Src/stm32f7xx_hal_rtc_ex.c:585:9
	ldr	r1, [r0]
.Ltmp116:
	.loc	6 585 26 is_stmt 0      @ ../Drivers/STM32F7xx_HAL_Driver/Src/stm32f7xx_hal_rtc_ex.c:585:26
	ldr	r5, [r1, #64]
	.loc	6 581 39 is_stmt 1      @ ../Drivers/STM32F7xx_HAL_Driver/Src/stm32f7xx_hal_rtc_ex.c:581:39
	orr.w	r4, r4, r2
	.loc	6 585 26                @ ../Drivers/STM32F7xx_HAL_Driver/Src/stm32f7xx_hal_rtc_ex.c:585:26
	bic.w	r5, r5, r6
	.loc	6 590 69                @ ../Drivers/STM32F7xx_HAL_Driver/Src/stm32f7xx_hal_rtc_ex.c:590:69
	ldr	r6, __arm_cp.7_0
	.loc	6 585 26                @ ../Drivers/STM32F7xx_HAL_Driver/Src/stm32f7xx_hal_rtc_ex.c:585:26
	and.w	r5, r5, r6
	.loc	6 581 70                @ ../Drivers/STM32F7xx_HAL_Driver/Src/stm32f7xx_hal_rtc_ex.c:581:70
	orr.w	r6, r4, r12
	.loc	6 581 100 is_stmt 0     @ ../Drivers/STM32F7xx_HAL_Driver/Src/stm32f7xx_hal_rtc_ex.c:581:100
	orr.w	r6, r6, lr
	.loc	6 585 26 is_stmt 1      @ ../Drivers/STM32F7xx_HAL_Driver/Src/stm32f7xx_hal_rtc_ex.c:585:26
	str	r5, [r1, #64]
	.loc	6 581 129               @ ../Drivers/STM32F7xx_HAL_Driver/Src/stm32f7xx_hal_rtc_ex.c:581:129
	orr.w	r3, r3, r6
	.loc	6 582 41                @ ../Drivers/STM32F7xx_HAL_Driver/Src/stm32f7xx_hal_rtc_ex.c:582:41
	orr.w	r3, r3, r9
	.loc	6 582 69 is_stmt 0      @ ../Drivers/STM32F7xx_HAL_Driver/Src/stm32f7xx_hal_rtc_ex.c:582:69
	orr.w	r3, r3, r10
	.loc	6 582 108               @ ../Drivers/STM32F7xx_HAL_Driver/Src/stm32f7xx_hal_rtc_ex.c:582:108
	orr.w	r3, r3, r11
	.loc	6 583 50 is_stmt 1      @ ../Drivers/STM32F7xx_HAL_Driver/Src/stm32f7xx_hal_rtc_ex.c:583:50
	orr.w	r3, r3, r7
	.loc	6 592 26                @ ../Drivers/STM32F7xx_HAL_Driver/Src/stm32f7xx_hal_rtc_ex.c:592:26
	ldr	r7, [r1, #64]
	.loc	6 583 84                @ ../Drivers/STM32F7xx_HAL_Driver/Src/stm32f7xx_hal_rtc_ex.c:583:84
	orr.w	r3, r3, r8
.Ltmp117:
	@DEBUG_VALUE: HAL_RTCEx_SetTamper_IT:tmpreg <- $r3
	.loc	6 592 26                @ ../Drivers/STM32F7xx_HAL_Driver/Src/stm32f7xx_hal_rtc_ex.c:592:26
	orr.w	r3, r3, r7
.Ltmp118:
	str	r3, [r1, #64]
	.loc	6 594 6                 @ ../Drivers/STM32F7xx_HAL_Driver/Src/stm32f7xx_hal_rtc_ex.c:594:6
	pop.w	{r4, r5, r6, r7, r8, r9, r10, r11, lr}
	bne	.LBB7_12
@ %bb.11:
	@DEBUG_VALUE: HAL_RTCEx_SetTamper_IT:hrtc <- $r0
.Ltmp119:
	.loc	6 597 5                 @ ../Drivers/STM32F7xx_HAL_Driver/Src/stm32f7xx_hal_rtc_ex.c:597:5
	ldr	r2, [r1, #12]!
	and	r2, r2, #128
	orn	r2, r2, #8320
	b	.LBB7_13
.Ltmp120:
.LBB7_12:
	@DEBUG_VALUE: HAL_RTCEx_SetTamper_IT:hrtc <- $r0
	.loc	6 0 5 is_stmt 0         @ ../Drivers/STM32F7xx_HAL_Driver/Src/stm32f7xx_hal_rtc_ex.c:0:5
	ldr	r3, [r1, #12]!
	.loc	6 599 11 is_stmt 1      @ ../Drivers/STM32F7xx_HAL_Driver/Src/stm32f7xx_hal_rtc_ex.c:599:11
	cmp	r2, #8
	and	r3, r3, #128
.Ltmp121:
	.loc	6 607 5                 @ ../Drivers/STM32F7xx_HAL_Driver/Src/stm32f7xx_hal_rtc_ex.c:607:5
	itte	ne
	ldrne	r2, __arm_cp.7_1
	orrne	r2, r3
.Ltmp122:
	.loc	6 602 5                 @ ../Drivers/STM32F7xx_HAL_Driver/Src/stm32f7xx_hal_rtc_ex.c:602:5
	orneq	r2, r3, #16512
.Ltmp123:
.LBB7_13:
	@DEBUG_VALUE: HAL_RTCEx_SetTamper_IT:hrtc <- $r0
	.loc	6 0 5 is_stmt 0         @ ../Drivers/STM32F7xx_HAL_Driver/Src/stm32f7xx_hal_rtc_ex.c:0:5
	str	r2, [r1]
	ldr	r1, __arm_cp.7_2
	.loc	6 611 3 is_stmt 1       @ ../Drivers/STM32F7xx_HAL_Driver/Src/stm32f7xx_hal_rtc_ex.c:611:3
	ldr	r2, [r1]
	orr	r2, r2, #2097152
	str	r2, [r1]
	.loc	6 613 14                @ ../Drivers/STM32F7xx_HAL_Driver/Src/stm32f7xx_hal_rtc_ex.c:613:14
	ldr	r2, [r1, #8]
	orr	r2, r2, #2097152
	str	r2, [r1, #8]
	movs	r2, #0
	.loc	6 615 15                @ ../Drivers/STM32F7xx_HAL_Driver/Src/stm32f7xx_hal_rtc_ex.c:615:15
	movs	r1, #1
.Ltmp124:
	.loc	6 618 3                 @ ../Drivers/STM32F7xx_HAL_Driver/Src/stm32f7xx_hal_rtc_ex.c:618:3
	strb	r2, [r0, #28]
.Ltmp125:
	.loc	6 615 15                @ ../Drivers/STM32F7xx_HAL_Driver/Src/stm32f7xx_hal_rtc_ex.c:615:15
	strb	r1, [r0, #29]
.LBB7_14:
	@DEBUG_VALUE: HAL_RTCEx_SetTamper_IT:hrtc <- $r0
	.loc	6 621 1                 @ ../Drivers/STM32F7xx_HAL_Driver/Src/stm32f7xx_hal_rtc_ex.c:621:1
	uxtb	r0, r2
	bx	lr
.Ltmp126:
	.p2align	2
@ %bb.15:
	.loc	6 0 1 is_stmt 0         @ ../Drivers/STM32F7xx_HAL_Driver/Src/stm32f7xx_hal_rtc_ex.c:0:1
__arm_cp.7_0:
	.long	4261412987              @ 0xfe00007b
.Lcpi_end3:
	.size	__arm_cp.7_0, .Lcpi_end3-__arm_cp.7_0
__arm_cp.7_1:
	.long	4294934399              @ 0xffff7f7f
.Lcpi_end4:
	.size	__arm_cp.7_1, .Lcpi_end4-__arm_cp.7_1
__arm_cp.7_2:
	.long	1073822720              @ 0x40013c00
.Lcpi_end5:
	.size	__arm_cp.7_2, .Lcpi_end5-__arm_cp.7_2
.Lfunc_end7:
	.size	HAL_RTCEx_SetTamper_IT, .Lfunc_end7-HAL_RTCEx_SetTamper_IT
	.cfi_endproc
	.cantunwind
	.fnend
                                        @ -- End function
	.section	.text.HAL_RTCEx_DeactivateTamper,"ax",%progbits
	.hidden	HAL_RTCEx_DeactivateTamper @ -- Begin function HAL_RTCEx_DeactivateTamper
	.globl	HAL_RTCEx_DeactivateTamper
	.p2align	2
	.type	HAL_RTCEx_DeactivateTamper,%function
	.code	16                      @ @HAL_RTCEx_DeactivateTamper
	.thumb_func
HAL_RTCEx_DeactivateTamper:
.Lfunc_begin8:
	.loc	6 632 0 is_stmt 1       @ ../Drivers/STM32F7xx_HAL_Driver/Src/stm32f7xx_hal_rtc_ex.c:632:0
	.fnstart
	.cfi_startproc
@ %bb.0:
	@DEBUG_VALUE: HAL_RTCEx_DeactivateTamper:hrtc <- $r0
	@DEBUG_VALUE: HAL_RTCEx_DeactivateTamper:hrtc <- $r0
	@DEBUG_VALUE: HAL_RTCEx_DeactivateTamper:Tamper <- $r1
	@DEBUG_VALUE: HAL_RTCEx_DeactivateTamper:Tamper <- $r1
	.loc	6 636 3 prologue_end    @ ../Drivers/STM32F7xx_HAL_Driver/Src/stm32f7xx_hal_rtc_ex.c:636:3
	ldrb	r3, [r0, #28]
	movs	r2, #2
.Ltmp127:
	.loc	6 636 3 is_stmt 0       @ ../Drivers/STM32F7xx_HAL_Driver/Src/stm32f7xx_hal_rtc_ex.c:636:3
	cmp	r3, #1
	beq	.LBB8_2
.Ltmp128:
@ %bb.1:
	@DEBUG_VALUE: HAL_RTCEx_DeactivateTamper:Tamper <- $r1
	@DEBUG_VALUE: HAL_RTCEx_DeactivateTamper:hrtc <- $r0
	.loc	6 0 3                   @ ../Drivers/STM32F7xx_HAL_Driver/Src/stm32f7xx_hal_rtc_ex.c:0:3
	.save	{r4, r5, r7, lr}
	push	{r4, r5, r7, lr}
	.cfi_def_cfa_offset 16
	.cfi_offset lr, -4
	.cfi_offset r7, -8
	.cfi_offset r5, -12
	.cfi_offset r4, -16
	.loc	6 638 15 is_stmt 1      @ ../Drivers/STM32F7xx_HAL_Driver/Src/stm32f7xx_hal_rtc_ex.c:638:15
	strb	r2, [r0, #29]
	movs	r2, #1
	ldr	r5, __arm_cp.8_0
	.loc	6 643 7                 @ ../Drivers/STM32F7xx_HAL_Driver/Src/stm32f7xx_hal_rtc_ex.c:643:7
	tst.w	r1, #1
.Ltmp129:
	.loc	6 636 3                 @ ../Drivers/STM32F7xx_HAL_Driver/Src/stm32f7xx_hal_rtc_ex.c:636:3
	strb	r2, [r0, #28]
.Ltmp130:
	.loc	6 641 9                 @ ../Drivers/STM32F7xx_HAL_Driver/Src/stm32f7xx_hal_rtc_ex.c:641:9
	ldr	r2, [r0]
	.loc	6 641 26 is_stmt 0      @ ../Drivers/STM32F7xx_HAL_Driver/Src/stm32f7xx_hal_rtc_ex.c:641:26
	ldr	r3, [r2, #64]
	bic.w	r3, r3, r1
	str	r3, [r2, #64]
.Ltmp131:
	.loc	6 646 28 is_stmt 1      @ ../Drivers/STM32F7xx_HAL_Driver/Src/stm32f7xx_hal_rtc_ex.c:646:28
	itttt	ne
	ldrne	r3, [r2, #64]
	addne.w	r4, r5, #4128768
	andne	r3, r4
	strne	r3, [r2, #64]
.Ltmp132:
	.loc	6 648 7                 @ ../Drivers/STM32F7xx_HAL_Driver/Src/stm32f7xx_hal_rtc_ex.c:648:7
	lsls	r3, r1, #28
.Ltmp133:
	.loc	6 651 28                @ ../Drivers/STM32F7xx_HAL_Driver/Src/stm32f7xx_hal_rtc_ex.c:651:28
	itttt	mi
	ldrmi	r3, [r2, #64]
	addmi.w	r4, r5, #3670016
	andmi	r3, r4
	strmi	r3, [r2, #64]
.Ltmp134:
	.loc	6 653 7                 @ ../Drivers/STM32F7xx_HAL_Driver/Src/stm32f7xx_hal_rtc_ex.c:653:7
	lsls	r1, r1, #26
.Ltmp135:
	.loc	6 656 28                @ ../Drivers/STM32F7xx_HAL_Driver/Src/stm32f7xx_hal_rtc_ex.c:656:28
	ittt	mi
	ldrmi	r1, [r2, #64]
	andmi	r1, r5
	strmi	r1, [r2, #64]
	movs	r2, #0
.Ltmp136:
	.loc	6 659 15                @ ../Drivers/STM32F7xx_HAL_Driver/Src/stm32f7xx_hal_rtc_ex.c:659:15
	movs	r1, #1
.Ltmp137:
	.loc	6 662 3                 @ ../Drivers/STM32F7xx_HAL_Driver/Src/stm32f7xx_hal_rtc_ex.c:662:3
	strb	r2, [r0, #28]
.Ltmp138:
	.loc	6 659 15                @ ../Drivers/STM32F7xx_HAL_Driver/Src/stm32f7xx_hal_rtc_ex.c:659:15
	strb	r1, [r0, #29]
	pop.w	{r4, r5, r7, lr}
.LBB8_2:
	@DEBUG_VALUE: HAL_RTCEx_DeactivateTamper:hrtc <- $r0
	.loc	6 665 1                 @ ../Drivers/STM32F7xx_HAL_Driver/Src/stm32f7xx_hal_rtc_ex.c:665:1
	uxtb	r0, r2
	bx	lr
.Ltmp139:
	.p2align	2
@ %bb.3:
	.loc	6 0 1 is_stmt 0         @ ../Drivers/STM32F7xx_HAL_Driver/Src/stm32f7xx_hal_rtc_ex.c:0:1
__arm_cp.8_0:
	.long	4290772987              @ 0xffbffffb
.Lcpi_end6:
	.size	__arm_cp.8_0, .Lcpi_end6-__arm_cp.8_0
.Lfunc_end8:
	.size	HAL_RTCEx_DeactivateTamper, .Lfunc_end8-HAL_RTCEx_DeactivateTamper
	.cfi_endproc
	.cantunwind
	.fnend
                                        @ -- End function
	.section	.text.HAL_RTCEx_TamperTimeStampIRQHandler,"ax",%progbits
	.hidden	HAL_RTCEx_TamperTimeStampIRQHandler @ -- Begin function HAL_RTCEx_TamperTimeStampIRQHandler
	.globl	HAL_RTCEx_TamperTimeStampIRQHandler
	.p2align	2
	.type	HAL_RTCEx_TamperTimeStampIRQHandler,%function
	.code	16                      @ @HAL_RTCEx_TamperTimeStampIRQHandler
	.thumb_func
HAL_RTCEx_TamperTimeStampIRQHandler:
.Lfunc_begin9:
	.loc	6 674 0 is_stmt 1       @ ../Drivers/STM32F7xx_HAL_Driver/Src/stm32f7xx_hal_rtc_ex.c:674:0
	.fnstart
	.cfi_startproc
@ %bb.0:
	.save	{r4, lr}
	push	{r4, lr}
	.cfi_def_cfa_offset 8
	.cfi_offset lr, -4
	.cfi_offset r4, -8
	@DEBUG_VALUE: HAL_RTCEx_TamperTimeStampIRQHandler:hrtc <- $r0
	mov	r4, r0
.Ltmp140:
	@DEBUG_VALUE: HAL_RTCEx_TamperTimeStampIRQHandler:hrtc <- $r4
	.loc	6 675 6 prologue_end    @ ../Drivers/STM32F7xx_HAL_Driver/Src/stm32f7xx_hal_rtc_ex.c:675:6
	ldr	r0, [r0]
	mov	r1, r0
	ldr	r2, [r1, #12]!
.Ltmp141:
	.loc	6 675 6 is_stmt 0       @ ../Drivers/STM32F7xx_HAL_Driver/Src/stm32f7xx_hal_rtc_ex.c:675:6
	tst.w	r2, #2048
.Ltmp142:
	.loc	6 678 35 is_stmt 1      @ ../Drivers/STM32F7xx_HAL_Driver/Src/stm32f7xx_hal_rtc_ex.c:678:35
	itt	ne
	ldrne	r2, [r0, #8]
.Ltmp143:
	.loc	6 678 8 is_stmt 0       @ ../Drivers/STM32F7xx_HAL_Driver/Src/stm32f7xx_hal_rtc_ex.c:678:8
	tstne.w	r2, #32768
	bne	.LBB9_11
.Ltmp144:
.LBB9_1:
	@DEBUG_VALUE: HAL_RTCEx_TamperTimeStampIRQHandler:hrtc <- $r4
	.loc	6 689 6 is_stmt 1       @ ../Drivers/STM32F7xx_HAL_Driver/Src/stm32f7xx_hal_rtc_ex.c:689:6
	ldr	r2, [r0, #12]
.Ltmp145:
	.loc	6 689 6 is_stmt 0       @ ../Drivers/STM32F7xx_HAL_Driver/Src/stm32f7xx_hal_rtc_ex.c:689:6
	tst.w	r2, #8192
	beq	.LBB9_4
.Ltmp146:
@ %bb.2:
	@DEBUG_VALUE: HAL_RTCEx_TamperTimeStampIRQHandler:hrtc <- $r4
	.loc	6 692 27 is_stmt 1      @ ../Drivers/STM32F7xx_HAL_Driver/Src/stm32f7xx_hal_rtc_ex.c:692:27
	ldr	r2, [r0, #64]
	.loc	6 692 76 is_stmt 0      @ ../Drivers/STM32F7xx_HAL_Driver/Src/stm32f7xx_hal_rtc_ex.c:692:76
	tst.w	r2, #4
	.loc	6 693 27 is_stmt 1      @ ../Drivers/STM32F7xx_HAL_Driver/Src/stm32f7xx_hal_rtc_ex.c:693:27
	itt	eq
	ldreq	r2, [r0, #64]
.Ltmp147:
	.loc	6 692 8                 @ ../Drivers/STM32F7xx_HAL_Driver/Src/stm32f7xx_hal_rtc_ex.c:692:8
	tsteq.w	r2, #65536
	beq	.LBB9_4
.Ltmp148:
@ %bb.3:
	@DEBUG_VALUE: HAL_RTCEx_TamperTimeStampIRQHandler:hrtc <- $r4
	.loc	6 696 7                 @ ../Drivers/STM32F7xx_HAL_Driver/Src/stm32f7xx_hal_rtc_ex.c:696:7
	mov	r0, r4
	bl	HAL_RTCEx_Tamper1EventCallback
	.loc	6 699 7                 @ ../Drivers/STM32F7xx_HAL_Driver/Src/stm32f7xx_hal_rtc_ex.c:699:7
	ldr	r0, [r4]
	mov	r1, r0
	ldr	r2, [r1, #12]!
	and	r2, r2, #128
	orn	r2, r2, #8320
	str	r2, [r1]
.Ltmp149:
.LBB9_4:
	@DEBUG_VALUE: HAL_RTCEx_TamperTimeStampIRQHandler:hrtc <- $r4
	.loc	6 704 6                 @ ../Drivers/STM32F7xx_HAL_Driver/Src/stm32f7xx_hal_rtc_ex.c:704:6
	ldr	r2, [r1]
.Ltmp150:
	.loc	6 704 6 is_stmt 0       @ ../Drivers/STM32F7xx_HAL_Driver/Src/stm32f7xx_hal_rtc_ex.c:704:6
	tst.w	r2, #16384
	beq	.LBB9_7
.Ltmp151:
@ %bb.5:
	@DEBUG_VALUE: HAL_RTCEx_TamperTimeStampIRQHandler:hrtc <- $r4
	.loc	6 707 27 is_stmt 1      @ ../Drivers/STM32F7xx_HAL_Driver/Src/stm32f7xx_hal_rtc_ex.c:707:27
	ldr	r2, [r0, #64]
	.loc	6 707 76 is_stmt 0      @ ../Drivers/STM32F7xx_HAL_Driver/Src/stm32f7xx_hal_rtc_ex.c:707:76
	tst.w	r2, #4
	.loc	6 708 27 is_stmt 1      @ ../Drivers/STM32F7xx_HAL_Driver/Src/stm32f7xx_hal_rtc_ex.c:708:27
	itt	eq
	ldreq	r2, [r0, #64]
.Ltmp152:
	.loc	6 707 8                 @ ../Drivers/STM32F7xx_HAL_Driver/Src/stm32f7xx_hal_rtc_ex.c:707:8
	tsteq.w	r2, #524288
	beq	.LBB9_7
.Ltmp153:
@ %bb.6:
	@DEBUG_VALUE: HAL_RTCEx_TamperTimeStampIRQHandler:hrtc <- $r4
	.loc	6 711 7                 @ ../Drivers/STM32F7xx_HAL_Driver/Src/stm32f7xx_hal_rtc_ex.c:711:7
	mov	r0, r4
	bl	HAL_RTCEx_Tamper2EventCallback
	.loc	6 714 7                 @ ../Drivers/STM32F7xx_HAL_Driver/Src/stm32f7xx_hal_rtc_ex.c:714:7
	ldr	r0, [r4]
	mov	r1, r0
	ldr	r2, [r1, #12]!
	and	r2, r2, #128
	orn	r2, r2, #16512
	str	r2, [r1]
.Ltmp154:
.LBB9_7:
	@DEBUG_VALUE: HAL_RTCEx_TamperTimeStampIRQHandler:hrtc <- $r4
	.loc	6 719 6                 @ ../Drivers/STM32F7xx_HAL_Driver/Src/stm32f7xx_hal_rtc_ex.c:719:6
	ldr	r1, [r1]
.Ltmp155:
	.loc	6 719 6 is_stmt 0       @ ../Drivers/STM32F7xx_HAL_Driver/Src/stm32f7xx_hal_rtc_ex.c:719:6
	tst.w	r1, #32768
	beq	.LBB9_10
.Ltmp156:
@ %bb.8:
	@DEBUG_VALUE: HAL_RTCEx_TamperTimeStampIRQHandler:hrtc <- $r4
	.loc	6 722 27 is_stmt 1      @ ../Drivers/STM32F7xx_HAL_Driver/Src/stm32f7xx_hal_rtc_ex.c:722:27
	ldr	r1, [r0, #64]
	.loc	6 722 76 is_stmt 0      @ ../Drivers/STM32F7xx_HAL_Driver/Src/stm32f7xx_hal_rtc_ex.c:722:76
	tst.w	r1, #4
	.loc	6 723 27 is_stmt 1      @ ../Drivers/STM32F7xx_HAL_Driver/Src/stm32f7xx_hal_rtc_ex.c:723:27
	itt	eq
	ldreq	r0, [r0, #64]
.Ltmp157:
	.loc	6 722 8                 @ ../Drivers/STM32F7xx_HAL_Driver/Src/stm32f7xx_hal_rtc_ex.c:722:8
	tsteq.w	r0, #4194304
	beq	.LBB9_10
.Ltmp158:
@ %bb.9:
	@DEBUG_VALUE: HAL_RTCEx_TamperTimeStampIRQHandler:hrtc <- $r4
	.loc	6 726 7                 @ ../Drivers/STM32F7xx_HAL_Driver/Src/stm32f7xx_hal_rtc_ex.c:726:7
	mov	r0, r4
	bl	HAL_RTCEx_Tamper3EventCallback
	.loc	6 729 7                 @ ../Drivers/STM32F7xx_HAL_Driver/Src/stm32f7xx_hal_rtc_ex.c:729:7
	ldr	r0, [r4]
	ldr	r2, __arm_cp.9_0
	ldr	r1, [r0, #12]
	and	r1, r1, #128
	orrs	r1, r2
	str	r1, [r0, #12]
.Ltmp159:
.LBB9_10:
	@DEBUG_VALUE: HAL_RTCEx_TamperTimeStampIRQHandler:hrtc <- $r4
	.loc	6 734 3                 @ ../Drivers/STM32F7xx_HAL_Driver/Src/stm32f7xx_hal_rtc_ex.c:734:3
	ldr	r0, __arm_cp.9_1
	mov.w	r1, #2097152
	str	r1, [r0]
	.loc	6 737 15                @ ../Drivers/STM32F7xx_HAL_Driver/Src/stm32f7xx_hal_rtc_ex.c:737:15
	movs	r0, #1
	strb	r0, [r4, #29]
	.loc	6 738 1                 @ ../Drivers/STM32F7xx_HAL_Driver/Src/stm32f7xx_hal_rtc_ex.c:738:1
	pop	{r4, pc}
.Ltmp160:
.LBB9_11:
	@DEBUG_VALUE: HAL_RTCEx_TamperTimeStampIRQHandler:hrtc <- $r4
	.loc	6 681 9                 @ ../Drivers/STM32F7xx_HAL_Driver/Src/stm32f7xx_hal_rtc_ex.c:681:9
	mov	r0, r4
	bl	HAL_RTCEx_TimeStampEventCallback
	.loc	6 684 7                 @ ../Drivers/STM32F7xx_HAL_Driver/Src/stm32f7xx_hal_rtc_ex.c:684:7
	ldr	r0, [r4]
	mov	r1, r0
	ldr	r2, [r1, #12]!
	and	r2, r2, #128
	orn	r2, r2, #2176
	str	r2, [r1]
	b	.LBB9_1
.Ltmp161:
	.p2align	2
@ %bb.12:
	.loc	6 0 7 is_stmt 0         @ ../Drivers/STM32F7xx_HAL_Driver/Src/stm32f7xx_hal_rtc_ex.c:0:7
__arm_cp.9_0:
	.long	4294934399              @ 0xffff7f7f
.Lcpi_end7:
	.size	__arm_cp.9_0, .Lcpi_end7-__arm_cp.9_0
__arm_cp.9_1:
	.long	1073822740              @ 0x40013c14
.Lcpi_end8:
	.size	__arm_cp.9_1, .Lcpi_end8-__arm_cp.9_1
.Lfunc_end9:
	.size	HAL_RTCEx_TamperTimeStampIRQHandler, .Lfunc_end9-HAL_RTCEx_TamperTimeStampIRQHandler
	.cfi_endproc
	.cantunwind
	.fnend
                                        @ -- End function
	.section	.text.HAL_RTCEx_TimeStampEventCallback,"ax",%progbits
	.hidden	HAL_RTCEx_TimeStampEventCallback @ -- Begin function HAL_RTCEx_TimeStampEventCallback
	.weak	HAL_RTCEx_TimeStampEventCallback
	.p2align	1
	.type	HAL_RTCEx_TimeStampEventCallback,%function
	.code	16                      @ @HAL_RTCEx_TimeStampEventCallback
	.thumb_func
HAL_RTCEx_TimeStampEventCallback:
.Lfunc_begin10:
	.loc	6 747 0 is_stmt 1       @ ../Drivers/STM32F7xx_HAL_Driver/Src/stm32f7xx_hal_rtc_ex.c:747:0
	.fnstart
	.cfi_startproc
@ %bb.0:
	@DEBUG_VALUE: HAL_RTCEx_TimeStampEventCallback:hrtc <- $r0
	.loc	6 754 1 prologue_end    @ ../Drivers/STM32F7xx_HAL_Driver/Src/stm32f7xx_hal_rtc_ex.c:754:1
	bx	lr
.Ltmp162:
.Lfunc_end10:
	.size	HAL_RTCEx_TimeStampEventCallback, .Lfunc_end10-HAL_RTCEx_TimeStampEventCallback
	.cfi_endproc
	.cantunwind
	.fnend
                                        @ -- End function
	.section	.text.HAL_RTCEx_Tamper1EventCallback,"ax",%progbits
	.hidden	HAL_RTCEx_Tamper1EventCallback @ -- Begin function HAL_RTCEx_Tamper1EventCallback
	.weak	HAL_RTCEx_Tamper1EventCallback
	.p2align	1
	.type	HAL_RTCEx_Tamper1EventCallback,%function
	.code	16                      @ @HAL_RTCEx_Tamper1EventCallback
	.thumb_func
HAL_RTCEx_Tamper1EventCallback:
.Lfunc_begin11:
	.loc	6 763 0                 @ ../Drivers/STM32F7xx_HAL_Driver/Src/stm32f7xx_hal_rtc_ex.c:763:0
	.fnstart
	.cfi_startproc
@ %bb.0:
	@DEBUG_VALUE: HAL_RTCEx_Tamper1EventCallback:hrtc <- $r0
	.loc	6 770 1 prologue_end    @ ../Drivers/STM32F7xx_HAL_Driver/Src/stm32f7xx_hal_rtc_ex.c:770:1
	bx	lr
.Ltmp163:
.Lfunc_end11:
	.size	HAL_RTCEx_Tamper1EventCallback, .Lfunc_end11-HAL_RTCEx_Tamper1EventCallback
	.cfi_endproc
	.cantunwind
	.fnend
                                        @ -- End function
	.section	.text.HAL_RTCEx_Tamper2EventCallback,"ax",%progbits
	.hidden	HAL_RTCEx_Tamper2EventCallback @ -- Begin function HAL_RTCEx_Tamper2EventCallback
	.weak	HAL_RTCEx_Tamper2EventCallback
	.p2align	1
	.type	HAL_RTCEx_Tamper2EventCallback,%function
	.code	16                      @ @HAL_RTCEx_Tamper2EventCallback
	.thumb_func
HAL_RTCEx_Tamper2EventCallback:
.Lfunc_begin12:
	.loc	6 779 0                 @ ../Drivers/STM32F7xx_HAL_Driver/Src/stm32f7xx_hal_rtc_ex.c:779:0
	.fnstart
	.cfi_startproc
@ %bb.0:
	@DEBUG_VALUE: HAL_RTCEx_Tamper2EventCallback:hrtc <- $r0
	.loc	6 786 1 prologue_end    @ ../Drivers/STM32F7xx_HAL_Driver/Src/stm32f7xx_hal_rtc_ex.c:786:1
	bx	lr
.Ltmp164:
.Lfunc_end12:
	.size	HAL_RTCEx_Tamper2EventCallback, .Lfunc_end12-HAL_RTCEx_Tamper2EventCallback
	.cfi_endproc
	.cantunwind
	.fnend
                                        @ -- End function
	.section	.text.HAL_RTCEx_Tamper3EventCallback,"ax",%progbits
	.hidden	HAL_RTCEx_Tamper3EventCallback @ -- Begin function HAL_RTCEx_Tamper3EventCallback
	.weak	HAL_RTCEx_Tamper3EventCallback
	.p2align	1
	.type	HAL_RTCEx_Tamper3EventCallback,%function
	.code	16                      @ @HAL_RTCEx_Tamper3EventCallback
	.thumb_func
HAL_RTCEx_Tamper3EventCallback:
.Lfunc_begin13:
	.loc	6 794 0                 @ ../Drivers/STM32F7xx_HAL_Driver/Src/stm32f7xx_hal_rtc_ex.c:794:0
	.fnstart
	.cfi_startproc
@ %bb.0:
	@DEBUG_VALUE: HAL_RTCEx_Tamper3EventCallback:hrtc <- $r0
	.loc	6 801 1 prologue_end    @ ../Drivers/STM32F7xx_HAL_Driver/Src/stm32f7xx_hal_rtc_ex.c:801:1
	bx	lr
.Ltmp165:
.Lfunc_end13:
	.size	HAL_RTCEx_Tamper3EventCallback, .Lfunc_end13-HAL_RTCEx_Tamper3EventCallback
	.cfi_endproc
	.cantunwind
	.fnend
                                        @ -- End function
	.section	.text.HAL_RTCEx_PollForTimeStampEvent,"ax",%progbits
	.hidden	HAL_RTCEx_PollForTimeStampEvent @ -- Begin function HAL_RTCEx_PollForTimeStampEvent
	.globl	HAL_RTCEx_PollForTimeStampEvent
	.p2align	1
	.type	HAL_RTCEx_PollForTimeStampEvent,%function
	.code	16                      @ @HAL_RTCEx_PollForTimeStampEvent
	.thumb_func
HAL_RTCEx_PollForTimeStampEvent:
.Lfunc_begin14:
	.loc	6 811 0                 @ ../Drivers/STM32F7xx_HAL_Driver/Src/stm32f7xx_hal_rtc_ex.c:811:0
	.fnstart
	.cfi_startproc
@ %bb.0:
	.save	{r4, r5, r6, r7, lr}
	.pad	#4
	push	{r3, r4, r5, r6, r7, lr}
	.cfi_def_cfa_offset 24
	.cfi_offset lr, -4
	.cfi_offset r7, -8
	.cfi_offset r6, -12
	.cfi_offset r5, -16
	.cfi_offset r4, -20
	@DEBUG_VALUE: HAL_RTCEx_PollForTimeStampEvent:hrtc <- $r0
	@DEBUG_VALUE: HAL_RTCEx_PollForTimeStampEvent:Timeout <- $r1
	mov	r5, r1
	mov	r4, r0
.Ltmp166:
	@DEBUG_VALUE: HAL_RTCEx_PollForTimeStampEvent:tickstart <- 0
	@DEBUG_VALUE: HAL_RTCEx_PollForTimeStampEvent:Timeout <- $r5
	@DEBUG_VALUE: HAL_RTCEx_PollForTimeStampEvent:hrtc <- $r4
	.loc	6 815 15 prologue_end   @ ../Drivers/STM32F7xx_HAL_Driver/Src/stm32f7xx_hal_rtc_ex.c:815:15
	bl	HAL_GetTick
	mov	r6, r0
.Ltmp167:
	@DEBUG_VALUE: HAL_RTCEx_PollForTimeStampEvent:tickstart <- $r6
	.loc	6 0 15 is_stmt 0        @ ../Drivers/STM32F7xx_HAL_Driver/Src/stm32f7xx_hal_rtc_ex.c:0:15
	adds	r7, r5, #1
.Ltmp168:
.LBB14_1:                               @ =>This Inner Loop Header: Depth=1
	@DEBUG_VALUE: HAL_RTCEx_PollForTimeStampEvent:tickstart <- $r6
	@DEBUG_VALUE: HAL_RTCEx_PollForTimeStampEvent:hrtc <- $r4
	@DEBUG_VALUE: HAL_RTCEx_PollForTimeStampEvent:Timeout <- $r5
	.loc	6 817 9 is_stmt 1       @ ../Drivers/STM32F7xx_HAL_Driver/Src/stm32f7xx_hal_rtc_ex.c:817:9
	ldr	r0, [r4]
	ldr	r1, [r0, #12]
	.loc	6 817 3 is_stmt 0       @ ../Drivers/STM32F7xx_HAL_Driver/Src/stm32f7xx_hal_rtc_ex.c:817:3
	tst.w	r1, #2048
	bne	.LBB14_6
.Ltmp169:
@ %bb.2:                                @   in Loop: Header=BB14_1 Depth=1
	@DEBUG_VALUE: HAL_RTCEx_PollForTimeStampEvent:tickstart <- $r6
	@DEBUG_VALUE: HAL_RTCEx_PollForTimeStampEvent:hrtc <- $r4
	@DEBUG_VALUE: HAL_RTCEx_PollForTimeStampEvent:Timeout <- $r5
	.loc	6 819 8 is_stmt 1       @ ../Drivers/STM32F7xx_HAL_Driver/Src/stm32f7xx_hal_rtc_ex.c:819:8
	cmp	r7, #0
	beq	.LBB14_1
.Ltmp170:
@ %bb.3:                                @   in Loop: Header=BB14_1 Depth=1
	@DEBUG_VALUE: HAL_RTCEx_PollForTimeStampEvent:tickstart <- $r6
	@DEBUG_VALUE: HAL_RTCEx_PollForTimeStampEvent:hrtc <- $r4
	@DEBUG_VALUE: HAL_RTCEx_PollForTimeStampEvent:Timeout <- $r5
	cbz	r5, .LBB14_5
.Ltmp171:
@ %bb.4:                                @   in Loop: Header=BB14_1 Depth=1
	@DEBUG_VALUE: HAL_RTCEx_PollForTimeStampEvent:tickstart <- $r6
	@DEBUG_VALUE: HAL_RTCEx_PollForTimeStampEvent:hrtc <- $r4
	@DEBUG_VALUE: HAL_RTCEx_PollForTimeStampEvent:Timeout <- $r5
	.loc	6 821 28                @ ../Drivers/STM32F7xx_HAL_Driver/Src/stm32f7xx_hal_rtc_ex.c:821:28
	bl	HAL_GetTick
	.loc	6 821 42 is_stmt 0      @ ../Drivers/STM32F7xx_HAL_Driver/Src/stm32f7xx_hal_rtc_ex.c:821:42
	subs	r0, r0, r6
.Ltmp172:
	.loc	6 821 10                @ ../Drivers/STM32F7xx_HAL_Driver/Src/stm32f7xx_hal_rtc_ex.c:821:10
	cmp	r0, r5
	bls	.LBB14_1
.Ltmp173:
.LBB14_5:
	@DEBUG_VALUE: HAL_RTCEx_PollForTimeStampEvent:tickstart <- $r6
	@DEBUG_VALUE: HAL_RTCEx_PollForTimeStampEvent:hrtc <- $r4
	@DEBUG_VALUE: HAL_RTCEx_PollForTimeStampEvent:Timeout <- $r5
	.loc	6 0 10                  @ ../Drivers/STM32F7xx_HAL_Driver/Src/stm32f7xx_hal_rtc_ex.c:0:10
	movs	r0, #3
	movs	r1, #3
	b	.LBB14_9
.Ltmp174:
.LBB14_6:
	@DEBUG_VALUE: HAL_RTCEx_PollForTimeStampEvent:tickstart <- $r6
	@DEBUG_VALUE: HAL_RTCEx_PollForTimeStampEvent:hrtc <- $r4
	@DEBUG_VALUE: HAL_RTCEx_PollForTimeStampEvent:Timeout <- $r5
	.loc	6 829 6 is_stmt 1       @ ../Drivers/STM32F7xx_HAL_Driver/Src/stm32f7xx_hal_rtc_ex.c:829:6
	ldr	r1, [r0, #12]
.Ltmp175:
	.loc	6 829 6 is_stmt 0       @ ../Drivers/STM32F7xx_HAL_Driver/Src/stm32f7xx_hal_rtc_ex.c:829:6
	tst.w	r1, #4096
	bne	.LBB14_8
.Ltmp176:
@ %bb.7:
	@DEBUG_VALUE: HAL_RTCEx_PollForTimeStampEvent:tickstart <- $r6
	@DEBUG_VALUE: HAL_RTCEx_PollForTimeStampEvent:hrtc <- $r4
	@DEBUG_VALUE: HAL_RTCEx_PollForTimeStampEvent:Timeout <- $r5
	.loc	6 0 6                   @ ../Drivers/STM32F7xx_HAL_Driver/Src/stm32f7xx_hal_rtc_ex.c:0:6
	movs	r1, #0
	movs	r0, #1
	b	.LBB14_9
.Ltmp177:
.LBB14_8:
	@DEBUG_VALUE: HAL_RTCEx_PollForTimeStampEvent:tickstart <- $r6
	@DEBUG_VALUE: HAL_RTCEx_PollForTimeStampEvent:hrtc <- $r4
	@DEBUG_VALUE: HAL_RTCEx_PollForTimeStampEvent:Timeout <- $r5
	.loc	6 832 5 is_stmt 1       @ ../Drivers/STM32F7xx_HAL_Driver/Src/stm32f7xx_hal_rtc_ex.c:832:5
	ldr	r1, [r0, #12]
	and	r1, r1, #128
	orn	r1, r1, #4224
	str	r1, [r0, #12]
	movs	r1, #1
	movs	r0, #4
.Ltmp178:
.LBB14_9:
	@DEBUG_VALUE: HAL_RTCEx_PollForTimeStampEvent:tickstart <- $r6
	@DEBUG_VALUE: HAL_RTCEx_PollForTimeStampEvent:hrtc <- $r4
	@DEBUG_VALUE: HAL_RTCEx_PollForTimeStampEvent:Timeout <- $r5
	.loc	6 0 5 is_stmt 0         @ ../Drivers/STM32F7xx_HAL_Driver/Src/stm32f7xx_hal_rtc_ex.c:0:5
	strb	r0, [r4, #29]
	.loc	6 844 1 is_stmt 1       @ ../Drivers/STM32F7xx_HAL_Driver/Src/stm32f7xx_hal_rtc_ex.c:844:1
	uxtb	r0, r1
	add	sp, #4
	pop	{r4, r5, r6, r7, pc}
.Ltmp179:
.Lfunc_end14:
	.size	HAL_RTCEx_PollForTimeStampEvent, .Lfunc_end14-HAL_RTCEx_PollForTimeStampEvent
	.cfi_endproc
	.cantunwind
	.fnend
                                        @ -- End function
	.section	.text.HAL_RTCEx_PollForTamper1Event,"ax",%progbits
	.hidden	HAL_RTCEx_PollForTamper1Event @ -- Begin function HAL_RTCEx_PollForTamper1Event
	.globl	HAL_RTCEx_PollForTamper1Event
	.p2align	1
	.type	HAL_RTCEx_PollForTamper1Event,%function
	.code	16                      @ @HAL_RTCEx_PollForTamper1Event
	.thumb_func
HAL_RTCEx_PollForTamper1Event:
.Lfunc_begin15:
	.loc	6 854 0                 @ ../Drivers/STM32F7xx_HAL_Driver/Src/stm32f7xx_hal_rtc_ex.c:854:0
	.fnstart
	.cfi_startproc
@ %bb.0:
	.save	{r4, r5, r6, r7, lr}
	.pad	#4
	push	{r3, r4, r5, r6, r7, lr}
	.cfi_def_cfa_offset 24
	.cfi_offset lr, -4
	.cfi_offset r7, -8
	.cfi_offset r6, -12
	.cfi_offset r5, -16
	.cfi_offset r4, -20
	@DEBUG_VALUE: HAL_RTCEx_PollForTamper1Event:hrtc <- $r0
	@DEBUG_VALUE: HAL_RTCEx_PollForTamper1Event:Timeout <- $r1
	mov	r5, r1
	mov	r4, r0
.Ltmp180:
	@DEBUG_VALUE: HAL_RTCEx_PollForTamper1Event:tickstart <- 0
	@DEBUG_VALUE: HAL_RTCEx_PollForTamper1Event:Timeout <- $r5
	@DEBUG_VALUE: HAL_RTCEx_PollForTamper1Event:hrtc <- $r4
	.loc	6 858 15 prologue_end   @ ../Drivers/STM32F7xx_HAL_Driver/Src/stm32f7xx_hal_rtc_ex.c:858:15
	bl	HAL_GetTick
	mov	r6, r0
.Ltmp181:
	@DEBUG_VALUE: HAL_RTCEx_PollForTamper1Event:tickstart <- $r6
	.loc	6 0 15 is_stmt 0        @ ../Drivers/STM32F7xx_HAL_Driver/Src/stm32f7xx_hal_rtc_ex.c:0:15
	adds	r7, r5, #1
.Ltmp182:
.LBB15_1:                               @ =>This Inner Loop Header: Depth=1
	@DEBUG_VALUE: HAL_RTCEx_PollForTamper1Event:tickstart <- $r6
	@DEBUG_VALUE: HAL_RTCEx_PollForTamper1Event:hrtc <- $r4
	@DEBUG_VALUE: HAL_RTCEx_PollForTamper1Event:Timeout <- $r5
	.loc	6 861 9 is_stmt 1       @ ../Drivers/STM32F7xx_HAL_Driver/Src/stm32f7xx_hal_rtc_ex.c:861:9
	ldr	r0, [r4]
	ldr	r1, [r0, #12]
	.loc	6 861 3 is_stmt 0       @ ../Drivers/STM32F7xx_HAL_Driver/Src/stm32f7xx_hal_rtc_ex.c:861:3
	tst.w	r1, #8192
	bne	.LBB15_6
.Ltmp183:
@ %bb.2:                                @   in Loop: Header=BB15_1 Depth=1
	@DEBUG_VALUE: HAL_RTCEx_PollForTamper1Event:tickstart <- $r6
	@DEBUG_VALUE: HAL_RTCEx_PollForTamper1Event:hrtc <- $r4
	@DEBUG_VALUE: HAL_RTCEx_PollForTamper1Event:Timeout <- $r5
	.loc	6 863 8 is_stmt 1       @ ../Drivers/STM32F7xx_HAL_Driver/Src/stm32f7xx_hal_rtc_ex.c:863:8
	cmp	r7, #0
	beq	.LBB15_1
.Ltmp184:
@ %bb.3:                                @   in Loop: Header=BB15_1 Depth=1
	@DEBUG_VALUE: HAL_RTCEx_PollForTamper1Event:tickstart <- $r6
	@DEBUG_VALUE: HAL_RTCEx_PollForTamper1Event:hrtc <- $r4
	@DEBUG_VALUE: HAL_RTCEx_PollForTamper1Event:Timeout <- $r5
	cbz	r5, .LBB15_5
.Ltmp185:
@ %bb.4:                                @   in Loop: Header=BB15_1 Depth=1
	@DEBUG_VALUE: HAL_RTCEx_PollForTamper1Event:tickstart <- $r6
	@DEBUG_VALUE: HAL_RTCEx_PollForTamper1Event:hrtc <- $r4
	@DEBUG_VALUE: HAL_RTCEx_PollForTamper1Event:Timeout <- $r5
	.loc	6 865 28                @ ../Drivers/STM32F7xx_HAL_Driver/Src/stm32f7xx_hal_rtc_ex.c:865:28
	bl	HAL_GetTick
	.loc	6 865 42 is_stmt 0      @ ../Drivers/STM32F7xx_HAL_Driver/Src/stm32f7xx_hal_rtc_ex.c:865:42
	subs	r0, r0, r6
.Ltmp186:
	.loc	6 865 10                @ ../Drivers/STM32F7xx_HAL_Driver/Src/stm32f7xx_hal_rtc_ex.c:865:10
	cmp	r0, r5
	bls	.LBB15_1
.Ltmp187:
.LBB15_5:
	@DEBUG_VALUE: HAL_RTCEx_PollForTamper1Event:tickstart <- $r6
	@DEBUG_VALUE: HAL_RTCEx_PollForTamper1Event:hrtc <- $r4
	@DEBUG_VALUE: HAL_RTCEx_PollForTamper1Event:Timeout <- $r5
	.loc	6 0 10                  @ ../Drivers/STM32F7xx_HAL_Driver/Src/stm32f7xx_hal_rtc_ex.c:0:10
	movs	r0, #3
	movs	r1, #3
	b	.LBB15_7
.Ltmp188:
.LBB15_6:
	@DEBUG_VALUE: HAL_RTCEx_PollForTamper1Event:tickstart <- $r6
	@DEBUG_VALUE: HAL_RTCEx_PollForTamper1Event:hrtc <- $r4
	@DEBUG_VALUE: HAL_RTCEx_PollForTamper1Event:Timeout <- $r5
	.loc	6 874 3 is_stmt 1       @ ../Drivers/STM32F7xx_HAL_Driver/Src/stm32f7xx_hal_rtc_ex.c:874:3
	ldr	r1, [r0, #12]
	and	r1, r1, #128
	orn	r1, r1, #8320
	str	r1, [r0, #12]
	movs	r1, #0
	movs	r0, #1
.Ltmp189:
.LBB15_7:
	@DEBUG_VALUE: HAL_RTCEx_PollForTamper1Event:tickstart <- $r6
	@DEBUG_VALUE: HAL_RTCEx_PollForTamper1Event:hrtc <- $r4
	@DEBUG_VALUE: HAL_RTCEx_PollForTamper1Event:Timeout <- $r5
	.loc	6 0 3 is_stmt 0         @ ../Drivers/STM32F7xx_HAL_Driver/Src/stm32f7xx_hal_rtc_ex.c:0:3
	strb	r0, [r4, #29]
	.loc	6 880 1 is_stmt 1       @ ../Drivers/STM32F7xx_HAL_Driver/Src/stm32f7xx_hal_rtc_ex.c:880:1
	uxtb	r0, r1
	add	sp, #4
	pop	{r4, r5, r6, r7, pc}
.Ltmp190:
.Lfunc_end15:
	.size	HAL_RTCEx_PollForTamper1Event, .Lfunc_end15-HAL_RTCEx_PollForTamper1Event
	.cfi_endproc
	.cantunwind
	.fnend
                                        @ -- End function
	.section	.text.HAL_RTCEx_PollForTamper2Event,"ax",%progbits
	.hidden	HAL_RTCEx_PollForTamper2Event @ -- Begin function HAL_RTCEx_PollForTamper2Event
	.globl	HAL_RTCEx_PollForTamper2Event
	.p2align	1
	.type	HAL_RTCEx_PollForTamper2Event,%function
	.code	16                      @ @HAL_RTCEx_PollForTamper2Event
	.thumb_func
HAL_RTCEx_PollForTamper2Event:
.Lfunc_begin16:
	.loc	6 890 0                 @ ../Drivers/STM32F7xx_HAL_Driver/Src/stm32f7xx_hal_rtc_ex.c:890:0
	.fnstart
	.cfi_startproc
@ %bb.0:
	.save	{r4, r5, r6, r7, lr}
	.pad	#4
	push	{r3, r4, r5, r6, r7, lr}
	.cfi_def_cfa_offset 24
	.cfi_offset lr, -4
	.cfi_offset r7, -8
	.cfi_offset r6, -12
	.cfi_offset r5, -16
	.cfi_offset r4, -20
	@DEBUG_VALUE: HAL_RTCEx_PollForTamper2Event:hrtc <- $r0
	@DEBUG_VALUE: HAL_RTCEx_PollForTamper2Event:Timeout <- $r1
	mov	r5, r1
	mov	r4, r0
.Ltmp191:
	@DEBUG_VALUE: HAL_RTCEx_PollForTamper2Event:tickstart <- 0
	@DEBUG_VALUE: HAL_RTCEx_PollForTamper2Event:Timeout <- $r5
	@DEBUG_VALUE: HAL_RTCEx_PollForTamper2Event:hrtc <- $r4
	.loc	6 894 15 prologue_end   @ ../Drivers/STM32F7xx_HAL_Driver/Src/stm32f7xx_hal_rtc_ex.c:894:15
	bl	HAL_GetTick
	mov	r6, r0
.Ltmp192:
	@DEBUG_VALUE: HAL_RTCEx_PollForTamper2Event:tickstart <- $r6
	.loc	6 0 15 is_stmt 0        @ ../Drivers/STM32F7xx_HAL_Driver/Src/stm32f7xx_hal_rtc_ex.c:0:15
	adds	r7, r5, #1
.Ltmp193:
.LBB16_1:                               @ =>This Inner Loop Header: Depth=1
	@DEBUG_VALUE: HAL_RTCEx_PollForTamper2Event:tickstart <- $r6
	@DEBUG_VALUE: HAL_RTCEx_PollForTamper2Event:hrtc <- $r4
	@DEBUG_VALUE: HAL_RTCEx_PollForTamper2Event:Timeout <- $r5
	.loc	6 897 9 is_stmt 1       @ ../Drivers/STM32F7xx_HAL_Driver/Src/stm32f7xx_hal_rtc_ex.c:897:9
	ldr	r0, [r4]
	ldr	r1, [r0, #12]
	.loc	6 897 3 is_stmt 0       @ ../Drivers/STM32F7xx_HAL_Driver/Src/stm32f7xx_hal_rtc_ex.c:897:3
	tst.w	r1, #16384
	bne	.LBB16_6
.Ltmp194:
@ %bb.2:                                @   in Loop: Header=BB16_1 Depth=1
	@DEBUG_VALUE: HAL_RTCEx_PollForTamper2Event:tickstart <- $r6
	@DEBUG_VALUE: HAL_RTCEx_PollForTamper2Event:hrtc <- $r4
	@DEBUG_VALUE: HAL_RTCEx_PollForTamper2Event:Timeout <- $r5
	.loc	6 899 8 is_stmt 1       @ ../Drivers/STM32F7xx_HAL_Driver/Src/stm32f7xx_hal_rtc_ex.c:899:8
	cmp	r7, #0
	beq	.LBB16_1
.Ltmp195:
@ %bb.3:                                @   in Loop: Header=BB16_1 Depth=1
	@DEBUG_VALUE: HAL_RTCEx_PollForTamper2Event:tickstart <- $r6
	@DEBUG_VALUE: HAL_RTCEx_PollForTamper2Event:hrtc <- $r4
	@DEBUG_VALUE: HAL_RTCEx_PollForTamper2Event:Timeout <- $r5
	cbz	r5, .LBB16_5
.Ltmp196:
@ %bb.4:                                @   in Loop: Header=BB16_1 Depth=1
	@DEBUG_VALUE: HAL_RTCEx_PollForTamper2Event:tickstart <- $r6
	@DEBUG_VALUE: HAL_RTCEx_PollForTamper2Event:hrtc <- $r4
	@DEBUG_VALUE: HAL_RTCEx_PollForTamper2Event:Timeout <- $r5
	.loc	6 901 28                @ ../Drivers/STM32F7xx_HAL_Driver/Src/stm32f7xx_hal_rtc_ex.c:901:28
	bl	HAL_GetTick
	.loc	6 901 42 is_stmt 0      @ ../Drivers/STM32F7xx_HAL_Driver/Src/stm32f7xx_hal_rtc_ex.c:901:42
	subs	r0, r0, r6
.Ltmp197:
	.loc	6 901 10                @ ../Drivers/STM32F7xx_HAL_Driver/Src/stm32f7xx_hal_rtc_ex.c:901:10
	cmp	r0, r5
	bls	.LBB16_1
.Ltmp198:
.LBB16_5:
	@DEBUG_VALUE: HAL_RTCEx_PollForTamper2Event:tickstart <- $r6
	@DEBUG_VALUE: HAL_RTCEx_PollForTamper2Event:hrtc <- $r4
	@DEBUG_VALUE: HAL_RTCEx_PollForTamper2Event:Timeout <- $r5
	.loc	6 0 10                  @ ../Drivers/STM32F7xx_HAL_Driver/Src/stm32f7xx_hal_rtc_ex.c:0:10
	movs	r0, #3
	movs	r1, #3
	b	.LBB16_7
.Ltmp199:
.LBB16_6:
	@DEBUG_VALUE: HAL_RTCEx_PollForTamper2Event:tickstart <- $r6
	@DEBUG_VALUE: HAL_RTCEx_PollForTamper2Event:hrtc <- $r4
	@DEBUG_VALUE: HAL_RTCEx_PollForTamper2Event:Timeout <- $r5
	.loc	6 910 3 is_stmt 1       @ ../Drivers/STM32F7xx_HAL_Driver/Src/stm32f7xx_hal_rtc_ex.c:910:3
	ldr	r1, [r0, #12]
	and	r1, r1, #128
	orn	r1, r1, #16512
	str	r1, [r0, #12]
	movs	r1, #0
	movs	r0, #1
.Ltmp200:
.LBB16_7:
	@DEBUG_VALUE: HAL_RTCEx_PollForTamper2Event:tickstart <- $r6
	@DEBUG_VALUE: HAL_RTCEx_PollForTamper2Event:hrtc <- $r4
	@DEBUG_VALUE: HAL_RTCEx_PollForTamper2Event:Timeout <- $r5
	.loc	6 0 3 is_stmt 0         @ ../Drivers/STM32F7xx_HAL_Driver/Src/stm32f7xx_hal_rtc_ex.c:0:3
	strb	r0, [r4, #29]
	.loc	6 916 1 is_stmt 1       @ ../Drivers/STM32F7xx_HAL_Driver/Src/stm32f7xx_hal_rtc_ex.c:916:1
	uxtb	r0, r1
	add	sp, #4
	pop	{r4, r5, r6, r7, pc}
.Ltmp201:
.Lfunc_end16:
	.size	HAL_RTCEx_PollForTamper2Event, .Lfunc_end16-HAL_RTCEx_PollForTamper2Event
	.cfi_endproc
	.cantunwind
	.fnend
                                        @ -- End function
	.section	.text.HAL_RTCEx_PollForTamper3Event,"ax",%progbits
	.hidden	HAL_RTCEx_PollForTamper3Event @ -- Begin function HAL_RTCEx_PollForTamper3Event
	.globl	HAL_RTCEx_PollForTamper3Event
	.p2align	2
	.type	HAL_RTCEx_PollForTamper3Event,%function
	.code	16                      @ @HAL_RTCEx_PollForTamper3Event
	.thumb_func
HAL_RTCEx_PollForTamper3Event:
.Lfunc_begin17:
	.loc	6 925 0                 @ ../Drivers/STM32F7xx_HAL_Driver/Src/stm32f7xx_hal_rtc_ex.c:925:0
	.fnstart
	.cfi_startproc
@ %bb.0:
	.save	{r4, r5, r6, r7, lr}
	.pad	#4
	push	{r3, r4, r5, r6, r7, lr}
	.cfi_def_cfa_offset 24
	.cfi_offset lr, -4
	.cfi_offset r7, -8
	.cfi_offset r6, -12
	.cfi_offset r5, -16
	.cfi_offset r4, -20
	@DEBUG_VALUE: HAL_RTCEx_PollForTamper3Event:hrtc <- $r0
	@DEBUG_VALUE: HAL_RTCEx_PollForTamper3Event:Timeout <- $r1
	mov	r5, r1
	mov	r4, r0
.Ltmp202:
	@DEBUG_VALUE: HAL_RTCEx_PollForTamper3Event:Timeout <- $r5
	@DEBUG_VALUE: HAL_RTCEx_PollForTamper3Event:hrtc <- $r4
	.loc	6 926 24 prologue_end   @ ../Drivers/STM32F7xx_HAL_Driver/Src/stm32f7xx_hal_rtc_ex.c:926:24
	bl	HAL_GetTick
	mov	r6, r0
.Ltmp203:
	@DEBUG_VALUE: HAL_RTCEx_PollForTamper3Event:tickstart <- $r6
	.loc	6 0 24 is_stmt 0        @ ../Drivers/STM32F7xx_HAL_Driver/Src/stm32f7xx_hal_rtc_ex.c:0:24
	adds	r7, r5, #1
.Ltmp204:
.LBB17_1:                               @ =>This Inner Loop Header: Depth=1
	@DEBUG_VALUE: HAL_RTCEx_PollForTamper3Event:tickstart <- $r6
	@DEBUG_VALUE: HAL_RTCEx_PollForTamper3Event:hrtc <- $r4
	@DEBUG_VALUE: HAL_RTCEx_PollForTamper3Event:Timeout <- $r5
	.loc	6 929 9 is_stmt 1       @ ../Drivers/STM32F7xx_HAL_Driver/Src/stm32f7xx_hal_rtc_ex.c:929:9
	ldr	r0, [r4]
	ldr	r1, [r0, #12]
	.loc	6 929 3 is_stmt 0       @ ../Drivers/STM32F7xx_HAL_Driver/Src/stm32f7xx_hal_rtc_ex.c:929:3
	tst.w	r1, #32768
	bne	.LBB17_6
.Ltmp205:
@ %bb.2:                                @   in Loop: Header=BB17_1 Depth=1
	@DEBUG_VALUE: HAL_RTCEx_PollForTamper3Event:tickstart <- $r6
	@DEBUG_VALUE: HAL_RTCEx_PollForTamper3Event:hrtc <- $r4
	@DEBUG_VALUE: HAL_RTCEx_PollForTamper3Event:Timeout <- $r5
	.loc	6 931 8 is_stmt 1       @ ../Drivers/STM32F7xx_HAL_Driver/Src/stm32f7xx_hal_rtc_ex.c:931:8
	cmp	r7, #0
	beq	.LBB17_1
.Ltmp206:
@ %bb.3:                                @   in Loop: Header=BB17_1 Depth=1
	@DEBUG_VALUE: HAL_RTCEx_PollForTamper3Event:tickstart <- $r6
	@DEBUG_VALUE: HAL_RTCEx_PollForTamper3Event:hrtc <- $r4
	@DEBUG_VALUE: HAL_RTCEx_PollForTamper3Event:Timeout <- $r5
	cbz	r5, .LBB17_5
.Ltmp207:
@ %bb.4:                                @   in Loop: Header=BB17_1 Depth=1
	@DEBUG_VALUE: HAL_RTCEx_PollForTamper3Event:tickstart <- $r6
	@DEBUG_VALUE: HAL_RTCEx_PollForTamper3Event:hrtc <- $r4
	@DEBUG_VALUE: HAL_RTCEx_PollForTamper3Event:Timeout <- $r5
	.loc	6 933 28                @ ../Drivers/STM32F7xx_HAL_Driver/Src/stm32f7xx_hal_rtc_ex.c:933:28
	bl	HAL_GetTick
	.loc	6 933 42 is_stmt 0      @ ../Drivers/STM32F7xx_HAL_Driver/Src/stm32f7xx_hal_rtc_ex.c:933:42
	subs	r0, r0, r6
.Ltmp208:
	.loc	6 933 10                @ ../Drivers/STM32F7xx_HAL_Driver/Src/stm32f7xx_hal_rtc_ex.c:933:10
	cmp	r0, r5
	bls	.LBB17_1
.Ltmp209:
.LBB17_5:
	@DEBUG_VALUE: HAL_RTCEx_PollForTamper3Event:tickstart <- $r6
	@DEBUG_VALUE: HAL_RTCEx_PollForTamper3Event:hrtc <- $r4
	@DEBUG_VALUE: HAL_RTCEx_PollForTamper3Event:Timeout <- $r5
	.loc	6 0 10                  @ ../Drivers/STM32F7xx_HAL_Driver/Src/stm32f7xx_hal_rtc_ex.c:0:10
	movs	r0, #3
	movs	r1, #3
	b	.LBB17_7
.Ltmp210:
.LBB17_6:
	@DEBUG_VALUE: HAL_RTCEx_PollForTamper3Event:tickstart <- $r6
	@DEBUG_VALUE: HAL_RTCEx_PollForTamper3Event:hrtc <- $r4
	@DEBUG_VALUE: HAL_RTCEx_PollForTamper3Event:Timeout <- $r5
	.loc	6 942 3 is_stmt 1       @ ../Drivers/STM32F7xx_HAL_Driver/Src/stm32f7xx_hal_rtc_ex.c:942:3
	ldr	r1, [r0, #12]
	ldr	r2, __arm_cp.17_0
	and	r1, r1, #128
	orrs	r1, r2
	str	r1, [r0, #12]
	movs	r1, #0
	movs	r0, #1
.Ltmp211:
.LBB17_7:
	@DEBUG_VALUE: HAL_RTCEx_PollForTamper3Event:tickstart <- $r6
	@DEBUG_VALUE: HAL_RTCEx_PollForTamper3Event:hrtc <- $r4
	@DEBUG_VALUE: HAL_RTCEx_PollForTamper3Event:Timeout <- $r5
	.loc	6 0 3 is_stmt 0         @ ../Drivers/STM32F7xx_HAL_Driver/Src/stm32f7xx_hal_rtc_ex.c:0:3
	strb	r0, [r4, #29]
	.loc	6 948 1 is_stmt 1       @ ../Drivers/STM32F7xx_HAL_Driver/Src/stm32f7xx_hal_rtc_ex.c:948:1
	uxtb	r0, r1
	add	sp, #4
	pop	{r4, r5, r6, r7, pc}
.Ltmp212:
	.p2align	2
@ %bb.8:
	.loc	6 0 1 is_stmt 0         @ ../Drivers/STM32F7xx_HAL_Driver/Src/stm32f7xx_hal_rtc_ex.c:0:1
__arm_cp.17_0:
	.long	4294934399              @ 0xffff7f7f
.Lcpi_end9:
	.size	__arm_cp.17_0, .Lcpi_end9-__arm_cp.17_0
.Lfunc_end17:
	.size	HAL_RTCEx_PollForTamper3Event, .Lfunc_end17-HAL_RTCEx_PollForTamper3Event
	.cfi_endproc
	.cantunwind
	.fnend
                                        @ -- End function
	.section	.text.HAL_RTCEx_SetWakeUpTimer,"ax",%progbits
	.hidden	HAL_RTCEx_SetWakeUpTimer @ -- Begin function HAL_RTCEx_SetWakeUpTimer
	.globl	HAL_RTCEx_SetWakeUpTimer
	.p2align	1
	.type	HAL_RTCEx_SetWakeUpTimer,%function
	.code	16                      @ @HAL_RTCEx_SetWakeUpTimer
	.thumb_func
HAL_RTCEx_SetWakeUpTimer:
.Lfunc_begin18:
	.loc	6 977 0 is_stmt 1       @ ../Drivers/STM32F7xx_HAL_Driver/Src/stm32f7xx_hal_rtc_ex.c:977:0
	.fnstart
	.cfi_startproc
@ %bb.0:
	.save	{r4, r5, r6, r7, lr}
	.pad	#4
	push	{r3, r4, r5, r6, r7, lr}
	.cfi_def_cfa_offset 24
	.cfi_offset lr, -4
	.cfi_offset r7, -8
	.cfi_offset r6, -12
	.cfi_offset r5, -16
	.cfi_offset r4, -20
	@DEBUG_VALUE: HAL_RTCEx_SetWakeUpTimer:hrtc <- $r0
	@DEBUG_VALUE: HAL_RTCEx_SetWakeUpTimer:WakeUpCounter <- $r1
	@DEBUG_VALUE: HAL_RTCEx_SetWakeUpTimer:WakeUpClock <- $r2
	mov	r4, r0
.Ltmp213:
	@DEBUG_VALUE: HAL_RTCEx_SetWakeUpTimer:tickstart <- 0
	@DEBUG_VALUE: HAL_RTCEx_SetWakeUpTimer:WakeUpClock <- $r6
	@DEBUG_VALUE: HAL_RTCEx_SetWakeUpTimer:WakeUpCounter <- $r5
	@DEBUG_VALUE: HAL_RTCEx_SetWakeUpTimer:hrtc <- $r4
	.loc	6 985 3 prologue_end    @ ../Drivers/STM32F7xx_HAL_Driver/Src/stm32f7xx_hal_rtc_ex.c:985:3
	ldrb	r0, [r0, #28]
	mov	r5, r1
.Ltmp214:
	.loc	6 0 3 is_stmt 0         @ ../Drivers/STM32F7xx_HAL_Driver/Src/stm32f7xx_hal_rtc_ex.c:0:3
	mov	r6, r2
.Ltmp215:
	movs	r1, #2
.Ltmp216:
	.loc	6 985 3                 @ ../Drivers/STM32F7xx_HAL_Driver/Src/stm32f7xx_hal_rtc_ex.c:985:3
	cmp	r0, #1
	beq	.LBB18_7
.Ltmp217:
@ %bb.1:
	@DEBUG_VALUE: HAL_RTCEx_SetWakeUpTimer:hrtc <- $r4
	.loc	6 985 3                 @ ../Drivers/STM32F7xx_HAL_Driver/Src/stm32f7xx_hal_rtc_ex.c:985:3
	movs	r0, #1
.Ltmp218:
	.loc	6 987 15 is_stmt 1      @ ../Drivers/STM32F7xx_HAL_Driver/Src/stm32f7xx_hal_rtc_ex.c:987:15
	strb	r1, [r4, #29]
.Ltmp219:
	.loc	6 990 3                 @ ../Drivers/STM32F7xx_HAL_Driver/Src/stm32f7xx_hal_rtc_ex.c:990:3
	movs	r1, #202
.Ltmp220:
	.loc	6 985 3                 @ ../Drivers/STM32F7xx_HAL_Driver/Src/stm32f7xx_hal_rtc_ex.c:985:3
	strb	r0, [r4, #28]
.Ltmp221:
	.loc	6 990 3                 @ ../Drivers/STM32F7xx_HAL_Driver/Src/stm32f7xx_hal_rtc_ex.c:990:3
	ldr	r0, [r4]
	str	r1, [r0, #36]
	movs	r1, #83
	str	r1, [r0, #36]
.Ltmp222:
	.loc	6 992 3                 @ ../Drivers/STM32F7xx_HAL_Driver/Src/stm32f7xx_hal_rtc_ex.c:992:3
	ldr	r1, [r0, #8]
	bic	r1, r1, #1024
	str	r1, [r0, #8]
	.loc	6 995 15                @ ../Drivers/STM32F7xx_HAL_Driver/Src/stm32f7xx_hal_rtc_ex.c:995:15
	bl	HAL_GetTick
	mov	r7, r0
.Ltmp223:
	@DEBUG_VALUE: HAL_RTCEx_SetWakeUpTimer:tickstart <- $r7
	.loc	6 998 13                @ ../Drivers/STM32F7xx_HAL_Driver/Src/stm32f7xx_hal_rtc_ex.c:998:13
	ldr	r0, [r4]
	.loc	6 998 23 is_stmt 0      @ ../Drivers/STM32F7xx_HAL_Driver/Src/stm32f7xx_hal_rtc_ex.c:998:23
	ldr	r1, [r0, #8]
.Ltmp224:
	.loc	6 998 6                 @ ../Drivers/STM32F7xx_HAL_Driver/Src/stm32f7xx_hal_rtc_ex.c:998:6
	tst.w	r1, #1024
	beq	.LBB18_5
.Ltmp225:
.LBB18_2:                               @ =>This Inner Loop Header: Depth=1
	@DEBUG_VALUE: HAL_RTCEx_SetWakeUpTimer:tickstart <- $r7
	@DEBUG_VALUE: HAL_RTCEx_SetWakeUpTimer:hrtc <- $r4
	.loc	6 1001 11 is_stmt 1     @ ../Drivers/STM32F7xx_HAL_Driver/Src/stm32f7xx_hal_rtc_ex.c:1001:11
	ldr	r1, [r0, #12]
	.loc	6 1001 5 is_stmt 0      @ ../Drivers/STM32F7xx_HAL_Driver/Src/stm32f7xx_hal_rtc_ex.c:1001:5
	tst.w	r1, #4
	bne	.LBB18_5
.Ltmp226:
@ %bb.3:                                @   in Loop: Header=BB18_2 Depth=1
	@DEBUG_VALUE: HAL_RTCEx_SetWakeUpTimer:tickstart <- $r7
	@DEBUG_VALUE: HAL_RTCEx_SetWakeUpTimer:hrtc <- $r4
	.loc	6 1003 11 is_stmt 1     @ ../Drivers/STM32F7xx_HAL_Driver/Src/stm32f7xx_hal_rtc_ex.c:1003:11
	bl	HAL_GetTick
	.loc	6 1003 25 is_stmt 0     @ ../Drivers/STM32F7xx_HAL_Driver/Src/stm32f7xx_hal_rtc_ex.c:1003:25
	subs	r1, r0, r7
	ldr	r0, [r4]
.Ltmp227:
	.loc	6 1003 10               @ ../Drivers/STM32F7xx_HAL_Driver/Src/stm32f7xx_hal_rtc_ex.c:1003:10
	cmp.w	r1, #1000
	bls	.LBB18_2
.Ltmp228:
@ %bb.4:
	@DEBUG_VALUE: HAL_RTCEx_SetWakeUpTimer:tickstart <- $r7
	@DEBUG_VALUE: HAL_RTCEx_SetWakeUpTimer:hrtc <- $r4
	.loc	6 0 10                  @ ../Drivers/STM32F7xx_HAL_Driver/Src/stm32f7xx_hal_rtc_ex.c:0:10
	movs	r2, #3
	movs	r1, #3
	b	.LBB18_6
.Ltmp229:
.LBB18_5:
	@DEBUG_VALUE: HAL_RTCEx_SetWakeUpTimer:tickstart <- $r7
	@DEBUG_VALUE: HAL_RTCEx_SetWakeUpTimer:hrtc <- $r4
	.loc	6 1019 22 is_stmt 1     @ ../Drivers/STM32F7xx_HAL_Driver/Src/stm32f7xx_hal_rtc_ex.c:1019:22
	ldr	r1, [r0, #8]
	movs	r2, #1
	bic	r1, r1, #7
	str	r1, [r0, #8]
	.loc	6 1022 22               @ ../Drivers/STM32F7xx_HAL_Driver/Src/stm32f7xx_hal_rtc_ex.c:1022:22
	ldr	r1, [r0, #8]
	orrs	r1, r6
	str	r1, [r0, #8]
	.loc	6 1025 24               @ ../Drivers/STM32F7xx_HAL_Driver/Src/stm32f7xx_hal_rtc_ex.c:1025:24
	str	r5, [r0, #20]
	.loc	6 1028 3                @ ../Drivers/STM32F7xx_HAL_Driver/Src/stm32f7xx_hal_rtc_ex.c:1028:3
	ldr	r1, [r0, #8]
	orr	r1, r1, #1024
	str	r1, [r0, #8]
	movs	r1, #0
.Ltmp230:
.LBB18_6:
	@DEBUG_VALUE: HAL_RTCEx_SetWakeUpTimer:tickstart <- $r7
	@DEBUG_VALUE: HAL_RTCEx_SetWakeUpTimer:hrtc <- $r4
	.loc	6 0 3 is_stmt 0         @ ../Drivers/STM32F7xx_HAL_Driver/Src/stm32f7xx_hal_rtc_ex.c:0:3
	movs	r3, #255
	str	r3, [r0, #36]
	movs	r0, #0
	strb	r0, [r4, #28]
	strb	r2, [r4, #29]
.Ltmp231:
.LBB18_7:
	@DEBUG_VALUE: HAL_RTCEx_SetWakeUpTimer:hrtc <- $r4
	.loc	6 1039 1 is_stmt 1      @ ../Drivers/STM32F7xx_HAL_Driver/Src/stm32f7xx_hal_rtc_ex.c:1039:1
	uxtb	r0, r1
	add	sp, #4
	pop	{r4, r5, r6, r7, pc}
.Ltmp232:
.Lfunc_end18:
	.size	HAL_RTCEx_SetWakeUpTimer, .Lfunc_end18-HAL_RTCEx_SetWakeUpTimer
	.cfi_endproc
	.cantunwind
	.fnend
                                        @ -- End function
	.section	.text.HAL_RTCEx_SetWakeUpTimer_IT,"ax",%progbits
	.hidden	HAL_RTCEx_SetWakeUpTimer_IT @ -- Begin function HAL_RTCEx_SetWakeUpTimer_IT
	.globl	HAL_RTCEx_SetWakeUpTimer_IT
	.p2align	2
	.type	HAL_RTCEx_SetWakeUpTimer_IT,%function
	.code	16                      @ @HAL_RTCEx_SetWakeUpTimer_IT
	.thumb_func
HAL_RTCEx_SetWakeUpTimer_IT:
.Lfunc_begin19:
	.loc	6 1050 0                @ ../Drivers/STM32F7xx_HAL_Driver/Src/stm32f7xx_hal_rtc_ex.c:1050:0
	.fnstart
	.cfi_startproc
@ %bb.0:
	.save	{r4, r5, r6, r7, lr}
	.pad	#4
	push	{r3, r4, r5, r6, r7, lr}
	.cfi_def_cfa_offset 24
	.cfi_offset lr, -4
	.cfi_offset r7, -8
	.cfi_offset r6, -12
	.cfi_offset r5, -16
	.cfi_offset r4, -20
	@DEBUG_VALUE: HAL_RTCEx_SetWakeUpTimer_IT:hrtc <- $r0
	@DEBUG_VALUE: HAL_RTCEx_SetWakeUpTimer_IT:WakeUpCounter <- $r1
	@DEBUG_VALUE: HAL_RTCEx_SetWakeUpTimer_IT:WakeUpClock <- $r2
	mov	r4, r0
.Ltmp233:
	@DEBUG_VALUE: HAL_RTCEx_SetWakeUpTimer_IT:tickstart <- 0
	@DEBUG_VALUE: HAL_RTCEx_SetWakeUpTimer_IT:WakeUpClock <- $r5
	@DEBUG_VALUE: HAL_RTCEx_SetWakeUpTimer_IT:WakeUpCounter <- $r6
	@DEBUG_VALUE: HAL_RTCEx_SetWakeUpTimer_IT:hrtc <- $r4
	.loc	6 1058 3 prologue_end   @ ../Drivers/STM32F7xx_HAL_Driver/Src/stm32f7xx_hal_rtc_ex.c:1058:3
	ldrb	r0, [r0, #28]
	mov	r6, r1
.Ltmp234:
	.loc	6 0 3 is_stmt 0         @ ../Drivers/STM32F7xx_HAL_Driver/Src/stm32f7xx_hal_rtc_ex.c:0:3
	mov	r5, r2
.Ltmp235:
	movs	r1, #2
.Ltmp236:
	.loc	6 1058 3                @ ../Drivers/STM32F7xx_HAL_Driver/Src/stm32f7xx_hal_rtc_ex.c:1058:3
	cmp	r0, #1
	beq	.LBB19_7
.Ltmp237:
@ %bb.1:
	@DEBUG_VALUE: HAL_RTCEx_SetWakeUpTimer_IT:hrtc <- $r4
	.loc	6 1058 3                @ ../Drivers/STM32F7xx_HAL_Driver/Src/stm32f7xx_hal_rtc_ex.c:1058:3
	movs	r0, #1
.Ltmp238:
	.loc	6 1060 15 is_stmt 1     @ ../Drivers/STM32F7xx_HAL_Driver/Src/stm32f7xx_hal_rtc_ex.c:1060:15
	strb	r1, [r4, #29]
.Ltmp239:
	.loc	6 1063 3                @ ../Drivers/STM32F7xx_HAL_Driver/Src/stm32f7xx_hal_rtc_ex.c:1063:3
	movs	r1, #202
.Ltmp240:
	.loc	6 1058 3                @ ../Drivers/STM32F7xx_HAL_Driver/Src/stm32f7xx_hal_rtc_ex.c:1058:3
	strb	r0, [r4, #28]
.Ltmp241:
	.loc	6 1063 3                @ ../Drivers/STM32F7xx_HAL_Driver/Src/stm32f7xx_hal_rtc_ex.c:1063:3
	ldr	r0, [r4]
	str	r1, [r0, #36]
	movs	r1, #83
	str	r1, [r0, #36]
.Ltmp242:
	.loc	6 1065 3                @ ../Drivers/STM32F7xx_HAL_Driver/Src/stm32f7xx_hal_rtc_ex.c:1065:3
	ldr	r1, [r0, #8]
	bic	r1, r1, #1024
	str	r1, [r0, #8]
	.loc	6 1068 15               @ ../Drivers/STM32F7xx_HAL_Driver/Src/stm32f7xx_hal_rtc_ex.c:1068:15
	bl	HAL_GetTick
	mov	r7, r0
.Ltmp243:
	@DEBUG_VALUE: HAL_RTCEx_SetWakeUpTimer_IT:tickstart <- $r7
	.loc	6 1071 13               @ ../Drivers/STM32F7xx_HAL_Driver/Src/stm32f7xx_hal_rtc_ex.c:1071:13
	ldr	r0, [r4]
	.loc	6 1071 23 is_stmt 0     @ ../Drivers/STM32F7xx_HAL_Driver/Src/stm32f7xx_hal_rtc_ex.c:1071:23
	ldr	r1, [r0, #8]
.Ltmp244:
	.loc	6 1071 6                @ ../Drivers/STM32F7xx_HAL_Driver/Src/stm32f7xx_hal_rtc_ex.c:1071:6
	tst.w	r1, #1024
	beq	.LBB19_5
.Ltmp245:
.LBB19_2:                               @ =>This Inner Loop Header: Depth=1
	@DEBUG_VALUE: HAL_RTCEx_SetWakeUpTimer_IT:tickstart <- $r7
	@DEBUG_VALUE: HAL_RTCEx_SetWakeUpTimer_IT:hrtc <- $r4
	.loc	6 1074 11 is_stmt 1     @ ../Drivers/STM32F7xx_HAL_Driver/Src/stm32f7xx_hal_rtc_ex.c:1074:11
	ldr	r1, [r0, #12]
	.loc	6 1074 5 is_stmt 0      @ ../Drivers/STM32F7xx_HAL_Driver/Src/stm32f7xx_hal_rtc_ex.c:1074:5
	tst.w	r1, #4
	bne	.LBB19_5
.Ltmp246:
@ %bb.3:                                @   in Loop: Header=BB19_2 Depth=1
	@DEBUG_VALUE: HAL_RTCEx_SetWakeUpTimer_IT:tickstart <- $r7
	@DEBUG_VALUE: HAL_RTCEx_SetWakeUpTimer_IT:hrtc <- $r4
	.loc	6 1076 11 is_stmt 1     @ ../Drivers/STM32F7xx_HAL_Driver/Src/stm32f7xx_hal_rtc_ex.c:1076:11
	bl	HAL_GetTick
	.loc	6 1076 25 is_stmt 0     @ ../Drivers/STM32F7xx_HAL_Driver/Src/stm32f7xx_hal_rtc_ex.c:1076:25
	subs	r1, r0, r7
	ldr	r0, [r4]
.Ltmp247:
	.loc	6 1076 10               @ ../Drivers/STM32F7xx_HAL_Driver/Src/stm32f7xx_hal_rtc_ex.c:1076:10
	cmp.w	r1, #1000
	bls	.LBB19_2
.Ltmp248:
@ %bb.4:
	@DEBUG_VALUE: HAL_RTCEx_SetWakeUpTimer_IT:tickstart <- $r7
	@DEBUG_VALUE: HAL_RTCEx_SetWakeUpTimer_IT:hrtc <- $r4
	.loc	6 0 10                  @ ../Drivers/STM32F7xx_HAL_Driver/Src/stm32f7xx_hal_rtc_ex.c:0:10
	movs	r2, #3
	movs	r1, #3
	b	.LBB19_6
.Ltmp249:
.LBB19_5:
	@DEBUG_VALUE: HAL_RTCEx_SetWakeUpTimer_IT:tickstart <- $r7
	@DEBUG_VALUE: HAL_RTCEx_SetWakeUpTimer_IT:hrtc <- $r4
	.loc	6 1092 24 is_stmt 1     @ ../Drivers/STM32F7xx_HAL_Driver/Src/stm32f7xx_hal_rtc_ex.c:1092:24
	str	r6, [r0, #20]
	.loc	6 1095 22               @ ../Drivers/STM32F7xx_HAL_Driver/Src/stm32f7xx_hal_rtc_ex.c:1095:22
	ldr	r1, [r0, #8]
	bic	r1, r1, #7
	str	r1, [r0, #8]
	.loc	6 1098 22               @ ../Drivers/STM32F7xx_HAL_Driver/Src/stm32f7xx_hal_rtc_ex.c:1098:22
	ldr	r1, [r0, #8]
	orrs	r1, r5
	str	r1, [r0, #8]
	ldr	r1, __arm_cp.19_0
	.loc	6 1101 3                @ ../Drivers/STM32F7xx_HAL_Driver/Src/stm32f7xx_hal_rtc_ex.c:1101:3
	ldr	r2, [r1]
	orr	r2, r2, #4194304
	str	r2, [r1]
	.loc	6 1103 14               @ ../Drivers/STM32F7xx_HAL_Driver/Src/stm32f7xx_hal_rtc_ex.c:1103:14
	ldr	r2, [r1, #8]
	orr	r2, r2, #4194304
	str	r2, [r1, #8]
	movs	r2, #1
	.loc	6 1106 3                @ ../Drivers/STM32F7xx_HAL_Driver/Src/stm32f7xx_hal_rtc_ex.c:1106:3
	ldr	r1, [r0, #12]
	and	r1, r1, #128
	orn	r1, r1, #1152
	str	r1, [r0, #12]
	.loc	6 1109 3                @ ../Drivers/STM32F7xx_HAL_Driver/Src/stm32f7xx_hal_rtc_ex.c:1109:3
	ldr	r1, [r0, #8]
	orr	r1, r1, #16384
	str	r1, [r0, #8]
	.loc	6 1112 3                @ ../Drivers/STM32F7xx_HAL_Driver/Src/stm32f7xx_hal_rtc_ex.c:1112:3
	ldr	r1, [r0, #8]
	orr	r1, r1, #1024
	str	r1, [r0, #8]
	movs	r1, #0
.Ltmp250:
.LBB19_6:
	@DEBUG_VALUE: HAL_RTCEx_SetWakeUpTimer_IT:tickstart <- $r7
	@DEBUG_VALUE: HAL_RTCEx_SetWakeUpTimer_IT:hrtc <- $r4
	.loc	6 0 3 is_stmt 0         @ ../Drivers/STM32F7xx_HAL_Driver/Src/stm32f7xx_hal_rtc_ex.c:0:3
	movs	r3, #255
	str	r3, [r0, #36]
	movs	r0, #0
	strb	r0, [r4, #28]
	strb	r2, [r4, #29]
.Ltmp251:
.LBB19_7:
	@DEBUG_VALUE: HAL_RTCEx_SetWakeUpTimer_IT:hrtc <- $r4
	.loc	6 1123 1 is_stmt 1      @ ../Drivers/STM32F7xx_HAL_Driver/Src/stm32f7xx_hal_rtc_ex.c:1123:1
	uxtb	r0, r1
	add	sp, #4
	pop	{r4, r5, r6, r7, pc}
.Ltmp252:
	.p2align	2
@ %bb.8:
	.loc	6 0 1 is_stmt 0         @ ../Drivers/STM32F7xx_HAL_Driver/Src/stm32f7xx_hal_rtc_ex.c:0:1
__arm_cp.19_0:
	.long	1073822720              @ 0x40013c00
.Lcpi_end10:
	.size	__arm_cp.19_0, .Lcpi_end10-__arm_cp.19_0
.Lfunc_end19:
	.size	HAL_RTCEx_SetWakeUpTimer_IT, .Lfunc_end19-HAL_RTCEx_SetWakeUpTimer_IT
	.cfi_endproc
	.cantunwind
	.fnend
                                        @ -- End function
	.section	.text.HAL_RTCEx_DeactivateWakeUpTimer,"ax",%progbits
	.hidden	HAL_RTCEx_DeactivateWakeUpTimer @ -- Begin function HAL_RTCEx_DeactivateWakeUpTimer
	.globl	HAL_RTCEx_DeactivateWakeUpTimer
	.p2align	1
	.type	HAL_RTCEx_DeactivateWakeUpTimer,%function
	.code	16                      @ @HAL_RTCEx_DeactivateWakeUpTimer
	.thumb_func
HAL_RTCEx_DeactivateWakeUpTimer:
.Lfunc_begin20:
	.loc	6 1132 0 is_stmt 1      @ ../Drivers/STM32F7xx_HAL_Driver/Src/stm32f7xx_hal_rtc_ex.c:1132:0
	.fnstart
	.cfi_startproc
@ %bb.0:
	.save	{r4, r5, r6, lr}
	push	{r4, r5, r6, lr}
	.cfi_def_cfa_offset 16
	.cfi_offset lr, -4
	.cfi_offset r6, -8
	.cfi_offset r5, -12
	.cfi_offset r4, -16
	@DEBUG_VALUE: HAL_RTCEx_DeactivateWakeUpTimer:hrtc <- $r0
.Ltmp253:
	.loc	6 1136 3 prologue_end   @ ../Drivers/STM32F7xx_HAL_Driver/Src/stm32f7xx_hal_rtc_ex.c:1136:3
	ldrb	r1, [r0, #28]
	mov	r4, r0
.Ltmp254:
	@DEBUG_VALUE: HAL_RTCEx_DeactivateWakeUpTimer:tickstart <- 0
	@DEBUG_VALUE: HAL_RTCEx_DeactivateWakeUpTimer:hrtc <- $r4
	.loc	6 0 3 is_stmt 0         @ ../Drivers/STM32F7xx_HAL_Driver/Src/stm32f7xx_hal_rtc_ex.c:0:3
	movs	r0, #2
.Ltmp255:
	.loc	6 1136 3                @ ../Drivers/STM32F7xx_HAL_Driver/Src/stm32f7xx_hal_rtc_ex.c:1136:3
	cmp	r1, #1
.Ltmp256:
	.loc	6 1178 1 is_stmt 1      @ ../Drivers/STM32F7xx_HAL_Driver/Src/stm32f7xx_hal_rtc_ex.c:1178:1
	it	eq
	popeq	{r4, r5, r6, pc}
.Ltmp257:
	.loc	6 1138 15               @ ../Drivers/STM32F7xx_HAL_Driver/Src/stm32f7xx_hal_rtc_ex.c:1138:15
	strb	r0, [r4, #29]
.Ltmp258:
	.loc	6 1136 3                @ ../Drivers/STM32F7xx_HAL_Driver/Src/stm32f7xx_hal_rtc_ex.c:1136:3
	movs	r0, #1
.Ltmp259:
	.loc	6 1141 3                @ ../Drivers/STM32F7xx_HAL_Driver/Src/stm32f7xx_hal_rtc_ex.c:1141:3
	movs	r1, #202
.Ltmp260:
	.loc	6 1136 3                @ ../Drivers/STM32F7xx_HAL_Driver/Src/stm32f7xx_hal_rtc_ex.c:1136:3
	strb	r0, [r4, #28]
.Ltmp261:
	.loc	6 1141 3                @ ../Drivers/STM32F7xx_HAL_Driver/Src/stm32f7xx_hal_rtc_ex.c:1141:3
	ldr	r0, [r4]
	str	r1, [r0, #36]
	movs	r1, #83
	str	r1, [r0, #36]
.Ltmp262:
	.loc	6 1144 3                @ ../Drivers/STM32F7xx_HAL_Driver/Src/stm32f7xx_hal_rtc_ex.c:1144:3
	ldr	r1, [r0, #8]
	bic	r1, r1, #1024
	str	r1, [r0, #8]
	.loc	6 1147 3                @ ../Drivers/STM32F7xx_HAL_Driver/Src/stm32f7xx_hal_rtc_ex.c:1147:3
	ldr	r1, [r0, #8]
	bic	r1, r1, #16384
	str	r1, [r0, #8]
	.loc	6 1150 15               @ ../Drivers/STM32F7xx_HAL_Driver/Src/stm32f7xx_hal_rtc_ex.c:1150:15
	bl	HAL_GetTick
	mov	r5, r0
.Ltmp263:
	@DEBUG_VALUE: HAL_RTCEx_DeactivateWakeUpTimer:tickstart <- $r5
	.loc	6 0 15 is_stmt 0        @ ../Drivers/STM32F7xx_HAL_Driver/Src/stm32f7xx_hal_rtc_ex.c:0:15
	movs	r6, #0
.Ltmp264:
.LBB20_1:                               @ =>This Inner Loop Header: Depth=1
	@DEBUG_VALUE: HAL_RTCEx_DeactivateWakeUpTimer:tickstart <- $r5
	.loc	6 1153 9 is_stmt 1      @ ../Drivers/STM32F7xx_HAL_Driver/Src/stm32f7xx_hal_rtc_ex.c:1153:9
	ldr	r1, [r4]
	ldr	r0, [r1, #12]
	.loc	6 1153 3 is_stmt 0      @ ../Drivers/STM32F7xx_HAL_Driver/Src/stm32f7xx_hal_rtc_ex.c:1153:3
	tst.w	r0, #4
	bne	.LBB20_4
.Ltmp265:
@ %bb.2:                                @   in Loop: Header=BB20_1 Depth=1
	@DEBUG_VALUE: HAL_RTCEx_DeactivateWakeUpTimer:tickstart <- $r5
	.loc	6 1155 9 is_stmt 1      @ ../Drivers/STM32F7xx_HAL_Driver/Src/stm32f7xx_hal_rtc_ex.c:1155:9
	bl	HAL_GetTick
	.loc	6 1155 23 is_stmt 0     @ ../Drivers/STM32F7xx_HAL_Driver/Src/stm32f7xx_hal_rtc_ex.c:1155:23
	subs	r0, r0, r5
.Ltmp266:
	.loc	6 1155 8                @ ../Drivers/STM32F7xx_HAL_Driver/Src/stm32f7xx_hal_rtc_ex.c:1155:8
	cmp.w	r0, #1000
	bls	.LBB20_1
.Ltmp267:
@ %bb.3:
	@DEBUG_VALUE: HAL_RTCEx_DeactivateWakeUpTimer:tickstart <- $r5
	.loc	6 1158 7 is_stmt 1      @ ../Drivers/STM32F7xx_HAL_Driver/Src/stm32f7xx_hal_rtc_ex.c:1158:7
	ldr	r1, [r4]
	movs	r2, #3
	movs	r0, #3
	b	.LBB20_5
.Ltmp268:
.LBB20_4:
	@DEBUG_VALUE: HAL_RTCEx_DeactivateWakeUpTimer:tickstart <- $r5
	.loc	6 0 7 is_stmt 0         @ ../Drivers/STM32F7xx_HAL_Driver/Src/stm32f7xx_hal_rtc_ex.c:0:7
	movs	r2, #1
	movs	r0, #0
.Ltmp269:
.LBB20_5:
	@DEBUG_VALUE: HAL_RTCEx_DeactivateWakeUpTimer:tickstart <- $r5
	movs	r3, #255
	str	r3, [r1, #36]
	strb	r6, [r4, #28]
	strb	r2, [r4, #29]
	.loc	6 1178 1 is_stmt 1      @ ../Drivers/STM32F7xx_HAL_Driver/Src/stm32f7xx_hal_rtc_ex.c:1178:1
	pop	{r4, r5, r6, pc}
.Ltmp270:
.Lfunc_end20:
	.size	HAL_RTCEx_DeactivateWakeUpTimer, .Lfunc_end20-HAL_RTCEx_DeactivateWakeUpTimer
	.cfi_endproc
	.cantunwind
	.fnend
                                        @ -- End function
	.section	.text.HAL_RTCEx_GetWakeUpTimer,"ax",%progbits
	.hidden	HAL_RTCEx_GetWakeUpTimer @ -- Begin function HAL_RTCEx_GetWakeUpTimer
	.globl	HAL_RTCEx_GetWakeUpTimer
	.p2align	1
	.type	HAL_RTCEx_GetWakeUpTimer,%function
	.code	16                      @ @HAL_RTCEx_GetWakeUpTimer
	.thumb_func
HAL_RTCEx_GetWakeUpTimer:
.Lfunc_begin21:
	.loc	6 1187 0                @ ../Drivers/STM32F7xx_HAL_Driver/Src/stm32f7xx_hal_rtc_ex.c:1187:0
	.fnstart
	.cfi_startproc
@ %bb.0:
	@DEBUG_VALUE: HAL_RTCEx_GetWakeUpTimer:hrtc <- $r0
	@DEBUG_VALUE: HAL_RTCEx_GetWakeUpTimer:hrtc <- $r0
	.loc	6 1189 28 prologue_end  @ ../Drivers/STM32F7xx_HAL_Driver/Src/stm32f7xx_hal_rtc_ex.c:1189:28
	ldr	r0, [r0]
.Ltmp271:
	.loc	6 1189 38 is_stmt 0     @ ../Drivers/STM32F7xx_HAL_Driver/Src/stm32f7xx_hal_rtc_ex.c:1189:38
	ldr	r0, [r0, #20]
	.loc	6 1189 43               @ ../Drivers/STM32F7xx_HAL_Driver/Src/stm32f7xx_hal_rtc_ex.c:1189:43
	uxth	r0, r0
	.loc	6 1189 3                @ ../Drivers/STM32F7xx_HAL_Driver/Src/stm32f7xx_hal_rtc_ex.c:1189:3
	bx	lr
.Ltmp272:
.Lfunc_end21:
	.size	HAL_RTCEx_GetWakeUpTimer, .Lfunc_end21-HAL_RTCEx_GetWakeUpTimer
	.cfi_endproc
	.cantunwind
	.fnend
                                        @ -- End function
	.section	.text.HAL_RTCEx_WakeUpTimerIRQHandler,"ax",%progbits
	.hidden	HAL_RTCEx_WakeUpTimerIRQHandler @ -- Begin function HAL_RTCEx_WakeUpTimerIRQHandler
	.globl	HAL_RTCEx_WakeUpTimerIRQHandler
	.p2align	2
	.type	HAL_RTCEx_WakeUpTimerIRQHandler,%function
	.code	16                      @ @HAL_RTCEx_WakeUpTimerIRQHandler
	.thumb_func
HAL_RTCEx_WakeUpTimerIRQHandler:
.Lfunc_begin22:
	.loc	6 1199 0 is_stmt 1      @ ../Drivers/STM32F7xx_HAL_Driver/Src/stm32f7xx_hal_rtc_ex.c:1199:0
	.fnstart
	.cfi_startproc
@ %bb.0:
	.save	{r4, lr}
	push	{r4, lr}
	.cfi_def_cfa_offset 8
	.cfi_offset lr, -4
	.cfi_offset r4, -8
	@DEBUG_VALUE: HAL_RTCEx_WakeUpTimerIRQHandler:hrtc <- $r0
	mov	r4, r0
.Ltmp273:
	@DEBUG_VALUE: HAL_RTCEx_WakeUpTimerIRQHandler:hrtc <- $r4
	.loc	6 1200 6 prologue_end   @ ../Drivers/STM32F7xx_HAL_Driver/Src/stm32f7xx_hal_rtc_ex.c:1200:6
	ldr	r0, [r0]
	ldr	r1, [r0, #12]
.Ltmp274:
	.loc	6 1200 6 is_stmt 0      @ ../Drivers/STM32F7xx_HAL_Driver/Src/stm32f7xx_hal_rtc_ex.c:1200:6
	tst.w	r1, #1024
.Ltmp275:
	.loc	6 1203 35 is_stmt 1     @ ../Drivers/STM32F7xx_HAL_Driver/Src/stm32f7xx_hal_rtc_ex.c:1203:35
	itt	ne
	ldrne	r0, [r0, #8]
.Ltmp276:
	.loc	6 1203 8 is_stmt 0      @ ../Drivers/STM32F7xx_HAL_Driver/Src/stm32f7xx_hal_rtc_ex.c:1203:8
	tstne.w	r0, #16384
	bne	.LBB22_2
.Ltmp277:
.LBB22_1:
	@DEBUG_VALUE: HAL_RTCEx_WakeUpTimerIRQHandler:hrtc <- $r4
	.loc	6 1214 3 is_stmt 1      @ ../Drivers/STM32F7xx_HAL_Driver/Src/stm32f7xx_hal_rtc_ex.c:1214:3
	ldr	r0, __arm_cp.22_0
	mov.w	r1, #4194304
	str	r1, [r0]
	.loc	6 1217 15               @ ../Drivers/STM32F7xx_HAL_Driver/Src/stm32f7xx_hal_rtc_ex.c:1217:15
	movs	r0, #1
	strb	r0, [r4, #29]
	.loc	6 1218 1                @ ../Drivers/STM32F7xx_HAL_Driver/Src/stm32f7xx_hal_rtc_ex.c:1218:1
	pop	{r4, pc}
.Ltmp278:
.LBB22_2:
	@DEBUG_VALUE: HAL_RTCEx_WakeUpTimerIRQHandler:hrtc <- $r4
	.loc	6 1206 7                @ ../Drivers/STM32F7xx_HAL_Driver/Src/stm32f7xx_hal_rtc_ex.c:1206:7
	mov	r0, r4
	bl	HAL_RTCEx_WakeUpTimerEventCallback
	.loc	6 1209 7                @ ../Drivers/STM32F7xx_HAL_Driver/Src/stm32f7xx_hal_rtc_ex.c:1209:7
	ldr	r0, [r4]
	ldr	r1, [r0, #12]
	and	r1, r1, #128
	orn	r1, r1, #1152
	str	r1, [r0, #12]
	b	.LBB22_1
.Ltmp279:
	.p2align	2
@ %bb.3:
	.loc	6 0 7 is_stmt 0         @ ../Drivers/STM32F7xx_HAL_Driver/Src/stm32f7xx_hal_rtc_ex.c:0:7
__arm_cp.22_0:
	.long	1073822740              @ 0x40013c14
.Lcpi_end11:
	.size	__arm_cp.22_0, .Lcpi_end11-__arm_cp.22_0
.Lfunc_end22:
	.size	HAL_RTCEx_WakeUpTimerIRQHandler, .Lfunc_end22-HAL_RTCEx_WakeUpTimerIRQHandler
	.cfi_endproc
	.cantunwind
	.fnend
                                        @ -- End function
	.section	.text.HAL_RTCEx_WakeUpTimerEventCallback,"ax",%progbits
	.hidden	HAL_RTCEx_WakeUpTimerEventCallback @ -- Begin function HAL_RTCEx_WakeUpTimerEventCallback
	.weak	HAL_RTCEx_WakeUpTimerEventCallback
	.p2align	1
	.type	HAL_RTCEx_WakeUpTimerEventCallback,%function
	.code	16                      @ @HAL_RTCEx_WakeUpTimerEventCallback
	.thumb_func
HAL_RTCEx_WakeUpTimerEventCallback:
.Lfunc_begin23:
	.loc	6 1227 0 is_stmt 1      @ ../Drivers/STM32F7xx_HAL_Driver/Src/stm32f7xx_hal_rtc_ex.c:1227:0
	.fnstart
	.cfi_startproc
@ %bb.0:
	@DEBUG_VALUE: HAL_RTCEx_WakeUpTimerEventCallback:hrtc <- $r0
	.loc	6 1234 1 prologue_end   @ ../Drivers/STM32F7xx_HAL_Driver/Src/stm32f7xx_hal_rtc_ex.c:1234:1
	bx	lr
.Ltmp280:
.Lfunc_end23:
	.size	HAL_RTCEx_WakeUpTimerEventCallback, .Lfunc_end23-HAL_RTCEx_WakeUpTimerEventCallback
	.cfi_endproc
	.cantunwind
	.fnend
                                        @ -- End function
	.section	.text.HAL_RTCEx_PollForWakeUpTimerEvent,"ax",%progbits
	.hidden	HAL_RTCEx_PollForWakeUpTimerEvent @ -- Begin function HAL_RTCEx_PollForWakeUpTimerEvent
	.globl	HAL_RTCEx_PollForWakeUpTimerEvent
	.p2align	1
	.type	HAL_RTCEx_PollForWakeUpTimerEvent,%function
	.code	16                      @ @HAL_RTCEx_PollForWakeUpTimerEvent
	.thumb_func
HAL_RTCEx_PollForWakeUpTimerEvent:
.Lfunc_begin24:
	.loc	6 1244 0                @ ../Drivers/STM32F7xx_HAL_Driver/Src/stm32f7xx_hal_rtc_ex.c:1244:0
	.fnstart
	.cfi_startproc
@ %bb.0:
	.save	{r4, r5, r6, r7, lr}
	.pad	#4
	push	{r3, r4, r5, r6, r7, lr}
	.cfi_def_cfa_offset 24
	.cfi_offset lr, -4
	.cfi_offset r7, -8
	.cfi_offset r6, -12
	.cfi_offset r5, -16
	.cfi_offset r4, -20
	@DEBUG_VALUE: HAL_RTCEx_PollForWakeUpTimerEvent:hrtc <- $r0
	@DEBUG_VALUE: HAL_RTCEx_PollForWakeUpTimerEvent:Timeout <- $r1
	mov	r5, r1
	mov	r4, r0
.Ltmp281:
	@DEBUG_VALUE: HAL_RTCEx_PollForWakeUpTimerEvent:tickstart <- 0
	@DEBUG_VALUE: HAL_RTCEx_PollForWakeUpTimerEvent:Timeout <- $r5
	@DEBUG_VALUE: HAL_RTCEx_PollForWakeUpTimerEvent:hrtc <- $r4
	.loc	6 1248 15 prologue_end  @ ../Drivers/STM32F7xx_HAL_Driver/Src/stm32f7xx_hal_rtc_ex.c:1248:15
	bl	HAL_GetTick
	mov	r6, r0
.Ltmp282:
	@DEBUG_VALUE: HAL_RTCEx_PollForWakeUpTimerEvent:tickstart <- $r6
	.loc	6 0 15 is_stmt 0        @ ../Drivers/STM32F7xx_HAL_Driver/Src/stm32f7xx_hal_rtc_ex.c:0:15
	adds	r7, r5, #1
.Ltmp283:
.LBB24_1:                               @ =>This Inner Loop Header: Depth=1
	@DEBUG_VALUE: HAL_RTCEx_PollForWakeUpTimerEvent:tickstart <- $r6
	@DEBUG_VALUE: HAL_RTCEx_PollForWakeUpTimerEvent:hrtc <- $r4
	@DEBUG_VALUE: HAL_RTCEx_PollForWakeUpTimerEvent:Timeout <- $r5
	.loc	6 1250 9 is_stmt 1      @ ../Drivers/STM32F7xx_HAL_Driver/Src/stm32f7xx_hal_rtc_ex.c:1250:9
	ldr	r0, [r4]
	ldr	r1, [r0, #12]
	.loc	6 1250 3 is_stmt 0      @ ../Drivers/STM32F7xx_HAL_Driver/Src/stm32f7xx_hal_rtc_ex.c:1250:3
	tst.w	r1, #1024
	bne	.LBB24_6
.Ltmp284:
@ %bb.2:                                @   in Loop: Header=BB24_1 Depth=1
	@DEBUG_VALUE: HAL_RTCEx_PollForWakeUpTimerEvent:tickstart <- $r6
	@DEBUG_VALUE: HAL_RTCEx_PollForWakeUpTimerEvent:hrtc <- $r4
	@DEBUG_VALUE: HAL_RTCEx_PollForWakeUpTimerEvent:Timeout <- $r5
	.loc	6 1252 8 is_stmt 1      @ ../Drivers/STM32F7xx_HAL_Driver/Src/stm32f7xx_hal_rtc_ex.c:1252:8
	cmp	r7, #0
	beq	.LBB24_1
.Ltmp285:
@ %bb.3:                                @   in Loop: Header=BB24_1 Depth=1
	@DEBUG_VALUE: HAL_RTCEx_PollForWakeUpTimerEvent:tickstart <- $r6
	@DEBUG_VALUE: HAL_RTCEx_PollForWakeUpTimerEvent:hrtc <- $r4
	@DEBUG_VALUE: HAL_RTCEx_PollForWakeUpTimerEvent:Timeout <- $r5
	cbz	r5, .LBB24_5
.Ltmp286:
@ %bb.4:                                @   in Loop: Header=BB24_1 Depth=1
	@DEBUG_VALUE: HAL_RTCEx_PollForWakeUpTimerEvent:tickstart <- $r6
	@DEBUG_VALUE: HAL_RTCEx_PollForWakeUpTimerEvent:hrtc <- $r4
	@DEBUG_VALUE: HAL_RTCEx_PollForWakeUpTimerEvent:Timeout <- $r5
	.loc	6 1254 28               @ ../Drivers/STM32F7xx_HAL_Driver/Src/stm32f7xx_hal_rtc_ex.c:1254:28
	bl	HAL_GetTick
	.loc	6 1254 42 is_stmt 0     @ ../Drivers/STM32F7xx_HAL_Driver/Src/stm32f7xx_hal_rtc_ex.c:1254:42
	subs	r0, r0, r6
.Ltmp287:
	.loc	6 1254 10               @ ../Drivers/STM32F7xx_HAL_Driver/Src/stm32f7xx_hal_rtc_ex.c:1254:10
	cmp	r0, r5
	bls	.LBB24_1
.Ltmp288:
.LBB24_5:
	@DEBUG_VALUE: HAL_RTCEx_PollForWakeUpTimerEvent:tickstart <- $r6
	@DEBUG_VALUE: HAL_RTCEx_PollForWakeUpTimerEvent:hrtc <- $r4
	@DEBUG_VALUE: HAL_RTCEx_PollForWakeUpTimerEvent:Timeout <- $r5
	.loc	6 0 10                  @ ../Drivers/STM32F7xx_HAL_Driver/Src/stm32f7xx_hal_rtc_ex.c:0:10
	movs	r0, #3
	movs	r1, #3
	b	.LBB24_7
.Ltmp289:
.LBB24_6:
	@DEBUG_VALUE: HAL_RTCEx_PollForWakeUpTimerEvent:tickstart <- $r6
	@DEBUG_VALUE: HAL_RTCEx_PollForWakeUpTimerEvent:hrtc <- $r4
	@DEBUG_VALUE: HAL_RTCEx_PollForWakeUpTimerEvent:Timeout <- $r5
	.loc	6 1264 3 is_stmt 1      @ ../Drivers/STM32F7xx_HAL_Driver/Src/stm32f7xx_hal_rtc_ex.c:1264:3
	ldr	r1, [r0, #12]
	and	r1, r1, #128
	orn	r1, r1, #1152
	str	r1, [r0, #12]
	movs	r1, #0
	movs	r0, #1
.Ltmp290:
.LBB24_7:
	@DEBUG_VALUE: HAL_RTCEx_PollForWakeUpTimerEvent:tickstart <- $r6
	@DEBUG_VALUE: HAL_RTCEx_PollForWakeUpTimerEvent:hrtc <- $r4
	@DEBUG_VALUE: HAL_RTCEx_PollForWakeUpTimerEvent:Timeout <- $r5
	.loc	6 0 3 is_stmt 0         @ ../Drivers/STM32F7xx_HAL_Driver/Src/stm32f7xx_hal_rtc_ex.c:0:3
	strb	r0, [r4, #29]
	.loc	6 1270 1 is_stmt 1      @ ../Drivers/STM32F7xx_HAL_Driver/Src/stm32f7xx_hal_rtc_ex.c:1270:1
	uxtb	r0, r1
	add	sp, #4
	pop	{r4, r5, r6, r7, pc}
.Ltmp291:
.Lfunc_end24:
	.size	HAL_RTCEx_PollForWakeUpTimerEvent, .Lfunc_end24-HAL_RTCEx_PollForWakeUpTimerEvent
	.cfi_endproc
	.cantunwind
	.fnend
                                        @ -- End function
	.section	.text.HAL_RTCEx_BKUPWrite,"ax",%progbits
	.hidden	HAL_RTCEx_BKUPWrite     @ -- Begin function HAL_RTCEx_BKUPWrite
	.globl	HAL_RTCEx_BKUPWrite
	.p2align	1
	.type	HAL_RTCEx_BKUPWrite,%function
	.code	16                      @ @HAL_RTCEx_BKUPWrite
	.thumb_func
HAL_RTCEx_BKUPWrite:
.Lfunc_begin25:
	.loc	6 1314 0                @ ../Drivers/STM32F7xx_HAL_Driver/Src/stm32f7xx_hal_rtc_ex.c:1314:0
	.fnstart
	.cfi_startproc
@ %bb.0:
	@DEBUG_VALUE: HAL_RTCEx_BKUPWrite:hrtc <- $r0
	@DEBUG_VALUE: HAL_RTCEx_BKUPWrite:hrtc <- $r0
	@DEBUG_VALUE: HAL_RTCEx_BKUPWrite:BackupRegister <- $r1
	@DEBUG_VALUE: HAL_RTCEx_BKUPWrite:BackupRegister <- $r1
	@DEBUG_VALUE: HAL_RTCEx_BKUPWrite:Data <- $r2
	@DEBUG_VALUE: HAL_RTCEx_BKUPWrite:Data <- $r2
	@DEBUG_VALUE: HAL_RTCEx_BKUPWrite:tmp <- 0
	.loc	6 1320 27 prologue_end  @ ../Drivers/STM32F7xx_HAL_Driver/Src/stm32f7xx_hal_rtc_ex.c:1320:27
	ldr	r0, [r0]
.Ltmp292:
	.loc	6 1321 26               @ ../Drivers/STM32F7xx_HAL_Driver/Src/stm32f7xx_hal_rtc_ex.c:1321:26
	add.w	r0, r0, r1, lsl #2
.Ltmp293:
	@DEBUG_VALUE: HAL_RTCEx_BKUPWrite:tmp <- [DW_OP_plus_uconst 80, DW_OP_stack_value] $r0
	.loc	6 1324 25               @ ../Drivers/STM32F7xx_HAL_Driver/Src/stm32f7xx_hal_rtc_ex.c:1324:25
	str	r2, [r0, #80]
	.loc	6 1325 1                @ ../Drivers/STM32F7xx_HAL_Driver/Src/stm32f7xx_hal_rtc_ex.c:1325:1
	bx	lr
.Ltmp294:
.Lfunc_end25:
	.size	HAL_RTCEx_BKUPWrite, .Lfunc_end25-HAL_RTCEx_BKUPWrite
	.cfi_endproc
	.cantunwind
	.fnend
                                        @ -- End function
	.section	.text.HAL_RTCEx_BKUPRead,"ax",%progbits
	.hidden	HAL_RTCEx_BKUPRead      @ -- Begin function HAL_RTCEx_BKUPRead
	.globl	HAL_RTCEx_BKUPRead
	.p2align	1
	.type	HAL_RTCEx_BKUPRead,%function
	.code	16                      @ @HAL_RTCEx_BKUPRead
	.thumb_func
HAL_RTCEx_BKUPRead:
.Lfunc_begin26:
	.loc	6 1337 0                @ ../Drivers/STM32F7xx_HAL_Driver/Src/stm32f7xx_hal_rtc_ex.c:1337:0
	.fnstart
	.cfi_startproc
@ %bb.0:
	@DEBUG_VALUE: HAL_RTCEx_BKUPRead:hrtc <- $r0
	@DEBUG_VALUE: HAL_RTCEx_BKUPRead:hrtc <- $r0
	@DEBUG_VALUE: HAL_RTCEx_BKUPRead:BackupRegister <- $r1
	@DEBUG_VALUE: HAL_RTCEx_BKUPRead:BackupRegister <- $r1
	@DEBUG_VALUE: HAL_RTCEx_BKUPRead:tmp <- 0
	.loc	6 1343 27 prologue_end  @ ../Drivers/STM32F7xx_HAL_Driver/Src/stm32f7xx_hal_rtc_ex.c:1343:27
	ldr	r0, [r0]
.Ltmp295:
	.loc	6 1344 26               @ ../Drivers/STM32F7xx_HAL_Driver/Src/stm32f7xx_hal_rtc_ex.c:1344:26
	add.w	r0, r0, r1, lsl #2
.Ltmp296:
	@DEBUG_VALUE: HAL_RTCEx_BKUPRead:tmp <- [DW_OP_plus_uconst 80, DW_OP_stack_value] $r0
	.loc	6 1347 11               @ ../Drivers/STM32F7xx_HAL_Driver/Src/stm32f7xx_hal_rtc_ex.c:1347:11
	ldr	r0, [r0, #80]
.Ltmp297:
	.loc	6 1347 3 is_stmt 0      @ ../Drivers/STM32F7xx_HAL_Driver/Src/stm32f7xx_hal_rtc_ex.c:1347:3
	bx	lr
.Ltmp298:
.Lfunc_end26:
	.size	HAL_RTCEx_BKUPRead, .Lfunc_end26-HAL_RTCEx_BKUPRead
	.cfi_endproc
	.cantunwind
	.fnend
                                        @ -- End function
	.section	.text.HAL_RTCEx_SetSmoothCalib,"ax",%progbits
	.hidden	HAL_RTCEx_SetSmoothCalib @ -- Begin function HAL_RTCEx_SetSmoothCalib
	.globl	HAL_RTCEx_SetSmoothCalib
	.p2align	1
	.type	HAL_RTCEx_SetSmoothCalib,%function
	.code	16                      @ @HAL_RTCEx_SetSmoothCalib
	.thumb_func
HAL_RTCEx_SetSmoothCalib:
.Lfunc_begin27:
	.loc	6 1371 0 is_stmt 1      @ ../Drivers/STM32F7xx_HAL_Driver/Src/stm32f7xx_hal_rtc_ex.c:1371:0
	.fnstart
	.cfi_startproc
@ %bb.0:
	.save	{r4, r5, r6, r7, r8, lr}
	push.w	{r4, r5, r6, r7, r8, lr}
	.cfi_def_cfa_offset 24
	.cfi_offset lr, -4
	.cfi_offset r8, -8
	.cfi_offset r7, -12
	.cfi_offset r6, -16
	.cfi_offset r5, -20
	.cfi_offset r4, -24
	@DEBUG_VALUE: HAL_RTCEx_SetSmoothCalib:hrtc <- $r0
	@DEBUG_VALUE: HAL_RTCEx_SetSmoothCalib:SmoothCalibPeriod <- $r1
	@DEBUG_VALUE: HAL_RTCEx_SetSmoothCalib:SmoothCalibPlusPulses <- $r2
	@DEBUG_VALUE: HAL_RTCEx_SetSmoothCalib:SmouthCalibMinusPulsesValue <- $r3
	mov	r4, r0
.Ltmp299:
	@DEBUG_VALUE: HAL_RTCEx_SetSmoothCalib:tickstart <- 0
	@DEBUG_VALUE: HAL_RTCEx_SetSmoothCalib:SmouthCalibMinusPulsesValue <- $r8
	@DEBUG_VALUE: HAL_RTCEx_SetSmoothCalib:SmoothCalibPlusPulses <- $r6
	@DEBUG_VALUE: HAL_RTCEx_SetSmoothCalib:SmoothCalibPeriod <- $r7
	@DEBUG_VALUE: HAL_RTCEx_SetSmoothCalib:hrtc <- $r4
	.loc	6 1380 3 prologue_end   @ ../Drivers/STM32F7xx_HAL_Driver/Src/stm32f7xx_hal_rtc_ex.c:1380:3
	ldrb	r0, [r0, #28]
	mov	r7, r1
.Ltmp300:
	.loc	6 0 3 is_stmt 0         @ ../Drivers/STM32F7xx_HAL_Driver/Src/stm32f7xx_hal_rtc_ex.c:0:3
	mov	r8, r3
.Ltmp301:
	mov	r6, r2
.Ltmp302:
	movs	r1, #2
.Ltmp303:
	.loc	6 1380 3                @ ../Drivers/STM32F7xx_HAL_Driver/Src/stm32f7xx_hal_rtc_ex.c:1380:3
	cmp	r0, #1
	beq	.LBB27_8
.Ltmp304:
@ %bb.1:
	@DEBUG_VALUE: HAL_RTCEx_SetSmoothCalib:hrtc <- $r4
	.loc	6 1380 3                @ ../Drivers/STM32F7xx_HAL_Driver/Src/stm32f7xx_hal_rtc_ex.c:1380:3
	movs	r0, #1
.Ltmp305:
	.loc	6 1382 15 is_stmt 1     @ ../Drivers/STM32F7xx_HAL_Driver/Src/stm32f7xx_hal_rtc_ex.c:1382:15
	strb	r1, [r4, #29]
.Ltmp306:
	.loc	6 1385 3                @ ../Drivers/STM32F7xx_HAL_Driver/Src/stm32f7xx_hal_rtc_ex.c:1385:3
	movs	r1, #202
.Ltmp307:
	.loc	6 1380 3                @ ../Drivers/STM32F7xx_HAL_Driver/Src/stm32f7xx_hal_rtc_ex.c:1380:3
	strb	r0, [r4, #28]
.Ltmp308:
	.loc	6 1385 3                @ ../Drivers/STM32F7xx_HAL_Driver/Src/stm32f7xx_hal_rtc_ex.c:1385:3
	ldr	r0, [r4]
	str	r1, [r0, #36]
	movs	r1, #83
	str	r1, [r0, #36]
.Ltmp309:
	.loc	6 1388 23               @ ../Drivers/STM32F7xx_HAL_Driver/Src/stm32f7xx_hal_rtc_ex.c:1388:23
	ldr	r1, [r0, #12]
.Ltmp310:
	.loc	6 1388 6 is_stmt 0      @ ../Drivers/STM32F7xx_HAL_Driver/Src/stm32f7xx_hal_rtc_ex.c:1388:6
	tst.w	r1, #65536
	beq	.LBB27_6
.Ltmp311:
@ %bb.2:
	@DEBUG_VALUE: HAL_RTCEx_SetSmoothCalib:hrtc <- $r4
	.loc	6 1391 15 is_stmt 1     @ ../Drivers/STM32F7xx_HAL_Driver/Src/stm32f7xx_hal_rtc_ex.c:1391:15
	bl	HAL_GetTick
	mov	r5, r0
.Ltmp312:
	@DEBUG_VALUE: HAL_RTCEx_SetSmoothCalib:tickstart <- $r5
.LBB27_3:                               @ =>This Inner Loop Header: Depth=1
	@DEBUG_VALUE: HAL_RTCEx_SetSmoothCalib:tickstart <- $r5
	@DEBUG_VALUE: HAL_RTCEx_SetSmoothCalib:hrtc <- $r4
	.loc	6 1394 18               @ ../Drivers/STM32F7xx_HAL_Driver/Src/stm32f7xx_hal_rtc_ex.c:1394:18
	ldr	r0, [r4]
	.loc	6 1394 28 is_stmt 0     @ ../Drivers/STM32F7xx_HAL_Driver/Src/stm32f7xx_hal_rtc_ex.c:1394:28
	ldr	r1, [r0, #12]
	.loc	6 1394 5                @ ../Drivers/STM32F7xx_HAL_Driver/Src/stm32f7xx_hal_rtc_ex.c:1394:5
	tst.w	r1, #65536
	beq	.LBB27_6
.Ltmp313:
@ %bb.4:                                @   in Loop: Header=BB27_3 Depth=1
	@DEBUG_VALUE: HAL_RTCEx_SetSmoothCalib:tickstart <- $r5
	@DEBUG_VALUE: HAL_RTCEx_SetSmoothCalib:hrtc <- $r4
	.loc	6 1396 11 is_stmt 1     @ ../Drivers/STM32F7xx_HAL_Driver/Src/stm32f7xx_hal_rtc_ex.c:1396:11
	bl	HAL_GetTick
	.loc	6 1396 25 is_stmt 0     @ ../Drivers/STM32F7xx_HAL_Driver/Src/stm32f7xx_hal_rtc_ex.c:1396:25
	subs	r0, r0, r5
.Ltmp314:
	.loc	6 1396 10               @ ../Drivers/STM32F7xx_HAL_Driver/Src/stm32f7xx_hal_rtc_ex.c:1396:10
	cmp.w	r0, #1000
	bls	.LBB27_3
.Ltmp315:
@ %bb.5:
	@DEBUG_VALUE: HAL_RTCEx_SetSmoothCalib:tickstart <- $r5
	@DEBUG_VALUE: HAL_RTCEx_SetSmoothCalib:hrtc <- $r4
	.loc	6 1399 9 is_stmt 1      @ ../Drivers/STM32F7xx_HAL_Driver/Src/stm32f7xx_hal_rtc_ex.c:1399:9
	ldr	r0, [r4]
	movs	r2, #3
	movs	r1, #3
	b	.LBB27_7
.Ltmp316:
.LBB27_6:
	@DEBUG_VALUE: HAL_RTCEx_SetSmoothCalib:hrtc <- $r4
	.loc	6 1413 65               @ ../Drivers/STM32F7xx_HAL_Driver/Src/stm32f7xx_hal_rtc_ex.c:1413:65
	orr.w	r1, r6, r7
	movs	r2, #1
	.loc	6 1413 99 is_stmt 0     @ ../Drivers/STM32F7xx_HAL_Driver/Src/stm32f7xx_hal_rtc_ex.c:1413:99
	orr.w	r1, r1, r8
	.loc	6 1413 24               @ ../Drivers/STM32F7xx_HAL_Driver/Src/stm32f7xx_hal_rtc_ex.c:1413:24
	str	r1, [r0, #60]
	movs	r1, #0
.Ltmp317:
.LBB27_7:
	@DEBUG_VALUE: HAL_RTCEx_SetSmoothCalib:hrtc <- $r4
	.loc	6 0 24                  @ ../Drivers/STM32F7xx_HAL_Driver/Src/stm32f7xx_hal_rtc_ex.c:0:24
	movs	r3, #255
	str	r3, [r0, #36]
	movs	r0, #0
	strb	r0, [r4, #28]
	strb	r2, [r4, #29]
.Ltmp318:
.LBB27_8:
	@DEBUG_VALUE: HAL_RTCEx_SetSmoothCalib:hrtc <- $r4
	.loc	6 1425 1 is_stmt 1      @ ../Drivers/STM32F7xx_HAL_Driver/Src/stm32f7xx_hal_rtc_ex.c:1425:1
	uxtb	r0, r1
	pop.w	{r4, r5, r6, r7, r8, pc}
.Ltmp319:
.Lfunc_end27:
	.size	HAL_RTCEx_SetSmoothCalib, .Lfunc_end27-HAL_RTCEx_SetSmoothCalib
	.cfi_endproc
	.cantunwind
	.fnend
                                        @ -- End function
	.section	.text.HAL_RTCEx_SetSynchroShift,"ax",%progbits
	.hidden	HAL_RTCEx_SetSynchroShift @ -- Begin function HAL_RTCEx_SetSynchroShift
	.globl	HAL_RTCEx_SetSynchroShift
	.p2align	1
	.type	HAL_RTCEx_SetSynchroShift,%function
	.code	16                      @ @HAL_RTCEx_SetSynchroShift
	.thumb_func
HAL_RTCEx_SetSynchroShift:
.Lfunc_begin28:
	.loc	6 1441 0                @ ../Drivers/STM32F7xx_HAL_Driver/Src/stm32f7xx_hal_rtc_ex.c:1441:0
	.fnstart
	.cfi_startproc
@ %bb.0:
	.save	{r4, r5, r6, r7, lr}
	.pad	#4
	push	{r3, r4, r5, r6, r7, lr}
	.cfi_def_cfa_offset 24
	.cfi_offset lr, -4
	.cfi_offset r7, -8
	.cfi_offset r6, -12
	.cfi_offset r5, -16
	.cfi_offset r4, -20
	@DEBUG_VALUE: HAL_RTCEx_SetSynchroShift:hrtc <- $r0
	@DEBUG_VALUE: HAL_RTCEx_SetSynchroShift:ShiftAdd1S <- $r1
	@DEBUG_VALUE: HAL_RTCEx_SetSynchroShift:ShiftSubFS <- $r2
	mov	r6, r1
.Ltmp320:
	.loc	6 1449 3 prologue_end   @ ../Drivers/STM32F7xx_HAL_Driver/Src/stm32f7xx_hal_rtc_ex.c:1449:3
	ldrb	r1, [r0, #28]
.Ltmp321:
	.loc	6 0 3 is_stmt 0         @ ../Drivers/STM32F7xx_HAL_Driver/Src/stm32f7xx_hal_rtc_ex.c:0:3
	mov	r4, r0
.Ltmp322:
	@DEBUG_VALUE: HAL_RTCEx_SetSynchroShift:tickstart <- 0
	@DEBUG_VALUE: HAL_RTCEx_SetSynchroShift:ShiftSubFS <- $r5
	@DEBUG_VALUE: HAL_RTCEx_SetSynchroShift:ShiftAdd1S <- $r6
	@DEBUG_VALUE: HAL_RTCEx_SetSynchroShift:hrtc <- $r4
	mov	r5, r2
.Ltmp323:
	movs	r0, #2
.Ltmp324:
	.loc	6 1449 3                @ ../Drivers/STM32F7xx_HAL_Driver/Src/stm32f7xx_hal_rtc_ex.c:1449:3
	cmp	r1, #1
	beq	.LBB28_11
.Ltmp325:
@ %bb.1:
	@DEBUG_VALUE: HAL_RTCEx_SetSynchroShift:hrtc <- $r4
	@DEBUG_VALUE: HAL_RTCEx_SetSynchroShift:ShiftAdd1S <- $r6
	.loc	6 1451 15 is_stmt 1     @ ../Drivers/STM32F7xx_HAL_Driver/Src/stm32f7xx_hal_rtc_ex.c:1451:15
	strb	r0, [r4, #29]
.Ltmp326:
	.loc	6 1449 3                @ ../Drivers/STM32F7xx_HAL_Driver/Src/stm32f7xx_hal_rtc_ex.c:1449:3
	movs	r0, #1
.Ltmp327:
	.loc	6 1454 3                @ ../Drivers/STM32F7xx_HAL_Driver/Src/stm32f7xx_hal_rtc_ex.c:1454:3
	movs	r1, #202
.Ltmp328:
	.loc	6 1449 3                @ ../Drivers/STM32F7xx_HAL_Driver/Src/stm32f7xx_hal_rtc_ex.c:1449:3
	strb	r0, [r4, #28]
.Ltmp329:
	.loc	6 1454 3                @ ../Drivers/STM32F7xx_HAL_Driver/Src/stm32f7xx_hal_rtc_ex.c:1454:3
	ldr	r0, [r4]
	str	r1, [r0, #36]
	movs	r1, #83
	str	r1, [r0, #36]
.Ltmp330:
	.loc	6 1457 15               @ ../Drivers/STM32F7xx_HAL_Driver/Src/stm32f7xx_hal_rtc_ex.c:1457:15
	bl	HAL_GetTick
	mov	r7, r0
.Ltmp331:
	@DEBUG_VALUE: HAL_RTCEx_SetSynchroShift:tickstart <- $r7
.LBB28_2:                               @ =>This Inner Loop Header: Depth=1
	@DEBUG_VALUE: HAL_RTCEx_SetSynchroShift:tickstart <- $r7
	@DEBUG_VALUE: HAL_RTCEx_SetSynchroShift:hrtc <- $r4
	@DEBUG_VALUE: HAL_RTCEx_SetSynchroShift:ShiftAdd1S <- $r6
	.loc	6 1460 18               @ ../Drivers/STM32F7xx_HAL_Driver/Src/stm32f7xx_hal_rtc_ex.c:1460:18
	ldr	r1, [r4]
	.loc	6 1460 28 is_stmt 0     @ ../Drivers/STM32F7xx_HAL_Driver/Src/stm32f7xx_hal_rtc_ex.c:1460:28
	ldr	r0, [r1, #12]
	.loc	6 1460 5                @ ../Drivers/STM32F7xx_HAL_Driver/Src/stm32f7xx_hal_rtc_ex.c:1460:5
	tst.w	r0, #8
	beq	.LBB28_5
.Ltmp332:
@ %bb.3:                                @   in Loop: Header=BB28_2 Depth=1
	@DEBUG_VALUE: HAL_RTCEx_SetSynchroShift:tickstart <- $r7
	@DEBUG_VALUE: HAL_RTCEx_SetSynchroShift:hrtc <- $r4
	@DEBUG_VALUE: HAL_RTCEx_SetSynchroShift:ShiftAdd1S <- $r6
	.loc	6 1462 11 is_stmt 1     @ ../Drivers/STM32F7xx_HAL_Driver/Src/stm32f7xx_hal_rtc_ex.c:1462:11
	bl	HAL_GetTick
	.loc	6 1462 25 is_stmt 0     @ ../Drivers/STM32F7xx_HAL_Driver/Src/stm32f7xx_hal_rtc_ex.c:1462:25
	subs	r0, r0, r7
.Ltmp333:
	.loc	6 1462 10               @ ../Drivers/STM32F7xx_HAL_Driver/Src/stm32f7xx_hal_rtc_ex.c:1462:10
	cmp.w	r0, #1000
	bls	.LBB28_2
.Ltmp334:
@ %bb.4:
	@DEBUG_VALUE: HAL_RTCEx_SetSynchroShift:tickstart <- $r7
	@DEBUG_VALUE: HAL_RTCEx_SetSynchroShift:hrtc <- $r4
	@DEBUG_VALUE: HAL_RTCEx_SetSynchroShift:ShiftAdd1S <- $r6
	.loc	6 1465 9 is_stmt 1      @ ../Drivers/STM32F7xx_HAL_Driver/Src/stm32f7xx_hal_rtc_ex.c:1465:9
	ldr	r1, [r4]
	movs	r2, #3
	movs	r0, #3
	b	.LBB28_10
.Ltmp335:
.LBB28_5:
	@DEBUG_VALUE: HAL_RTCEx_SetSynchroShift:tickstart <- $r7
	@DEBUG_VALUE: HAL_RTCEx_SetSynchroShift:hrtc <- $r4
	@DEBUG_VALUE: HAL_RTCEx_SetSynchroShift:ShiftAdd1S <- $r6
	.loc	6 1477 25               @ ../Drivers/STM32F7xx_HAL_Driver/Src/stm32f7xx_hal_rtc_ex.c:1477:25
	ldr	r0, [r1, #8]
.Ltmp336:
	.loc	6 1477 8 is_stmt 0      @ ../Drivers/STM32F7xx_HAL_Driver/Src/stm32f7xx_hal_rtc_ex.c:1477:8
	tst.w	r0, #16
	bne	.LBB28_8
.Ltmp337:
@ %bb.6:
	@DEBUG_VALUE: HAL_RTCEx_SetSynchroShift:tickstart <- $r7
	@DEBUG_VALUE: HAL_RTCEx_SetSynchroShift:hrtc <- $r4
	@DEBUG_VALUE: HAL_RTCEx_SetSynchroShift:ShiftAdd1S <- $r6
	.loc	6 1480 65 is_stmt 1     @ ../Drivers/STM32F7xx_HAL_Driver/Src/stm32f7xx_hal_rtc_ex.c:1480:65
	orr.w	r0, r5, r6
	.loc	6 1480 30 is_stmt 0     @ ../Drivers/STM32F7xx_HAL_Driver/Src/stm32f7xx_hal_rtc_ex.c:1480:30
	str	r0, [r1, #44]
.Ltmp338:
	.loc	6 1483 27 is_stmt 1     @ ../Drivers/STM32F7xx_HAL_Driver/Src/stm32f7xx_hal_rtc_ex.c:1483:27
	ldr	r0, [r1, #8]
.Ltmp339:
	.loc	6 1483 10 is_stmt 0     @ ../Drivers/STM32F7xx_HAL_Driver/Src/stm32f7xx_hal_rtc_ex.c:1483:10
	tst.w	r0, #32
	bne	.LBB28_9
.Ltmp340:
@ %bb.7:
	@DEBUG_VALUE: HAL_RTCEx_SetSynchroShift:tickstart <- $r7
	@DEBUG_VALUE: HAL_RTCEx_SetSynchroShift:hrtc <- $r4
	@DEBUG_VALUE: HAL_RTCEx_SetSynchroShift:ShiftAdd1S <- $r6
	.loc	6 1485 12 is_stmt 1     @ ../Drivers/STM32F7xx_HAL_Driver/Src/stm32f7xx_hal_rtc_ex.c:1485:12
	mov	r0, r4
	bl	HAL_RTC_WaitForSynchro
	ldr	r1, [r4]
.Ltmp341:
	.loc	6 1485 12 is_stmt 0     @ ../Drivers/STM32F7xx_HAL_Driver/Src/stm32f7xx_hal_rtc_ex.c:1485:12
	cbz	r0, .LBB28_9
.Ltmp342:
.LBB28_8:
	@DEBUG_VALUE: HAL_RTCEx_SetSynchroShift:tickstart <- $r7
	@DEBUG_VALUE: HAL_RTCEx_SetSynchroShift:hrtc <- $r4
	@DEBUG_VALUE: HAL_RTCEx_SetSynchroShift:ShiftAdd1S <- $r6
	.loc	6 0 12                  @ ../Drivers/STM32F7xx_HAL_Driver/Src/stm32f7xx_hal_rtc_ex.c:0:12
	movs	r0, #1
	movs	r2, #4
	b	.LBB28_10
.Ltmp343:
.LBB28_9:
	@DEBUG_VALUE: HAL_RTCEx_SetSynchroShift:tickstart <- $r7
	@DEBUG_VALUE: HAL_RTCEx_SetSynchroShift:hrtc <- $r4
	@DEBUG_VALUE: HAL_RTCEx_SetSynchroShift:ShiftAdd1S <- $r6
	movs	r0, #0
	movs	r2, #1
.Ltmp344:
.LBB28_10:
	@DEBUG_VALUE: HAL_RTCEx_SetSynchroShift:tickstart <- $r7
	@DEBUG_VALUE: HAL_RTCEx_SetSynchroShift:hrtc <- $r4
	@DEBUG_VALUE: HAL_RTCEx_SetSynchroShift:ShiftAdd1S <- $r6
	movs	r3, #255
	str	r3, [r1, #36]
	movs	r1, #0
	strb	r1, [r4, #28]
	strb	r2, [r4, #29]
.Ltmp345:
.LBB28_11:
	@DEBUG_VALUE: HAL_RTCEx_SetSynchroShift:hrtc <- $r4
	@DEBUG_VALUE: HAL_RTCEx_SetSynchroShift:ShiftAdd1S <- $r6
	.loc	6 1523 1 is_stmt 1      @ ../Drivers/STM32F7xx_HAL_Driver/Src/stm32f7xx_hal_rtc_ex.c:1523:1
	uxtb	r0, r0
	add	sp, #4
	pop	{r4, r5, r6, r7, pc}
.Ltmp346:
.Lfunc_end28:
	.size	HAL_RTCEx_SetSynchroShift, .Lfunc_end28-HAL_RTCEx_SetSynchroShift
	.cfi_endproc
	.cantunwind
	.fnend
                                        @ -- End function
	.section	.text.HAL_RTCEx_SetCalibrationOutPut,"ax",%progbits
	.hidden	HAL_RTCEx_SetCalibrationOutPut @ -- Begin function HAL_RTCEx_SetCalibrationOutPut
	.globl	HAL_RTCEx_SetCalibrationOutPut
	.p2align	1
	.type	HAL_RTCEx_SetCalibrationOutPut,%function
	.code	16                      @ @HAL_RTCEx_SetCalibrationOutPut
	.thumb_func
HAL_RTCEx_SetCalibrationOutPut:
.Lfunc_begin29:
	.loc	6 1536 0                @ ../Drivers/STM32F7xx_HAL_Driver/Src/stm32f7xx_hal_rtc_ex.c:1536:0
	.fnstart
	.cfi_startproc
@ %bb.0:
	@DEBUG_VALUE: HAL_RTCEx_SetCalibrationOutPut:hrtc <- $r0
	@DEBUG_VALUE: HAL_RTCEx_SetCalibrationOutPut:hrtc <- $r0
	@DEBUG_VALUE: HAL_RTCEx_SetCalibrationOutPut:CalibOutput <- $r1
	@DEBUG_VALUE: HAL_RTCEx_SetCalibrationOutPut:CalibOutput <- $r1
	.loc	6 1541 3 prologue_end   @ ../Drivers/STM32F7xx_HAL_Driver/Src/stm32f7xx_hal_rtc_ex.c:1541:3
	ldrb	r3, [r0, #28]
	movs	r2, #2
.Ltmp347:
	.loc	6 1541 3 is_stmt 0      @ ../Drivers/STM32F7xx_HAL_Driver/Src/stm32f7xx_hal_rtc_ex.c:1541:3
	cmp	r3, #1
	beq	.LBB29_2
.Ltmp348:
@ %bb.1:
	@DEBUG_VALUE: HAL_RTCEx_SetCalibrationOutPut:CalibOutput <- $r1
	@DEBUG_VALUE: HAL_RTCEx_SetCalibrationOutPut:hrtc <- $r0
	.loc	6 1543 15 is_stmt 1     @ ../Drivers/STM32F7xx_HAL_Driver/Src/stm32f7xx_hal_rtc_ex.c:1543:15
	strb	r2, [r0, #29]
.Ltmp349:
	.loc	6 1546 3                @ ../Drivers/STM32F7xx_HAL_Driver/Src/stm32f7xx_hal_rtc_ex.c:1546:3
	movs	r3, #202
	ldr	r2, [r0]
	str	r3, [r2, #36]
	movs	r3, #83
	str	r3, [r2, #36]
.Ltmp350:
	.loc	6 1549 22               @ ../Drivers/STM32F7xx_HAL_Driver/Src/stm32f7xx_hal_rtc_ex.c:1549:22
	ldr	r3, [r2, #8]
	bic	r3, r3, #524288
	str	r3, [r2, #8]
	.loc	6 1552 22               @ ../Drivers/STM32F7xx_HAL_Driver/Src/stm32f7xx_hal_rtc_ex.c:1552:22
	ldr	r3, [r2, #8]
	orrs	r1, r3
.Ltmp351:
	str	r1, [r2, #8]
	.loc	6 1554 3                @ ../Drivers/STM32F7xx_HAL_Driver/Src/stm32f7xx_hal_rtc_ex.c:1554:3
	ldr	r1, [r2, #8]
	orr	r1, r1, #8388608
	str	r1, [r2, #8]
.Ltmp352:
	.loc	6 1557 3                @ ../Drivers/STM32F7xx_HAL_Driver/Src/stm32f7xx_hal_rtc_ex.c:1557:3
	movs	r1, #255
	str	r1, [r2, #36]
	movs	r2, #0
.Ltmp353:
	.loc	6 1560 15               @ ../Drivers/STM32F7xx_HAL_Driver/Src/stm32f7xx_hal_rtc_ex.c:1560:15
	movs	r1, #1
.Ltmp354:
	.loc	6 1563 3                @ ../Drivers/STM32F7xx_HAL_Driver/Src/stm32f7xx_hal_rtc_ex.c:1563:3
	strb	r2, [r0, #28]
.Ltmp355:
	.loc	6 1560 15               @ ../Drivers/STM32F7xx_HAL_Driver/Src/stm32f7xx_hal_rtc_ex.c:1560:15
	strb	r1, [r0, #29]
.LBB29_2:
	@DEBUG_VALUE: HAL_RTCEx_SetCalibrationOutPut:hrtc <- $r0
	.loc	6 1566 1                @ ../Drivers/STM32F7xx_HAL_Driver/Src/stm32f7xx_hal_rtc_ex.c:1566:1
	uxtb	r0, r2
	bx	lr
.Ltmp356:
.Lfunc_end29:
	.size	HAL_RTCEx_SetCalibrationOutPut, .Lfunc_end29-HAL_RTCEx_SetCalibrationOutPut
	.cfi_endproc
	.cantunwind
	.fnend
                                        @ -- End function
	.section	.text.HAL_RTCEx_DeactivateCalibrationOutPut,"ax",%progbits
	.hidden	HAL_RTCEx_DeactivateCalibrationOutPut @ -- Begin function HAL_RTCEx_DeactivateCalibrationOutPut
	.globl	HAL_RTCEx_DeactivateCalibrationOutPut
	.p2align	1
	.type	HAL_RTCEx_DeactivateCalibrationOutPut,%function
	.code	16                      @ @HAL_RTCEx_DeactivateCalibrationOutPut
	.thumb_func
HAL_RTCEx_DeactivateCalibrationOutPut:
.Lfunc_begin30:
	.loc	6 1575 0                @ ../Drivers/STM32F7xx_HAL_Driver/Src/stm32f7xx_hal_rtc_ex.c:1575:0
	.fnstart
	.cfi_startproc
@ %bb.0:
	@DEBUG_VALUE: HAL_RTCEx_DeactivateCalibrationOutPut:hrtc <- $r0
	@DEBUG_VALUE: HAL_RTCEx_DeactivateCalibrationOutPut:hrtc <- $r0
	.loc	6 1577 3 prologue_end   @ ../Drivers/STM32F7xx_HAL_Driver/Src/stm32f7xx_hal_rtc_ex.c:1577:3
	ldrb	r2, [r0, #28]
	movs	r1, #2
.Ltmp357:
	.loc	6 1577 3 is_stmt 0      @ ../Drivers/STM32F7xx_HAL_Driver/Src/stm32f7xx_hal_rtc_ex.c:1577:3
	cmp	r2, #1
	beq	.LBB30_2
.Ltmp358:
@ %bb.1:
	@DEBUG_VALUE: HAL_RTCEx_DeactivateCalibrationOutPut:hrtc <- $r0
	.loc	6 1579 15 is_stmt 1     @ ../Drivers/STM32F7xx_HAL_Driver/Src/stm32f7xx_hal_rtc_ex.c:1579:15
	strb	r1, [r0, #29]
.Ltmp359:
	.loc	6 1582 3                @ ../Drivers/STM32F7xx_HAL_Driver/Src/stm32f7xx_hal_rtc_ex.c:1582:3
	movs	r2, #202
	ldr	r1, [r0]
	str	r2, [r1, #36]
	movs	r2, #83
	str	r2, [r1, #36]
.Ltmp360:
	.loc	6 1584 3                @ ../Drivers/STM32F7xx_HAL_Driver/Src/stm32f7xx_hal_rtc_ex.c:1584:3
	ldr	r2, [r1, #8]
	bic	r2, r2, #8388608
	str	r2, [r1, #8]
.Ltmp361:
	.loc	6 1587 3                @ ../Drivers/STM32F7xx_HAL_Driver/Src/stm32f7xx_hal_rtc_ex.c:1587:3
	movs	r2, #255
	str	r2, [r1, #36]
	movs	r1, #0
.Ltmp362:
	.loc	6 1590 15               @ ../Drivers/STM32F7xx_HAL_Driver/Src/stm32f7xx_hal_rtc_ex.c:1590:15
	movs	r2, #1
.Ltmp363:
	.loc	6 1593 3                @ ../Drivers/STM32F7xx_HAL_Driver/Src/stm32f7xx_hal_rtc_ex.c:1593:3
	strb	r1, [r0, #28]
.Ltmp364:
	.loc	6 1590 15               @ ../Drivers/STM32F7xx_HAL_Driver/Src/stm32f7xx_hal_rtc_ex.c:1590:15
	strb	r2, [r0, #29]
.LBB30_2:
	@DEBUG_VALUE: HAL_RTCEx_DeactivateCalibrationOutPut:hrtc <- $r0
	.loc	6 1596 1                @ ../Drivers/STM32F7xx_HAL_Driver/Src/stm32f7xx_hal_rtc_ex.c:1596:1
	uxtb	r0, r1
	bx	lr
.Ltmp365:
.Lfunc_end30:
	.size	HAL_RTCEx_DeactivateCalibrationOutPut, .Lfunc_end30-HAL_RTCEx_DeactivateCalibrationOutPut
	.cfi_endproc
	.cantunwind
	.fnend
                                        @ -- End function
	.section	.text.HAL_RTCEx_SetRefClock,"ax",%progbits
	.hidden	HAL_RTCEx_SetRefClock   @ -- Begin function HAL_RTCEx_SetRefClock
	.globl	HAL_RTCEx_SetRefClock
	.p2align	1
	.type	HAL_RTCEx_SetRefClock,%function
	.code	16                      @ @HAL_RTCEx_SetRefClock
	.thumb_func
HAL_RTCEx_SetRefClock:
.Lfunc_begin31:
	.loc	6 1605 0                @ ../Drivers/STM32F7xx_HAL_Driver/Src/stm32f7xx_hal_rtc_ex.c:1605:0
	.fnstart
	.cfi_startproc
@ %bb.0:
	.save	{r4, r5, r7, lr}
	push	{r4, r5, r7, lr}
	.cfi_def_cfa_offset 16
	.cfi_offset lr, -4
	.cfi_offset r7, -8
	.cfi_offset r5, -12
	.cfi_offset r4, -16
	@DEBUG_VALUE: HAL_RTCEx_SetRefClock:hrtc <- $r0
	mov	r4, r0
.Ltmp366:
	@DEBUG_VALUE: HAL_RTCEx_SetRefClock:hrtc <- $r4
	.loc	6 1607 3 prologue_end   @ ../Drivers/STM32F7xx_HAL_Driver/Src/stm32f7xx_hal_rtc_ex.c:1607:3
	ldrb	r0, [r0, #28]
	movs	r5, #2
.Ltmp367:
	.loc	6 1607 3 is_stmt 0      @ ../Drivers/STM32F7xx_HAL_Driver/Src/stm32f7xx_hal_rtc_ex.c:1607:3
	cmp	r0, #1
	beq	.LBB31_5
.Ltmp368:
@ %bb.1:
	@DEBUG_VALUE: HAL_RTCEx_SetRefClock:hrtc <- $r4
	.loc	6 1609 15 is_stmt 1     @ ../Drivers/STM32F7xx_HAL_Driver/Src/stm32f7xx_hal_rtc_ex.c:1609:15
	strb	r5, [r4, #29]
	movs	r5, #1
.Ltmp369:
	.loc	6 1612 3                @ ../Drivers/STM32F7xx_HAL_Driver/Src/stm32f7xx_hal_rtc_ex.c:1612:3
	movs	r1, #202
.Ltmp370:
	.loc	6 1607 3                @ ../Drivers/STM32F7xx_HAL_Driver/Src/stm32f7xx_hal_rtc_ex.c:1607:3
	strb	r5, [r4, #28]
.Ltmp371:
	.loc	6 1612 3                @ ../Drivers/STM32F7xx_HAL_Driver/Src/stm32f7xx_hal_rtc_ex.c:1612:3
	ldr	r0, [r4]
	str	r1, [r0, #36]
	movs	r1, #83
	str	r1, [r0, #36]
.Ltmp372:
	.loc	6 1615 6                @ ../Drivers/STM32F7xx_HAL_Driver/Src/stm32f7xx_hal_rtc_ex.c:1615:6
	mov	r0, r4
	bl	RTC_EnterInitMode
	ldr	r1, [r4]
.Ltmp373:
	.loc	6 1615 6 is_stmt 0      @ ../Drivers/STM32F7xx_HAL_Driver/Src/stm32f7xx_hal_rtc_ex.c:1615:6
	cbz	r0, .LBB31_3
.Ltmp374:
@ %bb.2:
	@DEBUG_VALUE: HAL_RTCEx_SetRefClock:hrtc <- $r4
	.loc	6 0 6                   @ ../Drivers/STM32F7xx_HAL_Driver/Src/stm32f7xx_hal_rtc_ex.c:0:6
	movs	r0, #4
	b	.LBB31_4
.Ltmp375:
.LBB31_3:
	@DEBUG_VALUE: HAL_RTCEx_SetRefClock:hrtc <- $r4
	.loc	6 1630 5 is_stmt 1      @ ../Drivers/STM32F7xx_HAL_Driver/Src/stm32f7xx_hal_rtc_ex.c:1630:5
	ldr	r0, [r1, #8]
	movs	r5, #0
	orr	r0, r0, #16
	str	r0, [r1, #8]
	.loc	6 1633 25               @ ../Drivers/STM32F7xx_HAL_Driver/Src/stm32f7xx_hal_rtc_ex.c:1633:25
	ldr	r0, [r1, #12]
	bic	r0, r0, #128
	str	r0, [r1, #12]
	movs	r0, #1
.Ltmp376:
.LBB31_4:
	@DEBUG_VALUE: HAL_RTCEx_SetRefClock:hrtc <- $r4
	.loc	6 0 25 is_stmt 0        @ ../Drivers/STM32F7xx_HAL_Driver/Src/stm32f7xx_hal_rtc_ex.c:0:25
	movs	r2, #255
	str	r2, [r1, #36]
	movs	r1, #0
	strb	r1, [r4, #28]
	strb	r0, [r4, #29]
.Ltmp377:
.LBB31_5:
	@DEBUG_VALUE: HAL_RTCEx_SetRefClock:hrtc <- $r4
	.loc	6 1646 1 is_stmt 1      @ ../Drivers/STM32F7xx_HAL_Driver/Src/stm32f7xx_hal_rtc_ex.c:1646:1
	uxtb	r0, r5
	pop	{r4, r5, r7, pc}
.Ltmp378:
.Lfunc_end31:
	.size	HAL_RTCEx_SetRefClock, .Lfunc_end31-HAL_RTCEx_SetRefClock
	.cfi_endproc
	.cantunwind
	.fnend
                                        @ -- End function
	.section	.text.HAL_RTCEx_DeactivateRefClock,"ax",%progbits
	.hidden	HAL_RTCEx_DeactivateRefClock @ -- Begin function HAL_RTCEx_DeactivateRefClock
	.globl	HAL_RTCEx_DeactivateRefClock
	.p2align	1
	.type	HAL_RTCEx_DeactivateRefClock,%function
	.code	16                      @ @HAL_RTCEx_DeactivateRefClock
	.thumb_func
HAL_RTCEx_DeactivateRefClock:
.Lfunc_begin32:
	.loc	6 1655 0                @ ../Drivers/STM32F7xx_HAL_Driver/Src/stm32f7xx_hal_rtc_ex.c:1655:0
	.fnstart
	.cfi_startproc
@ %bb.0:
	.save	{r4, r5, r7, lr}
	push	{r4, r5, r7, lr}
	.cfi_def_cfa_offset 16
	.cfi_offset lr, -4
	.cfi_offset r7, -8
	.cfi_offset r5, -12
	.cfi_offset r4, -16
	@DEBUG_VALUE: HAL_RTCEx_DeactivateRefClock:hrtc <- $r0
	mov	r4, r0
.Ltmp379:
	@DEBUG_VALUE: HAL_RTCEx_DeactivateRefClock:hrtc <- $r4
	.loc	6 1657 3 prologue_end   @ ../Drivers/STM32F7xx_HAL_Driver/Src/stm32f7xx_hal_rtc_ex.c:1657:3
	ldrb	r0, [r0, #28]
	movs	r5, #2
.Ltmp380:
	.loc	6 1657 3 is_stmt 0      @ ../Drivers/STM32F7xx_HAL_Driver/Src/stm32f7xx_hal_rtc_ex.c:1657:3
	cmp	r0, #1
	beq	.LBB32_5
.Ltmp381:
@ %bb.1:
	@DEBUG_VALUE: HAL_RTCEx_DeactivateRefClock:hrtc <- $r4
	.loc	6 1659 15 is_stmt 1     @ ../Drivers/STM32F7xx_HAL_Driver/Src/stm32f7xx_hal_rtc_ex.c:1659:15
	strb	r5, [r4, #29]
	movs	r5, #1
.Ltmp382:
	.loc	6 1662 3                @ ../Drivers/STM32F7xx_HAL_Driver/Src/stm32f7xx_hal_rtc_ex.c:1662:3
	movs	r1, #202
.Ltmp383:
	.loc	6 1657 3                @ ../Drivers/STM32F7xx_HAL_Driver/Src/stm32f7xx_hal_rtc_ex.c:1657:3
	strb	r5, [r4, #28]
.Ltmp384:
	.loc	6 1662 3                @ ../Drivers/STM32F7xx_HAL_Driver/Src/stm32f7xx_hal_rtc_ex.c:1662:3
	ldr	r0, [r4]
	str	r1, [r0, #36]
	movs	r1, #83
	str	r1, [r0, #36]
.Ltmp385:
	.loc	6 1665 6                @ ../Drivers/STM32F7xx_HAL_Driver/Src/stm32f7xx_hal_rtc_ex.c:1665:6
	mov	r0, r4
	bl	RTC_EnterInitMode
	ldr	r1, [r4]
.Ltmp386:
	.loc	6 1665 6 is_stmt 0      @ ../Drivers/STM32F7xx_HAL_Driver/Src/stm32f7xx_hal_rtc_ex.c:1665:6
	cbz	r0, .LBB32_3
.Ltmp387:
@ %bb.2:
	@DEBUG_VALUE: HAL_RTCEx_DeactivateRefClock:hrtc <- $r4
	.loc	6 0 6                   @ ../Drivers/STM32F7xx_HAL_Driver/Src/stm32f7xx_hal_rtc_ex.c:0:6
	movs	r0, #4
	b	.LBB32_4
.Ltmp388:
.LBB32_3:
	@DEBUG_VALUE: HAL_RTCEx_DeactivateRefClock:hrtc <- $r4
	.loc	6 1680 5 is_stmt 1      @ ../Drivers/STM32F7xx_HAL_Driver/Src/stm32f7xx_hal_rtc_ex.c:1680:5
	ldr	r0, [r1, #8]
	movs	r5, #0
	bic	r0, r0, #16
	str	r0, [r1, #8]
	.loc	6 1683 25               @ ../Drivers/STM32F7xx_HAL_Driver/Src/stm32f7xx_hal_rtc_ex.c:1683:25
	ldr	r0, [r1, #12]
	bic	r0, r0, #128
	str	r0, [r1, #12]
	movs	r0, #1
.Ltmp389:
.LBB32_4:
	@DEBUG_VALUE: HAL_RTCEx_DeactivateRefClock:hrtc <- $r4
	.loc	6 0 25 is_stmt 0        @ ../Drivers/STM32F7xx_HAL_Driver/Src/stm32f7xx_hal_rtc_ex.c:0:25
	movs	r2, #255
	str	r2, [r1, #36]
	movs	r1, #0
	strb	r1, [r4, #28]
	strb	r0, [r4, #29]
.Ltmp390:
.LBB32_5:
	@DEBUG_VALUE: HAL_RTCEx_DeactivateRefClock:hrtc <- $r4
	.loc	6 1696 1 is_stmt 1      @ ../Drivers/STM32F7xx_HAL_Driver/Src/stm32f7xx_hal_rtc_ex.c:1696:1
	uxtb	r0, r5
	pop	{r4, r5, r7, pc}
.Ltmp391:
.Lfunc_end32:
	.size	HAL_RTCEx_DeactivateRefClock, .Lfunc_end32-HAL_RTCEx_DeactivateRefClock
	.cfi_endproc
	.cantunwind
	.fnend
                                        @ -- End function
	.section	.text.HAL_RTCEx_EnableBypassShadow,"ax",%progbits
	.hidden	HAL_RTCEx_EnableBypassShadow @ -- Begin function HAL_RTCEx_EnableBypassShadow
	.globl	HAL_RTCEx_EnableBypassShadow
	.p2align	1
	.type	HAL_RTCEx_EnableBypassShadow,%function
	.code	16                      @ @HAL_RTCEx_EnableBypassShadow
	.thumb_func
HAL_RTCEx_EnableBypassShadow:
.Lfunc_begin33:
	.loc	6 1707 0                @ ../Drivers/STM32F7xx_HAL_Driver/Src/stm32f7xx_hal_rtc_ex.c:1707:0
	.fnstart
	.cfi_startproc
@ %bb.0:
	@DEBUG_VALUE: HAL_RTCEx_EnableBypassShadow:hrtc <- $r0
	@DEBUG_VALUE: HAL_RTCEx_EnableBypassShadow:hrtc <- $r0
	.loc	6 1709 3 prologue_end   @ ../Drivers/STM32F7xx_HAL_Driver/Src/stm32f7xx_hal_rtc_ex.c:1709:3
	ldrb	r2, [r0, #28]
	movs	r1, #2
.Ltmp392:
	.loc	6 1709 3 is_stmt 0      @ ../Drivers/STM32F7xx_HAL_Driver/Src/stm32f7xx_hal_rtc_ex.c:1709:3
	cmp	r2, #1
	beq	.LBB33_2
.Ltmp393:
@ %bb.1:
	@DEBUG_VALUE: HAL_RTCEx_EnableBypassShadow:hrtc <- $r0
	.loc	6 1711 15 is_stmt 1     @ ../Drivers/STM32F7xx_HAL_Driver/Src/stm32f7xx_hal_rtc_ex.c:1711:15
	strb	r1, [r0, #29]
.Ltmp394:
	.loc	6 1714 3                @ ../Drivers/STM32F7xx_HAL_Driver/Src/stm32f7xx_hal_rtc_ex.c:1714:3
	movs	r2, #202
	ldr	r1, [r0]
	str	r2, [r1, #36]
	movs	r2, #83
	str	r2, [r1, #36]
.Ltmp395:
	.loc	6 1717 22               @ ../Drivers/STM32F7xx_HAL_Driver/Src/stm32f7xx_hal_rtc_ex.c:1717:22
	ldr	r2, [r1, #8]
	orr	r2, r2, #32
	str	r2, [r1, #8]
.Ltmp396:
	.loc	6 1720 3                @ ../Drivers/STM32F7xx_HAL_Driver/Src/stm32f7xx_hal_rtc_ex.c:1720:3
	movs	r2, #255
	str	r2, [r1, #36]
	movs	r1, #0
.Ltmp397:
	.loc	6 1723 15               @ ../Drivers/STM32F7xx_HAL_Driver/Src/stm32f7xx_hal_rtc_ex.c:1723:15
	movs	r2, #1
.Ltmp398:
	.loc	6 1726 3                @ ../Drivers/STM32F7xx_HAL_Driver/Src/stm32f7xx_hal_rtc_ex.c:1726:3
	strb	r1, [r0, #28]
.Ltmp399:
	.loc	6 1723 15               @ ../Drivers/STM32F7xx_HAL_Driver/Src/stm32f7xx_hal_rtc_ex.c:1723:15
	strb	r2, [r0, #29]
.LBB33_2:
	@DEBUG_VALUE: HAL_RTCEx_EnableBypassShadow:hrtc <- $r0
	.loc	6 1729 1                @ ../Drivers/STM32F7xx_HAL_Driver/Src/stm32f7xx_hal_rtc_ex.c:1729:1
	uxtb	r0, r1
	bx	lr
.Ltmp400:
.Lfunc_end33:
	.size	HAL_RTCEx_EnableBypassShadow, .Lfunc_end33-HAL_RTCEx_EnableBypassShadow
	.cfi_endproc
	.cantunwind
	.fnend
                                        @ -- End function
	.section	.text.HAL_RTCEx_DisableBypassShadow,"ax",%progbits
	.hidden	HAL_RTCEx_DisableBypassShadow @ -- Begin function HAL_RTCEx_DisableBypassShadow
	.globl	HAL_RTCEx_DisableBypassShadow
	.p2align	1
	.type	HAL_RTCEx_DisableBypassShadow,%function
	.code	16                      @ @HAL_RTCEx_DisableBypassShadow
	.thumb_func
HAL_RTCEx_DisableBypassShadow:
.Lfunc_begin34:
	.loc	6 1740 0                @ ../Drivers/STM32F7xx_HAL_Driver/Src/stm32f7xx_hal_rtc_ex.c:1740:0
	.fnstart
	.cfi_startproc
@ %bb.0:
	@DEBUG_VALUE: HAL_RTCEx_DisableBypassShadow:hrtc <- $r0
	@DEBUG_VALUE: HAL_RTCEx_DisableBypassShadow:hrtc <- $r0
	.loc	6 1742 3 prologue_end   @ ../Drivers/STM32F7xx_HAL_Driver/Src/stm32f7xx_hal_rtc_ex.c:1742:3
	ldrb	r2, [r0, #28]
	movs	r1, #2
.Ltmp401:
	.loc	6 1742 3 is_stmt 0      @ ../Drivers/STM32F7xx_HAL_Driver/Src/stm32f7xx_hal_rtc_ex.c:1742:3
	cmp	r2, #1
	beq	.LBB34_2
.Ltmp402:
@ %bb.1:
	@DEBUG_VALUE: HAL_RTCEx_DisableBypassShadow:hrtc <- $r0
	.loc	6 1744 15 is_stmt 1     @ ../Drivers/STM32F7xx_HAL_Driver/Src/stm32f7xx_hal_rtc_ex.c:1744:15
	strb	r1, [r0, #29]
.Ltmp403:
	.loc	6 1747 3                @ ../Drivers/STM32F7xx_HAL_Driver/Src/stm32f7xx_hal_rtc_ex.c:1747:3
	movs	r2, #202
	ldr	r1, [r0]
	str	r2, [r1, #36]
	movs	r2, #83
	str	r2, [r1, #36]
.Ltmp404:
	.loc	6 1750 22               @ ../Drivers/STM32F7xx_HAL_Driver/Src/stm32f7xx_hal_rtc_ex.c:1750:22
	ldr	r2, [r1, #8]
	and	r2, r2, #223
	str	r2, [r1, #8]
.Ltmp405:
	.loc	6 1753 3                @ ../Drivers/STM32F7xx_HAL_Driver/Src/stm32f7xx_hal_rtc_ex.c:1753:3
	movs	r2, #255
	str	r2, [r1, #36]
	movs	r1, #0
.Ltmp406:
	.loc	6 1756 15               @ ../Drivers/STM32F7xx_HAL_Driver/Src/stm32f7xx_hal_rtc_ex.c:1756:15
	movs	r2, #1
.Ltmp407:
	.loc	6 1759 3                @ ../Drivers/STM32F7xx_HAL_Driver/Src/stm32f7xx_hal_rtc_ex.c:1759:3
	strb	r1, [r0, #28]
.Ltmp408:
	.loc	6 1756 15               @ ../Drivers/STM32F7xx_HAL_Driver/Src/stm32f7xx_hal_rtc_ex.c:1756:15
	strb	r2, [r0, #29]
.LBB34_2:
	@DEBUG_VALUE: HAL_RTCEx_DisableBypassShadow:hrtc <- $r0
	.loc	6 1762 1                @ ../Drivers/STM32F7xx_HAL_Driver/Src/stm32f7xx_hal_rtc_ex.c:1762:1
	uxtb	r0, r1
	bx	lr
.Ltmp409:
.Lfunc_end34:
	.size	HAL_RTCEx_DisableBypassShadow, .Lfunc_end34-HAL_RTCEx_DisableBypassShadow
	.cfi_endproc
	.cantunwind
	.fnend
                                        @ -- End function
	.section	.text.HAL_RTCEx_AlarmBEventCallback,"ax",%progbits
	.hidden	HAL_RTCEx_AlarmBEventCallback @ -- Begin function HAL_RTCEx_AlarmBEventCallback
	.weak	HAL_RTCEx_AlarmBEventCallback
	.p2align	1
	.type	HAL_RTCEx_AlarmBEventCallback,%function
	.code	16                      @ @HAL_RTCEx_AlarmBEventCallback
	.thumb_func
HAL_RTCEx_AlarmBEventCallback:
.Lfunc_begin35:
	.loc	6 1790 0                @ ../Drivers/STM32F7xx_HAL_Driver/Src/stm32f7xx_hal_rtc_ex.c:1790:0
	.fnstart
	.cfi_startproc
@ %bb.0:
	@DEBUG_VALUE: HAL_RTCEx_AlarmBEventCallback:hrtc <- $r0
	.loc	6 1797 1 prologue_end   @ ../Drivers/STM32F7xx_HAL_Driver/Src/stm32f7xx_hal_rtc_ex.c:1797:1
	bx	lr
.Ltmp410:
.Lfunc_end35:
	.size	HAL_RTCEx_AlarmBEventCallback, .Lfunc_end35-HAL_RTCEx_AlarmBEventCallback
	.cfi_endproc
	.cantunwind
	.fnend
                                        @ -- End function
	.section	.text.HAL_RTCEx_PollForAlarmBEvent,"ax",%progbits
	.hidden	HAL_RTCEx_PollForAlarmBEvent @ -- Begin function HAL_RTCEx_PollForAlarmBEvent
	.globl	HAL_RTCEx_PollForAlarmBEvent
	.p2align	1
	.type	HAL_RTCEx_PollForAlarmBEvent,%function
	.code	16                      @ @HAL_RTCEx_PollForAlarmBEvent
	.thumb_func
HAL_RTCEx_PollForAlarmBEvent:
.Lfunc_begin36:
	.loc	6 1807 0                @ ../Drivers/STM32F7xx_HAL_Driver/Src/stm32f7xx_hal_rtc_ex.c:1807:0
	.fnstart
	.cfi_startproc
@ %bb.0:
	.save	{r4, r5, r6, r7, lr}
	.pad	#4
	push	{r3, r4, r5, r6, r7, lr}
	.cfi_def_cfa_offset 24
	.cfi_offset lr, -4
	.cfi_offset r7, -8
	.cfi_offset r6, -12
	.cfi_offset r5, -16
	.cfi_offset r4, -20
	@DEBUG_VALUE: HAL_RTCEx_PollForAlarmBEvent:hrtc <- $r0
	@DEBUG_VALUE: HAL_RTCEx_PollForAlarmBEvent:Timeout <- $r1
	mov	r5, r1
	mov	r4, r0
.Ltmp411:
	@DEBUG_VALUE: HAL_RTCEx_PollForAlarmBEvent:tickstart <- 0
	@DEBUG_VALUE: HAL_RTCEx_PollForAlarmBEvent:Timeout <- $r5
	@DEBUG_VALUE: HAL_RTCEx_PollForAlarmBEvent:hrtc <- $r4
	.loc	6 1811 15 prologue_end  @ ../Drivers/STM32F7xx_HAL_Driver/Src/stm32f7xx_hal_rtc_ex.c:1811:15
	bl	HAL_GetTick
	mov	r6, r0
.Ltmp412:
	@DEBUG_VALUE: HAL_RTCEx_PollForAlarmBEvent:tickstart <- $r6
	.loc	6 0 15 is_stmt 0        @ ../Drivers/STM32F7xx_HAL_Driver/Src/stm32f7xx_hal_rtc_ex.c:0:15
	adds	r7, r5, #1
.Ltmp413:
.LBB36_1:                               @ =>This Inner Loop Header: Depth=1
	@DEBUG_VALUE: HAL_RTCEx_PollForAlarmBEvent:tickstart <- $r6
	@DEBUG_VALUE: HAL_RTCEx_PollForAlarmBEvent:hrtc <- $r4
	@DEBUG_VALUE: HAL_RTCEx_PollForAlarmBEvent:Timeout <- $r5
	.loc	6 1813 9 is_stmt 1      @ ../Drivers/STM32F7xx_HAL_Driver/Src/stm32f7xx_hal_rtc_ex.c:1813:9
	ldr	r0, [r4]
	ldr	r1, [r0, #12]
	.loc	6 1813 3 is_stmt 0      @ ../Drivers/STM32F7xx_HAL_Driver/Src/stm32f7xx_hal_rtc_ex.c:1813:3
	tst.w	r1, #512
	bne	.LBB36_6
.Ltmp414:
@ %bb.2:                                @   in Loop: Header=BB36_1 Depth=1
	@DEBUG_VALUE: HAL_RTCEx_PollForAlarmBEvent:tickstart <- $r6
	@DEBUG_VALUE: HAL_RTCEx_PollForAlarmBEvent:hrtc <- $r4
	@DEBUG_VALUE: HAL_RTCEx_PollForAlarmBEvent:Timeout <- $r5
	.loc	6 1815 8 is_stmt 1      @ ../Drivers/STM32F7xx_HAL_Driver/Src/stm32f7xx_hal_rtc_ex.c:1815:8
	cmp	r7, #0
	beq	.LBB36_1
.Ltmp415:
@ %bb.3:                                @   in Loop: Header=BB36_1 Depth=1
	@DEBUG_VALUE: HAL_RTCEx_PollForAlarmBEvent:tickstart <- $r6
	@DEBUG_VALUE: HAL_RTCEx_PollForAlarmBEvent:hrtc <- $r4
	@DEBUG_VALUE: HAL_RTCEx_PollForAlarmBEvent:Timeout <- $r5
	cbz	r5, .LBB36_5
.Ltmp416:
@ %bb.4:                                @   in Loop: Header=BB36_1 Depth=1
	@DEBUG_VALUE: HAL_RTCEx_PollForAlarmBEvent:tickstart <- $r6
	@DEBUG_VALUE: HAL_RTCEx_PollForAlarmBEvent:hrtc <- $r4
	@DEBUG_VALUE: HAL_RTCEx_PollForAlarmBEvent:Timeout <- $r5
	.loc	6 1817 28               @ ../Drivers/STM32F7xx_HAL_Driver/Src/stm32f7xx_hal_rtc_ex.c:1817:28
	bl	HAL_GetTick
	.loc	6 1817 42 is_stmt 0     @ ../Drivers/STM32F7xx_HAL_Driver/Src/stm32f7xx_hal_rtc_ex.c:1817:42
	subs	r0, r0, r6
.Ltmp417:
	.loc	6 1817 10               @ ../Drivers/STM32F7xx_HAL_Driver/Src/stm32f7xx_hal_rtc_ex.c:1817:10
	cmp	r0, r5
	bls	.LBB36_1
.Ltmp418:
.LBB36_5:
	@DEBUG_VALUE: HAL_RTCEx_PollForAlarmBEvent:tickstart <- $r6
	@DEBUG_VALUE: HAL_RTCEx_PollForAlarmBEvent:hrtc <- $r4
	@DEBUG_VALUE: HAL_RTCEx_PollForAlarmBEvent:Timeout <- $r5
	.loc	6 0 10                  @ ../Drivers/STM32F7xx_HAL_Driver/Src/stm32f7xx_hal_rtc_ex.c:0:10
	movs	r0, #3
	movs	r1, #3
	b	.LBB36_7
.Ltmp419:
.LBB36_6:
	@DEBUG_VALUE: HAL_RTCEx_PollForAlarmBEvent:tickstart <- $r6
	@DEBUG_VALUE: HAL_RTCEx_PollForAlarmBEvent:hrtc <- $r4
	@DEBUG_VALUE: HAL_RTCEx_PollForAlarmBEvent:Timeout <- $r5
	.loc	6 1826 3 is_stmt 1      @ ../Drivers/STM32F7xx_HAL_Driver/Src/stm32f7xx_hal_rtc_ex.c:1826:3
	ldr	r1, [r0, #12]
	and	r1, r1, #128
	orn	r1, r1, #640
	str	r1, [r0, #12]
	movs	r1, #0
	movs	r0, #1
.Ltmp420:
.LBB36_7:
	@DEBUG_VALUE: HAL_RTCEx_PollForAlarmBEvent:tickstart <- $r6
	@DEBUG_VALUE: HAL_RTCEx_PollForAlarmBEvent:hrtc <- $r4
	@DEBUG_VALUE: HAL_RTCEx_PollForAlarmBEvent:Timeout <- $r5
	.loc	6 0 3 is_stmt 0         @ ../Drivers/STM32F7xx_HAL_Driver/Src/stm32f7xx_hal_rtc_ex.c:0:3
	strb	r0, [r4, #29]
	.loc	6 1832 1 is_stmt 1      @ ../Drivers/STM32F7xx_HAL_Driver/Src/stm32f7xx_hal_rtc_ex.c:1832:1
	uxtb	r0, r1
	add	sp, #4
	pop	{r4, r5, r6, r7, pc}
.Ltmp421:
.Lfunc_end36:
	.size	HAL_RTCEx_PollForAlarmBEvent, .Lfunc_end36-HAL_RTCEx_PollForAlarmBEvent
	.cfi_endproc
	.cantunwind
	.fnend
                                        @ -- End function
	.file	7 "../Drivers/STM32F7xx_HAL_Driver/Inc" "stm32f7xx_hal_rtc_ex.h"
	.section	".note.GNU-stack","",%progbits
	.eabi_attribute	30, 4	@ Tag_ABI_optimization_goals
	.ARM_attribute	16, 1	@ Tag_AV_eba