	.text
	.syntax unified
	.eabi_attribute	67, "2.09"	@ Tag_conformance
	.cpu	cortex-m7
	.eabi_attribute	6, 13	@ Tag_CPU_arch
	.eabi_attribute	7, 77	@ Tag_CPU_arch_profile
	.eabi_attribute	8, 0	@ Tag_ARM_ISA_use
	.eabi_attribute	9, 2	@ Tag_THUMB_ISA_use
	.fpu	fpv5-sp-d16
	.eabi_attribute	27, 1	@ Tag_ABI_HardFP_use
	.eabi_attribute	36, 1	@ Tag_FP_HP_extension
	.eabi_attribute	34, 1	@ Tag_CPU_unaligned_access
	.eabi_attribute	17, 1	@ Tag_ABI_PCS_GOT_use
	.eabi_attribute	20, 2	@ Tag_ABI_FP_denormal
	.eabi_attribute	21, 0	@ Tag_ABI_FP_exceptions
	.eabi_attribute	23, 1	@ Tag_ABI_FP_number_model
	.eabi_attribute	24, 1	@ Tag_ABI_align_needed
	.eabi_attribute	25, 1	@ Tag_ABI_align_preserved
	.eabi_attribute	28, 1	@ Tag_ABI_VFP_args
	.eabi_attribute	38, 1	@ Tag_ABI_FP_16bit_format
	.eabi_attribute	18, 2	@ Tag_ABI_PCS_wchar_t
	.eabi_attribute	26, 1	@ Tag_ABI_enum_size
	.eabi_attribute	14, 0	@ Tag_ABI_PCS_R9_use
	.file	"stm32f7xx_hal_dma2d.c"
	.file	1 "../Drivers/STM32F7xx_HAL_Driver/Inc" "stm32f7xx_hal_def.h"
	.file	2 "../Drivers/STM32F7xx_HAL_Driver/Inc" "stm32f7xx_hal_dma2d.h"
	.file	3 "../Drivers/CMSIS/Device/ST/STM32F7xx/Include" "stm32f7xx.h"
	.file	4 "C:\\Keil\\ARM\\ARMCLANG\\Bin\\..\\include" "stdint.h"
	.file	5 "../Drivers/CMSIS/Device/ST/STM32F7xx/Include" "stm32f746xx.h"
	.section	.text.HAL_DMA2D_Init,"ax",%progbits
	.hidden	HAL_DMA2D_Init          @ -- Begin function HAL_DMA2D_Init
	.globl	HAL_DMA2D_Init
	.p2align	1
	.type	HAL_DMA2D_Init,%function
	.code	16                      @ @HAL_DMA2D_Init
	.thumb_func
HAL_DMA2D_Init:
.Lfunc_begin0:
	.file	6 "../Drivers/STM32F7xx_HAL_Driver/Src" "stm32f7xx_hal_dma2d.c"
	.loc	6 201 0                 @ ../Drivers/STM32F7xx_HAL_Driver/Src/stm32f7xx_hal_dma2d.c:201:0
	.fnstart
	.cfi_sections .debug_frame
	.cfi_startproc
@ %bb.0:
	.save	{r4, lr}
	push	{r4, lr}
	.cfi_def_cfa_offset 8
	.cfi_offset lr, -4
	.cfi_offset r4, -8
	@DEBUG_VALUE: HAL_DMA2D_Init:hdma2d <- $r0
	mov	r4, r0
.Ltmp0:
	@DEBUG_VALUE: HAL_DMA2D_Init:hdma2d <- $r4
	.loc	6 203 6 prologue_end    @ ../Drivers/STM32F7xx_HAL_Driver/Src/stm32f7xx_hal_dma2d.c:203:6
	cbz	r0, .LBB0_4
.Ltmp1:
@ %bb.1:
	@DEBUG_VALUE: HAL_DMA2D_Init:hdma2d <- $r4
	.loc	6 214 14                @ ../Drivers/STM32F7xx_HAL_Driver/Src/stm32f7xx_hal_dma2d.c:214:14
	ldrb.w	r0, [r4, #57]
.Ltmp2:
	.loc	6 214 6 is_stmt 0       @ ../Drivers/STM32F7xx_HAL_Driver/Src/stm32f7xx_hal_dma2d.c:214:6
	cbnz	r0, .LBB0_3
.Ltmp3:
@ %bb.2:
	@DEBUG_VALUE: HAL_DMA2D_Init:hdma2d <- $r4
	.loc	6 217 18 is_stmt 1      @ ../Drivers/STM32F7xx_HAL_Driver/Src/stm32f7xx_hal_dma2d.c:217:18
	movs	r0, #0
	strb.w	r0, [r4, #56]
	.loc	6 219 5                 @ ../Drivers/STM32F7xx_HAL_Driver/Src/stm32f7xx_hal_dma2d.c:219:5
	mov	r0, r4
	bl	HAL_DMA2D_MspInit
.Ltmp4:
.LBB0_3:
	@DEBUG_VALUE: HAL_DMA2D_Init:hdma2d <- $r4
	.loc	6 223 17                @ ../Drivers/STM32F7xx_HAL_Driver/Src/stm32f7xx_hal_dma2d.c:223:17
	movs	r0, #2
	strb.w	r0, [r4, #57]
	.loc	6 226 3                 @ ../Drivers/STM32F7xx_HAL_Driver/Src/stm32f7xx_hal_dma2d.c:226:3
	ldr	r0, [r4]
	ldr	r1, [r0]
	ldr	r2, [r4, #4]
	bic	r1, r1, #196608
	orrs	r1, r2
	str	r1, [r0]
	.loc	6 229 3                 @ ../Drivers/STM32F7xx_HAL_Driver/Src/stm32f7xx_hal_dma2d.c:229:3
	ldr	r1, [r0, #52]
	ldr	r2, [r4, #8]
	bic	r1, r1, #7
	orrs	r1, r2
	.loc	6 232 3                 @ ../Drivers/STM32F7xx_HAL_Driver/Src/stm32f7xx_hal_dma2d.c:232:3
	movw	r2, #16383
	.loc	6 229 3                 @ ../Drivers/STM32F7xx_HAL_Driver/Src/stm32f7xx_hal_dma2d.c:229:3
	str	r1, [r0, #52]
	.loc	6 232 3                 @ ../Drivers/STM32F7xx_HAL_Driver/Src/stm32f7xx_hal_dma2d.c:232:3
	ldr	r1, [r0, #64]
	bics	r1, r2
	ldr	r2, [r4, #12]
	orrs	r1, r2
	str	r1, [r0, #64]
	movs	r0, #0
	.loc	6 248 18                @ ../Drivers/STM32F7xx_HAL_Driver/Src/stm32f7xx_hal_dma2d.c:248:18
	movs	r1, #1
	.loc	6 245 21                @ ../Drivers/STM32F7xx_HAL_Driver/Src/stm32f7xx_hal_dma2d.c:245:21
	str	r0, [r4, #60]
	.loc	6 248 18                @ ../Drivers/STM32F7xx_HAL_Driver/Src/stm32f7xx_hal_dma2d.c:248:18
	strb.w	r1, [r4, #57]
	.loc	6 251 1                 @ ../Drivers/STM32F7xx_HAL_Driver/Src/stm32f7xx_hal_dma2d.c:251:1
	pop	{r4, pc}
.Ltmp5:
.LBB0_4:
	@DEBUG_VALUE: HAL_DMA2D_Init:hdma2d <- $r4
	.loc	6 0 1 is_stmt 0         @ ../Drivers/STM32F7xx_HAL_Driver/Src/stm32f7xx_hal_dma2d.c:0:1
	movs	r0, #1
	.loc	6 251 1                 @ ../Drivers/STM32F7xx_HAL_Driver/Src/stm32f7xx_hal_dma2d.c:251:1
	pop	{r4, pc}
.Ltmp6:
.Lfunc_end0:
	.size	HAL_DMA2D_Init, .Lfunc_end0-HAL_DMA2D_Init
	.cfi_endproc
	.cantunwind
	.fnend
                                        @ -- End function
	.section	.text.HAL_DMA2D_MspInit,"ax",%progbits
	.hidden	HAL_DMA2D_MspInit       @ -- Begin function HAL_DMA2D_MspInit
	.weak	HAL_DMA2D_MspInit
	.p2align	1
	.type	HAL_DMA2D_MspInit,%function
	.code	16                      @ @HAL_DMA2D_MspInit
	.thumb_func
HAL_DMA2D_MspInit:
.Lfunc_begin1:
	.loc	6 340 0 is_stmt 1       @ ../Drivers/STM32F7xx_HAL_Driver/Src/stm32f7xx_hal_dma2d.c:340:0
	.fnstart
	.cfi_startproc
@ %bb.0:
	@DEBUG_VALUE: HAL_DMA2D_MspInit:hdma2d <- $r0
	.loc	6 347 1 prologue_end    @ ../Drivers/STM32F7xx_HAL_Driver/Src/stm32f7xx_hal_dma2d.c:347:1
	bx	lr
.Ltmp7:
.Lfunc_end1:
	.size	HAL_DMA2D_MspInit, .Lfunc_end1-HAL_DMA2D_MspInit
	.cfi_endproc
	.cantunwind
	.fnend
                                        @ -- End function
	.section	.text.HAL_DMA2D_DeInit,"ax",%progbits
	.hidden	HAL_DMA2D_DeInit        @ -- Begin function HAL_DMA2D_DeInit
	.globl	HAL_DMA2D_DeInit
	.p2align	2
	.type	HAL_DMA2D_DeInit,%function
	.code	16                      @ @HAL_DMA2D_DeInit
	.thumb_func
HAL_DMA2D_DeInit:
.Lfunc_begin2:
	.loc	6 262 0                 @ ../Drivers/STM32F7xx_HAL_Driver/Src/stm32f7xx_hal_dma2d.c:262:0
	.fnstart
	.cfi_startproc
@ %bb.0:
	.save	{r4, r5, r7, lr}
	push	{r4, r5, r7, lr}
	.cfi_def_cfa_offset 16
	.cfi_offset lr, -4
	.cfi_offset r7, -8
	.cfi_offset r5, -12
	.cfi_offset r4, -16
	@DEBUG_VALUE: HAL_DMA2D_DeInit:hdma2d <- $r0
	mov	r4, r0
.Ltmp8:
	@DEBUG_VALUE: HAL_DMA2D_DeInit:hdma2d <- $r4
	.loc	6 265 6 prologue_end    @ ../Drivers/STM32F7xx_HAL_Driver/Src/stm32f7xx_hal_dma2d.c:265:6
	cbz	r0, .LBB2_9
.Ltmp9:
@ %bb.1:
	@DEBUG_VALUE: HAL_DMA2D_DeInit:hdma2d <- $r4
	.loc	6 272 7                 @ ../Drivers/STM32F7xx_HAL_Driver/Src/stm32f7xx_hal_dma2d.c:272:7
	ldr	r0, __arm_cp.2_0
	ldr	r0, [r0]
.Ltmp10:
	.loc	6 272 7 is_stmt 0       @ ../Drivers/STM32F7xx_HAL_Driver/Src/stm32f7xx_hal_dma2d.c:272:7
	tst.w	r0, #8388608
	beq	.LBB2_10
.Ltmp11:
@ %bb.2:
	@DEBUG_VALUE: HAL_DMA2D_DeInit:hdma2d <- $r4
	.loc	6 275 18 is_stmt 1      @ ../Drivers/STM32F7xx_HAL_Driver/Src/stm32f7xx_hal_dma2d.c:275:18
	ldr	r0, [r4]
	.loc	6 275 28 is_stmt 0      @ ../Drivers/STM32F7xx_HAL_Driver/Src/stm32f7xx_hal_dma2d.c:275:28
	ldr	r1, [r0]
.Ltmp12:
	.loc	6 275 9                 @ ../Drivers/STM32F7xx_HAL_Driver/Src/stm32f7xx_hal_dma2d.c:275:9
	tst.w	r1, #1
	bne	.LBB2_6
.Ltmp13:
@ %bb.3:
	@DEBUG_VALUE: HAL_DMA2D_DeInit:hdma2d <- $r4
	.loc	6 286 30 is_stmt 1      @ ../Drivers/STM32F7xx_HAL_Driver/Src/stm32f7xx_hal_dma2d.c:286:30
	ldr	r1, [r0, #36]
.Ltmp14:
	.loc	6 286 11 is_stmt 0      @ ../Drivers/STM32F7xx_HAL_Driver/Src/stm32f7xx_hal_dma2d.c:286:11
	tst.w	r1, #32
	bne	.LBB2_7
.Ltmp15:
@ %bb.4:
	@DEBUG_VALUE: HAL_DMA2D_DeInit:hdma2d <- $r4
	.loc	6 297 32 is_stmt 1      @ ../Drivers/STM32F7xx_HAL_Driver/Src/stm32f7xx_hal_dma2d.c:297:32
	ldr	r0, [r0, #28]
.Ltmp16:
	.loc	6 297 13 is_stmt 0      @ ../Drivers/STM32F7xx_HAL_Driver/Src/stm32f7xx_hal_dma2d.c:297:13
	tst.w	r0, #32
	beq	.LBB2_10
.Ltmp17:
@ %bb.5:
	@DEBUG_VALUE: HAL_DMA2D_DeInit:hdma2d <- $r4
	.loc	6 299 15 is_stmt 1      @ ../Drivers/STM32F7xx_HAL_Driver/Src/stm32f7xx_hal_dma2d.c:299:15
	mov	r0, r4
	movs	r1, #1
	movs	r5, #1
	bl	HAL_DMA2D_CLUTLoading_Abort
	cbnz	r0, .LBB2_11
	b	.LBB2_10
.Ltmp18:
.LBB2_6:
	@DEBUG_VALUE: HAL_DMA2D_DeInit:hdma2d <- $r4
	.loc	6 277 11                @ ../Drivers/STM32F7xx_HAL_Driver/Src/stm32f7xx_hal_dma2d.c:277:11
	mov	r0, r4
	bl	HAL_DMA2D_Abort
	b	.LBB2_8
.Ltmp19:
.LBB2_7:
	@DEBUG_VALUE: HAL_DMA2D_DeInit:hdma2d <- $r4
	.loc	6 288 13                @ ../Drivers/STM32F7xx_HAL_Driver/Src/stm32f7xx_hal_dma2d.c:288:13
	mov	r0, r4
	movs	r1, #0
	bl	HAL_DMA2D_CLUTLoading_Abort
.Ltmp20:
.LBB2_8:
	@DEBUG_VALUE: HAL_DMA2D_DeInit:hdma2d <- $r4
	.loc	6 0 13 is_stmt 0        @ ../Drivers/STM32F7xx_HAL_Driver/Src/stm32f7xx_hal_dma2d.c:0:13
	cbz	r0, .LBB2_10
.Ltmp21:
.LBB2_9:
	@DEBUG_VALUE: HAL_DMA2D_DeInit:hdma2d <- $r4
	movs	r5, #1
	b	.LBB2_11
.Ltmp22:
.LBB2_10:
	@DEBUG_VALUE: HAL_DMA2D_DeInit:hdma2d <- $r4
	.loc	6 311 3 is_stmt 1       @ ../Drivers/STM32F7xx_HAL_Driver/Src/stm32f7xx_hal_dma2d.c:311:3
	mov	r0, r4
	bl	HAL_DMA2D_MspDeInit
	.loc	6 314 11                @ ../Drivers/STM32F7xx_HAL_Driver/Src/stm32f7xx_hal_dma2d.c:314:11
	ldr	r0, [r4]
	movs	r5, #0
	.loc	6 314 24 is_stmt 0      @ ../Drivers/STM32F7xx_HAL_Driver/Src/stm32f7xx_hal_dma2d.c:314:24
	str	r5, [r0]
	.loc	6 315 26 is_stmt 1      @ ../Drivers/STM32F7xx_HAL_Driver/Src/stm32f7xx_hal_dma2d.c:315:26
	str	r5, [r0, #16]
	.loc	6 316 26                @ ../Drivers/STM32F7xx_HAL_Driver/Src/stm32f7xx_hal_dma2d.c:316:26
	str	r5, [r0, #24]
	.loc	6 317 29                @ ../Drivers/STM32F7xx_HAL_Driver/Src/stm32f7xx_hal_dma2d.c:317:29
	str	r5, [r0, #28]
	.loc	6 318 29                @ ../Drivers/STM32F7xx_HAL_Driver/Src/stm32f7xx_hal_dma2d.c:318:29
	str	r5, [r0, #36]
	.loc	6 319 28                @ ../Drivers/STM32F7xx_HAL_Driver/Src/stm32f7xx_hal_dma2d.c:319:28
	str	r5, [r0, #52]
	.loc	6 322 21                @ ../Drivers/STM32F7xx_HAL_Driver/Src/stm32f7xx_hal_dma2d.c:322:21
	str	r5, [r4, #60]
.Ltmp23:
	.loc	6 328 3                 @ ../Drivers/STM32F7xx_HAL_Driver/Src/stm32f7xx_hal_dma2d.c:328:3
	strb.w	r5, [r4, #56]
.Ltmp24:
	.loc	6 325 18                @ ../Drivers/STM32F7xx_HAL_Driver/Src/stm32f7xx_hal_dma2d.c:325:18
	strb.w	r5, [r4, #57]
.Ltmp25:
.LBB2_11:
	@DEBUG_VALUE: HAL_DMA2D_DeInit:hdma2d <- $r4
	.loc	6 331 1                 @ ../Drivers/STM32F7xx_HAL_Driver/Src/stm32f7xx_hal_dma2d.c:331:1
	mov	r0, r5
	pop	{r4, r5, r7, pc}
.Ltmp26:
	.p2align	2
@ %bb.12:
	.loc	6 0 1 is_stmt 0         @ ../Drivers/STM32F7xx_HAL_Driver/Src/stm32f7xx_hal_dma2d.c:0:1
__arm_cp.2_0:
	.long	1073887280              @ 0x40023830
.Lcpi_end0:
	.size	__arm_cp.2_0, .Lcpi_end0-__arm_cp.2_0
.Lfunc_end2:
	.size	HAL_DMA2D_DeInit, .Lfunc_end2-HAL_DMA2D_DeInit
	.cfi_endproc
	.cantunwind
	.fnend
                                        @ -- End function
	.section	.text.HAL_DMA2D_Abort,"ax",%progbits
	.hidden	HAL_DMA2D_Abort         @ -- Begin function HAL_DMA2D_Abort
	.globl	HAL_DMA2D_Abort
	.p2align	1
	.type	HAL_DMA2D_Abort,%function
	.code	16                      @ @HAL_DMA2D_Abort
	.thumb_func
HAL_DMA2D_Abort:
.Lfunc_begin3:
	.loc	6 556 0 is_stmt 1       @ ../Drivers/STM32F7xx_HAL_Driver/Src/stm32f7xx_hal_dma2d.c:556:0
	.fnstart
	.cfi_startproc
@ %bb.0:
	.save	{r4, r5, r7, lr}
	push	{r4, r5, r7, lr}
	.cfi_def_cfa_offset 16
	.cfi_offset lr, -4
	.cfi_offset r7, -8
	.cfi_offset r5, -12
	.cfi_offset r4, -16
	@DEBUG_VALUE: HAL_DMA2D_Abort:hdma2d <- $r0
	mov	r4, r0
.Ltmp27:
	@DEBUG_VALUE: HAL_DMA2D_Abort:tickstart <- 0
	@DEBUG_VALUE: HAL_DMA2D_Abort:hdma2d <- $r4
	.loc	6 563 4 prologue_end    @ ../Drivers/STM32F7xx_HAL_Driver/Src/stm32f7xx_hal_dma2d.c:563:4
	ldr	r0, [r0]
	ldr	r1, [r0]
	bic	r1, r1, #5
	orr	r1, r1, #4
	str	r1, [r0]
	.loc	6 566 15                @ ../Drivers/STM32F7xx_HAL_Driver/Src/stm32f7xx_hal_dma2d.c:566:15
	bl	HAL_GetTick
	mov	r5, r0
.Ltmp28:
	@DEBUG_VALUE: HAL_DMA2D_Abort:tickstart <- $r5
.LBB3_1:                                @ =>This Inner Loop Header: Depth=1
	@DEBUG_VALUE: HAL_DMA2D_Abort:tickstart <- $r5
	@DEBUG_VALUE: HAL_DMA2D_Abort:hdma2d <- $r4
	.loc	6 569 18                @ ../Drivers/STM32F7xx_HAL_Driver/Src/stm32f7xx_hal_dma2d.c:569:18
	ldr	r0, [r4]
	.loc	6 569 28 is_stmt 0      @ ../Drivers/STM32F7xx_HAL_Driver/Src/stm32f7xx_hal_dma2d.c:569:28
	ldr	r1, [r0]
	.loc	6 569 3                 @ ../Drivers/STM32F7xx_HAL_Driver/Src/stm32f7xx_hal_dma2d.c:569:3
	tst.w	r1, #1
	beq	.LBB3_4
.Ltmp29:
@ %bb.2:                                @   in Loop: Header=BB3_1 Depth=1
	@DEBUG_VALUE: HAL_DMA2D_Abort:tickstart <- $r5
	@DEBUG_VALUE: HAL_DMA2D_Abort:hdma2d <- $r4
	.loc	6 571 9 is_stmt 1       @ ../Drivers/STM32F7xx_HAL_Driver/Src/stm32f7xx_hal_dma2d.c:571:9
	bl	HAL_GetTick
	.loc	6 571 23 is_stmt 0      @ ../Drivers/STM32F7xx_HAL_Driver/Src/stm32f7xx_hal_dma2d.c:571:23
	subs	r0, r0, r5
.Ltmp30:
	.loc	6 571 8                 @ ../Drivers/STM32F7xx_HAL_Driver/Src/stm32f7xx_hal_dma2d.c:571:8
	cmp.w	r0, #1000
	bls	.LBB3_1
.Ltmp31:
@ %bb.3:
	@DEBUG_VALUE: HAL_DMA2D_Abort:tickstart <- $r5
	@DEBUG_VALUE: HAL_DMA2D_Abort:hdma2d <- $r4
	.loc	6 574 25 is_stmt 1      @ ../Drivers/STM32F7xx_HAL_Driver/Src/stm32f7xx_hal_dma2d.c:574:25
	ldr	r0, [r4, #60]
	movs	r1, #3
	orr	r0, r0, #32
	str	r0, [r4, #60]
	movs	r0, #3
	b	.LBB3_5
.Ltmp32:
.LBB3_4:
	@DEBUG_VALUE: HAL_DMA2D_Abort:tickstart <- $r5
	@DEBUG_VALUE: HAL_DMA2D_Abort:hdma2d <- $r4
	.loc	6 587 3                 @ ../Drivers/STM32F7xx_HAL_Driver/Src/stm32f7xx_hal_dma2d.c:587:3
	ldr	r1, [r0]
	bic	r1, r1, #8960
	str	r1, [r0]
	movs	r1, #0
	movs	r0, #1
.Ltmp33:
.LBB3_5:
	@DEBUG_VALUE: HAL_DMA2D_Abort:tickstart <- $r5
	@DEBUG_VALUE: HAL_DMA2D_Abort:hdma2d <- $r4
	.loc	6 0 3 is_stmt 0         @ ../Drivers/STM32F7xx_HAL_Driver/Src/stm32f7xx_hal_dma2d.c:0:3
	movs	r2, #0
	strb.w	r2, [r4, #56]
	strb.w	r0, [r4, #57]
	.loc	6 596 1 is_stmt 1       @ ../Drivers/STM32F7xx_HAL_Driver/Src/stm32f7xx_hal_dma2d.c:596:1
	uxtb	r0, r1
	pop	{r4, r5, r7, pc}
.Ltmp34:
.Lfunc_end3:
	.size	HAL_DMA2D_Abort, .Lfunc_end3-HAL_DMA2D_Abort
	.cfi_endproc
	.cantunwind
	.fnend
                                        @ -- End function
	.section	.text.HAL_DMA2D_CLUTLoading_Abort,"ax",%progbits
	.hidden	HAL_DMA2D_CLUTLoading_Abort @ -- Begin function HAL_DMA2D_CLUTLoading_Abort
	.globl	HAL_DMA2D_CLUTLoading_Abort
	.p2align	1
	.type	HAL_DMA2D_CLUTLoading_Abort,%function
	.code	16                      @ @HAL_DMA2D_CLUTLoading_Abort
	.thumb_func
HAL_DMA2D_CLUTLoading_Abort:
.Lfunc_begin4:
	.loc	6 833 0                 @ ../Drivers/STM32F7xx_HAL_Driver/Src/stm32f7xx_hal_dma2d.c:833:0
	.fnstart
	.cfi_startproc
@ %bb.0:
	.save	{r4, r5, r6, r7, lr}
	.pad	#4
	push	{r3, r4, r5, r6, r7, lr}
	.cfi_def_cfa_offset 24
	.cfi_offset lr, -4
	.cfi_offset r7, -8
	.cfi_offset r6, -12
	.cfi_offset r5, -16
	.cfi_offset r4, -20
	@DEBUG_VALUE: HAL_DMA2D_CLUTLoading_Abort:hdma2d <- $r0
	@DEBUG_VALUE: HAL_DMA2D_CLUTLoading_Abort:LayerIdx <- $r1
.Ltmp35:
	.loc	6 835 36 prologue_end   @ ../Drivers/STM32F7xx_HAL_Driver/Src/stm32f7xx_hal_dma2d.c:835:36
	ldr	r6, [r0]
	mov	r4, r0
.Ltmp36:
	@DEBUG_VALUE: HAL_DMA2D_CLUTLoading_Abort:tickstart <- 0
	@DEBUG_VALUE: HAL_DMA2D_CLUTLoading_Abort:LayerIdx <- $r1
	@DEBUG_VALUE: HAL_DMA2D_CLUTLoading_Abort:hdma2d <- $r4
	.loc	6 841 6                 @ ../Drivers/STM32F7xx_HAL_Driver/Src/stm32f7xx_hal_dma2d.c:841:6
	movs	r7, #36
	cmp	r1, #1
	.loc	6 838 3                 @ ../Drivers/STM32F7xx_HAL_Driver/Src/stm32f7xx_hal_dma2d.c:838:3
	ldr	r0, [r6]
	orr	r0, r0, #4
	str	r0, [r6]
	.loc	6 841 6                 @ ../Drivers/STM32F7xx_HAL_Driver/Src/stm32f7xx_hal_dma2d.c:841:6
	it	eq
	moveq	r7, #28
	.loc	6 848 15                @ ../Drivers/STM32F7xx_HAL_Driver/Src/stm32f7xx_hal_dma2d.c:848:15
	bl	HAL_GetTick
.Ltmp37:
	mov	r5, r0
.Ltmp38:
	@DEBUG_VALUE: HAL_DMA2D_CLUTLoading_Abort:tickstart <- $r5
.LBB4_1:                                @ =>This Inner Loop Header: Depth=1
	@DEBUG_VALUE: HAL_DMA2D_CLUTLoading_Abort:tickstart <- $r5
	@DEBUG_VALUE: HAL_DMA2D_CLUTLoading_Abort:hdma2d <- $r4
	.loc	6 851 10                @ ../Drivers/STM32F7xx_HAL_Driver/Src/stm32f7xx_hal_dma2d.c:851:10
	ldr	r0, [r6, r7]
	.loc	6 851 3 is_stmt 0       @ ../Drivers/STM32F7xx_HAL_Driver/Src/stm32f7xx_hal_dma2d.c:851:3
	tst.w	r0, #32
	beq	.LBB4_4
.Ltmp39:
@ %bb.2:                                @   in Loop: Header=BB4_1 Depth=1
	@DEBUG_VALUE: HAL_DMA2D_CLUTLoading_Abort:tickstart <- $r5
	@DEBUG_VALUE: HAL_DMA2D_CLUTLoading_Abort:hdma2d <- $r4
	.loc	6 853 9 is_stmt 1       @ ../Drivers/STM32F7xx_HAL_Driver/Src/stm32f7xx_hal_dma2d.c:853:9
	bl	HAL_GetTick
	.loc	6 853 23 is_stmt 0      @ ../Drivers/STM32F7xx_HAL_Driver/Src/stm32f7xx_hal_dma2d.c:853:23
	subs	r0, r0, r5
.Ltmp40:
	.loc	6 853 8                 @ ../Drivers/STM32F7xx_HAL_Driver/Src/stm32f7xx_hal_dma2d.c:853:8
	cmp.w	r0, #1000
	bls	.LBB4_1
.Ltmp41:
@ %bb.3:
	@DEBUG_VALUE: HAL_DMA2D_CLUTLoading_Abort:tickstart <- $r5
	@DEBUG_VALUE: HAL_DMA2D_CLUTLoading_Abort:hdma2d <- $r4
	.loc	6 856 25 is_stmt 1      @ ../Drivers/STM32F7xx_HAL_Driver/Src/stm32f7xx_hal_dma2d.c:856:25
	ldr	r0, [r4, #60]
	movs	r1, #3
	orr	r0, r0, #32
	str	r0, [r4, #60]
	movs	r0, #3
	b	.LBB4_5
.Ltmp42:
.LBB4_4:
	@DEBUG_VALUE: HAL_DMA2D_CLUTLoading_Abort:tickstart <- $r5
	@DEBUG_VALUE: HAL_DMA2D_CLUTLoading_Abort:hdma2d <- $r4
	.loc	6 869 3                 @ ../Drivers/STM32F7xx_HAL_Driver/Src/stm32f7xx_hal_dma2d.c:869:3
	ldr	r0, [r4]
	ldr	r1, [r0]
	bic	r1, r1, #14592
	str	r1, [r0]
	movs	r1, #0
	movs	r0, #1
.Ltmp43:
.LBB4_5:
	@DEBUG_VALUE: HAL_DMA2D_CLUTLoading_Abort:tickstart <- $r5
	@DEBUG_VALUE: HAL_DMA2D_CLUTLoading_Abort:hdma2d <- $r4
	.loc	6 0 3 is_stmt 0         @ ../Drivers/STM32F7xx_HAL_Driver/Src/stm32f7xx_hal_dma2d.c:0:3
	movs	r2, #0
	strb.w	r2, [r4, #56]
	strb.w	r0, [r4, #57]
	.loc	6 878 1 is_stmt 1       @ ../Drivers/STM32F7xx_HAL_Driver/Src/stm32f7xx_hal_dma2d.c:878:1
	uxtb	r0, r1
	add	sp, #4
	pop	{r4, r5, r6, r7, pc}
.Ltmp44:
.Lfunc_end4:
	.size	HAL_DMA2D_CLUTLoading_Abort, .Lfunc_end4-HAL_DMA2D_CLUTLoading_Abort
	.cfi_endproc
	.cantunwind
	.fnend
                                        @ -- End function
	.section	.text.HAL_DMA2D_MspDeInit,"ax",%progbits
	.hidden	HAL_DMA2D_MspDeInit     @ -- Begin function HAL_DMA2D_MspDeInit
	.weak	HAL_DMA2D_MspDeInit
	.p2align	1
	.type	HAL_DMA2D_MspDeInit,%function
	.code	16                      @ @HAL_DMA2D_MspDeInit
	.thumb_func
HAL_DMA2D_MspDeInit:
.Lfunc_begin5:
	.loc	6 356 0                 @ ../Drivers/STM32F7xx_HAL_Driver/Src/stm32f7xx_hal_dma2d.c:356:0
	.fnstart
	.cfi_startproc
@ %bb.0:
	@DEBUG_VALUE: HAL_DMA2D_MspDeInit:hdma2d <- $r0
	.loc	6 363 1 prologue_end    @ ../Drivers/STM32F7xx_HAL_Driver/Src/stm32f7xx_hal_dma2d.c:363:1
	bx	lr
.Ltmp45:
.Lfunc_end5:
	.size	HAL_DMA2D_MspDeInit, .Lfunc_end5-HAL_DMA2D_MspDeInit
	.cfi_endproc
	.cantunwind
	.fnend
                                        @ -- End function
	.section	.text.HAL_DMA2D_Start,"ax",%progbits
	.hidden	HAL_DMA2D_Start         @ -- Begin function HAL_DMA2D_Start
	.globl	HAL_DMA2D_Start
	.p2align	1
	.type	HAL_DMA2D_Start,%function
	.code	16                      @ @HAL_DMA2D_Start
	.thumb_func
HAL_DMA2D_Start:
.Lfunc_begin6:
	.loc	6 419 0                 @ ../Drivers/STM32F7xx_HAL_Driver/Src/stm32f7xx_hal_dma2d.c:419:0
	.fnstart
	.cfi_startproc
@ %bb.0:
	.save	{r4, lr}
	.pad	#8
	push	{r2, r3, r4, lr}
	.cfi_def_cfa_offset 16
	.cfi_offset lr, -4
	.cfi_offset r4, -8
	@DEBUG_VALUE: HAL_DMA2D_Start:hdma2d <- $r0
	@DEBUG_VALUE: HAL_DMA2D_Start:pdata <- $r1
	@DEBUG_VALUE: HAL_DMA2D_Start:DstAddress <- $r2
	@DEBUG_VALUE: HAL_DMA2D_Start:Width <- $r3
.Ltmp46:
	.loc	6 425 3 prologue_end    @ ../Drivers/STM32F7xx_HAL_Driver/Src/stm32f7xx_hal_dma2d.c:425:3
	ldrb.w	r12, [r0, #56]
	mov	r4, r0
	@DEBUG_VALUE: HAL_DMA2D_Start:Height <- [DW_OP_plus_uconst 16] [$sp+0]
	@DEBUG_VALUE: HAL_DMA2D_Start:Width <- $r3
	@DEBUG_VALUE: HAL_DMA2D_Start:DstAddress <- $r2
	@DEBUG_VALUE: HAL_DMA2D_Start:pdata <- $r1
.Ltmp47:
	@DEBUG_VALUE: HAL_DMA2D_Start:hdma2d <- $r4
	.loc	6 0 3 is_stmt 0         @ ../Drivers/STM32F7xx_HAL_Driver/Src/stm32f7xx_hal_dma2d.c:0:3
	movs	r0, #2
.Ltmp48:
	.loc	6 425 3                 @ ../Drivers/STM32F7xx_HAL_Driver/Src/stm32f7xx_hal_dma2d.c:425:3
	cmp.w	r12, #1
	beq	.LBB6_2
.Ltmp49:
@ %bb.1:
	@DEBUG_VALUE: HAL_DMA2D_Start:hdma2d <- $r4
	@DEBUG_VALUE: HAL_DMA2D_Start:Height <- [DW_OP_plus_uconst 16] [$sp+0]
	@DEBUG_VALUE: HAL_DMA2D_Start:Width <- $r3
	@DEBUG_VALUE: HAL_DMA2D_Start:DstAddress <- $r2
	@DEBUG_VALUE: HAL_DMA2D_Start:pdata <- $r1
	.loc	6 0 3                   @ ../Drivers/STM32F7xx_HAL_Driver/Src/stm32f7xx_hal_dma2d.c:0:3
	ldr.w	r12, [sp, #16]
	.loc	6 428 17 is_stmt 1      @ ../Drivers/STM32F7xx_HAL_Driver/Src/stm32f7xx_hal_dma2d.c:428:17
	strb.w	r0, [r4, #57]
	movs	r0, #1
.Ltmp50:
	.loc	6 425 3                 @ ../Drivers/STM32F7xx_HAL_Driver/Src/stm32f7xx_hal_dma2d.c:425:3
	strb.w	r0, [r4, #56]
.Ltmp51:
	.loc	6 431 3                 @ ../Drivers/STM32F7xx_HAL_Driver/Src/stm32f7xx_hal_dma2d.c:431:3
	mov	r0, r4
	str.w	r12, [sp]
	bl	DMA2D_SetConfig
.Ltmp52:
	.loc	6 434 3                 @ ../Drivers/STM32F7xx_HAL_Driver/Src/stm32f7xx_hal_dma2d.c:434:3
	ldr	r0, [r4]
	ldr	r1, [r0]
	orr	r1, r1, #1
	str	r1, [r0]
	movs	r0, #0
.Ltmp53:
.LBB6_2:
	@DEBUG_VALUE: HAL_DMA2D_Start:hdma2d <- $r4
	@DEBUG_VALUE: HAL_DMA2D_Start:Height <- [DW_OP_plus_uconst 16] [$sp+0]
	.loc	6 437 1                 @ ../Drivers/STM32F7xx_HAL_Driver/Src/stm32f7xx_hal_dma2d.c:437:1
	uxtb	r0, r0
	add	sp, #8
.Ltmp54:
	pop	{r4, pc}
.Ltmp55:
.Lfunc_end6:
	.size	HAL_DMA2D_Start, .Lfunc_end6-HAL_DMA2D_Start
	.cfi_endproc
	.cantunwind
	.fnend
                                        @ -- End function
	.section	.text.DMA2D_SetConfig,"ax",%progbits
	.p2align	2               @ -- Begin function DMA2D_SetConfig
	.type	DMA2D_SetConfig,%function
	.code	16                      @ @DMA2D_SetConfig
	.thumb_func
DMA2D_SetConfig:
.Lfunc_begin7:
	.loc	6 1656 0                @ ../Drivers/STM32F7xx_HAL_Driver/Src/stm32f7xx_hal_dma2d.c:1656:0
	.fnstart
	.cfi_startproc
@ %bb.0:
	.save	{r4, r5, r7, lr}
	push	{r4, r5, r7, lr}
	.cfi_def_cfa_offset 16
	.cfi_offset lr, -4
	.cfi_offset r7, -8
	.cfi_offset r5, -12
	.cfi_offset r4, -16
	@DEBUG_VALUE: DMA2D_SetConfig:hdma2d <- $r0
	@DEBUG_VALUE: DMA2D_SetConfig:pdata <- $r1
	@DEBUG_VALUE: DMA2D_SetConfig:DstAddress <- $r2
	@DEBUG_VALUE: DMA2D_SetConfig:Width <- $r3
.Ltmp56:
	.loc	6 1664 3 prologue_end   @ ../Drivers/STM32F7xx_HAL_Driver/Src/stm32f7xx_hal_dma2d.c:1664:3
	ldr	r5, [r0]
	ldr.w	r12, [sp, #16]
	@DEBUG_VALUE: DMA2D_SetConfig:Height <- [DW_OP_plus_uconst 16] [$sp+0]
	@DEBUG_VALUE: DMA2D_SetConfig:Width <- $r3
	@DEBUG_VALUE: DMA2D_SetConfig:DstAddress <- $r2
	@DEBUG_VALUE: DMA2D_SetConfig:pdata <- $r1
	@DEBUG_VALUE: DMA2D_SetConfig:hdma2d <- $r0
	ldr	r4, [r5, #68]
	orr.w	r3, r12, r3, lsl #16
.Ltmp57:
	@DEBUG_VALUE: DMA2D_SetConfig:tmp4 <- 0
	@DEBUG_VALUE: DMA2D_SetConfig:tmp3 <- 0
	@DEBUG_VALUE: DMA2D_SetConfig:tmp2 <- 0
	@DEBUG_VALUE: DMA2D_SetConfig:tmp1 <- 0
	@DEBUG_VALUE: DMA2D_SetConfig:tmp <- 0
	and	r4, r4, #-1073741824
	orrs	r3, r4
	str	r3, [r5, #68]
	.loc	6 1667 3                @ ../Drivers/STM32F7xx_HAL_Driver/Src/stm32f7xx_hal_dma2d.c:1667:3
	str	r2, [r5, #60]
.Ltmp58:
	.loc	6 1670 20               @ ../Drivers/STM32F7xx_HAL_Driver/Src/stm32f7xx_hal_dma2d.c:1670:20
	ldr	r2, [r0, #4]
.Ltmp59:
	.loc	6 1670 7 is_stmt 0      @ ../Drivers/STM32F7xx_HAL_Driver/Src/stm32f7xx_hal_dma2d.c:1670:7
	cmp.w	r2, #196608
.Ltmp60:
	.loc	6 1715 5 is_stmt 1      @ ../Drivers/STM32F7xx_HAL_Driver/Src/stm32f7xx_hal_dma2d.c:1715:5
	itt	ne
	strne	r1, [r5, #12]
.Ltmp61:
	.loc	6 1717 1                @ ../Drivers/STM32F7xx_HAL_Driver/Src/stm32f7xx_hal_dma2d.c:1717:1
	popne	{r4, r5, r7, pc}
.Ltmp62:
	.loc	6 1678 22               @ ../Drivers/STM32F7xx_HAL_Driver/Src/stm32f7xx_hal_dma2d.c:1678:22
	ldr	r0, [r0, #8]
.Ltmp63:
	.loc	6 1675 18               @ ../Drivers/STM32F7xx_HAL_Driver/Src/stm32f7xx_hal_dma2d.c:1675:18
	uxtb	r2, r1
.Ltmp64:
	@DEBUG_VALUE: DMA2D_SetConfig:tmp4 <- $r2
	.loc	6 1674 18               @ ../Drivers/STM32F7xx_HAL_Driver/Src/stm32f7xx_hal_dma2d.c:1674:18
	and	r12, r1, #65280
.Ltmp65:
	@DEBUG_VALUE: DMA2D_SetConfig:tmp3 <- $r12
	.loc	6 1673 18               @ ../Drivers/STM32F7xx_HAL_Driver/Src/stm32f7xx_hal_dma2d.c:1673:18
	and	lr, r1, #16711680
.Ltmp66:
	@DEBUG_VALUE: DMA2D_SetConfig:tmp2 <- $lr
	.loc	6 1678 9                @ ../Drivers/STM32F7xx_HAL_Driver/Src/stm32f7xx_hal_dma2d.c:1678:9
	cmp	r0, #3
	bhi	.LBB7_4
.Ltmp67:
@ %bb.1:
	@DEBUG_VALUE: DMA2D_SetConfig:tmp2 <- $lr
	@DEBUG_VALUE: DMA2D_SetConfig:tmp3 <- $r12
	@DEBUG_VALUE: DMA2D_SetConfig:tmp4 <- $r2
	@DEBUG_VALUE: DMA2D_SetConfig:Height <- [DW_OP_plus_uconst 16] [$sp+0]
	@DEBUG_VALUE: DMA2D_SetConfig:pdata <- $r1
	@DEBUG_VALUE: DMA2D_SetConfig:hdma2d <- $r0
	.loc	6 0 9 is_stmt 0         @ ../Drivers/STM32F7xx_HAL_Driver/Src/stm32f7xx_hal_dma2d.c:0:9
.LCPI7_3:
	tbb	[pc, r0]
.Ltmp68:
@ %bb.2:
.LJTI7_0:
	.byte	(.LBB7_8-(.LCPI7_3+4))/2
	.byte	(.LBB7_3-(.LCPI7_3+4))/2
	.byte	(.LBB7_5-(.LCPI7_3+4))/2
	.byte	(.LBB7_6-(.LCPI7_3+4))/2
	.p2align	1
.LBB7_3:
.Ltmp69:
	@DEBUG_VALUE: DMA2D_SetConfig:tmp2 <- $lr
	@DEBUG_VALUE: DMA2D_SetConfig:tmp3 <- $r12
	@DEBUG_VALUE: DMA2D_SetConfig:tmp4 <- $r2
	@DEBUG_VALUE: DMA2D_SetConfig:Height <- [DW_OP_plus_uconst 16] [$sp+0]
	@DEBUG_VALUE: DMA2D_SetConfig:pdata <- $r1
	@DEBUG_VALUE: DMA2D_SetConfig:hdma2d <- $r0
	.loc	6 1684 26 is_stmt 1     @ ../Drivers/STM32F7xx_HAL_Driver/Src/stm32f7xx_hal_dma2d.c:1684:26
	bic	r1, r1, #-16777216
.Ltmp70:
	@DEBUG_VALUE: DMA2D_SetConfig:tmp <- $r1
	.loc	6 0 26 is_stmt 0        @ ../Drivers/STM32F7xx_HAL_Driver/Src/stm32f7xx_hal_dma2d.c:0:26
	b	.LBB7_8
.Ltmp71:
.LBB7_4:
	@DEBUG_VALUE: DMA2D_SetConfig:tmp2 <- $lr
	@DEBUG_VALUE: DMA2D_SetConfig:tmp3 <- $r12
	@DEBUG_VALUE: DMA2D_SetConfig:tmp4 <- $r2
	@DEBUG_VALUE: DMA2D_SetConfig:Height <- [DW_OP_plus_uconst 16] [$sp+0]
	@DEBUG_VALUE: DMA2D_SetConfig:pdata <- $r1
	@DEBUG_VALUE: DMA2D_SetConfig:hdma2d <- $r0
	.loc	6 1703 20 is_stmt 1     @ ../Drivers/STM32F7xx_HAL_Driver/Src/stm32f7xx_hal_dma2d.c:1703:20
	mov.w	r0, #61440
.Ltmp72:
	and.w	r0, r0, r1, lsr #16
	.loc	6 1704 20               @ ../Drivers/STM32F7xx_HAL_Driver/Src/stm32f7xx_hal_dma2d.c:1704:20
	ldr	r1, __arm_cp.7_2
.Ltmp73:
	.loc	6 1707 27               @ ../Drivers/STM32F7xx_HAL_Driver/Src/stm32f7xx_hal_dma2d.c:1707:27
	orr.w	r0, r0, r2, lsr #4
	.loc	6 1704 20               @ ../Drivers/STM32F7xx_HAL_Driver/Src/stm32f7xx_hal_dma2d.c:1704:20
	and.w	r1, r1, lr, lsr #12
	.loc	6 1707 41               @ ../Drivers/STM32F7xx_HAL_Driver/Src/stm32f7xx_hal_dma2d.c:1707:41
	orrs	r0, r1
	.loc	6 1705 20               @ ../Drivers/STM32F7xx_HAL_Driver/Src/stm32f7xx_hal_dma2d.c:1705:20
	movs	r1, #240
	and.w	r1, r1, r12, lsr #8
	b	.LBB7_7
.Ltmp74:
.LBB7_5:
	@DEBUG_VALUE: DMA2D_SetConfig:tmp2 <- $lr
	@DEBUG_VALUE: DMA2D_SetConfig:tmp3 <- $r12
	@DEBUG_VALUE: DMA2D_SetConfig:tmp4 <- $r2
	@DEBUG_VALUE: DMA2D_SetConfig:Height <- [DW_OP_plus_uconst 16] [$sp+0]
	@DEBUG_VALUE: DMA2D_SetConfig:pdata <- $r1
	@DEBUG_VALUE: DMA2D_SetConfig:hdma2d <- $r0
	.loc	6 1688 20               @ ../Drivers/STM32F7xx_HAL_Driver/Src/stm32f7xx_hal_dma2d.c:1688:20
	ldr	r1, __arm_cp.7_1
.Ltmp75:
	.loc	6 1689 20               @ ../Drivers/STM32F7xx_HAL_Driver/Src/stm32f7xx_hal_dma2d.c:1689:20
	mov.w	r0, #2016
.Ltmp76:
	and.w	r0, r0, r12, lsr #5
	.loc	6 1688 20               @ ../Drivers/STM32F7xx_HAL_Driver/Src/stm32f7xx_hal_dma2d.c:1688:20
	and.w	r1, r1, lr, lsr #8
	.loc	6 1691 27               @ ../Drivers/STM32F7xx_HAL_Driver/Src/stm32f7xx_hal_dma2d.c:1691:27
	orr.w	r1, r1, r2, lsr #3
	.loc	6 1691 42 is_stmt 0     @ ../Drivers/STM32F7xx_HAL_Driver/Src/stm32f7xx_hal_dma2d.c:1691:42
	orrs	r1, r0
.Ltmp77:
	@DEBUG_VALUE: DMA2D_SetConfig:tmp <- $r1
	.loc	6 0 42                  @ ../Drivers/STM32F7xx_HAL_Driver/Src/stm32f7xx_hal_dma2d.c:0:42
	b	.LBB7_8
.Ltmp78:
.LBB7_6:
	@DEBUG_VALUE: DMA2D_SetConfig:tmp2 <- $lr
	@DEBUG_VALUE: DMA2D_SetConfig:tmp3 <- $r12
	@DEBUG_VALUE: DMA2D_SetConfig:tmp4 <- $r2
	@DEBUG_VALUE: DMA2D_SetConfig:Height <- [DW_OP_plus_uconst 16] [$sp+0]
	@DEBUG_VALUE: DMA2D_SetConfig:pdata <- $r1
	@DEBUG_VALUE: DMA2D_SetConfig:hdma2d <- $r0
	.loc	6 1695 20 is_stmt 1     @ ../Drivers/STM32F7xx_HAL_Driver/Src/stm32f7xx_hal_dma2d.c:1695:20
	mov.w	r0, #32768
.Ltmp79:
	and.w	r0, r0, r1, lsr #16
	.loc	6 1696 20               @ ../Drivers/STM32F7xx_HAL_Driver/Src/stm32f7xx_hal_dma2d.c:1696:20
	ldr	r1, __arm_cp.7_0
.Ltmp80:
	.loc	6 1699 27               @ ../Drivers/STM32F7xx_HAL_Driver/Src/stm32f7xx_hal_dma2d.c:1699:27
	orr.w	r0, r0, r2, lsr #3
	.loc	6 1696 20               @ ../Drivers/STM32F7xx_HAL_Driver/Src/stm32f7xx_hal_dma2d.c:1696:20
	and.w	r1, r1, lr, lsr #9
	.loc	6 1699 42               @ ../Drivers/STM32F7xx_HAL_Driver/Src/stm32f7xx_hal_dma2d.c:1699:42
	orrs	r0, r1
	.loc	6 1697 20               @ ../Drivers/STM32F7xx_HAL_Driver/Src/stm32f7xx_hal_dma2d.c:1697:20
	mov.w	r1, #992
	and.w	r1, r1, r12, lsr #6
.Ltmp81:
.LBB7_7:
	@DEBUG_VALUE: DMA2D_SetConfig:tmp2 <- $lr
	@DEBUG_VALUE: DMA2D_SetConfig:tmp3 <- $r12
	@DEBUG_VALUE: DMA2D_SetConfig:tmp4 <- $r2
	@DEBUG_VALUE: DMA2D_SetConfig:Height <- [DW_OP_plus_uconst 16] [$sp+0]
	.loc	6 0 20 is_stmt 0        @ ../Drivers/STM32F7xx_HAL_Driver/Src/stm32f7xx_hal_dma2d.c:0:20
	orrs	r1, r0
.Ltmp82:
	@DEBUG_VALUE: DMA2D_SetConfig:tmp <- $r1
.LBB7_8:
	@DEBUG_VALUE: DMA2D_SetConfig:tmp2 <- $lr
	@DEBUG_VALUE: DMA2D_SetConfig:tmp3 <- $r12
	@DEBUG_VALUE: DMA2D_SetConfig:tmp4 <- $r2
	@DEBUG_VALUE: DMA2D_SetConfig:Height <- [DW_OP_plus_uconst 16] [$sp+0]
	@DEBUG_VALUE: DMA2D_SetConfig:tmp <- $r1
	.loc	6 1710 5 is_stmt 1      @ ../Drivers/STM32F7xx_HAL_Driver/Src/stm32f7xx_hal_dma2d.c:1710:5
	str	r1, [r5, #56]
.Ltmp83:
	.loc	6 1717 1                @ ../Drivers/STM32F7xx_HAL_Driver/Src/stm32f7xx_hal_dma2d.c:1717:1
	pop	{r4, r5, r7, pc}
.Ltmp84:
	.p2align	2
@ %bb.9:
	.loc	6 0 1 is_stmt 0         @ ../Drivers/STM32F7xx_HAL_Driver/Src/stm32f7xx_hal_dma2d.c:0:1
__arm_cp.7_0:
	.long	8387584                 @ 0x7ffc00
.Lcpi_end1:
	.size	__arm_cp.7_0, .Lcpi_end1-__arm_cp.7_0
__arm_cp.7_1:
	.long	16775168                @ 0xfff800
.Lcpi_end2:
	.size	__arm_cp.7_1, .Lcpi_end2-__arm_cp.7_1
__arm_cp.7_2:
	.long	1048320                 @ 0xfff00
.Lcpi_end3:
	.size	__arm_cp.7_2, .Lcpi_end3-__arm_cp.7_2
.Lfunc_end7:
	.size	DMA2D_SetConfig, .Lfunc_end7-DMA2D_SetConfig
	.cfi_endproc
	.cantunwind
	.fnend
                                        @ -- End function
	.section	.text.HAL_DMA2D_Start_IT,"ax",%progbits
	.hidden	HAL_DMA2D_Start_IT      @ -- Begin function HAL_DMA2D_Start_IT
	.globl	HAL_DMA2D_Start_IT
	.p2align	1
	.type	HAL_DMA2D_Start_IT,%function
	.code	16                      @ @HAL_DMA2D_Start_IT
	.thumb_func
HAL_DMA2D_Start_IT:
.Lfunc_begin8:
	.loc	6 453 0 is_stmt 1       @ ../Drivers/STM32F7xx_HAL_Driver/Src/stm32f7xx_hal_dma2d.c:453:0
	.fnstart
	.cfi_startproc
@ %bb.0:
	.save	{r4, lr}
	.pad	#8
	push	{r2, r3, r4, lr}
	.cfi_def_cfa_offset 16
	.cfi_offset lr, -4
	.cfi_offset r4, -8
	@DEBUG_VALUE: HAL_DMA2D_Start_IT:hdma2d <- $r0
	@DEBUG_VALUE: HAL_DMA2D_Start_IT:pdata <- $r1
	@DEBUG_VALUE: HAL_DMA2D_Start_IT:DstAddress <- $r2
	@DEBUG_VALUE: HAL_DMA2D_Start_IT:Width <- $r3
.Ltmp85:
	.loc	6 459 3 prologue_end    @ ../Drivers/STM32F7xx_HAL_Driver/Src/stm32f7xx_hal_dma2d.c:459:3
	ldrb.w	r12, [r0, #56]
	mov	r4, r0
	@DEBUG_VALUE: HAL_DMA2D_Start_IT:Height <- [DW_OP_plus_uconst 16] [$sp+0]
	@DEBUG_VALUE: HAL_DMA2D_Start_IT:Width <- $r3
	@DEBUG_VALUE: HAL_DMA2D_Start_IT:DstAddress <- $r2
	@DEBUG_VALUE: HAL_DMA2D_Start_IT:pdata <- $r1
.Ltmp86:
	@DEBUG_VALUE: HAL_DMA2D_Start_IT:hdma2d <- $r4
	.loc	6 0 3 is_stmt 0         @ ../Drivers/STM32F7xx_HAL_Driver/Src/stm32f7xx_hal_dma2d.c:0:3
	movs	r0, #2
.Ltmp87:
	.loc	6 459 3                 @ ../Drivers/STM32F7xx_HAL_Driver/Src/stm32f7xx_hal_dma2d.c:459:3
	cmp.w	r12, #1
	beq	.LBB8_2
.Ltmp88:
@ %bb.1:
	@DEBUG_VALUE: HAL_DMA2D_Start_IT:hdma2d <- $r4
	@DEBUG_VALUE: HAL_DMA2D_Start_IT:Height <- [DW_OP_plus_uconst 16] [$sp+0]
	@DEBUG_VALUE: HAL_DMA2D_Start_IT:Width <- $r3
	@DEBUG_VALUE: HAL_DMA2D_Start_IT:DstAddress <- $r2
	@DEBUG_VALUE: HAL_DMA2D_Start_IT:pdata <- $r1
	.loc	6 0 3                   @ ../Drivers/STM32F7xx_HAL_Driver/Src/stm32f7xx_hal_dma2d.c:0:3
	ldr.w	r12, [sp, #16]
	.loc	6 462 17 is_stmt 1      @ ../Drivers/STM32F7xx_HAL_Driver/Src/stm32f7xx_hal_dma2d.c:462:17
	strb.w	r0, [r4, #57]
	movs	r0, #1
.Ltmp89:
	.loc	6 459 3                 @ ../Drivers/STM32F7xx_HAL_Driver/Src/stm32f7xx_hal_dma2d.c:459:3
	strb.w	r0, [r4, #56]
.Ltmp90:
	.loc	6 465 3                 @ ../Drivers/STM32F7xx_HAL_Driver/Src/stm32f7xx_hal_dma2d.c:465:3
	mov	r0, r4
	str.w	r12, [sp]
	bl	DMA2D_SetConfig
.Ltmp91:
	.loc	6 468 3                 @ ../Drivers/STM32F7xx_HAL_Driver/Src/stm32f7xx_hal_dma2d.c:468:3
	ldr	r0, [r4]
	ldr	r1, [r0]
	orr	r1, r1, #8960
	str	r1, [r0]
	.loc	6 471 3                 @ ../Drivers/STM32F7xx_HAL_Driver/Src/stm32f7xx_hal_dma2d.c:471:3
	ldr	r1, [r0]
	orr	r1, r1, #1
	str	r1, [r0]
	movs	r0, #0
.Ltmp92:
.LBB8_2:
	@DEBUG_VALUE: HAL_DMA2D_Start_IT:hdma2d <- $r4
	@DEBUG_VALUE: HAL_DMA2D_Start_IT:Height <- [DW_OP_plus_uconst 16] [$sp+0]
	.loc	6 474 1                 @ ../Drivers/STM32F7xx_HAL_Driver/Src/stm32f7xx_hal_dma2d.c:474:1
	uxtb	r0, r0
	add	sp, #8
.Ltmp93:
	pop	{r4, pc}
.Ltmp94:
.Lfunc_end8:
	.size	HAL_DMA2D_Start_IT, .Lfunc_end8-HAL_DMA2D_Start_IT
	.cfi_endproc
	.cantunwind
	.fnend
                                        @ -- End function
	.section	.text.HAL_DMA2D_BlendingStart,"ax",%progbits
	.hidden	HAL_DMA2D_BlendingStart @ -- Begin function HAL_DMA2D_BlendingStart
	.globl	HAL_DMA2D_BlendingStart
	.p2align	1
	.type	HAL_DMA2D_BlendingStart,%function
	.code	16                      @ @HAL_DMA2D_BlendingStart
	.thumb_func
HAL_DMA2D_BlendingStart:
.Lfunc_begin9:
	.loc	6 488 0                 @ ../Drivers/STM32F7xx_HAL_Driver/Src/stm32f7xx_hal_dma2d.c:488:0
	.fnstart
	.cfi_startproc
@ %bb.0:
	.save	{r4, lr}
	.pad	#8
	push	{r2, r3, r4, lr}
	.cfi_def_cfa_offset 16
	.cfi_offset lr, -4
	.cfi_offset r4, -8
	@DEBUG_VALUE: HAL_DMA2D_BlendingStart:hdma2d <- $r0
	@DEBUG_VALUE: HAL_DMA2D_BlendingStart:SrcAddress1 <- $r1
	@DEBUG_VALUE: HAL_DMA2D_BlendingStart:SrcAddress2 <- $r2
	@DEBUG_VALUE: HAL_DMA2D_BlendingStart:DstAddress <- $r3
.Ltmp95:
	.loc	6 494 3 prologue_end    @ ../Drivers/STM32F7xx_HAL_Driver/Src/stm32f7xx_hal_dma2d.c:494:3
	ldrb.w	r12, [r0, #56]
	mov	r4, r0
	@DEBUG_VALUE: HAL_DMA2D_BlendingStart:Height <- [DW_OP_plus_uconst 20] [$sp+0]
	@DEBUG_VALUE: HAL_DMA2D_BlendingStart:Width <- [DW_OP_plus_uconst 16] [$sp+0]
	@DEBUG_VALUE: HAL_DMA2D_BlendingStart:DstAddress <- $r3
	@DEBUG_VALUE: HAL_DMA2D_BlendingStart:SrcAddress2 <- $r2
	@DEBUG_VALUE: HAL_DMA2D_BlendingStart:SrcAddress1 <- $r1
.Ltmp96:
	@DEBUG_VALUE: HAL_DMA2D_BlendingStart:hdma2d <- $r4
	.loc	6 0 3 is_stmt 0         @ ../Drivers/STM32F7xx_HAL_Driver/Src/stm32f7xx_hal_dma2d.c:0:3
	movs	r0, #2
.Ltmp97:
	.loc	6 494 3                 @ ../Drivers/STM32F7xx_HAL_Driver/Src/stm32f7xx_hal_dma2d.c:494:3
	cmp.w	r12, #1
	beq	.LBB9_2
.Ltmp98:
@ %bb.1:
	@DEBUG_VALUE: HAL_DMA2D_BlendingStart:hdma2d <- $r4
	@DEBUG_VALUE: HAL_DMA2D_BlendingStart:Width <- [DW_OP_plus_uconst 16] [$sp+0]
	@DEBUG_VALUE: HAL_DMA2D_BlendingStart:Height <- [DW_OP_plus_uconst 20] [$sp+0]
	@DEBUG_VALUE: HAL_DMA2D_BlendingStart:DstAddress <- $r3
	@DEBUG_VALUE: HAL_DMA2D_BlendingStart:SrcAddress2 <- $r2
	@DEBUG_VALUE: HAL_DMA2D_BlendingStart:SrcAddress1 <- $r1
	.loc	6 0 3                   @ ../Drivers/STM32F7xx_HAL_Driver/Src/stm32f7xx_hal_dma2d.c:0:3
	ldrd	r12, lr, [sp, #16]
	.loc	6 497 17 is_stmt 1      @ ../Drivers/STM32F7xx_HAL_Driver/Src/stm32f7xx_hal_dma2d.c:497:17
	strb.w	r0, [r4, #57]
	movs	r0, #1
.Ltmp99:
	.loc	6 494 3                 @ ../Drivers/STM32F7xx_HAL_Driver/Src/stm32f7xx_hal_dma2d.c:494:3
	strb.w	r0, [r4, #56]
.Ltmp100:
	.loc	6 500 3                 @ ../Drivers/STM32F7xx_HAL_Driver/Src/stm32f7xx_hal_dma2d.c:500:3
	ldr	r0, [r4]
	str	r2, [r0, #20]
	.loc	6 503 3                 @ ../Drivers/STM32F7xx_HAL_Driver/Src/stm32f7xx_hal_dma2d.c:503:3
	mov	r2, r3
.Ltmp101:
	mov	r0, r4
	mov	r3, r12
.Ltmp102:
	str.w	lr, [sp]
	bl	DMA2D_SetConfig
.Ltmp103:
	.loc	6 506 3                 @ ../Drivers/STM32F7xx_HAL_Driver/Src/stm32f7xx_hal_dma2d.c:506:3
	ldr	r0, [r4]
	ldr	r1, [r0]
	orr	r1, r1, #1
	str	r1, [r0]
	movs	r0, #0
.Ltmp104:
.LBB9_2:
	@DEBUG_VALUE: HAL_DMA2D_BlendingStart:hdma2d <- $r4
	@DEBUG_VALUE: HAL_DMA2D_BlendingStart:Width <- [DW_OP_plus_uconst 16] [$sp+0]
	@DEBUG_VALUE: HAL_DMA2D_BlendingStart:Height <- [DW_OP_plus_uconst 20] [$sp+0]
	.loc	6 509 1                 @ ../Drivers/STM32F7xx_HAL_Driver/Src/stm32f7xx_hal_dma2d.c:509:1
	uxtb	r0, r0
	add	sp, #8
.Ltmp105:
	pop	{r4, pc}
.Ltmp106:
.Lfunc_end9:
	.size	HAL_DMA2D_BlendingStart, .Lfunc_end9-HAL_DMA2D_BlendingStart
	.cfi_endproc
	.cantunwind
	.fnend
                                        @ -- End function
	.section	.text.HAL_DMA2D_BlendingStart_IT,"ax",%progbits
	.hidden	HAL_DMA2D_BlendingStart_IT @ -- Begin function HAL_DMA2D_BlendingStart_IT
	.globl	HAL_DMA2D_BlendingStart_IT
	.p2align	1
	.type	HAL_DMA2D_BlendingStart_IT,%function
	.code	16                      @ @HAL_DMA2D_BlendingStart_IT
	.thumb_func
HAL_DMA2D_BlendingStart_IT:
.Lfunc_begin10:
	.loc	6 523 0                 @ ../Drivers/STM32F7xx_HAL_Driver/Src/stm32f7xx_hal_dma2d.c:523:0
	.fnstart
	.cfi_startproc
@ %bb.0:
	.save	{r4, lr}
	.pad	#8
	push	{r2, r3, r4, lr}
	.cfi_def_cfa_offset 16
	.cfi_offset lr, -4
	.cfi_offset r4, -8
	@DEBUG_VALUE: HAL_DMA2D_BlendingStart_IT:hdma2d <- $r0
	@DEBUG_VALUE: HAL_DMA2D_BlendingStart_IT:SrcAddress1 <- $r1
	@DEBUG_VALUE: HAL_DMA2D_BlendingStart_IT:SrcAddress2 <- $r2
	@DEBUG_VALUE: HAL_DMA2D_BlendingStart_IT:DstAddress <- $r3
.Ltmp107:
	.loc	6 529 3 prologue_end    @ ../Drivers/STM32F7xx_HAL_Driver/Src/stm32f7xx_hal_dma2d.c:529:3
	ldrb.w	r12, [r0, #56]
	mov	r4, r0
	@DEBUG_VALUE: HAL_DMA2D_BlendingStart_IT:Height <- [DW_OP_plus_uconst 20] [$sp+0]
	@DEBUG_VALUE: HAL_DMA2D_BlendingStart_IT:Width <- [DW_OP_plus_uconst 16] [$sp+0]
	@DEBUG_VALUE: HAL_DMA2D_BlendingStart_IT:DstAddress <- $r3
	@DEBUG_VALUE: HAL_DMA2D_BlendingStart_IT:SrcAddress2 <- $r2
	@DEBUG_VALUE: HAL_DMA2D_BlendingStart_IT:SrcAddress1 <- $r1
.Ltmp108:
	@DEBUG_VALUE: HAL_DMA2D_BlendingStart_IT:hdma2d <- $r4
	.loc	6 0 3 is_stmt 0         @ ../Drivers/STM32F7xx_HAL_Driver/Src/stm32f7xx_hal_dma2d.c:0:3
	movs	r0, #2
.Ltmp109:
	.loc	6 529 3                 @ ../Drivers/STM32F7xx_HAL_Driver/Src/stm32f7xx_hal_dma2d.c:529:3
	cmp.w	r12, #1
	beq	.LBB10_2
.Ltmp110:
@ %bb.1:
	@DEBUG_VALUE: HAL_DMA2D_BlendingStart_IT:hdma2d <- $r4
	@DEBUG_VALUE: HAL_DMA2D_BlendingStart_IT:Width <- [DW_OP_plus_uconst 16] [$sp+0]
	@DEBUG_VALUE: HAL_DMA2D_BlendingStart_IT:Height <- [DW_OP_plus_uconst 20] [$sp+0]
	@DEBUG_VALUE: HAL_DMA2D_BlendingStart_IT:DstAddress <- $r3
	@DEBUG_VALUE: HAL_DMA2D_BlendingStart_IT:SrcAddress2 <- $r2
	@DEBUG_VALUE: HAL_DMA2D_BlendingStart_IT:SrcAddress1 <- $r1
	.loc	6 0 3                   @ ../Drivers/STM32F7xx_HAL_Driver/Src/stm32f7xx_hal_dma2d.c:0:3
	ldrd	r12, lr, [sp, #16]
	.loc	6 532 17 is_stmt 1      @ ../Drivers/STM32F7xx_HAL_Driver/Src/stm32f7xx_hal_dma2d.c:532:17
	strb.w	r0, [r4, #57]
	movs	r0, #1
.Ltmp111:
	.loc	6 529 3                 @ ../Drivers/STM32F7xx_HAL_Driver/Src/stm32f7xx_hal_dma2d.c:529:3
	strb.w	r0, [r4, #56]
.Ltmp112:
	.loc	6 535 3                 @ ../Drivers/STM32F7xx_HAL_Driver/Src/stm32f7xx_hal_dma2d.c:535:3
	ldr	r0, [r4]
	str	r2, [r0, #20]
	.loc	6 538 3                 @ ../Drivers/STM32F7xx_HAL_Driver/Src/stm32f7xx_hal_dma2d.c:538:3
	mov	r2, r3
.Ltmp113:
	mov	r0, r4
	mov	r3, r12
.Ltmp114:
	str.w	lr, [sp]
	bl	DMA2D_SetConfig
.Ltmp115:
	.loc	6 541 3                 @ ../Drivers/STM32F7xx_HAL_Driver/Src/stm32f7xx_hal_dma2d.c:541:3
	ldr	r0, [r4]
	ldr	r1, [r0]
	orr	r1, r1, #8960
	str	r1, [r0]
	.loc	6 544 3                 @ ../Drivers/STM32F7xx_HAL_Driver/Src/stm32f7xx_hal_dma2d.c:544:3
	ldr	r1, [r0]
	orr	r1, r1, #1
	str	r1, [r0]
	movs	r0, #0
.Ltmp116:
.LBB10_2:
	@DEBUG_VALUE: HAL_DMA2D_BlendingStart_IT:hdma2d <- $r4
	@DEBUG_VALUE: HAL_DMA2D_BlendingStart_IT:Width <- [DW_OP_plus_uconst 16] [$sp+0]
	@DEBUG_VALUE: HAL_DMA2D_BlendingStart_IT:Height <- [DW_OP_plus_uconst 20] [$sp+0]
	.loc	6 547 1                 @ ../Drivers/STM32F7xx_HAL_Driver/Src/stm32f7xx_hal_dma2d.c:547:1
	uxtb	r0, r0
	add	sp, #8
.Ltmp117:
	pop	{r4, pc}
.Ltmp118:
.Lfunc_end10:
	.size	HAL_DMA2D_BlendingStart_IT, .Lfunc_end10-HAL_DMA2D_BlendingStart_IT
	.cfi_endproc
	.cantunwind
	.fnend
                                        @ -- End function
	.section	.text.HAL_DMA2D_Suspend,"ax",%progbits
	.hidden	HAL_DMA2D_Suspend       @ -- Begin function HAL_DMA2D_Suspend
	.globl	HAL_DMA2D_Suspend
	.p2align	1
	.type	HAL_DMA2D_Suspend,%function
	.code	16                      @ @HAL_DMA2D_Suspend
	.thumb_func
HAL_DMA2D_Suspend:
.Lfunc_begin11:
	.loc	6 605 0                 @ ../Drivers/STM32F7xx_HAL_Driver/Src/stm32f7xx_hal_dma2d.c:605:0
	.fnstart
	.cfi_startproc
@ %bb.0:
	.save	{r4, r5, r7, lr}
	push	{r4, r5, r7, lr}
	.cfi_def_cfa_offset 16
	.cfi_offset lr, -4
	.cfi_offset r7, -8
	.cfi_offset r5, -12
	.cfi_offset r4, -16
	@DEBUG_VALUE: HAL_DMA2D_Suspend:hdma2d <- $r0
	mov	r4, r0
.Ltmp119:
	@DEBUG_VALUE: HAL_DMA2D_Suspend:tickstart <- 0
	@DEBUG_VALUE: HAL_DMA2D_Suspend:hdma2d <- $r4
	.loc	6 612 3 prologue_end    @ ../Drivers/STM32F7xx_HAL_Driver/Src/stm32f7xx_hal_dma2d.c:612:3
	ldr	r0, [r0]
	movs	r2, #2
	ldr	r1, [r0]
	bfi	r1, r2, #0, #2
	str	r1, [r0]
	.loc	6 615 15                @ ../Drivers/STM32F7xx_HAL_Driver/Src/stm32f7xx_hal_dma2d.c:615:15
	bl	HAL_GetTick
	mov	r5, r0
.Ltmp120:
	@DEBUG_VALUE: HAL_DMA2D_Suspend:tickstart <- $r5
.LBB11_1:                               @ =>This Inner Loop Header: Depth=1
	@DEBUG_VALUE: HAL_DMA2D_Suspend:tickstart <- $r5
	@DEBUG_VALUE: HAL_DMA2D_Suspend:hdma2d <- $r4
	.loc	6 618 20                @ ../Drivers/STM32F7xx_HAL_Driver/Src/stm32f7xx_hal_dma2d.c:618:20
	ldr	r0, [r4]
	.loc	6 618 30 is_stmt 0      @ ../Drivers/STM32F7xx_HAL_Driver/Src/stm32f7xx_hal_dma2d.c:618:30
	ldr	r1, [r0]
	.loc	6 619 5 is_stmt 1       @ ../Drivers/STM32F7xx_HAL_Driver/Src/stm32f7xx_hal_dma2d.c:619:5
	tst.w	r1, #2
	bne	.LBB11_5
.Ltmp121:
@ %bb.2:                                @   in Loop: Header=BB11_1 Depth=1
	@DEBUG_VALUE: HAL_DMA2D_Suspend:tickstart <- $r5
	@DEBUG_VALUE: HAL_DMA2D_Suspend:hdma2d <- $r4
	.loc	6 619 28 is_stmt 0      @ ../Drivers/STM32F7xx_HAL_Driver/Src/stm32f7xx_hal_dma2d.c:619:28
	ldr	r1, [r0]
	.loc	6 618 3 is_stmt 1       @ ../Drivers/STM32F7xx_HAL_Driver/Src/stm32f7xx_hal_dma2d.c:618:3
	tst.w	r1, #1
	beq	.LBB11_5
.Ltmp122:
@ %bb.3:                                @   in Loop: Header=BB11_1 Depth=1
	@DEBUG_VALUE: HAL_DMA2D_Suspend:tickstart <- $r5
	@DEBUG_VALUE: HAL_DMA2D_Suspend:hdma2d <- $r4
	.loc	6 621 9                 @ ../Drivers/STM32F7xx_HAL_Driver/Src/stm32f7xx_hal_dma2d.c:621:9
	bl	HAL_GetTick
	.loc	6 621 23 is_stmt 0      @ ../Drivers/STM32F7xx_HAL_Driver/Src/stm32f7xx_hal_dma2d.c:621:23
	subs	r0, r0, r5
.Ltmp123:
	.loc	6 621 8                 @ ../Drivers/STM32F7xx_HAL_Driver/Src/stm32f7xx_hal_dma2d.c:621:8
	cmp.w	r0, #1000
	bls	.LBB11_1
.Ltmp124:
@ %bb.4:
	@DEBUG_VALUE: HAL_DMA2D_Suspend:tickstart <- $r5
	@DEBUG_VALUE: HAL_DMA2D_Suspend:hdma2d <- $r4
	.loc	6 624 25 is_stmt 1      @ ../Drivers/STM32F7xx_HAL_Driver/Src/stm32f7xx_hal_dma2d.c:624:25
	ldr	r0, [r4, #60]
	orr	r0, r0, #32
	str	r0, [r4, #60]
	movs	r0, #3
	.loc	6 627 21                @ ../Drivers/STM32F7xx_HAL_Driver/Src/stm32f7xx_hal_dma2d.c:627:21
	strb.w	r0, [r4, #57]
	b	.LBB11_9
.Ltmp125:
.LBB11_5:
	@DEBUG_VALUE: HAL_DMA2D_Suspend:tickstart <- $r5
	@DEBUG_VALUE: HAL_DMA2D_Suspend:hdma2d <- $r4
	.loc	6 634 26                @ ../Drivers/STM32F7xx_HAL_Driver/Src/stm32f7xx_hal_dma2d.c:634:26
	ldr	r1, [r0]
.Ltmp126:
	.loc	6 634 7 is_stmt 0       @ ../Drivers/STM32F7xx_HAL_Driver/Src/stm32f7xx_hal_dma2d.c:634:7
	tst.w	r1, #1
	bne	.LBB11_7
.Ltmp127:
@ %bb.6:
	@DEBUG_VALUE: HAL_DMA2D_Suspend:tickstart <- $r5
	@DEBUG_VALUE: HAL_DMA2D_Suspend:hdma2d <- $r4
	.loc	6 642 5 is_stmt 1       @ ../Drivers/STM32F7xx_HAL_Driver/Src/stm32f7xx_hal_dma2d.c:642:5
	ldr	r1, [r0]
	bic	r1, r1, #2
	str	r1, [r0]
	b	.LBB11_8
.Ltmp128:
.LBB11_7:
	@DEBUG_VALUE: HAL_DMA2D_Suspend:tickstart <- $r5
	@DEBUG_VALUE: HAL_DMA2D_Suspend:hdma2d <- $r4
	.loc	6 636 19                @ ../Drivers/STM32F7xx_HAL_Driver/Src/stm32f7xx_hal_dma2d.c:636:19
	movs	r0, #5
	strb.w	r0, [r4, #57]
.Ltmp129:
.LBB11_8:
	@DEBUG_VALUE: HAL_DMA2D_Suspend:tickstart <- $r5
	@DEBUG_VALUE: HAL_DMA2D_Suspend:hdma2d <- $r4
	.loc	6 0 19 is_stmt 0        @ ../Drivers/STM32F7xx_HAL_Driver/Src/stm32f7xx_hal_dma2d.c:0:19
	movs	r0, #0
.Ltmp130:
.LBB11_9:
	@DEBUG_VALUE: HAL_DMA2D_Suspend:tickstart <- $r5
	@DEBUG_VALUE: HAL_DMA2D_Suspend:hdma2d <- $r4
	.loc	6 646 1 is_stmt 1       @ ../Drivers/STM32F7xx_HAL_Driver/Src/stm32f7xx_hal_dma2d.c:646:1
	uxtb	r0, r0
	pop	{r4, r5, r7, pc}
.Ltmp131:
.Lfunc_end11:
	.size	HAL_DMA2D_Suspend, .Lfunc_end11-HAL_DMA2D_Suspend
	.cfi_endproc
	.cantunwind
	.fnend
                                        @ -- End function
	.section	.text.HAL_DMA2D_Resume,"ax",%progbits
	.hidden	HAL_DMA2D_Resume        @ -- Begin function HAL_DMA2D_Resume
	.globl	HAL_DMA2D_Resume
	.p2align	1
	.type	HAL_DMA2D_Resume,%function
	.code	16                      @ @HAL_DMA2D_Resume
	.thumb_func
HAL_DMA2D_Resume:
.Lfunc_begin12:
	.loc	6 655 0                 @ ../Drivers/STM32F7xx_HAL_Driver/Src/stm32f7xx_hal_dma2d.c:655:0
	.fnstart
	.cfi_startproc
@ %bb.0:
	@DEBUG_VALUE: HAL_DMA2D_Resume:hdma2d <- $r0
	@DEBUG_VALUE: HAL_DMA2D_Resume:hdma2d <- $r0
	.loc	6 657 15 prologue_end   @ ../Drivers/STM32F7xx_HAL_Driver/Src/stm32f7xx_hal_dma2d.c:657:15
	ldr	r1, [r0]
	.loc	6 657 25 is_stmt 0      @ ../Drivers/STM32F7xx_HAL_Driver/Src/stm32f7xx_hal_dma2d.c:657:25
	ldr	r2, [r1]
	.loc	6 657 28                @ ../Drivers/STM32F7xx_HAL_Driver/Src/stm32f7xx_hal_dma2d.c:657:28
	and	r2, r2, #3
.Ltmp132:
	.loc	6 657 6                 @ ../Drivers/STM32F7xx_HAL_Driver/Src/stm32f7xx_hal_dma2d.c:657:6
	cmp	r2, #3
.Ltmp133:
	.loc	6 660 19 is_stmt 1      @ ../Drivers/STM32F7xx_HAL_Driver/Src/stm32f7xx_hal_dma2d.c:660:19
	itt	eq
	moveq	r2, #2
	strbeq.w	r2, [r0, #57]
.Ltmp134:
	.loc	6 667 3                 @ ../Drivers/STM32F7xx_HAL_Driver/Src/stm32f7xx_hal_dma2d.c:667:3
	ldr	r0, [r1]
.Ltmp135:
	bic	r0, r0, #3
	str	r0, [r1]
	.loc	6 669 3                 @ ../Drivers/STM32F7xx_HAL_Driver/Src/stm32f7xx_hal_dma2d.c:669:3
	movs	r0, #0
	bx	lr
.Ltmp136:
.Lfunc_end12:
	.size	HAL_DMA2D_Resume, .Lfunc_end12-HAL_DMA2D_Resume
	.cfi_endproc
	.cantunwind
	.fnend
                                        @ -- End function
	.section	.text.HAL_DMA2D_EnableCLUT,"ax",%progbits
	.hidden	HAL_DMA2D_EnableCLUT    @ -- Begin function HAL_DMA2D_EnableCLUT
	.globl	HAL_DMA2D_EnableCLUT
	.p2align	1
	.type	HAL_DMA2D_EnableCLUT,%function
	.code	16                      @ @HAL_DMA2D_EnableCLUT
	.thumb_func
HAL_DMA2D_EnableCLUT:
.Lfunc_begin13:
	.loc	6 683 0                 @ ../Drivers/STM32F7xx_HAL_Driver/Src/stm32f7xx_hal_dma2d.c:683:0
	.fnstart
	.cfi_startproc
@ %bb.0:
	@DEBUG_VALUE: HAL_DMA2D_EnableCLUT:hdma2d <- $r0
	@DEBUG_VALUE: HAL_DMA2D_EnableCLUT:hdma2d <- $r0
	@DEBUG_VALUE: HAL_DMA2D_EnableCLUT:LayerIdx <- $r1
	@DEBUG_VALUE: HAL_DMA2D_EnableCLUT:LayerIdx <- $r1
	.loc	6 688 3 prologue_end    @ ../Drivers/STM32F7xx_HAL_Driver/Src/stm32f7xx_hal_dma2d.c:688:3
	ldrb.w	r3, [r0, #56]
	movs	r2, #2
.Ltmp137:
	.loc	6 688 3 is_stmt 0       @ ../Drivers/STM32F7xx_HAL_Driver/Src/stm32f7xx_hal_dma2d.c:688:3
	cmp	r3, #1
	beq	.LBB13_2
.Ltmp138:
@ %bb.1:
	@DEBUG_VALUE: HAL_DMA2D_EnableCLUT:LayerIdx <- $r1
	@DEBUG_VALUE: HAL_DMA2D_EnableCLUT:hdma2d <- $r0
	.loc	6 691 17 is_stmt 1      @ ../Drivers/STM32F7xx_HAL_Driver/Src/stm32f7xx_hal_dma2d.c:691:17
	strb.w	r2, [r0, #57]
.Ltmp139:
	.loc	6 688 3                 @ ../Drivers/STM32F7xx_HAL_Driver/Src/stm32f7xx_hal_dma2d.c:688:3
	movs	r2, #1
.Ltmp140:
	.loc	6 693 6                 @ ../Drivers/STM32F7xx_HAL_Driver/Src/stm32f7xx_hal_dma2d.c:693:6
	cmp	r1, #0
.Ltmp141:
	.loc	6 688 3                 @ ../Drivers/STM32F7xx_HAL_Driver/Src/stm32f7xx_hal_dma2d.c:688:3
	strb.w	r2, [r0, #56]
.Ltmp142:
	.loc	6 693 6                 @ ../Drivers/STM32F7xx_HAL_Driver/Src/stm32f7xx_hal_dma2d.c:693:6
	mov.w	r2, #28
	it	eq
	moveq	r2, #36
	ldr	r0, [r0]
.Ltmp143:
	.loc	6 0 6 is_stmt 0         @ ../Drivers/STM32F7xx_HAL_Driver/Src/stm32f7xx_hal_dma2d.c:0:6
	ldr	r1, [r0, r2]
.Ltmp144:
	orr	r1, r1, #32
	str	r1, [r0, r2]
	movs	r2, #0
.LBB13_2:
	.loc	6 705 1 is_stmt 1       @ ../Drivers/STM32F7xx_HAL_Driver/Src/stm32f7xx_hal_dma2d.c:705:1
	uxtb	r0, r2
	bx	lr
.Ltmp145:
.Lfunc_end13:
	.size	HAL_DMA2D_EnableCLUT, .Lfunc_end13-HAL_DMA2D_EnableCLUT
	.cfi_endproc
	.cantunwind
	.fnend
                                        @ -- End function
	.section	.text.HAL_DMA2D_CLUTLoad,"ax",%progbits
	.hidden	HAL_DMA2D_CLUTLoad      @ -- Begin function HAL_DMA2D_CLUTLoad
	.globl	HAL_DMA2D_CLUTLoad
	.p2align	1
	.type	HAL_DMA2D_CLUTLoad,%function
	.code	16                      @ @HAL_DMA2D_CLUTLoad
	.thumb_func
HAL_DMA2D_CLUTLoad:
.Lfunc_begin14:
	.loc	6 721 0                 @ ../Drivers/STM32F7xx_HAL_Driver/Src/stm32f7xx_hal_dma2d.c:721:0
	.fnstart
	.cfi_startproc
@ %bb.0:
	.save	{r7, lr}
	push	{r7, lr}
	.cfi_def_cfa_offset 8
	.cfi_offset lr, -4
	.cfi_offset r7, -8
	@DEBUG_VALUE: HAL_DMA2D_CLUTLoad:hdma2d <- $r0
	@DEBUG_VALUE: HAL_DMA2D_CLUTLoad:hdma2d <- $r0
	@DEBUG_VALUE: HAL_DMA2D_CLUTLoad:LayerIdx <- [DW_OP_plus_uconst 8] [$sp+0]
.Ltmp146:
	.loc	6 728 3 prologue_end    @ ../Drivers/STM32F7xx_HAL_Driver/Src/stm32f7xx_hal_dma2d.c:728:3
	ldrb.w	lr, [r0, #56]
	mov.w	r12, #2
.Ltmp147:
	@DEBUG_VALUE: HAL_DMA2D_CLUTLoad:CLUTCfg <- [DW_OP_LLVM_fragment 0 32] $r1
	@DEBUG_VALUE: HAL_DMA2D_CLUTLoad:CLUTCfg <- [DW_OP_LLVM_fragment 32 32] $r2
	@DEBUG_VALUE: HAL_DMA2D_CLUTLoad:CLUTCfg <- [DW_OP_LLVM_fragment 64 32] $r3
	.loc	6 728 3 is_stmt 0       @ ../Drivers/STM32F7xx_HAL_Driver/Src/stm32f7xx_hal_dma2d.c:728:3
	cmp.w	lr, #1
	beq	.LBB14_5
.Ltmp148:
@ %bb.1:
	@DEBUG_VALUE: HAL_DMA2D_CLUTLoad:CLUTCfg <- [DW_OP_LLVM_fragment 64 32] $r3
	@DEBUG_VALUE: HAL_DMA2D_CLUTLoad:LayerIdx <- [DW_OP_plus_uconst 8] [$sp+0]
	@DEBUG_VALUE: HAL_DMA2D_CLUTLoad:hdma2d <- $r0
	.loc	6 731 17 is_stmt 1      @ ../Drivers/STM32F7xx_HAL_Driver/Src/stm32f7xx_hal_dma2d.c:731:17
	strb.w	r12, [r0, #57]
	mov.w	r12, #1
	ldr.w	lr, [sp, #8]
.Ltmp149:
	.loc	6 728 3                 @ ../Drivers/STM32F7xx_HAL_Driver/Src/stm32f7xx_hal_dma2d.c:728:3
	strb.w	r12, [r0, #56]
	ldr	r0, [r0]
.Ltmp150:
	.loc	6 734 6                 @ ../Drivers/STM32F7xx_HAL_Driver/Src/stm32f7xx_hal_dma2d.c:734:6
	cmp.w	lr, #0
	beq	.LBB14_3
.Ltmp151:
@ %bb.2:
	@DEBUG_VALUE: HAL_DMA2D_CLUTLoad:CLUTCfg <- [DW_OP_LLVM_fragment 64 32] $r3
	@DEBUG_VALUE: HAL_DMA2D_CLUTLoad:LayerIdx <- [DW_OP_plus_uconst 8] [$sp+0]
	.loc	6 750 5                 @ ../Drivers/STM32F7xx_HAL_Driver/Src/stm32f7xx_hal_dma2d.c:750:5
	str	r1, [r0, #44]
	.loc	6 753 5                 @ ../Drivers/STM32F7xx_HAL_Driver/Src/stm32f7xx_hal_dma2d.c:753:5
	adds	r0, #28
	b	.LBB14_4
.Ltmp152:
.LBB14_3:
	@DEBUG_VALUE: HAL_DMA2D_CLUTLoad:CLUTCfg <- [DW_OP_LLVM_fragment 64 32] $r3
	@DEBUG_VALUE: HAL_DMA2D_CLUTLoad:LayerIdx <- [DW_OP_plus_uconst 8] [$sp+0]
	.loc	6 737 5                 @ ../Drivers/STM32F7xx_HAL_Driver/Src/stm32f7xx_hal_dma2d.c:737:5
	str	r1, [r0, #48]
	.loc	6 740 5                 @ ../Drivers/STM32F7xx_HAL_Driver/Src/stm32f7xx_hal_dma2d.c:740:5
	adds	r0, #36
.Ltmp153:
.LBB14_4:
	@DEBUG_VALUE: HAL_DMA2D_CLUTLoad:CLUTCfg <- [DW_OP_LLVM_fragment 64 32] $r3
	@DEBUG_VALUE: HAL_DMA2D_CLUTLoad:LayerIdx <- [DW_OP_plus_uconst 8] [$sp+0]
	.loc	6 0 5 is_stmt 0         @ ../Drivers/STM32F7xx_HAL_Driver/Src/stm32f7xx_hal_dma2d.c:0:5
	lsls	r1, r3, #8
	movw	r3, #65296
.Ltmp154:
	mov.w	r12, #0
	orr.w	r1, r1, r2, lsl #4
	ldr	r2, [r0]
	bics	r2, r3
	orrs	r1, r2
	str	r1, [r0]
	ldr	r1, [r0]
	orr	r1, r1, #32
	str	r1, [r0]
.LBB14_5:
	@DEBUG_VALUE: HAL_DMA2D_CLUTLoad:LayerIdx <- [DW_OP_plus_uconst 8] [$sp+0]
	.loc	6 761 1 is_stmt 1       @ ../Drivers/STM32F7xx_HAL_Driver/Src/stm32f7xx_hal_dma2d.c:761:1
	uxtb.w	r0, r12
	pop	{r7, pc}
.Ltmp155:
.Lfunc_end14:
	.size	HAL_DMA2D_CLUTLoad, .Lfunc_end14-HAL_DMA2D_CLUTLoad
	.cfi_endproc
	.cantunwind
	.fnend
                                        @ -- End function
	.section	.text.HAL_DMA2D_CLUTLoad_IT,"ax",%progbits
	.hidden	HAL_DMA2D_CLUTLoad_IT   @ -- Begin function HAL_DMA2D_CLUTLoad_IT
	.globl	HAL_DMA2D_CLUTLoad_IT
	.p2align	1
	.type	HAL_DMA2D_CLUTLoad_IT,%function
	.code	16                      @ @HAL_DMA2D_CLUTLoad_IT
	.thumb_func
HAL_DMA2D_CLUTLoad_IT:
.Lfunc_begin15:
	.loc	6 775 0                 @ ../Drivers/STM32F7xx_HAL_Driver/Src/stm32f7xx_hal_dma2d.c:775:0
	.fnstart
	.cfi_startproc
@ %bb.0:
	.save	{r7, lr}
	push	{r7, lr}
	.cfi_def_cfa_offset 8
	.cfi_offset lr, -4
	.cfi_offset r7, -8
	@DEBUG_VALUE: HAL_DMA2D_CLUTLoad_IT:hdma2d <- $r0
	@DEBUG_VALUE: HAL_DMA2D_CLUTLoad_IT:hdma2d <- $r0
	@DEBUG_VALUE: HAL_DMA2D_CLUTLoad_IT:LayerIdx <- [DW_OP_plus_uconst 8] [$sp+0]
.Ltmp156:
	.loc	6 782 3 prologue_end    @ ../Drivers/STM32F7xx_HAL_Driver/Src/stm32f7xx_hal_dma2d.c:782:3
	ldrb.w	lr, [r0, #56]
	mov.w	r12, #2
.Ltmp157:
	@DEBUG_VALUE: HAL_DMA2D_CLUTLoad_IT:CLUTCfg <- [DW_OP_LLVM_fragment 0 32] $r1
	@DEBUG_VALUE: HAL_DMA2D_CLUTLoad_IT:CLUTCfg <- [DW_OP_LLVM_fragment 32 32] $r2
	@DEBUG_VALUE: HAL_DMA2D_CLUTLoad_IT:CLUTCfg <- [DW_OP_LLVM_fragment 64 32] $r3
	.loc	6 782 3 is_stmt 0       @ ../Drivers/STM32F7xx_HAL_Driver/Src/stm32f7xx_hal_dma2d.c:782:3
	cmp.w	lr, #1
	beq	.LBB15_5
.Ltmp158:
@ %bb.1:
	@DEBUG_VALUE: HAL_DMA2D_CLUTLoad_IT:CLUTCfg <- [DW_OP_LLVM_fragment 64 32] $r3
	@DEBUG_VALUE: HAL_DMA2D_CLUTLoad_IT:LayerIdx <- [DW_OP_plus_uconst 8] [$sp+0]
	@DEBUG_VALUE: HAL_DMA2D_CLUTLoad_IT:hdma2d <- $r0
	.loc	6 785 17 is_stmt 1      @ ../Drivers/STM32F7xx_HAL_Driver/Src/stm32f7xx_hal_dma2d.c:785:17
	strb.w	r12, [r0, #57]
	mov.w	r12, #1
	ldr.w	lr, [sp, #8]
.Ltmp159:
	.loc	6 782 3                 @ ../Drivers/STM32F7xx_HAL_Driver/Src/stm32f7xx_hal_dma2d.c:782:3
	strb.w	r12, [r0, #56]
	ldr	r0, [r0]
.Ltmp160:
	.loc	6 788 6                 @ ../Drivers/STM32F7xx_HAL_Driver/Src/stm32f7xx_hal_dma2d.c:788:6
	cmp.w	lr, #0
	beq	.LBB15_3
.Ltmp161:
@ %bb.2:
	@DEBUG_VALUE: HAL_DMA2D_CLUTLoad_IT:CLUTCfg <- [DW_OP_LLVM_fragment 64 32] $r3
	@DEBUG_VALUE: HAL_DMA2D_CLUTLoad_IT:LayerIdx <- [DW_OP_plus_uconst 8] [$sp+0]
	.loc	6 807 5                 @ ../Drivers/STM32F7xx_HAL_Driver/Src/stm32f7xx_hal_dma2d.c:807:5
	str	r1, [r0, #44]
	.loc	6 810 5                 @ ../Drivers/STM32F7xx_HAL_Driver/Src/stm32f7xx_hal_dma2d.c:810:5
	add.w	r1, r0, #28
	b	.LBB15_4
.Ltmp162:
.LBB15_3:
	@DEBUG_VALUE: HAL_DMA2D_CLUTLoad_IT:CLUTCfg <- [DW_OP_LLVM_fragment 64 32] $r3
	@DEBUG_VALUE: HAL_DMA2D_CLUTLoad_IT:LayerIdx <- [DW_OP_plus_uconst 8] [$sp+0]
	.loc	6 791 5                 @ ../Drivers/STM32F7xx_HAL_Driver/Src/stm32f7xx_hal_dma2d.c:791:5
	str	r1, [r0, #48]
	.loc	6 794 5                 @ ../Drivers/STM32F7xx_HAL_Driver/Src/stm32f7xx_hal_dma2d.c:794:5
	add.w	r1, r0, #36
.Ltmp163:
.LBB15_4:
	@DEBUG_VALUE: HAL_DMA2D_CLUTLoad_IT:CLUTCfg <- [DW_OP_LLVM_fragment 64 32] $r3
	@DEBUG_VALUE: HAL_DMA2D_CLUTLoad_IT:LayerIdx <- [DW_OP_plus_uconst 8] [$sp+0]
	.loc	6 0 5 is_stmt 0         @ ../Drivers/STM32F7xx_HAL_Driver/Src/stm32f7xx_hal_dma2d.c:0:5
	lsls	r3, r3, #8
.Ltmp164:
	orr.w	r12, r3, r2, lsl #4
	ldr	r3, [r1]
	movw	r2, #65296
	bic.w	r2, r3, r2
	orr.w	r2, r2, r12
	mov.w	r12, #0
	str	r2, [r1]
	ldr	r2, [r0]
	orr	r2, r2, #14592
	str	r2, [r0]
	ldr	r0, [r1]
	orr	r0, r0, #32
	str	r0, [r1]
.LBB15_5:
	@DEBUG_VALUE: HAL_DMA2D_CLUTLoad_IT:LayerIdx <- [DW_OP_plus_uconst 8] [$sp+0]
	.loc	6 821 1 is_stmt 1       @ ../Drivers/STM32F7xx_HAL_Driver/Src/stm32f7xx_hal_dma2d.c:821:1
	uxtb.w	r0, r12
	pop	{r7, pc}
.Ltmp165:
.Lfunc_end15:
	.size	HAL_DMA2D_CLUTLoad_IT, .Lfunc_end15-HAL_DMA2D_CLUTLoad_IT
	.cfi_endproc
	.cantunwind
	.fnend
                                        @ -- End function
	.section	.text.HAL_DMA2D_CLUTLoading_Suspend,"ax",%progbits
	.hidden	HAL_DMA2D_CLUTLoading_Suspend @ -- Begin function HAL_DMA2D_CLUTLoading_Suspend
	.globl	HAL_DMA2D_CLUTLoading_Suspend
	.p2align	1
	.type	HAL_DMA2D_CLUTLoading_Suspend,%function
	.code	16                      @ @HAL_DMA2D_CLUTLoading_Suspend
	.thumb_func
HAL_DMA2D_CLUTLoading_Suspend:
.Lfunc_begin16:
	.loc	6 890 0                 @ ../Drivers/STM32F7xx_HAL_Driver/Src/stm32f7xx_hal_dma2d.c:890:0
	.fnstart
	.cfi_startproc
@ %bb.0:
	.save	{r4, r5, r6, r7, lr}
	.pad	#4
	push	{r3, r4, r5, r6, r7, lr}
	.cfi_def_cfa_offset 24
	.cfi_offset lr, -4
	.cfi_offset r7, -8
	.cfi_offset r6, -12
	.cfi_offset r5, -16
	.cfi_offset r4, -20
	@DEBUG_VALUE: HAL_DMA2D_CLUTLoading_Suspend:hdma2d <- $r0
	@DEBUG_VALUE: HAL_DMA2D_CLUTLoading_Suspend:LayerIdx <- $r1
.Ltmp166:
	.loc	6 892 36 prologue_end   @ ../Drivers/STM32F7xx_HAL_Driver/Src/stm32f7xx_hal_dma2d.c:892:36
	ldr	r6, [r0]
	mov	r4, r0
.Ltmp167:
	@DEBUG_VALUE: HAL_DMA2D_CLUTLoading_Suspend:tickstart <- 0
	@DEBUG_VALUE: HAL_DMA2D_CLUTLoading_Suspend:LayerIdx <- $r1
	@DEBUG_VALUE: HAL_DMA2D_CLUTLoading_Suspend:hdma2d <- $r4
	.loc	6 898 6                 @ ../Drivers/STM32F7xx_HAL_Driver/Src/stm32f7xx_hal_dma2d.c:898:6
	movs	r7, #36
	cmp	r1, #1
	.loc	6 895 3                 @ ../Drivers/STM32F7xx_HAL_Driver/Src/stm32f7xx_hal_dma2d.c:895:3
	ldr	r0, [r6]
	orr	r0, r0, #2
	str	r0, [r6]
	.loc	6 898 6                 @ ../Drivers/STM32F7xx_HAL_Driver/Src/stm32f7xx_hal_dma2d.c:898:6
	it	eq
	moveq	r7, #28
	.loc	6 904 15                @ ../Drivers/STM32F7xx_HAL_Driver/Src/stm32f7xx_hal_dma2d.c:904:15
	bl	HAL_GetTick
.Ltmp168:
	mov	r5, r0
.Ltmp169:
	@DEBUG_VALUE: HAL_DMA2D_CLUTLoading_Suspend:tickstart <- $r5
.LBB16_1:                               @ =>This Inner Loop Header: Depth=1
	@DEBUG_VALUE: HAL_DMA2D_CLUTLoading_Suspend:tickstart <- $r5
	@DEBUG_VALUE: HAL_DMA2D_CLUTLoading_Suspend:hdma2d <- $r4
	.loc	6 907 20                @ ../Drivers/STM32F7xx_HAL_Driver/Src/stm32f7xx_hal_dma2d.c:907:20
	ldr	r0, [r4]
	.loc	6 907 30 is_stmt 0      @ ../Drivers/STM32F7xx_HAL_Driver/Src/stm32f7xx_hal_dma2d.c:907:30
	ldr	r1, [r0]
	.loc	6 908 5 is_stmt 1       @ ../Drivers/STM32F7xx_HAL_Driver/Src/stm32f7xx_hal_dma2d.c:908:5
	tst.w	r1, #2
	bne	.LBB16_5
.Ltmp170:
@ %bb.2:                                @   in Loop: Header=BB16_1 Depth=1
	@DEBUG_VALUE: HAL_DMA2D_CLUTLoading_Suspend:tickstart <- $r5
	@DEBUG_VALUE: HAL_DMA2D_CLUTLoading_Suspend:hdma2d <- $r4
	.loc	6 908 10 is_stmt 0      @ ../Drivers/STM32F7xx_HAL_Driver/Src/stm32f7xx_hal_dma2d.c:908:10
	ldr	r1, [r6, r7]
	.loc	6 907 3 is_stmt 1       @ ../Drivers/STM32F7xx_HAL_Driver/Src/stm32f7xx_hal_dma2d.c:907:3
	tst.w	r1, #32
	beq	.LBB16_5
.Ltmp171:
@ %bb.3:                                @   in Loop: Header=BB16_1 Depth=1
	@DEBUG_VALUE: HAL_DMA2D_CLUTLoading_Suspend:tickstart <- $r5
	@DEBUG_VALUE: HAL_DMA2D_CLUTLoading_Suspend:hdma2d <- $r4
	.loc	6 910 9                 @ ../Drivers/STM32F7xx_HAL_Driver/Src/stm32f7xx_hal_dma2d.c:910:9
	bl	HAL_GetTick
	.loc	6 910 23 is_stmt 0      @ ../Drivers/STM32F7xx_HAL_Driver/Src/stm32f7xx_hal_dma2d.c:910:23
	subs	r0, r0, r5
.Ltmp172:
	.loc	6 910 8                 @ ../Drivers/STM32F7xx_HAL_Driver/Src/stm32f7xx_hal_dma2d.c:910:8
	cmp.w	r0, #1000
	bls	.LBB16_1
.Ltmp173:
@ %bb.4:
	@DEBUG_VALUE: HAL_DMA2D_CLUTLoading_Suspend:tickstart <- $r5
	@DEBUG_VALUE: HAL_DMA2D_CLUTLoading_Suspend:hdma2d <- $r4
	.loc	6 913 25 is_stmt 1      @ ../Drivers/STM32F7xx_HAL_Driver/Src/stm32f7xx_hal_dma2d.c:913:25
	ldr	r0, [r4, #60]
	orr	r0, r0, #32
	str	r0, [r4, #60]
	movs	r0, #3
	.loc	6 916 21                @ ../Drivers/STM32F7xx_HAL_Driver/Src/stm32f7xx_hal_dma2d.c:916:21
	strb.w	r0, [r4, #57]
	b	.LBB16_9
.Ltmp174:
.LBB16_5:
	@DEBUG_VALUE: HAL_DMA2D_CLUTLoading_Suspend:tickstart <- $r5
	@DEBUG_VALUE: HAL_DMA2D_CLUTLoading_Suspend:hdma2d <- $r4
	.loc	6 923 8                 @ ../Drivers/STM32F7xx_HAL_Driver/Src/stm32f7xx_hal_dma2d.c:923:8
	ldr	r1, [r6, r7]
.Ltmp175:
	.loc	6 923 7 is_stmt 0       @ ../Drivers/STM32F7xx_HAL_Driver/Src/stm32f7xx_hal_dma2d.c:923:7
	tst.w	r1, #32
	bne	.LBB16_7
.Ltmp176:
@ %bb.6:
	@DEBUG_VALUE: HAL_DMA2D_CLUTLoading_Suspend:tickstart <- $r5
	@DEBUG_VALUE: HAL_DMA2D_CLUTLoading_Suspend:hdma2d <- $r4
	.loc	6 931 5 is_stmt 1       @ ../Drivers/STM32F7xx_HAL_Driver/Src/stm32f7xx_hal_dma2d.c:931:5
	ldr	r1, [r0]
	bic	r1, r1, #2
	str	r1, [r0]
	b	.LBB16_8
.Ltmp177:
.LBB16_7:
	@DEBUG_VALUE: HAL_DMA2D_CLUTLoading_Suspend:tickstart <- $r5
	@DEBUG_VALUE: HAL_DMA2D_CLUTLoading_Suspend:hdma2d <- $r4
	.loc	6 925 19                @ ../Drivers/STM32F7xx_HAL_Driver/Src/stm32f7xx_hal_dma2d.c:925:19
	movs	r0, #5
	strb.w	r0, [r4, #57]
.Ltmp178:
.LBB16_8:
	@DEBUG_VALUE: HAL_DMA2D_CLUTLoading_Suspend:tickstart <- $r5
	@DEBUG_VALUE: HAL_DMA2D_CLUTLoading_Suspend:hdma2d <- $r4
	.loc	6 0 19 is_stmt 0        @ ../Drivers/STM32F7xx_HAL_Driver/Src/stm32f7xx_hal_dma2d.c:0:19
	movs	r0, #0
.Ltmp179:
.LBB16_9:
	@DEBUG_VALUE: HAL_DMA2D_CLUTLoading_Suspend:tickstart <- $r5
	@DEBUG_VALUE: HAL_DMA2D_CLUTLoading_Suspend:hdma2d <- $r4
	.loc	6 935 1 is_stmt 1       @ ../Drivers/STM32F7xx_HAL_Driver/Src/stm32f7xx_hal_dma2d.c:935:1
	uxtb	r0, r0
	add	sp, #4
	pop	{r4, r5, r6, r7, pc}
.Ltmp180:
.Lfunc_end16:
	.size	HAL_DMA2D_CLUTLoading_Suspend, .Lfunc_end16-HAL_DMA2D_CLUTLoading_Suspend
	.cfi_endproc
	.cantunwind
	.fnend
                                        @ -- End function
	.section	.text.HAL_DMA2D_CLUTLoading_Resume,"ax",%progbits
	.hidden	HAL_DMA2D_CLUTLoading_Resume @ -- Begin function HAL_DMA2D_CLUTLoading_Resume
	.globl	HAL_DMA2D_CLUTLoading_Resume
	.p2align	1
	.type	HAL_DMA2D_CLUTLoading_Resume,%function
	.code	16                      @ @HAL_DMA2D_CLUTLoading_Resume
	.thumb_func
HAL_DMA2D_CLUTLoading_Resume:
.Lfunc_begin17:
	.loc	6 947 0                 @ ../Drivers/STM32F7xx_HAL_Driver/Src/stm32f7xx_hal_dma2d.c:947:0
	.fnstart
	.cfi_startproc
@ %bb.0:
	@DEBUG_VALUE: HAL_DMA2D_CLUTLoading_Resume:hdma2d <- $r0
	@DEBUG_VALUE: HAL_DMA2D_CLUTLoading_Resume:LayerIdx <- $r1
	ldr	r2, [r0]
.Ltmp181:
	.loc	6 949 6 prologue_end    @ ../Drivers/STM32F7xx_HAL_Driver/Src/stm32f7xx_hal_dma2d.c:949:6
	cmp	r1, #0
	ldr	r3, [r2]
	and	r3, r3, #2
	@DEBUG_VALUE: HAL_DMA2D_CLUTLoading_Resume:LayerIdx <- $r1
	@DEBUG_VALUE: HAL_DMA2D_CLUTLoading_Resume:hdma2d <- $r0
	beq	.LBB17_3
.Ltmp182:
@ %bb.1:
	@DEBUG_VALUE: HAL_DMA2D_CLUTLoading_Resume:LayerIdx <- $r1
	@DEBUG_VALUE: HAL_DMA2D_CLUTLoading_Resume:hdma2d <- $r0
	.loc	6 963 7                 @ ../Drivers/STM32F7xx_HAL_Driver/Src/stm32f7xx_hal_dma2d.c:963:7
	cbz	r3, .LBB17_6
.Ltmp183:
@ %bb.2:
	@DEBUG_VALUE: HAL_DMA2D_CLUTLoading_Resume:LayerIdx <- $r1
	@DEBUG_VALUE: HAL_DMA2D_CLUTLoading_Resume:hdma2d <- $r0
	.loc	6 963 30 is_stmt 0      @ ../Drivers/STM32F7xx_HAL_Driver/Src/stm32f7xx_hal_dma2d.c:963:30
	ldr	r1, [r2, #28]
.Ltmp184:
	.loc	6 0 30                  @ ../Drivers/STM32F7xx_HAL_Driver/Src/stm32f7xx_hal_dma2d.c:0:30
	b	.LBB17_5
.Ltmp185:
.LBB17_3:
	@DEBUG_VALUE: HAL_DMA2D_CLUTLoading_Resume:LayerIdx <- $r1
	@DEBUG_VALUE: HAL_DMA2D_CLUTLoading_Resume:hdma2d <- $r0
	.loc	6 953 7 is_stmt 1       @ ../Drivers/STM32F7xx_HAL_Driver/Src/stm32f7xx_hal_dma2d.c:953:7
	cbz	r3, .LBB17_6
.Ltmp186:
@ %bb.4:
	@DEBUG_VALUE: HAL_DMA2D_CLUTLoading_Resume:LayerIdx <- $r1
	@DEBUG_VALUE: HAL_DMA2D_CLUTLoading_Resume:hdma2d <- $r0
	.loc	6 953 30 is_stmt 0      @ ../Drivers/STM32F7xx_HAL_Driver/Src/stm32f7xx_hal_dma2d.c:953:30
	ldr	r1, [r2, #36]
.Ltmp187:
.LBB17_5:
	@DEBUG_VALUE: HAL_DMA2D_CLUTLoading_Resume:hdma2d <- $r0
	.loc	6 0 30                  @ ../Drivers/STM32F7xx_HAL_Driver/Src/stm32f7xx_hal_dma2d.c:0:30
	tst.w	r1, #32
	itt	ne
	movne	r1, #2
	strbne.w	r1, [r0, #57]
.Ltmp188:
.LBB17_6:
	@DEBUG_VALUE: HAL_DMA2D_CLUTLoading_Resume:hdma2d <- $r0
	.loc	6 971 3 is_stmt 1       @ ../Drivers/STM32F7xx_HAL_Driver/Src/stm32f7xx_hal_dma2d.c:971:3
	ldr	r0, [r2]
.Ltmp189:
	bic	r0, r0, #2
	str	r0, [r2]
	.loc	6 973 3                 @ ../Drivers/STM32F7xx_HAL_Driver/Src/stm32f7xx_hal_dma2d.c:973:3
	movs	r0, #0
	bx	lr
.Ltmp190:
.Lfunc_end17:
	.size	HAL_DMA2D_CLUTLoading_Resume, .Lfunc_end17-HAL_DMA2D_CLUTLoading_Resume
	.cfi_endproc
	.cantunwind
	.fnend
                                        @ -- End function
	.section	.text.HAL_DMA2D_PollForTransfer,"ax",%progbits
	.hidden	HAL_DMA2D_PollForTransfer @ -- Begin function HAL_DMA2D_PollForTransfer
	.globl	HAL_DMA2D_PollForTransfer
	.p2align	1
	.type	HAL_DMA2D_PollForTransfer,%function
	.code	16                      @ @HAL_DMA2D_PollForTransfer
	.thumb_func
HAL_DMA2D_PollForTransfer:
.Lfunc_begin18:
	.loc	6 986 0                 @ ../Drivers/STM32F7xx_HAL_Driver/Src/stm32f7xx_hal_dma2d.c:986:0
	.fnstart
	.cfi_startproc
@ %bb.0:
	.save	{r4, r5, r6, r7, lr}
	.pad	#4
	push	{r3, r4, r5, r6, r7, lr}
	.cfi_def_cfa_offset 24
	.cfi_offset lr, -4
	.cfi_offset r7, -8
	.cfi_offset r6, -12
	.cfi_offset r5, -16
	.cfi_offset r4, -20
	@DEBUG_VALUE: HAL_DMA2D_PollForTransfer:hdma2d <- $r0
	@DEBUG_VALUE: HAL_DMA2D_PollForTransfer:Timeout <- $r1
	mov	r4, r0
	movs	r0, #0
.Ltmp191:
	@DEBUG_VALUE: HAL_DMA2D_PollForTransfer:isrflags <- 0
	@DEBUG_VALUE: HAL_DMA2D_PollForTransfer:tickstart <- 0
	@DEBUG_VALUE: HAL_DMA2D_PollForTransfer:Timeout <- $r5
	@DEBUG_VALUE: HAL_DMA2D_PollForTransfer:hdma2d <- $r4
	mov	r5, r1
.Ltmp192:
	.loc	6 988 17 prologue_end   @ ../Drivers/STM32F7xx_HAL_Driver/Src/stm32f7xx_hal_dma2d.c:988:17
	str	r0, [sp]
.Ltmp193:
	.loc	6 991 15                @ ../Drivers/STM32F7xx_HAL_Driver/Src/stm32f7xx_hal_dma2d.c:991:15
	ldr	r0, [r4]
	.loc	6 991 25 is_stmt 0      @ ../Drivers/STM32F7xx_HAL_Driver/Src/stm32f7xx_hal_dma2d.c:991:25
	ldr	r1, [r0]
.Ltmp194:
	.loc	6 991 6                 @ ../Drivers/STM32F7xx_HAL_Driver/Src/stm32f7xx_hal_dma2d.c:991:6
	tst.w	r1, #1
	beq	.LBB18_7
.Ltmp195:
@ %bb.1:
	@DEBUG_VALUE: HAL_DMA2D_PollForTransfer:hdma2d <- $r4
	.loc	6 994 16 is_stmt 1      @ ../Drivers/STM32F7xx_HAL_Driver/Src/stm32f7xx_hal_dma2d.c:994:16
	bl	HAL_GetTick
	mov	r6, r0
.Ltmp196:
	@DEBUG_VALUE: HAL_DMA2D_PollForTransfer:tickstart <- $r6
	.loc	6 0 16 is_stmt 0        @ ../Drivers/STM32F7xx_HAL_Driver/Src/stm32f7xx_hal_dma2d.c:0:16
	adds	r7, r5, #1
.Ltmp197:
.LBB18_2:                               @ =>This Inner Loop Header: Depth=1
	@DEBUG_VALUE: HAL_DMA2D_PollForTransfer:tickstart <- $r6
	@DEBUG_VALUE: HAL_DMA2D_PollForTransfer:hdma2d <- $r4
	.loc	6 996 11 is_stmt 1      @ ../Drivers/STM32F7xx_HAL_Driver/Src/stm32f7xx_hal_dma2d.c:996:11
	ldr	r0, [r4]
	ldr	r1, [r0, #4]
	.loc	6 996 5 is_stmt 0       @ ../Drivers/STM32F7xx_HAL_Driver/Src/stm32f7xx_hal_dma2d.c:996:5
	tst.w	r1, #2
	bne	.LBB18_7
.Ltmp198:
@ %bb.3:                                @   in Loop: Header=BB18_2 Depth=1
	@DEBUG_VALUE: HAL_DMA2D_PollForTransfer:tickstart <- $r6
	@DEBUG_VALUE: HAL_DMA2D_PollForTransfer:hdma2d <- $r4
	.loc	6 998 18 is_stmt 1      @ ../Drivers/STM32F7xx_HAL_Driver/Src/stm32f7xx_hal_dma2d.c:998:18
	ldr	r1, [r0, #4]
.Ltmp199:
	@DEBUG_VALUE: HAL_DMA2D_PollForTransfer:isrflags <- $r1
	.loc	6 998 16 is_stmt 0      @ ../Drivers/STM32F7xx_HAL_Driver/Src/stm32f7xx_hal_dma2d.c:998:16
	str	r1, [sp]
.Ltmp200:
	.loc	6 999 12 is_stmt 1      @ ../Drivers/STM32F7xx_HAL_Driver/Src/stm32f7xx_hal_dma2d.c:999:12
	ldr	r1, [sp]
.Ltmp201:
	@DEBUG_VALUE: HAL_DMA2D_PollForTransfer:isrflags <- $r1
	.loc	6 999 11 is_stmt 0      @ ../Drivers/STM32F7xx_HAL_Driver/Src/stm32f7xx_hal_dma2d.c:999:11
	tst.w	r1, #33
	bne	.LBB18_16
.Ltmp202:
@ %bb.4:                                @   in Loop: Header=BB18_2 Depth=1
	@DEBUG_VALUE: HAL_DMA2D_PollForTransfer:isrflags <- $r1
	@DEBUG_VALUE: HAL_DMA2D_PollForTransfer:tickstart <- $r6
	@DEBUG_VALUE: HAL_DMA2D_PollForTransfer:hdma2d <- $r4
	.loc	6 1021 10 is_stmt 1     @ ../Drivers/STM32F7xx_HAL_Driver/Src/stm32f7xx_hal_dma2d.c:1021:10
	cmp	r7, #0
	beq	.LBB18_2
.Ltmp203:
@ %bb.5:                                @   in Loop: Header=BB18_2 Depth=1
	@DEBUG_VALUE: HAL_DMA2D_PollForTransfer:isrflags <- $r1
	@DEBUG_VALUE: HAL_DMA2D_PollForTransfer:tickstart <- $r6
	@DEBUG_VALUE: HAL_DMA2D_PollForTransfer:hdma2d <- $r4
	cbz	r5, .LBB18_14
.Ltmp204:
@ %bb.6:                                @   in Loop: Header=BB18_2 Depth=1
	@DEBUG_VALUE: HAL_DMA2D_PollForTransfer:isrflags <- $r1
	@DEBUG_VALUE: HAL_DMA2D_PollForTransfer:tickstart <- $r6
	@DEBUG_VALUE: HAL_DMA2D_PollForTransfer:hdma2d <- $r4
	.loc	6 1023 30               @ ../Drivers/STM32F7xx_HAL_Driver/Src/stm32f7xx_hal_dma2d.c:1023:30
	bl	HAL_GetTick
.Ltmp205:
	.loc	6 1023 44 is_stmt 0     @ ../Drivers/STM32F7xx_HAL_Driver/Src/stm32f7xx_hal_dma2d.c:1023:44
	subs	r0, r0, r6
.Ltmp206:
	.loc	6 1023 12               @ ../Drivers/STM32F7xx_HAL_Driver/Src/stm32f7xx_hal_dma2d.c:1023:12
	cmp	r0, r5
	bls	.LBB18_2
	b	.LBB18_14
.Ltmp207:
.LBB18_7:
	@DEBUG_VALUE: HAL_DMA2D_PollForTransfer:hdma2d <- $r4
	.loc	6 1040 27 is_stmt 1     @ ../Drivers/STM32F7xx_HAL_Driver/Src/stm32f7xx_hal_dma2d.c:1040:27
	ldr	r1, [r0, #28]
	.loc	6 1040 69 is_stmt 0     @ ../Drivers/STM32F7xx_HAL_Driver/Src/stm32f7xx_hal_dma2d.c:1040:69
	tst.w	r1, #32
	.loc	6 1041 27 is_stmt 1     @ ../Drivers/STM32F7xx_HAL_Driver/Src/stm32f7xx_hal_dma2d.c:1041:27
	itt	eq
	ldreq	r1, [r0, #36]
.Ltmp208:
	.loc	6 1040 7                @ ../Drivers/STM32F7xx_HAL_Driver/Src/stm32f7xx_hal_dma2d.c:1040:7
	tsteq.w	r1, #32
	beq	.LBB18_15
.Ltmp209:
@ %bb.8:
	@DEBUG_VALUE: HAL_DMA2D_PollForTransfer:hdma2d <- $r4
	.loc	6 1044 17               @ ../Drivers/STM32F7xx_HAL_Driver/Src/stm32f7xx_hal_dma2d.c:1044:17
	bl	HAL_GetTick
	mov	r6, r0
.Ltmp210:
	@DEBUG_VALUE: HAL_DMA2D_PollForTransfer:tickstart <- $r6
	.loc	6 0 17 is_stmt 0        @ ../Drivers/STM32F7xx_HAL_Driver/Src/stm32f7xx_hal_dma2d.c:0:17
	adds	r7, r5, #1
.Ltmp211:
.LBB18_9:                               @ =>This Inner Loop Header: Depth=1
	@DEBUG_VALUE: HAL_DMA2D_PollForTransfer:tickstart <- $r6
	@DEBUG_VALUE: HAL_DMA2D_PollForTransfer:hdma2d <- $r4
	.loc	6 1046 11 is_stmt 1     @ ../Drivers/STM32F7xx_HAL_Driver/Src/stm32f7xx_hal_dma2d.c:1046:11
	ldr	r0, [r4]
	ldr	r1, [r0, #4]
	.loc	6 1046 5 is_stmt 0      @ ../Drivers/STM32F7xx_HAL_Driver/Src/stm32f7xx_hal_dma2d.c:1046:5
	tst.w	r1, #16
	bne	.LBB18_15
.Ltmp212:
@ %bb.10:                               @   in Loop: Header=BB18_9 Depth=1
	@DEBUG_VALUE: HAL_DMA2D_PollForTransfer:tickstart <- $r6
	@DEBUG_VALUE: HAL_DMA2D_PollForTransfer:hdma2d <- $r4
	.loc	6 1048 18 is_stmt 1     @ ../Drivers/STM32F7xx_HAL_Driver/Src/stm32f7xx_hal_dma2d.c:1048:18
	ldr	r1, [r0, #4]
.Ltmp213:
	@DEBUG_VALUE: HAL_DMA2D_PollForTransfer:isrflags <- $r1
	.loc	6 1048 16 is_stmt 0     @ ../Drivers/STM32F7xx_HAL_Driver/Src/stm32f7xx_hal_dma2d.c:1048:16
	str	r1, [sp]
.Ltmp214:
	.loc	6 1049 12 is_stmt 1     @ ../Drivers/STM32F7xx_HAL_Driver/Src/stm32f7xx_hal_dma2d.c:1049:12
	ldr	r1, [sp]
.Ltmp215:
	@DEBUG_VALUE: HAL_DMA2D_PollForTransfer:isrflags <- $r1
	.loc	6 1049 11 is_stmt 0     @ ../Drivers/STM32F7xx_HAL_Driver/Src/stm32f7xx_hal_dma2d.c:1049:11
	tst.w	r1, #41
	bne	.LBB18_17
.Ltmp216:
@ %bb.11:                               @   in Loop: Header=BB18_9 Depth=1
	@DEBUG_VALUE: HAL_DMA2D_PollForTransfer:isrflags <- $r1
	@DEBUG_VALUE: HAL_DMA2D_PollForTransfer:tickstart <- $r6
	@DEBUG_VALUE: HAL_DMA2D_PollForTransfer:hdma2d <- $r4
	.loc	6 1075 10 is_stmt 1     @ ../Drivers/STM32F7xx_HAL_Driver/Src/stm32f7xx_hal_dma2d.c:1075:10
	cmp	r7, #0
	beq	.LBB18_9
.Ltmp217:
@ %bb.12:                               @   in Loop: Header=BB18_9 Depth=1
	@DEBUG_VALUE: HAL_DMA2D_PollForTransfer:isrflags <- $r1
	@DEBUG_VALUE: HAL_DMA2D_PollForTransfer:tickstart <- $r6
	@DEBUG_VALUE: HAL_DMA2D_PollForTransfer:hdma2d <- $r4
	cbz	r5, .LBB18_14
.Ltmp218:
@ %bb.13:                               @   in Loop: Header=BB18_9 Depth=1
	@DEBUG_VALUE: HAL_DMA2D_PollForTransfer:isrflags <- $r1
	@DEBUG_VALUE: HAL_DMA2D_PollForTransfer:tickstart <- $r6
	@DEBUG_VALUE: HAL_DMA2D_PollForTransfer:hdma2d <- $r4
	.loc	6 1077 30               @ ../Drivers/STM32F7xx_HAL_Driver/Src/stm32f7xx_hal_dma2d.c:1077:30
	bl	HAL_GetTick
.Ltmp219:
	.loc	6 1077 44 is_stmt 0     @ ../Drivers/STM32F7xx_HAL_Driver/Src/stm32f7xx_hal_dma2d.c:1077:44
	subs	r0, r0, r6
.Ltmp220:
	.loc	6 1077 12               @ ../Drivers/STM32F7xx_HAL_Driver/Src/stm32f7xx_hal_dma2d.c:1077:12
	cmp	r0, r5
	bls	.LBB18_9
.Ltmp221:
.LBB18_14:
	@DEBUG_VALUE: HAL_DMA2D_PollForTransfer:tickstart <- $r6
	@DEBUG_VALUE: HAL_DMA2D_PollForTransfer:hdma2d <- $r4
	.loc	6 0 12                  @ ../Drivers/STM32F7xx_HAL_Driver/Src/stm32f7xx_hal_dma2d.c:0:12
	ldr	r0, [r4, #60]
	movs	r1, #3
	orr	r0, r0, #32
	str	r0, [r4, #60]
	movs	r0, #3
	b	.LBB18_19
.Ltmp222:
.LBB18_15:
	@DEBUG_VALUE: HAL_DMA2D_PollForTransfer:hdma2d <- $r4
	.loc	6 1095 3 is_stmt 1      @ ../Drivers/STM32F7xx_HAL_Driver/Src/stm32f7xx_hal_dma2d.c:1095:3
	movs	r1, #18
	str	r1, [r0, #8]
	movs	r0, #0
	movs	r1, #1
	b	.LBB18_19
.Ltmp223:
.LBB18_16:
	@DEBUG_VALUE: HAL_DMA2D_PollForTransfer:isrflags <- $r1
	@DEBUG_VALUE: HAL_DMA2D_PollForTransfer:tickstart <- $r6
	@DEBUG_VALUE: HAL_DMA2D_PollForTransfer:hdma2d <- $r4
	.loc	6 1001 14               @ ../Drivers/STM32F7xx_HAL_Driver/Src/stm32f7xx_hal_dma2d.c:1001:14
	ldr	r1, [sp]
.Ltmp224:
	@DEBUG_VALUE: HAL_DMA2D_PollForTransfer:isrflags <- $r1
	.loc	6 1001 13 is_stmt 0     @ ../Drivers/STM32F7xx_HAL_Driver/Src/stm32f7xx_hal_dma2d.c:1001:13
	tst.w	r1, #32
.Ltmp225:
	.loc	6 1003 29 is_stmt 1     @ ../Drivers/STM32F7xx_HAL_Driver/Src/stm32f7xx_hal_dma2d.c:1003:29
	ittt	ne
	ldrne	r1, [r4, #60]
.Ltmp226:
	orrne	r1, r1, #2
	strne	r1, [r4, #60]
.Ltmp227:
	.loc	6 1005 14               @ ../Drivers/STM32F7xx_HAL_Driver/Src/stm32f7xx_hal_dma2d.c:1005:14
	ldr	r1, [sp]
.Ltmp228:
	@DEBUG_VALUE: HAL_DMA2D_PollForTransfer:isrflags <- $r1
	.loc	6 1005 13 is_stmt 0     @ ../Drivers/STM32F7xx_HAL_Driver/Src/stm32f7xx_hal_dma2d.c:1005:13
	tst.w	r1, #1
.Ltmp229:
	.loc	6 1007 29 is_stmt 1     @ ../Drivers/STM32F7xx_HAL_Driver/Src/stm32f7xx_hal_dma2d.c:1007:29
	ittt	ne
	ldrne	r1, [r4, #60]
.Ltmp230:
	orrne	r1, r1, #1
	strne	r1, [r4, #60]
.Ltmp231:
	.loc	6 1010 9                @ ../Drivers/STM32F7xx_HAL_Driver/Src/stm32f7xx_hal_dma2d.c:1010:9
	movs	r1, #33
	b	.LBB18_18
.Ltmp232:
.LBB18_17:
	@DEBUG_VALUE: HAL_DMA2D_PollForTransfer:isrflags <- $r1
	@DEBUG_VALUE: HAL_DMA2D_PollForTransfer:tickstart <- $r6
	@DEBUG_VALUE: HAL_DMA2D_PollForTransfer:hdma2d <- $r4
	.loc	6 1051 14               @ ../Drivers/STM32F7xx_HAL_Driver/Src/stm32f7xx_hal_dma2d.c:1051:14
	ldr	r1, [sp]
.Ltmp233:
	@DEBUG_VALUE: HAL_DMA2D_PollForTransfer:isrflags <- $r1
	.loc	6 1051 13 is_stmt 0     @ ../Drivers/STM32F7xx_HAL_Driver/Src/stm32f7xx_hal_dma2d.c:1051:13
	tst.w	r1, #8
.Ltmp234:
	.loc	6 1053 29 is_stmt 1     @ ../Drivers/STM32F7xx_HAL_Driver/Src/stm32f7xx_hal_dma2d.c:1053:29
	ittt	ne
	ldrne	r1, [r4, #60]
.Ltmp235:
	orrne	r1, r1, #4
	strne	r1, [r4, #60]
.Ltmp236:
	.loc	6 1055 14               @ ../Drivers/STM32F7xx_HAL_Driver/Src/stm32f7xx_hal_dma2d.c:1055:14
	ldr	r1, [sp]
.Ltmp237:
	@DEBUG_VALUE: HAL_DMA2D_PollForTransfer:isrflags <- $r1
	.loc	6 1055 13 is_stmt 0     @ ../Drivers/STM32F7xx_HAL_Driver/Src/stm32f7xx_hal_dma2d.c:1055:13
	tst.w	r1, #32
.Ltmp238:
	.loc	6 1057 29 is_stmt 1     @ ../Drivers/STM32F7xx_HAL_Driver/Src/stm32f7xx_hal_dma2d.c:1057:29
	ittt	ne
	ldrne	r1, [r4, #60]
.Ltmp239:
	orrne	r1, r1, #2
	strne	r1, [r4, #60]
.Ltmp240:
	.loc	6 1059 14               @ ../Drivers/STM32F7xx_HAL_Driver/Src/stm32f7xx_hal_dma2d.c:1059:14
	ldr	r1, [sp]
.Ltmp241:
	@DEBUG_VALUE: HAL_DMA2D_PollForTransfer:isrflags <- $r1
	.loc	6 1059 13 is_stmt 0     @ ../Drivers/STM32F7xx_HAL_Driver/Src/stm32f7xx_hal_dma2d.c:1059:13
	tst.w	r1, #1
.Ltmp242:
	.loc	6 1061 29 is_stmt 1     @ ../Drivers/STM32F7xx_HAL_Driver/Src/stm32f7xx_hal_dma2d.c:1061:29
	ittt	ne
	ldrne	r1, [r4, #60]
.Ltmp243:
	orrne	r1, r1, #1
	strne	r1, [r4, #60]
.Ltmp244:
	.loc	6 1064 9                @ ../Drivers/STM32F7xx_HAL_Driver/Src/stm32f7xx_hal_dma2d.c:1064:9
	movs	r1, #41
.Ltmp245:
.LBB18_18:
	@DEBUG_VALUE: HAL_DMA2D_PollForTransfer:tickstart <- $r6
	@DEBUG_VALUE: HAL_DMA2D_PollForTransfer:hdma2d <- $r4
	.loc	6 0 9 is_stmt 0         @ ../Drivers/STM32F7xx_HAL_Driver/Src/stm32f7xx_hal_dma2d.c:0:9
	str	r1, [r0, #8]
	movs	r0, #1
	movs	r1, #4
.Ltmp246:
.LBB18_19:
	@DEBUG_VALUE: HAL_DMA2D_PollForTransfer:hdma2d <- $r4
	movs	r2, #0
	.loc	6 1104 1 is_stmt 1      @ ../Drivers/STM32F7xx_HAL_Driver/Src/stm32f7xx_hal_dma2d.c:1104:1
	uxtb	r0, r0
	strb.w	r2, [r4, #56]
	strb.w	r1, [r4, #57]
	add	sp, #4
	pop	{r4, r5, r6, r7, pc}
.Ltmp247:
.Lfunc_end18:
	.size	HAL_DMA2D_PollForTransfer, .Lfunc_end18-HAL_DMA2D_PollForTransfer
	.cfi_endproc
	.cantunwind
	.fnend
                                        @ -- End function
	.section	.text.HAL_DMA2D_IRQHandler,"ax",%progbits
	.hidden	HAL_DMA2D_IRQHandler    @ -- Begin function HAL_DMA2D_IRQHandler
	.globl	HAL_DMA2D_IRQHandler
	.p2align	1
	.type	HAL_DMA2D_IRQHandler,%function
	.code	16                      @ @HAL_DMA2D_IRQHandler
	.thumb_func
HAL_DMA2D_IRQHandler:
.Lfunc_begin19:
	.loc	6 1112 0                @ ../Drivers/STM32F7xx_HAL_Driver/Src/stm32f7xx_hal_dma2d.c:1112:0
	.fnstart
	.cfi_startproc
@ %bb.0:
	.save	{r4, r5, r6, lr}
	push	{r4, r5, r6, lr}
	.cfi_def_cfa_offset 16
	.cfi_offset lr, -4
	.cfi_offset r6, -8
	.cfi_offset r5, -12
	.cfi_offset r4, -16
	@DEBUG_VALUE: HAL_DMA2D_IRQHandler:hdma2d <- $r0
	mov	r4, r0
.Ltmp248:
	@DEBUG_VALUE: HAL_DMA2D_IRQHandler:hdma2d <- $r4
	.loc	6 1113 23 prologue_end  @ ../Drivers/STM32F7xx_HAL_Driver/Src/stm32f7xx_hal_dma2d.c:1113:23
	ldr	r0, [r0]
	ldr	r6, [r0, #4]
.Ltmp249:
	@DEBUG_VALUE: HAL_DMA2D_IRQHandler:isrflags <- $r6
	.loc	6 1114 22               @ ../Drivers/STM32F7xx_HAL_Driver/Src/stm32f7xx_hal_dma2d.c:1114:22
	ldr	r5, [r0]
.Ltmp250:
	@DEBUG_VALUE: HAL_DMA2D_IRQHandler:crflags <- $r5
	.loc	6 1117 7                @ ../Drivers/STM32F7xx_HAL_Driver/Src/stm32f7xx_hal_dma2d.c:1117:7
	tst.w	r6, #1
	it	ne
	andsne	r1, r5, #256
	bne	.LBB19_18
.Ltmp251:
.LBB19_1:
	@DEBUG_VALUE: HAL_DMA2D_IRQHandler:crflags <- $r5
	@DEBUG_VALUE: HAL_DMA2D_IRQHandler:isrflags <- $r6
	@DEBUG_VALUE: HAL_DMA2D_IRQHandler:hdma2d <- $r4
	.loc	6 1144 7                @ ../Drivers/STM32F7xx_HAL_Driver/Src/stm32f7xx_hal_dma2d.c:1144:7
	lsls	r0, r6, #26
	bpl	.LBB19_5
.Ltmp252:
@ %bb.2:
	@DEBUG_VALUE: HAL_DMA2D_IRQHandler:crflags <- $r5
	@DEBUG_VALUE: HAL_DMA2D_IRQHandler:isrflags <- $r6
	@DEBUG_VALUE: HAL_DMA2D_IRQHandler:hdma2d <- $r4
	.loc	6 0 7 is_stmt 0         @ ../Drivers/STM32F7xx_HAL_Driver/Src/stm32f7xx_hal_dma2d.c:0:7
	ands	r0, r5, #8192
	.loc	6 1144 7                @ ../Drivers/STM32F7xx_HAL_Driver/Src/stm32f7xx_hal_dma2d.c:1144:7
	beq	.LBB19_5
.Ltmp253:
@ %bb.3:
	@DEBUG_VALUE: HAL_DMA2D_IRQHandler:crflags <- $r5
	@DEBUG_VALUE: HAL_DMA2D_IRQHandler:isrflags <- $r6
	@DEBUG_VALUE: HAL_DMA2D_IRQHandler:hdma2d <- $r4
	.loc	6 1149 7 is_stmt 1      @ ../Drivers/STM32F7xx_HAL_Driver/Src/stm32f7xx_hal_dma2d.c:1149:7
	ldr	r0, [r4]
	ldr	r1, [r0]
	bic	r1, r1, #8192
	str	r1, [r0]
	.loc	6 1152 7                @ ../Drivers/STM32F7xx_HAL_Driver/Src/stm32f7xx_hal_dma2d.c:1152:7
	movs	r1, #32
	str	r1, [r0, #8]
.Ltmp254:
	.loc	6 1163 18               @ ../Drivers/STM32F7xx_HAL_Driver/Src/stm32f7xx_hal_dma2d.c:1163:18
	ldr	r1, [r4, #20]
.Ltmp255:
	.loc	6 1155 25               @ ../Drivers/STM32F7xx_HAL_Driver/Src/stm32f7xx_hal_dma2d.c:1155:25
	ldr	r0, [r4, #60]
	orr	r0, r0, #2
	.loc	6 1163 10               @ ../Drivers/STM32F7xx_HAL_Driver/Src/stm32f7xx_hal_dma2d.c:1163:10
	cmp	r1, #0
	.loc	6 1155 25               @ ../Drivers/STM32F7xx_HAL_Driver/Src/stm32f7xx_hal_dma2d.c:1155:25
	str	r0, [r4, #60]
	mov.w	r0, #0
.Ltmp256:
	.loc	6 1161 7                @ ../Drivers/STM32F7xx_HAL_Driver/Src/stm32f7xx_hal_dma2d.c:1161:7
	strb.w	r0, [r4, #56]
.Ltmp257:
	.loc	6 1158 21               @ ../Drivers/STM32F7xx_HAL_Driver/Src/stm32f7xx_hal_dma2d.c:1158:21
	mov.w	r0, #4
	strb.w	r0, [r4, #57]
	.loc	6 1163 10               @ ../Drivers/STM32F7xx_HAL_Driver/Src/stm32f7xx_hal_dma2d.c:1163:10
	beq	.LBB19_5
.Ltmp258:
@ %bb.4:
	@DEBUG_VALUE: HAL_DMA2D_IRQHandler:crflags <- $r5
	@DEBUG_VALUE: HAL_DMA2D_IRQHandler:isrflags <- $r6
	@DEBUG_VALUE: HAL_DMA2D_IRQHandler:hdma2d <- $r4
	.loc	6 1166 9                @ ../Drivers/STM32F7xx_HAL_Driver/Src/stm32f7xx_hal_dma2d.c:1166:9
	mov	r0, r4
	blx	r1
.Ltmp259:
.LBB19_5:
	@DEBUG_VALUE: HAL_DMA2D_IRQHandler:crflags <- $r5
	@DEBUG_VALUE: HAL_DMA2D_IRQHandler:isrflags <- $r6
	@DEBUG_VALUE: HAL_DMA2D_IRQHandler:hdma2d <- $r4
	.loc	6 1171 7                @ ../Drivers/STM32F7xx_HAL_Driver/Src/stm32f7xx_hal_dma2d.c:1171:7
	lsls	r0, r6, #28
	bpl	.LBB19_9
.Ltmp260:
@ %bb.6:
	@DEBUG_VALUE: HAL_DMA2D_IRQHandler:crflags <- $r5
	@DEBUG_VALUE: HAL_DMA2D_IRQHandler:isrflags <- $r6
	@DEBUG_VALUE: HAL_DMA2D_IRQHandler:hdma2d <- $r4
	.loc	6 0 7 is_stmt 0         @ ../Drivers/STM32F7xx_HAL_Driver/Src/stm32f7xx_hal_dma2d.c:0:7
	ands	r0, r5, #2048
	.loc	6 1171 7                @ ../Drivers/STM32F7xx_HAL_Driver/Src/stm32f7xx_hal_dma2d.c:1171:7
	beq	.LBB19_9
.Ltmp261:
@ %bb.7:
	@DEBUG_VALUE: HAL_DMA2D_IRQHandler:crflags <- $r5
	@DEBUG_VALUE: HAL_DMA2D_IRQHandler:isrflags <- $r6
	@DEBUG_VALUE: HAL_DMA2D_IRQHandler:hdma2d <- $r4
	.loc	6 1176 7 is_stmt 1      @ ../Drivers/STM32F7xx_HAL_Driver/Src/stm32f7xx_hal_dma2d.c:1176:7
	ldr	r0, [r4]
	ldr	r1, [r0]
	bic	r1, r1, #2048
	str	r1, [r0]
	.loc	6 1179 7                @ ../Drivers/STM32F7xx_HAL_Driver/Src/stm32f7xx_hal_dma2d.c:1179:7
	movs	r1, #8
	str	r1, [r0, #8]
.Ltmp262:
	.loc	6 1190 18               @ ../Drivers/STM32F7xx_HAL_Driver/Src/stm32f7xx_hal_dma2d.c:1190:18
	ldr	r1, [r4, #20]
.Ltmp263:
	.loc	6 1182 25               @ ../Drivers/STM32F7xx_HAL_Driver/Src/stm32f7xx_hal_dma2d.c:1182:25
	ldr	r0, [r4, #60]
	orr	r0, r0, #4
	.loc	6 1190 10               @ ../Drivers/STM32F7xx_HAL_Driver/Src/stm32f7xx_hal_dma2d.c:1190:10
	cmp	r1, #0
	.loc	6 1182 25               @ ../Drivers/STM32F7xx_HAL_Driver/Src/stm32f7xx_hal_dma2d.c:1182:25
	str	r0, [r4, #60]
	mov.w	r0, #0
.Ltmp264:
	.loc	6 1188 7                @ ../Drivers/STM32F7xx_HAL_Driver/Src/stm32f7xx_hal_dma2d.c:1188:7
	strb.w	r0, [r4, #56]
	mov.w	r0, #4
.Ltmp265:
	.loc	6 1185 21               @ ../Drivers/STM32F7xx_HAL_Driver/Src/stm32f7xx_hal_dma2d.c:1185:21
	strb.w	r0, [r4, #57]
	.loc	6 1190 10               @ ../Drivers/STM32F7xx_HAL_Driver/Src/stm32f7xx_hal_dma2d.c:1190:10
	beq	.LBB19_9
.Ltmp266:
@ %bb.8:
	@DEBUG_VALUE: HAL_DMA2D_IRQHandler:crflags <- $r5
	@DEBUG_VALUE: HAL_DMA2D_IRQHandler:isrflags <- $r6
	@DEBUG_VALUE: HAL_DMA2D_IRQHandler:hdma2d <- $r4
	.loc	6 1193 9                @ ../Drivers/STM32F7xx_HAL_Driver/Src/stm32f7xx_hal_dma2d.c:1193:9
	mov	r0, r4
	blx	r1
.Ltmp267:
.LBB19_9:
	@DEBUG_VALUE: HAL_DMA2D_IRQHandler:crflags <- $r5
	@DEBUG_VALUE: HAL_DMA2D_IRQHandler:isrflags <- $r6
	@DEBUG_VALUE: HAL_DMA2D_IRQHandler:hdma2d <- $r4
	.loc	6 1198 7                @ ../Drivers/STM32F7xx_HAL_Driver/Src/stm32f7xx_hal_dma2d.c:1198:7
	lsls	r0, r6, #29
	bpl	.LBB19_12
.Ltmp268:
@ %bb.10:
	@DEBUG_VALUE: HAL_DMA2D_IRQHandler:crflags <- $r5
	@DEBUG_VALUE: HAL_DMA2D_IRQHandler:isrflags <- $r6
	@DEBUG_VALUE: HAL_DMA2D_IRQHandler:hdma2d <- $r4
	.loc	6 0 7 is_stmt 0         @ ../Drivers/STM32F7xx_HAL_Driver/Src/stm32f7xx_hal_dma2d.c:0:7
	ands	r0, r5, #1024
	.loc	6 1198 7                @ ../Drivers/STM32F7xx_HAL_Driver/Src/stm32f7xx_hal_dma2d.c:1198:7
	beq	.LBB19_12
.Ltmp269:
@ %bb.11:
	@DEBUG_VALUE: HAL_DMA2D_IRQHandler:crflags <- $r5
	@DEBUG_VALUE: HAL_DMA2D_IRQHandler:isrflags <- $r6
	@DEBUG_VALUE: HAL_DMA2D_IRQHandler:hdma2d <- $r4
	.loc	6 1203 7 is_stmt 1      @ ../Drivers/STM32F7xx_HAL_Driver/Src/stm32f7xx_hal_dma2d.c:1203:7
	ldr	r0, [r4]
	ldr	r1, [r0]
	bic	r1, r1, #1024
	str	r1, [r0]
	.loc	6 1206 7                @ ../Drivers/STM32F7xx_HAL_Driver/Src/stm32f7xx_hal_dma2d.c:1206:7
	movs	r1, #4
	str	r1, [r0, #8]
	.loc	6 1209 7                @ ../Drivers/STM32F7xx_HAL_Driver/Src/stm32f7xx_hal_dma2d.c:1209:7
	mov	r0, r4
	bl	HAL_DMA2D_LineEventCallback
.Ltmp270:
.LBB19_12:
	@DEBUG_VALUE: HAL_DMA2D_IRQHandler:crflags <- $r5
	@DEBUG_VALUE: HAL_DMA2D_IRQHandler:isrflags <- $r6
	@DEBUG_VALUE: HAL_DMA2D_IRQHandler:hdma2d <- $r4
	.loc	6 1213 7                @ ../Drivers/STM32F7xx_HAL_Driver/Src/stm32f7xx_hal_dma2d.c:1213:7
	lsls	r0, r6, #30
	bpl	.LBB19_16
.Ltmp271:
@ %bb.13:
	@DEBUG_VALUE: HAL_DMA2D_IRQHandler:crflags <- $r5
	@DEBUG_VALUE: HAL_DMA2D_IRQHandler:isrflags <- $r6
	@DEBUG_VALUE: HAL_DMA2D_IRQHandler:hdma2d <- $r4
	.loc	6 0 7 is_stmt 0         @ ../Drivers/STM32F7xx_HAL_Driver/Src/stm32f7xx_hal_dma2d.c:0:7
	ands	r0, r5, #512
	.loc	6 1213 7                @ ../Drivers/STM32F7xx_HAL_Driver/Src/stm32f7xx_hal_dma2d.c:1213:7
	beq	.LBB19_16
.Ltmp272:
@ %bb.14:
	@DEBUG_VALUE: HAL_DMA2D_IRQHandler:crflags <- $r5
	@DEBUG_VALUE: HAL_DMA2D_IRQHandler:isrflags <- $r6
	@DEBUG_VALUE: HAL_DMA2D_IRQHandler:hdma2d <- $r4
	.loc	6 1218 7 is_stmt 1      @ ../Drivers/STM32F7xx_HAL_Driver/Src/stm32f7xx_hal_dma2d.c:1218:7
	ldr	r0, [r4]
	ldr	r1, [r0]
	bic	r1, r1, #512
	str	r1, [r0]
	.loc	6 1221 7                @ ../Drivers/STM32F7xx_HAL_Driver/Src/stm32f7xx_hal_dma2d.c:1221:7
	movs	r1, #2
	str	r1, [r0, #8]
.Ltmp273:
	.loc	6 1232 18               @ ../Drivers/STM32F7xx_HAL_Driver/Src/stm32f7xx_hal_dma2d.c:1232:18
	ldr	r1, [r4, #16]
.Ltmp274:
	.loc	6 1224 25               @ ../Drivers/STM32F7xx_HAL_Driver/Src/stm32f7xx_hal_dma2d.c:1224:25
	ldr	r0, [r4, #60]
	str	r0, [r4, #60]
	movs	r0, #0
	.loc	6 1232 10               @ ../Drivers/STM32F7xx_HAL_Driver/Src/stm32f7xx_hal_dma2d.c:1232:10
	cmp	r1, #0
.Ltmp275:
	.loc	6 1230 7                @ ../Drivers/STM32F7xx_HAL_Driver/Src/stm32f7xx_hal_dma2d.c:1230:7
	strb.w	r0, [r4, #56]
.Ltmp276:
	.loc	6 1227 21               @ ../Drivers/STM32F7xx_HAL_Driver/Src/stm32f7xx_hal_dma2d.c:1227:21
	mov.w	r0, #1
	strb.w	r0, [r4, #57]
	.loc	6 1232 10               @ ../Drivers/STM32F7xx_HAL_Driver/Src/stm32f7xx_hal_dma2d.c:1232:10
	beq	.LBB19_16
.Ltmp277:
@ %bb.15:
	@DEBUG_VALUE: HAL_DMA2D_IRQHandler:crflags <- $r5
	@DEBUG_VALUE: HAL_DMA2D_IRQHandler:isrflags <- $r6
	@DEBUG_VALUE: HAL_DMA2D_IRQHandler:hdma2d <- $r4
	.loc	6 1235 9                @ ../Drivers/STM32F7xx_HAL_Driver/Src/stm32f7xx_hal_dma2d.c:1235:9
	mov	r0, r4
	blx	r1
.Ltmp278:
.LBB19_16:
	@DEBUG_VALUE: HAL_DMA2D_IRQHandler:crflags <- $r5
	@DEBUG_VALUE: HAL_DMA2D_IRQHandler:isrflags <- $r6
	@DEBUG_VALUE: HAL_DMA2D_IRQHandler:hdma2d <- $r4
	.loc	6 1240 7                @ ../Drivers/STM32F7xx_HAL_Driver/Src/stm32f7xx_hal_dma2d.c:1240:7
	lsls	r0, r6, #27
	.loc	6 1264 1                @ ../Drivers/STM32F7xx_HAL_Driver/Src/stm32f7xx_hal_dma2d.c:1264:1
	it	pl
	poppl	{r4, r5, r6, pc}
.Ltmp279:
	.loc	6 0 1 is_stmt 0         @ ../Drivers/STM32F7xx_HAL_Driver/Src/stm32f7xx_hal_dma2d.c:0:1
	ands	r0, r5, #4096
	.loc	6 1240 7 is_stmt 1      @ ../Drivers/STM32F7xx_HAL_Driver/Src/stm32f7xx_hal_dma2d.c:1240:7
	beq	.LBB19_20
@ %bb.17:
.Ltmp280:
	.loc	6 1245 7                @ ../Drivers/STM32F7xx_HAL_Driver/Src/stm32f7xx_hal_dma2d.c:1245:7
	ldr	r0, [r4]
	ldr	r1, [r0]
	bic	r1, r1, #4096
	str	r1, [r0]
	.loc	6 1248 7                @ ../Drivers/STM32F7xx_HAL_Driver/Src/stm32f7xx_hal_dma2d.c:1248:7
	movs	r1, #16
	str	r1, [r0, #8]
	.loc	6 1251 25               @ ../Drivers/STM32F7xx_HAL_Driver/Src/stm32f7xx_hal_dma2d.c:1251:25
	ldr	r0, [r4, #60]
	str	r0, [r4, #60]
.Ltmp281:
	.loc	6 1257 7                @ ../Drivers/STM32F7xx_HAL_Driver/Src/stm32f7xx_hal_dma2d.c:1257:7
	movs	r0, #0
	strb.w	r0, [r4, #56]
.Ltmp282:
	.loc	6 1254 21               @ ../Drivers/STM32F7xx_HAL_Driver/Src/stm32f7xx_hal_dma2d.c:1254:21
	movs	r0, #1
	strb.w	r0, [r4, #57]
	.loc	6 1260 7                @ ../Drivers/STM32F7xx_HAL_Driver/Src/stm32f7xx_hal_dma2d.c:1260:7
	mov	r0, r4
	pop.w	{r4, r5, r6, lr}
	b	HAL_DMA2D_CLUTLoadingCpltCallback
.Ltmp283:
.LBB19_18:
	@DEBUG_VALUE: HAL_DMA2D_IRQHandler:crflags <- $r5
	@DEBUG_VALUE: HAL_DMA2D_IRQHandler:isrflags <- $r6
	@DEBUG_VALUE: HAL_DMA2D_IRQHandler:hdma2d <- $r4
	.loc	6 1122 7                @ ../Drivers/STM32F7xx_HAL_Driver/Src/stm32f7xx_hal_dma2d.c:1122:7
	ldr	r1, [r0]
	bic	r1, r1, #256
	str	r1, [r0]
	.loc	6 1125 25               @ ../Drivers/STM32F7xx_HAL_Driver/Src/stm32f7xx_hal_dma2d.c:1125:25
	ldr	r1, [r4, #60]
	orr	r1, r1, #1
	str	r1, [r4, #60]
	movs	r1, #1
	.loc	6 1128 7                @ ../Drivers/STM32F7xx_HAL_Driver/Src/stm32f7xx_hal_dma2d.c:1128:7
	str	r1, [r0, #8]
	movs	r0, #0
.Ltmp284:
	.loc	6 1134 7                @ ../Drivers/STM32F7xx_HAL_Driver/Src/stm32f7xx_hal_dma2d.c:1134:7
	strb.w	r0, [r4, #56]
.Ltmp285:
	.loc	6 1131 21               @ ../Drivers/STM32F7xx_HAL_Driver/Src/stm32f7xx_hal_dma2d.c:1131:21
	movs	r0, #4
	strb.w	r0, [r4, #57]
.Ltmp286:
	.loc	6 1136 18               @ ../Drivers/STM32F7xx_HAL_Driver/Src/stm32f7xx_hal_dma2d.c:1136:18
	ldr	r1, [r4, #20]
.Ltmp287:
	.loc	6 1136 10 is_stmt 0     @ ../Drivers/STM32F7xx_HAL_Driver/Src/stm32f7xx_hal_dma2d.c:1136:10
	cmp	r1, #0
	beq.w	.LBB19_1
.Ltmp288:
@ %bb.19:
	@DEBUG_VALUE: HAL_DMA2D_IRQHandler:crflags <- $r5
	@DEBUG_VALUE: HAL_DMA2D_IRQHandler:isrflags <- $r6
	@DEBUG_VALUE: HAL_DMA2D_IRQHandler:hdma2d <- $r4
	.loc	6 1139 9 is_stmt 1      @ ../Drivers/STM32F7xx_HAL_Driver/Src/stm32f7xx_hal_dma2d.c:1139:9
	mov	r0, r4
	blx	r1
	b	.LBB19_1
.Ltmp289:
.LBB19_20:
	.loc	6 1264 1                @ ../Drivers/STM32F7xx_HAL_Driver/Src/stm32f7xx_hal_dma2d.c:1264:1
	pop	{r4, r5, r6, pc}
.Ltmp290:
.Lfunc_end19:
	.size	HAL_DMA2D_IRQHandler, .Lfunc_end19-HAL_DMA2D_IRQHandler
	.cfi_endproc
	.cantunwind
	.fnend
                                        @ -- End function
	.section	.text.HAL_DMA2D_LineEventCallback,"ax",%progbits
	.hidden	HAL_DMA2D_LineEventCallback @ -- Begin function HAL_DMA2D_LineEventCallback
	.weak	HAL_DMA2D_LineEventCallback
	.p2align	1
	.type	HAL_DMA2D_LineEventCallback,%function
	.code	16                      @ @HAL_DMA2D_LineEventCallback
	.thumb_func
HAL_DMA2D_LineEventCallback:
.Lfunc_begin20:
	.loc	6 1273 0                @ ../Drivers/STM32F7xx_HAL_Driver/Src/stm32f7xx_hal_dma2d.c:1273:0
	.fnstart
	.cfi_startproc
@ %bb.0:
	@DEBUG_VALUE: HAL_DMA2D_LineEventCallback:hdma2d <- $r0
	.loc	6 1280 1 prologue_end   @ ../Drivers/STM32F7xx_HAL_Driver/Src/stm32f7xx_hal_dma2d.c:1280:1
	bx	lr
.Ltmp291:
.Lfunc_end20:
	.size	HAL_DMA2D_LineEventCallback, .Lfunc_end20-HAL_DMA2D_LineEventCallback
	.cfi_endproc
	.cantunwind
	.fnend
                                        @ -- End function
	.section	.text.HAL_DMA2D_CLUTLoadingCpltCallback,"ax",%progbits
	.hidden	HAL_DMA2D_CLUTLoadingCpltCallback @ -- Begin function HAL_DMA2D_CLUTLoadingCpltCallback
	.weak	HAL_DMA2D_CLUTLoadingCpltCallback
	.p2align	1
	.type	HAL_DMA2D_CLUTLoadingCpltCallback,%function
	.code	16                      @ @HAL_DMA2D_CLUTLoadingCpltCallback
	.thumb_func
HAL_DMA2D_CLUTLoadingCpltCallback:
.Lfunc_begin21:
	.loc	6 1289 0                @ ../Drivers/STM32F7xx_HAL_Driver/Src/stm32f7xx_hal_dma2d.c:1289:0
	.fnstart
	.cfi_startproc
@ %bb.0:
	@DEBUG_VALUE: HAL_DMA2D_CLUTLoadingCpltCallback:hdma2d <- $r0
	.loc	6 1296 1 prologue_end   @ ../Drivers/STM32F7xx_HAL_Driver/Src/stm32f7xx_hal_dma2d.c:1296:1
	bx	lr
.Ltmp292:
.Lfunc_end21:
	.size	HAL_DMA2D_CLUTLoadingCpltCallback, .Lfunc_end21-HAL_DMA2D_CLUTLoadingCpltCallback
	.cfi_endproc
	.cantunwind
	.fnend
                                        @ -- End function
	.section	.text.HAL_DMA2D_ConfigLayer,"ax",%progbits
	.hidden	HAL_DMA2D_ConfigLayer   @ -- Begin function HAL_DMA2D_ConfigLayer
	.globl	HAL_DMA2D_ConfigLayer
	.p2align	2
	.type	HAL_DMA2D_ConfigLayer,%function
	.code	16                      @ @HAL_DMA2D_ConfigLayer
	.thumb_func
HAL_DMA2D_ConfigLayer:
.Lfunc_begin22:
	.loc	6 1332 0                @ ../Drivers/STM32F7xx_HAL_Driver/Src/stm32f7xx_hal_dma2d.c:1332:0
	.fnstart
	.cfi_startproc
@ %bb.0:
	@DEBUG_VALUE: HAL_DMA2D_ConfigLayer:hdma2d <- $r0
	@DEBUG_VALUE: HAL_DMA2D_ConfigLayer:hdma2d <- $r0
	@DEBUG_VALUE: HAL_DMA2D_ConfigLayer:LayerIdx <- $r1
	@DEBUG_VALUE: HAL_DMA2D_ConfigLayer:LayerIdx <- $r1
	@DEBUG_VALUE: HAL_DMA2D_ConfigLayer:regMask <- 0
	@DEBUG_VALUE: HAL_DMA2D_ConfigLayer:regValue <- 0
	.loc	6 1350 3 prologue_end   @ ../Drivers/STM32F7xx_HAL_Driver/Src/stm32f7xx_hal_dma2d.c:1350:3
	ldrb.w	r3, [r0, #56]
	movs	r2, #2
.Ltmp293:
	.loc	6 1350 3 is_stmt 0      @ ../Drivers/STM32F7xx_HAL_Driver/Src/stm32f7xx_hal_dma2d.c:1350:3
	cmp	r3, #1
	beq	.LBB22_5
.Ltmp294:
@ %bb.1:
	@DEBUG_VALUE: HAL_DMA2D_ConfigLayer:LayerIdx <- $r1
	@DEBUG_VALUE: HAL_DMA2D_ConfigLayer:hdma2d <- $r0
	.loc	6 0 3                   @ ../Drivers/STM32F7xx_HAL_Driver/Src/stm32f7xx_hal_dma2d.c:0:3
	.save	{r4, r5, r7, lr}
	push	{r4, r5, r7, lr}
	.cfi_def_cfa_offset 16
	.cfi_offset lr, -4
	.cfi_offset r7, -8
	.cfi_offset r5, -12
	.cfi_offset r4, -16
	.loc	6 1353 17 is_stmt 1     @ ../Drivers/STM32F7xx_HAL_Driver/Src/stm32f7xx_hal_dma2d.c:1353:17
	strb.w	r2, [r0, #57]
	movs	r2, #1
	add.w	r3, r0, r1, lsl #4
.Ltmp295:
	.loc	6 1350 3                @ ../Drivers/STM32F7xx_HAL_Driver/Src/stm32f7xx_hal_dma2d.c:1350:3
	strb.w	r2, [r0, #56]
.Ltmp296:
	@DEBUG_VALUE: HAL_DMA2D_ConfigLayer:regMask <- -16580593
	.loc	6 0 3 is_stmt 0         @ ../Drivers/STM32F7xx_HAL_Driver/Src/stm32f7xx_hal_dma2d.c:0:3
	add.w	r12, r3, #24
.Ltmp297:
	@DEBUG_VALUE: HAL_DMA2D_ConfigLayer:pLayerCfg <- $r12
	.loc	6 1358 25 is_stmt 1     @ ../Drivers/STM32F7xx_HAL_Driver/Src/stm32f7xx_hal_dma2d.c:1358:25
	ldrd	r4, r5, [r3, #28]
	ldr	r2, [r3, #36]
.Ltmp298:
	.loc	6 1371 53               @ ../Drivers/STM32F7xx_HAL_Driver/Src/stm32f7xx_hal_dma2d.c:1371:53
	sub.w	lr, r4, #9
.Ltmp299:
	.loc	6 1377 41               @ ../Drivers/STM32F7xx_HAL_Driver/Src/stm32f7xx_hal_dma2d.c:1377:41
	lsls	r3, r2, #24
.Ltmp300:
	.loc	6 1358 40               @ ../Drivers/STM32F7xx_HAL_Driver/Src/stm32f7xx_hal_dma2d.c:1358:40
	orr.w	r4, r4, r5, lsl #16
.Ltmp301:
	@DEBUG_VALUE: HAL_DMA2D_ConfigLayer:regValue <- $r4
	.loc	6 1371 53               @ ../Drivers/STM32F7xx_HAL_Driver/Src/stm32f7xx_hal_dma2d.c:1371:53
	cmp.w	lr, #2
	it	lo
	andlo	r3, r2, #-16777216
.Ltmp302:
	.loc	6 1381 6                @ ../Drivers/STM32F7xx_HAL_Driver/Src/stm32f7xx_hal_dma2d.c:1381:6
	cmp	r1, #0
	orr.w	r4, r4, r3
.Ltmp303:
	@DEBUG_VALUE: HAL_DMA2D_ConfigLayer:regValue <- $r4
	.loc	6 0 6 is_stmt 0         @ ../Drivers/STM32F7xx_HAL_Driver/Src/stm32f7xx_hal_dma2d.c:0:6
	ldr	r3, [r0]
	.loc	6 1381 6                @ ../Drivers/STM32F7xx_HAL_Driver/Src/stm32f7xx_hal_dma2d.c:1381:6
	beq	.LBB22_3
.Ltmp304:
@ %bb.2:
	@DEBUG_VALUE: HAL_DMA2D_ConfigLayer:regValue <- $r4
	@DEBUG_VALUE: HAL_DMA2D_ConfigLayer:pLayerCfg <- $r12
	@DEBUG_VALUE: HAL_DMA2D_ConfigLayer:LayerIdx <- $r1
	@DEBUG_VALUE: HAL_DMA2D_ConfigLayer:hdma2d <- $r0
	.loc	6 1399 5 is_stmt 1      @ ../Drivers/STM32F7xx_HAL_Driver/Src/stm32f7xx_hal_dma2d.c:1399:5
	ldr	r1, [r3, #28]
.Ltmp305:
	.loc	6 0 5 is_stmt 0         @ ../Drivers/STM32F7xx_HAL_Driver/Src/stm32f7xx_hal_dma2d.c:0:5
	ldr	r5, __arm_cp.22_0
.Ltmp306:
	.loc	6 1405 55 is_stmt 1     @ ../Drivers/STM32F7xx_HAL_Driver/Src/stm32f7xx_hal_dma2d.c:1405:55
	cmp.w	lr, #1
.Ltmp307:
	.loc	6 1399 5                @ ../Drivers/STM32F7xx_HAL_Driver/Src/stm32f7xx_hal_dma2d.c:1399:5
	and.w	r1, r1, r5
	orr.w	r1, r1, r4
	str	r1, [r3, #28]
	.loc	6 1402 5                @ ../Drivers/STM32F7xx_HAL_Driver/Src/stm32f7xx_hal_dma2d.c:1402:5
	ldr.w	r1, [r12]
	str	r1, [r3, #16]
.Ltmp308:
	.loc	6 1407 7                @ ../Drivers/STM32F7xx_HAL_Driver/Src/stm32f7xx_hal_dma2d.c:1407:7
	itt	ls
	bicls	r1, r2, #-16777216
	strls	r1, [r3, #32]
	b	.LBB22_4
.Ltmp309:
.LBB22_3:
	@DEBUG_VALUE: HAL_DMA2D_ConfigLayer:regValue <- $r4
	@DEBUG_VALUE: HAL_DMA2D_ConfigLayer:pLayerCfg <- $r12
	@DEBUG_VALUE: HAL_DMA2D_ConfigLayer:LayerIdx <- $r1
	@DEBUG_VALUE: HAL_DMA2D_ConfigLayer:hdma2d <- $r0
	.loc	6 1384 5                @ ../Drivers/STM32F7xx_HAL_Driver/Src/stm32f7xx_hal_dma2d.c:1384:5
	ldr	r1, [r3, #36]
.Ltmp310:
	.loc	6 0 5 is_stmt 0         @ ../Drivers/STM32F7xx_HAL_Driver/Src/stm32f7xx_hal_dma2d.c:0:5
	ldr	r5, __arm_cp.22_0
.Ltmp311:
	.loc	6 1390 55 is_stmt 1     @ ../Drivers/STM32F7xx_HAL_Driver/Src/stm32f7xx_hal_dma2d.c:1390:55
	cmp.w	lr, #1
.Ltmp312:
	.loc	6 1384 5                @ ../Drivers/STM32F7xx_HAL_Driver/Src/stm32f7xx_hal_dma2d.c:1384:5
	and.w	r1, r1, r5
	orr.w	r1, r1, r4
	str	r1, [r3, #36]
	.loc	6 1387 5                @ ../Drivers/STM32F7xx_HAL_Driver/Src/stm32f7xx_hal_dma2d.c:1387:5
	ldr.w	r1, [r12]
	str	r1, [r3, #24]
.Ltmp313:
	.loc	6 1392 7                @ ../Drivers/STM32F7xx_HAL_Driver/Src/stm32f7xx_hal_dma2d.c:1392:7
	itt	ls
	bicls	r1, r2, #-16777216
	strls	r1, [r3, #40]
.Ltmp314:
.LBB22_4:
	@DEBUG_VALUE: HAL_DMA2D_ConfigLayer:regValue <- $r4
	@DEBUG_VALUE: HAL_DMA2D_ConfigLayer:pLayerCfg <- $r12
	@DEBUG_VALUE: HAL_DMA2D_ConfigLayer:hdma2d <- $r0
	.loc	6 0 7 is_stmt 0         @ ../Drivers/STM32F7xx_HAL_Driver/Src/stm32f7xx_hal_dma2d.c:0:7
	movs	r2, #0
	.loc	6 1411 17 is_stmt 1     @ ../Drivers/STM32F7xx_HAL_Driver/Src/stm32f7xx_hal_dma2d.c:1411:17
	movs	r1, #1
.Ltmp315:
	.loc	6 1414 3                @ ../Drivers/STM32F7xx_HAL_Driver/Src/stm32f7xx_hal_dma2d.c:1414:3
	strb.w	r2, [r0, #56]
.Ltmp316:
	.loc	6 1411 17               @ ../Drivers/STM32F7xx_HAL_Driver/Src/stm32f7xx_hal_dma2d.c:1411:17
	strb.w	r1, [r0, #57]
	pop.w	{r4, r5, r7, lr}
.Ltmp317:
.LBB22_5:
	@DEBUG_VALUE: HAL_DMA2D_ConfigLayer:hdma2d <- $r0
	.loc	6 1417 1                @ ../Drivers/STM32F7xx_HAL_Driver/Src/stm32f7xx_hal_dma2d.c:1417:1
	uxtb	r0, r2
	bx	lr
.Ltmp318:
	.p2align	2
@ %bb.6:
	.loc	6 0 1 is_stmt 0         @ ../Drivers/STM32F7xx_HAL_Driver/Src/stm32f7xx_hal_dma2d.c:0:1
__arm_cp.22_0:
	.long	16580592                @ 0xfcfff0
.Lcpi_end4:
	.size	__arm_cp.22_0, .Lcpi_end4-__arm_cp.22_0
.Lfunc_end22:
	.size	HAL_DMA2D_ConfigLayer, .Lfunc_end22-HAL_DMA2D_ConfigLayer
	.cfi_endproc
	.cantunwind
	.fnend
                                        @ -- End function
	.section	.text.HAL_DMA2D_ConfigCLUT,"ax",%progbits
	.hidden	HAL_DMA2D_ConfigCLUT    @ -- Begin function HAL_DMA2D_ConfigCLUT
	.globl	HAL_DMA2D_ConfigCLUT
	.p2align	1
	.type	HAL_DMA2D_ConfigCLUT,%function
	.code	16                      @ @HAL_DMA2D_ConfigCLUT
	.thumb_func
HAL_DMA2D_ConfigCLUT:
.Lfunc_begin23:
	.loc	6 1431 0 is_stmt 1      @ ../Drivers/STM32F7xx_HAL_Driver/Src/stm32f7xx_hal_dma2d.c:1431:0
	.fnstart
	.cfi_startproc
@ %bb.0:
	.save	{r7, lr}
	push	{r7, lr}
	.cfi_def_cfa_offset 8
	.cfi_offset lr, -4
	.cfi_offset r7, -8
	@DEBUG_VALUE: HAL_DMA2D_ConfigCLUT:hdma2d <- $r0
	@DEBUG_VALUE: HAL_DMA2D_ConfigCLUT:hdma2d <- $r0
	@DEBUG_VALUE: HAL_DMA2D_ConfigCLUT:LayerIdx <- [DW_OP_plus_uconst 8] [$sp+0]
.Ltmp319:
	.loc	6 1438 3 prologue_end   @ ../Drivers/STM32F7xx_HAL_Driver/Src/stm32f7xx_hal_dma2d.c:1438:3
	ldrb.w	lr, [r0, #56]
	mov.w	r12, #2
.Ltmp320:
	@DEBUG_VALUE: HAL_DMA2D_ConfigCLUT:CLUTCfg <- [DW_OP_LLVM_fragment 0 32] $r1
	@DEBUG_VALUE: HAL_DMA2D_ConfigCLUT:CLUTCfg <- [DW_OP_LLVM_fragment 32 32] $r2
	@DEBUG_VALUE: HAL_DMA2D_ConfigCLUT:CLUTCfg <- [DW_OP_LLVM_fragment 64 32] $r3
	.loc	6 1438 3 is_stmt 0      @ ../Drivers/STM32F7xx_HAL_Driver/Src/stm32f7xx_hal_dma2d.c:1438:3
	cmp.w	lr, #1
	beq	.LBB23_5
.Ltmp321:
@ %bb.1:
	@DEBUG_VALUE: HAL_DMA2D_ConfigCLUT:CLUTCfg <- [DW_OP_LLVM_fragment 64 32] $r3
	@DEBUG_VALUE: HAL_DMA2D_ConfigCLUT:LayerIdx <- [DW_OP_plus_uconst 8] [$sp+0]
	@DEBUG_VALUE: HAL_DMA2D_ConfigCLUT:hdma2d <- $r0
	.loc	6 1441 17 is_stmt 1     @ ../Drivers/STM32F7xx_HAL_Driver/Src/stm32f7xx_hal_dma2d.c:1441:17
	strb.w	r12, [r0, #57]
	mov.w	r12, #1
	ldr.w	lr, [sp, #8]
.Ltmp322:
	.loc	6 1438 3                @ ../Drivers/STM32F7xx_HAL_Driver/Src/stm32f7xx_hal_dma2d.c:1438:3
	strb.w	r12, [r0, #56]
	ldr.w	r12, [r0]
.Ltmp323:
	.loc	6 1444 6                @ ../Drivers/STM32F7xx_HAL_Driver/Src/stm32f7xx_hal_dma2d.c:1444:6
	cmp.w	lr, #0
	beq	.LBB23_3
.Ltmp324:
@ %bb.2:
	@DEBUG_VALUE: HAL_DMA2D_ConfigCLUT:CLUTCfg <- [DW_OP_LLVM_fragment 64 32] $r3
	@DEBUG_VALUE: HAL_DMA2D_ConfigCLUT:LayerIdx <- [DW_OP_plus_uconst 8] [$sp+0]
	@DEBUG_VALUE: HAL_DMA2D_ConfigCLUT:hdma2d <- $r0
	.loc	6 1457 5                @ ../Drivers/STM32F7xx_HAL_Driver/Src/stm32f7xx_hal_dma2d.c:1457:5
	str.w	r1, [r12, #44]
	.loc	6 1460 5                @ ../Drivers/STM32F7xx_HAL_Driver/Src/stm32f7xx_hal_dma2d.c:1460:5
	add.w	r1, r12, #28
	b	.LBB23_4
.Ltmp325:
.LBB23_3:
	@DEBUG_VALUE: HAL_DMA2D_ConfigCLUT:CLUTCfg <- [DW_OP_LLVM_fragment 64 32] $r3
	@DEBUG_VALUE: HAL_DMA2D_ConfigCLUT:LayerIdx <- [DW_OP_plus_uconst 8] [$sp+0]
	@DEBUG_VALUE: HAL_DMA2D_ConfigCLUT:hdma2d <- $r0
	.loc	6 1447 5                @ ../Drivers/STM32F7xx_HAL_Driver/Src/stm32f7xx_hal_dma2d.c:1447:5
	str.w	r1, [r12, #48]
	.loc	6 1450 5                @ ../Drivers/STM32F7xx_HAL_Driver/Src/stm32f7xx_hal_dma2d.c:1450:5
	add.w	r1, r12, #36
.Ltmp326:
.LBB23_4:
	@DEBUG_VALUE: HAL_DMA2D_ConfigCLUT:CLUTCfg <- [DW_OP_LLVM_fragment 64 32] $r3
	@DEBUG_VALUE: HAL_DMA2D_ConfigCLUT:LayerIdx <- [DW_OP_plus_uconst 8] [$sp+0]
	@DEBUG_VALUE: HAL_DMA2D_ConfigCLUT:hdma2d <- $r0
	.loc	6 0 5 is_stmt 0         @ ../Drivers/STM32F7xx_HAL_Driver/Src/stm32f7xx_hal_dma2d.c:0:5
	lsls	r3, r3, #8
.Ltmp327:
	orr.w	r12, r3, r2, lsl #4
	ldr	r3, [r1]
	movw	r2, #65296
	bic.w	r2, r3, r2
	orr.w	r2, r2, r12
	mov.w	r12, #0
	str	r2, [r1]
	.loc	6 1465 17 is_stmt 1     @ ../Drivers/STM32F7xx_HAL_Driver/Src/stm32f7xx_hal_dma2d.c:1465:17
	movs	r1, #1
.Ltmp328:
	.loc	6 1468 3                @ ../Drivers/STM32F7xx_HAL_Driver/Src/stm32f7xx_hal_dma2d.c:1468:3
	strb.w	r12, [r0, #56]
.Ltmp329:
	.loc	6 1465 17               @ ../Drivers/STM32F7xx_HAL_Driver/Src/stm32f7xx_hal_dma2d.c:1465:17
	strb.w	r1, [r0, #57]
.LBB23_5:
	@DEBUG_VALUE: HAL_DMA2D_ConfigCLUT:LayerIdx <- [DW_OP_plus_uconst 8] [$sp+0]
	@DEBUG_VALUE: HAL_DMA2D_ConfigCLUT:hdma2d <- $r0
	.loc	6 1471 1                @ ../Drivers/STM32F7xx_HAL_Driver/Src/stm32f7xx_hal_dma2d.c:1471:1
	uxtb.w	r0, r12
	pop	{r7, pc}
.Ltmp330:
.Lfunc_end23:
	.size	HAL_DMA2D_ConfigCLUT, .Lfunc_end23-HAL_DMA2D_ConfigCLUT
	.cfi_endproc
	.cantunwind
	.fnend
                                        @ -- End function
	.section	.text.HAL_DMA2D_ProgramLineEvent,"ax",%progbits
	.hidden	HAL_DMA2D_ProgramLineEvent @ -- Begin function HAL_DMA2D_ProgramLineEvent
	.globl	HAL_DMA2D_ProgramLineEvent
	.p2align	1
	.type	HAL_DMA2D_ProgramLineEvent,%function
	.code	16                      @ @HAL_DMA2D_ProgramLineEvent
	.thumb_func
HAL_DMA2D_ProgramLineEvent:
.Lfunc_begin24:
	.loc	6 1485 0                @ ../Drivers/STM32F7xx_HAL_Driver/Src/stm32f7xx_hal_dma2d.c:1485:0
	.fnstart
	.cfi_startproc
@ %bb.0:
	@DEBUG_VALUE: HAL_DMA2D_ProgramLineEvent:hdma2d <- $r0
	@DEBUG_VALUE: HAL_DMA2D_ProgramLineEvent:hdma2d <- $r0
	@DEBUG_VALUE: HAL_DMA2D_ProgramLineEvent:Line <- $r1
	@DEBUG_VALUE: HAL_DMA2D_ProgramLineEvent:Line <- $r1
	.loc	6 1489 7 prologue_end   @ ../Drivers/STM32F7xx_HAL_Driver/Src/stm32f7xx_hal_dma2d.c:1489:7
	movs	r2, #0
	cmp.w	r2, r1, lsr #16
	beq	.LBB24_2
.Ltmp331:
@ %bb.1:
	@DEBUG_VALUE: HAL_DMA2D_ProgramLineEvent:Line <- $r1
	@DEBUG_VALUE: HAL_DMA2D_ProgramLineEvent:hdma2d <- $r0
	.loc	6 0 7 is_stmt 0         @ ../Drivers/STM32F7xx_HAL_Driver/Src/stm32f7xx_hal_dma2d.c:0:7
	movs	r2, #1
	b	.LBB24_4
.Ltmp332:
.LBB24_2:
	@DEBUG_VALUE: HAL_DMA2D_ProgramLineEvent:Line <- $r1
	@DEBUG_VALUE: HAL_DMA2D_ProgramLineEvent:hdma2d <- $r0
	.loc	6 1496 5 is_stmt 1      @ ../Drivers/STM32F7xx_HAL_Driver/Src/stm32f7xx_hal_dma2d.c:1496:5
	ldrb.w	r3, [r0, #56]
	movs	r2, #2
.Ltmp333:
	.loc	6 1496 5 is_stmt 0      @ ../Drivers/STM32F7xx_HAL_Driver/Src/stm32f7xx_hal_dma2d.c:1496:5
	cmp	r3, #1
	beq	.LBB24_4
.Ltmp334:
@ %bb.3:
	@DEBUG_VALUE: HAL_DMA2D_ProgramLineEvent:Line <- $r1
	@DEBUG_VALUE: HAL_DMA2D_ProgramLineEvent:hdma2d <- $r0
	.loc	6 1499 19 is_stmt 1     @ ../Drivers/STM32F7xx_HAL_Driver/Src/stm32f7xx_hal_dma2d.c:1499:19
	strb.w	r2, [r0, #57]
	.loc	6 1502 5                @ ../Drivers/STM32F7xx_HAL_Driver/Src/stm32f7xx_hal_dma2d.c:1502:5
	ldr	r2, [r0]
	str	r1, [r2, #72]
	.loc	6 1505 5                @ ../Drivers/STM32F7xx_HAL_Driver/Src/stm32f7xx_hal_dma2d.c:1505:5
	ldr	r1, [r2]
.Ltmp335:
	orr	r1, r1, #1024
	str	r1, [r2]
	movs	r2, #0
	.loc	6 1508 19               @ ../Drivers/STM32F7xx_HAL_Driver/Src/stm32f7xx_hal_dma2d.c:1508:19
	movs	r1, #1
.Ltmp336:
	.loc	6 1511 5                @ ../Drivers/STM32F7xx_HAL_Driver/Src/stm32f7xx_hal_dma2d.c:1511:5
	strb.w	r2, [r0, #56]
.Ltmp337:
	.loc	6 1508 19               @ ../Drivers/STM32F7xx_HAL_Driver/Src/stm32f7xx_hal_dma2d.c:1508:19
	strb.w	r1, [r0, #57]
.Ltmp338:
.LBB24_4:
	@DEBUG_VALUE: HAL_DMA2D_ProgramLineEvent:hdma2d <- $r0
	.loc	6 1515 1                @ ../Drivers/STM32F7xx_HAL_Driver/Src/stm32f7xx_hal_dma2d.c:1515:1
	uxtb	r0, r2
	bx	lr
.Ltmp339:
.Lfunc_end24:
	.size	HAL_DMA2D_ProgramLineEvent, .Lfunc_end24-HAL_DMA2D_ProgramLineEvent
	.cfi_endproc
	.cantunwind
	.fnend
                                        @ -- End function
	.section	.text.HAL_DMA2D_EnableDeadTime,"ax",%progbits
	.hidden	HAL_DMA2D_EnableDeadTime @ -- Begin function HAL_DMA2D_EnableDeadTime
	.globl	HAL_DMA2D_EnableDeadTime
	.p2align	1
	.type	HAL_DMA2D_EnableDeadTime,%function
	.code	16                      @ @HAL_DMA2D_EnableDeadTime
	.thumb_func
HAL_DMA2D_EnableDeadTime:
.Lfunc_begin25:
	.loc	6 1523 0                @ ../Drivers/STM32F7xx_HAL_Driver/Src/stm32f7xx_hal_dma2d.c:1523:0
	.fnstart
	.cfi_startproc
@ %bb.0:
	@DEBUG_VALUE: HAL_DMA2D_EnableDeadTime:hdma2d <- $r0
	@DEBUG_VALUE: HAL_DMA2D_EnableDeadTime:hdma2d <- $r0
	.loc	6 1525 3 prologue_end   @ ../Drivers/STM32F7xx_HAL_Driver/Src/stm32f7xx_hal_dma2d.c:1525:3
	ldrb.w	r2, [r0, #56]
	movs	r1, #2
.Ltmp340:
	.loc	6 1525 3 is_stmt 0      @ ../Drivers/STM32F7xx_HAL_Driver/Src/stm32f7xx_hal_dma2d.c:1525:3
	cmp	r2, #1
	beq	.LBB25_2
.Ltmp341:
@ %bb.1:
	@DEBUG_VALUE: HAL_DMA2D_EnableDeadTime:hdma2d <- $r0
	.loc	6 1527 17 is_stmt 1     @ ../Drivers/STM32F7xx_HAL_Driver/Src/stm32f7xx_hal_dma2d.c:1527:17
	strb.w	r1, [r0, #57]
	.loc	6 1530 3                @ ../Drivers/STM32F7xx_HAL_Driver/Src/stm32f7xx_hal_dma2d.c:1530:3
	ldr	r1, [r0]
	ldr	r2, [r1, #76]
	orr	r2, r2, #1
	str	r2, [r1, #76]
	movs	r1, #0
	movs	r2, #1
.Ltmp342:
	.loc	6 1535 3                @ ../Drivers/STM32F7xx_HAL_Driver/Src/stm32f7xx_hal_dma2d.c:1535:3
	strb.w	r1, [r0, #56]
.Ltmp343:
	.loc	6 1532 17               @ ../Drivers/STM32F7xx_HAL_Driver/Src/stm32f7xx_hal_dma2d.c:1532:17
	strb.w	r2, [r0, #57]
.LBB25_2:
	@DEBUG_VALUE: HAL_DMA2D_EnableDeadTime:hdma2d <- $r0
	.loc	6 1538 1                @ ../Drivers/STM32F7xx_HAL_Driver/Src/stm32f7xx_hal_dma2d.c:1538:1
	uxtb	r0, r1
	bx	lr
.Ltmp344:
.Lfunc_end25:
	.size	HAL_DMA2D_EnableDeadTime, .Lfunc_end25-HAL_DMA2D_EnableDeadTime
	.cfi_endproc
	.cantunwind
	.fnend
                                        @ -- End function
	.section	.text.HAL_DMA2D_DisableDeadTime,"ax",%progbits
	.hidden	HAL_DMA2D_DisableDeadTime @ -- Begin function HAL_DMA2D_DisableDeadTime
	.globl	HAL_DMA2D_DisableDeadTime
	.p2align	1
	.type	HAL_DMA2D_DisableDeadTime,%function
	.code	16                      @ @HAL_DMA2D_DisableDeadTime
	.thumb_func
HAL_DMA2D_DisableDeadTime:
.Lfunc_begin26:
	.loc	6 1546 0                @ ../Drivers/STM32F7xx_HAL_Driver/Src/stm32f7xx_hal_dma2d.c:1546:0
	.fnstart
	.cfi_startproc
@ %bb.0:
	@DEBUG_VALUE: HAL_DMA2D_DisableDeadTime:hdma2d <- $r0
	@DEBUG_VALUE: HAL_DMA2D_DisableDeadTime:hdma2d <- $r0
	.loc	6 1548 3 prologue_end   @ ../Drivers/STM32F7xx_HAL_Driver/Src/stm32f7xx_hal_dma2d.c:1548:3
	ldrb.w	r2, [r0, #56]
	movs	r1, #2
.Ltmp345:
	.loc	6 1548 3 is_stmt 0      @ ../Drivers/STM32F7xx_HAL_Driver/Src/stm32f7xx_hal_dma2d.c:1548:3
	cmp	r2, #1
	beq	.LBB26_2
.Ltmp346:
@ %bb.1:
	@DEBUG_VALUE: HAL_DMA2D_DisableDeadTime:hdma2d <- $r0
	.loc	6 1550 17 is_stmt 1     @ ../Drivers/STM32F7xx_HAL_Driver/Src/stm32f7xx_hal_dma2d.c:1550:17
	strb.w	r1, [r0, #57]
	.loc	6 1553 3                @ ../Drivers/STM32F7xx_HAL_Driver/Src/stm32f7xx_hal_dma2d.c:1553:3
	ldr	r1, [r0]
	ldr	r2, [r1, #76]
	bic	r2, r2, #1
	str	r2, [r1, #76]
	movs	r1, #0
	.loc	6 1555 17               @ ../Drivers/STM32F7xx_HAL_Driver/Src/stm32f7xx_hal_dma2d.c:1555:17
	movs	r2, #1
.Ltmp347:
	.loc	6 1558 3                @ ../Drivers/STM32F7xx_HAL_Driver/Src/stm32f7xx_hal_dma2d.c:1558:3
	strb.w	r1, [r0, #56]
.Ltmp348:
	.loc	6 1555 17               @ ../Drivers/STM32F7xx_HAL_Driver/Src/stm32f7xx_hal_dma2d.c:1555:17
	strb.w	r2, [r0, #57]
.LBB26_2:
	@DEBUG_VALUE: HAL_DMA2D_DisableDeadTime:hdma2d <- $r0
	.loc	6 1561 1                @ ../Drivers/STM32F7xx_HAL_Driver/Src/stm32f7xx_hal_dma2d.c:1561:1
	uxtb	r0, r1
	bx	lr
.Ltmp349:
.Lfunc_end26:
	.size	HAL_DMA2D_DisableDeadTime, .Lfunc_end26-HAL_DMA2D_DisableDeadTime
	.cfi_endproc
	.cantunwind
	.fnend
                                        @ -- End function
	.section	.text.HAL_DMA2D_ConfigDeadTime,"ax",%progbits
	.hidden	HAL_DMA2D_ConfigDeadTime @ -- Begin function HAL_DMA2D_ConfigDeadTime
	.globl	HAL_DMA2D_ConfigDeadTime
	.p2align	1
	.type	HAL_DMA2D_ConfigDeadTime,%function
	.code	16                      @ @HAL_DMA2D_ConfigDeadTime
	.thumb_func
HAL_DMA2D_ConfigDeadTime:
.Lfunc_begin27:
	.loc	6 1572 0                @ ../Drivers/STM32F7xx_HAL_Driver/Src/stm32f7xx_hal_dma2d.c:1572:0
	.fnstart
	.cfi_startproc
@ %bb.0:
	@DEBUG_VALUE: HAL_DMA2D_ConfigDeadTime:hdma2d <- $r0
	@DEBUG_VALUE: HAL_DMA2D_ConfigDeadTime:hdma2d <- $r0
	@DEBUG_VALUE: HAL_DMA2D_ConfigDeadTime:DeadTime <- $r1
	@DEBUG_VALUE: HAL_DMA2D_ConfigDeadTime:DeadTime <- $r1
	.loc	6 1574 3 prologue_end   @ ../Drivers/STM32F7xx_HAL_Driver/Src/stm32f7xx_hal_dma2d.c:1574:3
	ldrb.w	r3, [r0, #56]
	movs	r2, #2
.Ltmp350:
	@DEBUG_VALUE: HAL_DMA2D_ConfigDeadTime:DeadTime <- undef
	.loc	6 1574 3 is_stmt 0      @ ../Drivers/STM32F7xx_HAL_Driver/Src/stm32f7xx_hal_dma2d.c:1574:3
	cmp	r3, #1
	beq	.LBB27_2
.Ltmp351:
@ %bb.1:
	@DEBUG_VALUE: HAL_DMA2D_ConfigDeadTime:hdma2d <- $r0
	.loc	6 1576 17 is_stmt 1     @ ../Drivers/STM32F7xx_HAL_Driver/Src/stm32f7xx_hal_dma2d.c:1576:17
	strb.w	r2, [r0, #57]
	.loc	6 1579 3                @ ../Drivers/STM32F7xx_HAL_Driver/Src/stm32f7xx_hal_dma2d.c:1579:3
	ldr	r2, [r0]
	ldr	r3, [r2, #76]
	bic	r3, r3, #65280
	orr.w	r1, r3, r1, lsl #8
	str	r1, [r2, #76]
	movs	r2, #0
	.loc	6 1581 17               @ ../Drivers/STM32F7xx_HAL_Driver/Src/stm32f7xx_hal_dma2d.c:1581:17
	movs	r1, #1
.Ltmp352:
	.loc	6 1584 3                @ ../Drivers/STM32F7xx_HAL_Driver/Src/stm32f7xx_hal_dma2d.c:1584:3
	strb.w	r2, [r0, #56]
.Ltmp353:
	.loc	6 1581 17               @ ../Drivers/STM32F7xx_HAL_Driver/Src/stm32f7xx_hal_dma2d.c:1581:17
	strb.w	r1, [r0, #57]
.LBB27_2:
	@DEBUG_VALUE: HAL_DMA2D_ConfigDeadTime:hdma2d <- $r0
	.loc	6 1587 1                @ ../Drivers/STM32F7xx_HAL_Driver/Src/stm32f7xx_hal_dma2d.c:1587:1
	uxtb	r0, r2
	bx	lr
.Ltmp354:
.Lfunc_end27:
	.size	HAL_DMA2D_ConfigDeadTime, .Lfunc_end27-HAL_DMA2D_ConfigDeadTime
	.cfi_endproc
	.cantunwind
	.fnend
                                        @ -- End function
	.section	.text.HAL_DMA2D_GetState,"ax",%progbits
	.hidden	HAL_DMA2D_GetState      @ -- Begin function HAL_DMA2D_GetState
	.globl	HAL_DMA2D_GetState
	.p2align	1
	.type	HAL_DMA2D_GetState,%function
	.code	16                      @ @HAL_DMA2D_GetState
	.thumb_func
HAL_DMA2D_GetState:
.Lfunc_begin28:
	.loc	6 1617 0                @ ../Drivers/STM32F7xx_HAL_Driver/Src/stm32f7xx_hal_dma2d.c:1617:0
	.fnstart
	.cfi_startproc
@ %bb.0:
	@DEBUG_VALUE: HAL_DMA2D_GetState:hdma2d <- $r0
	@DEBUG_VALUE: HAL_DMA2D_GetState:hdma2d <- $r0
	.loc	6 1618 3 prologue_end   @ ../Drivers/STM32F7xx_HAL_Driver/Src/stm32f7xx_hal_dma2d.c:1618:3
	ldrb.w	r0, [r0, #57]
	bx	lr
.Ltmp355:
.Lfunc_end28:
	.size	HAL_DMA2D_GetState, .Lfunc_end28-HAL_DMA2D_GetState
	.cfi_endproc
	.cantunwind
	.fnend
                                        @ -- End function
	.section	.text.HAL_DMA2D_GetError,"ax",%progbits
	.hidden	HAL_DMA2D_GetError      @ -- Begin function HAL_DMA2D_GetError
	.globl	HAL_DMA2D_GetError
	.p2align	1
	.type	HAL_DMA2D_GetError,%function
	.code	16                      @ @HAL_DMA2D_GetError
	.thumb_func
HAL_DMA2D_GetError:
.Lfunc_begin29:
	.loc	6 1628 0                @ ../Drivers/STM32F7xx_HAL_Driver/Src/stm32f7xx_hal_dma2d.c:1628:0
	.fnstart
	.cfi_startproc
@ %bb.0:
	@DEBUG_VALUE: HAL_DMA2D_GetError:hdma2d <- $r0
	@DEBUG_VALUE: HAL_DMA2D_GetError:hdma2d <- $r0
	.loc	6 1629 18 prologue_end  @ ../Drivers/STM32F7xx_HAL_Driver/Src/stm32f7xx_hal_dma2d.c:1629:18
	ldr	r0, [r0, #60]
.Ltmp356:
	.loc	6 1629 3 is_stmt 0      @ ../Drivers/STM32F7xx_HAL_Driver/Src/stm32f7xx_hal_dma2d.c:1629:3
	bx	lr
.Ltmp357:
.Lfunc_end29:
	.size	HAL_DMA2D_GetError, .Lfunc_end29-HAL_DMA2D_GetError
	.cfi_endproc
	.cantunwind
	.fnend
                                        @ -- End function
	.section	".note.GNU-stack","",%progbits
	.eabi_attribute	30, 4	@ Tag_ABI_optimization_goals
	.ARM_attribute	16, 1	@ Tag_AV_eba