	.text
	.syntax unified
	.eabi_attribute	67, "2.09"	@ Tag_conformance
	.cpu	cortex-m7
	.eabi_attribute	6, 13	@ Tag_CPU_arch
	.eabi_attribute	7, 77	@ Tag_CPU_arch_profile
	.eabi_attribute	8, 0	@ Tag_ARM_ISA_use
	.eabi_attribute	9, 2	@ Tag_THUMB_ISA_use
	.fpu	fpv5-sp-d16
	.eabi_attribute	27, 1	@ Tag_ABI_HardFP_use
	.eabi_attribute	36, 1	@ Tag_FP_HP_extension
	.eabi_attribute	34, 1	@ Tag_CPU_unaligned_access
	.eabi_attribute	17, 1	@ Tag_ABI_PCS_GOT_use
	.eabi_attribute	20, 2	@ Tag_ABI_FP_denormal
	.eabi_attribute	21, 0	@ Tag_ABI_FP_exceptions
	.eabi_attribute	23, 1	@ Tag_ABI_FP_number_model
	.eabi_attribute	24, 1	@ Tag_ABI_align_needed
	.eabi_attribute	25, 1	@ Tag_ABI_align_preserved
	.eabi_attribute	28, 1	@ Tag_ABI_VFP_args
	.eabi_attribute	38, 1	@ Tag_ABI_FP_16bit_format
	.eabi_attribute	18, 2	@ Tag_ABI_PCS_wchar_t
	.eabi_attribute	26, 1	@ Tag_ABI_enum_size
	.eabi_attribute	14, 0	@ Tag_ABI_PCS_R9_use
	.file	"stm32f7xx_hal_adc_ex.c"
	.file	1 "../Drivers/STM32F7xx_HAL_Driver/Inc" "stm32f7xx_hal_def.h"
	.file	2 "../Drivers/STM32F7xx_HAL_Driver/Inc" "stm32f7xx_hal_dma.h"
	.file	3 "../Drivers/CMSIS/Device/ST/STM32F7xx/Include" "stm32f7xx.h"
	.file	4 "C:\\Keil\\ARM\\ARMCLANG\\Bin\\..\\include" "stdint.h"
	.file	5 "../Drivers/CMSIS/Device/ST/STM32F7xx/Include" "stm32f746xx.h"
	.file	6 "../Drivers/STM32F7xx_HAL_Driver/Inc" "stm32f7xx_hal_adc.h"
	.section	.text.HAL_ADCEx_InjectedStart,"ax",%progbits
	.hidden	HAL_ADCEx_InjectedStart @ -- Begin function HAL_ADCEx_InjectedStart
	.globl	HAL_ADCEx_InjectedStart
	.p2align	2
	.type	HAL_ADCEx_InjectedStart,%function
	.code	16                      @ @HAL_ADCEx_InjectedStart
	.thumb_func
HAL_ADCEx_InjectedStart:
.Lfunc_begin0:
	.file	7 "../Drivers/STM32F7xx_HAL_Driver/Src" "stm32f7xx_hal_adc_ex.c"
	.loc	7 176 0                 @ ../Drivers/STM32F7xx_HAL_Driver/Src/stm32f7xx_hal_adc_ex.c:176:0
	.fnstart
	.cfi_sections .debug_frame
	.cfi_startproc
@ %bb.0:
	.save	{r4, lr}
	.pad	#4
	push	{r3, r4, lr}
	.cfi_def_cfa_offset 12
	.cfi_offset lr, -4
	.cfi_offset r4, -8
	@DEBUG_VALUE: HAL_ADCEx_InjectedStart:hadc <- $r0
	movs	r1, #0
.Ltmp0:
	@DEBUG_VALUE: HAL_ADCEx_InjectedStart:counter <- 0
	@DEBUG_VALUE: HAL_ADCEx_InjectedStart:hadc <- $r0
	.loc	7 177 17 prologue_end   @ ../Drivers/STM32F7xx_HAL_Driver/Src/stm32f7xx_hal_adc_ex.c:177:17
	str	r1, [sp]
.Ltmp1:
	@DEBUG_VALUE: HAL_ADCEx_InjectedStart:tmp2 <- 0
	@DEBUG_VALUE: HAL_ADCEx_InjectedStart:tmp1 <- 0
	.loc	7 181 3                 @ ../Drivers/STM32F7xx_HAL_Driver/Src/stm32f7xx_hal_adc_ex.c:181:3
	ldrb.w	r1, [r0, #60]
.Ltmp2:
	.loc	7 181 3 is_stmt 0       @ ../Drivers/STM32F7xx_HAL_Driver/Src/stm32f7xx_hal_adc_ex.c:181:3
	cmp	r1, #1
	bne	.LBB0_2
.Ltmp3:
@ %bb.1:
	@DEBUG_VALUE: HAL_ADCEx_InjectedStart:hadc <- $r0
	.loc	7 0 3                   @ ../Drivers/STM32F7xx_HAL_Driver/Src/stm32f7xx_hal_adc_ex.c:0:3
	movs	r0, #2
.Ltmp4:
	b	.LBB0_12
.LBB0_2:
.Ltmp5:
	@DEBUG_VALUE: HAL_ADCEx_InjectedStart:hadc <- $r0
	movs	r1, #1
.Ltmp6:
	.loc	7 181 3                 @ ../Drivers/STM32F7xx_HAL_Driver/Src/stm32f7xx_hal_adc_ex.c:181:3
	strb.w	r1, [r0, #60]
.Ltmp7:
	.loc	7 187 13 is_stmt 1      @ ../Drivers/STM32F7xx_HAL_Driver/Src/stm32f7xx_hal_adc_ex.c:187:13
	ldr	r1, [r0]
	.loc	7 187 23 is_stmt 0      @ ../Drivers/STM32F7xx_HAL_Driver/Src/stm32f7xx_hal_adc_ex.c:187:23
	ldr	r2, [r1, #8]
.Ltmp8:
	.loc	7 187 6                 @ ../Drivers/STM32F7xx_HAL_Driver/Src/stm32f7xx_hal_adc_ex.c:187:6
	tst.w	r2, #1
	bne	.LBB0_6
.Ltmp9:
@ %bb.3:
	@DEBUG_VALUE: HAL_ADCEx_InjectedStart:hadc <- $r0
	.loc	7 190 5 is_stmt 1       @ ../Drivers/STM32F7xx_HAL_Driver/Src/stm32f7xx_hal_adc_ex.c:190:5
	ldr	r2, [r1, #8]
	.loc	7 194 53                @ ../Drivers/STM32F7xx_HAL_Driver/Src/stm32f7xx_hal_adc_ex.c:194:53
	ldr	r3, __arm_cp.0_1
	.loc	7 190 5                 @ ../Drivers/STM32F7xx_HAL_Driver/Src/stm32f7xx_hal_adc_ex.c:190:5
	orr	r2, r2, #1
	str	r2, [r1, #8]
	.loc	7 194 37                @ ../Drivers/STM32F7xx_HAL_Driver/Src/stm32f7xx_hal_adc_ex.c:194:37
	ldr	r2, __arm_cp.0_0
	ldr	r2, [r2]
	.loc	7 194 53 is_stmt 0      @ ../Drivers/STM32F7xx_HAL_Driver/Src/stm32f7xx_hal_adc_ex.c:194:53
	udiv	r2, r2, r3
	.loc	7 194 34                @ ../Drivers/STM32F7xx_HAL_Driver/Src/stm32f7xx_hal_adc_ex.c:194:34
	add.w	r2, r2, r2, lsl #1
	b	.LBB0_5
.Ltmp10:
.LBB0_4:                                @   in Loop: Header=BB0_5 Depth=1
	@DEBUG_VALUE: HAL_ADCEx_InjectedStart:counter <- $r2
	@DEBUG_VALUE: HAL_ADCEx_InjectedStart:hadc <- $r0
	.loc	7 197 14 is_stmt 1      @ ../Drivers/STM32F7xx_HAL_Driver/Src/stm32f7xx_hal_adc_ex.c:197:14
	ldr	r2, [sp]
.Ltmp11:
	@DEBUG_VALUE: HAL_ADCEx_InjectedStart:counter <- $r2
	subs	r2, #1
.Ltmp12:
.LBB0_5:                                @ =>This Inner Loop Header: Depth=1
	@DEBUG_VALUE: HAL_ADCEx_InjectedStart:hadc <- $r0
	@DEBUG_VALUE: HAL_ADCEx_InjectedStart:counter <- $r2
	.loc	7 0 14 is_stmt 0        @ ../Drivers/STM32F7xx_HAL_Driver/Src/stm32f7xx_hal_adc_ex.c:0:14
	str	r2, [sp]
	.loc	7 195 11 is_stmt 1      @ ../Drivers/STM32F7xx_HAL_Driver/Src/stm32f7xx_hal_adc_ex.c:195:11
	ldr	r2, [sp]
.Ltmp13:
	@DEBUG_VALUE: HAL_ADCEx_InjectedStart:counter <- $r2
	.loc	7 195 5 is_stmt 0       @ ../Drivers/STM32F7xx_HAL_Driver/Src/stm32f7xx_hal_adc_ex.c:195:5
	cmp	r2, #0
	bne	.LBB0_4
.Ltmp14:
.LBB0_6:
	@DEBUG_VALUE: HAL_ADCEx_InjectedStart:hadc <- $r0
	.loc	7 202 6 is_stmt 1       @ ../Drivers/STM32F7xx_HAL_Driver/Src/stm32f7xx_hal_adc_ex.c:202:6
	ldr	r2, [r1, #8]
.Ltmp15:
	.loc	7 202 6 is_stmt 0       @ ../Drivers/STM32F7xx_HAL_Driver/Src/stm32f7xx_hal_adc_ex.c:202:6
	tst.w	r2, #1
	beq	.LBB0_11
.Ltmp16:
@ %bb.7:
	@DEBUG_VALUE: HAL_ADCEx_InjectedStart:hadc <- $r0
	.loc	7 207 5 is_stmt 1       @ ../Drivers/STM32F7xx_HAL_Driver/Src/stm32f7xx_hal_adc_ex.c:207:5
	ldr	r2, [r0, #64]
	movw	r3, #12289
	ldr	r4, __arm_cp.0_2
	bics	r2, r3
	orr	r2, r2, #4096
	str	r2, [r0, #64]
.Ltmp17:
	.loc	7 215 9                 @ ../Drivers/STM32F7xx_HAL_Driver/Src/stm32f7xx_hal_adc_ex.c:215:9
	ldr	r2, [r0, #64]
.Ltmp18:
	.loc	7 215 9 is_stmt 0       @ ../Drivers/STM32F7xx_HAL_Driver/Src/stm32f7xx_hal_adc_ex.c:215:9
	tst.w	r2, #256
.Ltmp19:
	.loc	7 218 7 is_stmt 1       @ ../Drivers/STM32F7xx_HAL_Driver/Src/stm32f7xx_hal_adc_ex.c:218:7
	itt	eq
	moveq	r2, #0
	streq	r2, [r0, #68]
	movs	r2, #0
.Ltmp20:
	.loc	7 224 5                 @ ../Drivers/STM32F7xx_HAL_Driver/Src/stm32f7xx_hal_adc_ex.c:224:5
	strb.w	r2, [r0, #60]
.Ltmp21:
	.loc	7 228 5                 @ ../Drivers/STM32F7xx_HAL_Driver/Src/stm32f7xx_hal_adc_ex.c:228:5
	mvn	r0, #4
.Ltmp22:
	str	r0, [r1]
.Ltmp23:
	.loc	7 231 8                 @ ../Drivers/STM32F7xx_HAL_Driver/Src/stm32f7xx_hal_adc_ex.c:231:8
	ldr.w	r0, [r4, #772]
	ldr	r2, [r1, #8]
	ldr	r3, [r1, #4]
	and	r2, r2, #3145728
	and	r3, r3, #1024
.Ltmp24:
	.loc	7 231 8 is_stmt 0       @ ../Drivers/STM32F7xx_HAL_Driver/Src/stm32f7xx_hal_adc_ex.c:231:8
	tst.w	r0, #31
	beq	.LBB0_9
@ %bb.8:
.Ltmp25:
	.loc	7 245 35 is_stmt 1      @ ../Drivers/STM32F7xx_HAL_Driver/Src/stm32f7xx_hal_adc_ex.c:245:35
	cmp	r1, r4
	mov.w	r0, #0
	it	eq
	orrseq.w	r2, r2, r3
	bne	.LBB0_12
	b	.LBB0_10
.Ltmp26:
.LBB0_9:
	.loc	7 235 15                @ ../Drivers/STM32F7xx_HAL_Driver/Src/stm32f7xx_hal_adc_ex.c:235:15
	orrs.w	r0, r3, r2
	bne	.LBB0_11
.Ltmp27:
.LBB0_10:
	.loc	7 0 15 is_stmt 0        @ ../Drivers/STM32F7xx_HAL_Driver/Src/stm32f7xx_hal_adc_ex.c:0:15
	ldr	r0, [r1, #8]
	orr	r0, r0, #4194304
	str	r0, [r1, #8]
.LBB0_11:
	movs	r0, #0
.LBB0_12:
	.loc	7 255 1 is_stmt 1       @ ../Drivers/STM32F7xx_HAL_Driver/Src/stm32f7xx_hal_adc_ex.c:255:1
	uxtb	r0, r0
	add	sp, #4
	pop	{r4, pc}
.Ltmp28:
	.p2align	2
@ %bb.13:
	.loc	7 0 1 is_stmt 0         @ ../Drivers/STM32F7xx_HAL_Driver/Src/stm32f7xx_hal_adc_ex.c:0:1
__arm_cp.0_0:
	.long	SystemCoreClock
.Lcpi_end0:
	.size	__arm_cp.0_0, .Lcpi_end0-__arm_cp.0_0
__arm_cp.0_1:
	.long	1000000                 @ 0xf4240
.Lcpi_end1:
	.size	__arm_cp.0_1, .Lcpi_end1-__arm_cp.0_1
__arm_cp.0_2:
	.long	1073815552              @ 0x40012000
.Lcpi_end2:
	.size	__arm_cp.0_2, .Lcpi_end2-__arm_cp.0_2
.Lfunc_end0:
	.size	HAL_ADCEx_InjectedStart, .Lfunc_end0-HAL_ADCEx_InjectedStart
	.cfi_endproc
	.cantunwind
	.fnend
                                        @ -- End function
	.section	.text.HAL_ADCEx_InjectedStart_IT,"ax",%progbits
	.hidden	HAL_ADCEx_InjectedStart_IT @ -- Begin function HAL_ADCEx_InjectedStart_IT
	.globl	HAL_ADCEx_InjectedStart_IT
	.p2align	2
	.type	HAL_ADCEx_InjectedStart_IT,%function
	.code	16                      @ @HAL_ADCEx_InjectedStart_IT
	.thumb_func
HAL_ADCEx_InjectedStart_IT:
.Lfunc_begin1:
	.loc	7 265 0 is_stmt 1       @ ../Drivers/STM32F7xx_HAL_Driver/Src/stm32f7xx_hal_adc_ex.c:265:0
	.fnstart
	.cfi_startproc
@ %bb.0:
	.save	{r4, lr}
	.pad	#4
	push	{r3, r4, lr}
	.cfi_def_cfa_offset 12
	.cfi_offset lr, -4
	.cfi_offset r4, -8
	@DEBUG_VALUE: HAL_ADCEx_InjectedStart_IT:hadc <- $r0
	movs	r1, #0
.Ltmp29:
	@DEBUG_VALUE: HAL_ADCEx_InjectedStart_IT:counter <- 0
	@DEBUG_VALUE: HAL_ADCEx_InjectedStart_IT:hadc <- $r0
	.loc	7 266 17 prologue_end   @ ../Drivers/STM32F7xx_HAL_Driver/Src/stm32f7xx_hal_adc_ex.c:266:17
	str	r1, [sp]
.Ltmp30:
	@DEBUG_VALUE: HAL_ADCEx_InjectedStart_IT:tmp2 <- 0
	@DEBUG_VALUE: HAL_ADCEx_InjectedStart_IT:tmp1 <- 0
	.loc	7 270 3                 @ ../Drivers/STM32F7xx_HAL_Driver/Src/stm32f7xx_hal_adc_ex.c:270:3
	ldrb.w	r1, [r0, #60]
.Ltmp31:
	.loc	7 270 3 is_stmt 0       @ ../Drivers/STM32F7xx_HAL_Driver/Src/stm32f7xx_hal_adc_ex.c:270:3
	cmp	r1, #1
	bne	.LBB1_2
.Ltmp32:
@ %bb.1:
	@DEBUG_VALUE: HAL_ADCEx_InjectedStart_IT:hadc <- $r0
	.loc	7 0 3                   @ ../Drivers/STM32F7xx_HAL_Driver/Src/stm32f7xx_hal_adc_ex.c:0:3
	movs	r0, #2
.Ltmp33:
	b	.LBB1_12
.LBB1_2:
.Ltmp34:
	@DEBUG_VALUE: HAL_ADCEx_InjectedStart_IT:hadc <- $r0
	movs	r1, #1
.Ltmp35:
	.loc	7 270 3                 @ ../Drivers/STM32F7xx_HAL_Driver/Src/stm32f7xx_hal_adc_ex.c:270:3
	strb.w	r1, [r0, #60]
.Ltmp36:
	.loc	7 276 13 is_stmt 1      @ ../Drivers/STM32F7xx_HAL_Driver/Src/stm32f7xx_hal_adc_ex.c:276:13
	ldr	r1, [r0]
	.loc	7 276 23 is_stmt 0      @ ../Drivers/STM32F7xx_HAL_Driver/Src/stm32f7xx_hal_adc_ex.c:276:23
	ldr	r2, [r1, #8]
.Ltmp37:
	.loc	7 276 6                 @ ../Drivers/STM32F7xx_HAL_Driver/Src/stm32f7xx_hal_adc_ex.c:276:6
	tst.w	r2, #1
	bne	.LBB1_6
.Ltmp38:
@ %bb.3:
	@DEBUG_VALUE: HAL_ADCEx_InjectedStart_IT:hadc <- $r0
	.loc	7 279 5 is_stmt 1       @ ../Drivers/STM32F7xx_HAL_Driver/Src/stm32f7xx_hal_adc_ex.c:279:5
	ldr	r2, [r1, #8]
	.loc	7 283 53                @ ../Drivers/STM32F7xx_HAL_Driver/Src/stm32f7xx_hal_adc_ex.c:283:53
	ldr	r3, __arm_cp.1_1
	.loc	7 279 5                 @ ../Drivers/STM32F7xx_HAL_Driver/Src/stm32f7xx_hal_adc_ex.c:279:5
	orr	r2, r2, #1
	str	r2, [r1, #8]
	.loc	7 283 37                @ ../Drivers/STM32F7xx_HAL_Driver/Src/stm32f7xx_hal_adc_ex.c:283:37
	ldr	r2, __arm_cp.1_0
	ldr	r2, [r2]
	.loc	7 283 53 is_stmt 0      @ ../Drivers/STM32F7xx_HAL_Driver/Src/stm32f7xx_hal_adc_ex.c:283:53
	udiv	r2, r2, r3
	.loc	7 283 34                @ ../Drivers/STM32F7xx_HAL_Driver/Src/stm32f7xx_hal_adc_ex.c:283:34
	add.w	r2, r2, r2, lsl #1
	b	.LBB1_5
.Ltmp39:
.LBB1_4:                                @   in Loop: Header=BB1_5 Depth=1
	@DEBUG_VALUE: HAL_ADCEx_InjectedStart_IT:counter <- $r2
	@DEBUG_VALUE: HAL_ADCEx_InjectedStart_IT:hadc <- $r0
	.loc	7 286 14 is_stmt 1      @ ../Drivers/STM32F7xx_HAL_Driver/Src/stm32f7xx_hal_adc_ex.c:286:14
	ldr	r2, [sp]
.Ltmp40:
	@DEBUG_VALUE: HAL_ADCEx_InjectedStart_IT:counter <- $r2
	subs	r2, #1
.Ltmp41:
.LBB1_5:                                @ =>This Inner Loop Header: Depth=1
	@DEBUG_VALUE: HAL_ADCEx_InjectedStart_IT:hadc <- $r0
	@DEBUG_VALUE: HAL_ADCEx_InjectedStart_IT:counter <- $r2
	.loc	7 0 14 is_stmt 0        @ ../Drivers/STM32F7xx_HAL_Driver/Src/stm32f7xx_hal_adc_ex.c:0:14
	str	r2, [sp]
	.loc	7 284 11 is_stmt 1      @ ../Drivers/STM32F7xx_HAL_Driver/Src/stm32f7xx_hal_adc_ex.c:284:11
	ldr	r2, [sp]
.Ltmp42:
	@DEBUG_VALUE: HAL_ADCEx_InjectedStart_IT:counter <- $r2
	.loc	7 284 5 is_stmt 0       @ ../Drivers/STM32F7xx_HAL_Driver/Src/stm32f7xx_hal_adc_ex.c:284:5
	cmp	r2, #0
	bne	.LBB1_4
.Ltmp43:
.LBB1_6:
	@DEBUG_VALUE: HAL_ADCEx_InjectedStart_IT:hadc <- $r0
	.loc	7 291 6 is_stmt 1       @ ../Drivers/STM32F7xx_HAL_Driver/Src/stm32f7xx_hal_adc_ex.c:291:6
	ldr	r2, [r1, #8]
.Ltmp44:
	.loc	7 291 6 is_stmt 0       @ ../Drivers/STM32F7xx_HAL_Driver/Src/stm32f7xx_hal_adc_ex.c:291:6
	tst.w	r2, #1
	beq	.LBB1_11
.Ltmp45:
@ %bb.7:
	@DEBUG_VALUE: HAL_ADCEx_InjectedStart_IT:hadc <- $r0
	.loc	7 296 5 is_stmt 1       @ ../Drivers/STM32F7xx_HAL_Driver/Src/stm32f7xx_hal_adc_ex.c:296:5
	ldr	r2, [r0, #64]
	movw	r3, #12289
	ldr	r4, __arm_cp.1_2
	bics	r2, r3
	orr	r2, r2, #4096
	str	r2, [r0, #64]
.Ltmp46:
	.loc	7 304 9                 @ ../Drivers/STM32F7xx_HAL_Driver/Src/stm32f7xx_hal_adc_ex.c:304:9
	ldr	r2, [r0, #64]
.Ltmp47:
	.loc	7 304 9 is_stmt 0       @ ../Drivers/STM32F7xx_HAL_Driver/Src/stm32f7xx_hal_adc_ex.c:304:9
	tst.w	r2, #256
.Ltmp48:
	.loc	7 307 7 is_stmt 1       @ ../Drivers/STM32F7xx_HAL_Driver/Src/stm32f7xx_hal_adc_ex.c:307:7
	itt	eq
	moveq	r2, #0
	streq	r2, [r0, #68]
	movs	r2, #0
.Ltmp49:
	.loc	7 313 5                 @ ../Drivers/STM32F7xx_HAL_Driver/Src/stm32f7xx_hal_adc_ex.c:313:5
	strb.w	r2, [r0, #60]
.Ltmp50:
	.loc	7 317 5                 @ ../Drivers/STM32F7xx_HAL_Driver/Src/stm32f7xx_hal_adc_ex.c:317:5
	mvn	r0, #4
.Ltmp51:
	str	r0, [r1]
	.loc	7 320 5                 @ ../Drivers/STM32F7xx_HAL_Driver/Src/stm32f7xx_hal_adc_ex.c:320:5
	ldr	r0, [r1, #4]
	orr	r0, r0, #128
	str	r0, [r1, #4]
.Ltmp52:
	.loc	7 323 8                 @ ../Drivers/STM32F7xx_HAL_Driver/Src/stm32f7xx_hal_adc_ex.c:323:8
	ldr.w	r0, [r4, #772]
	ldr	r2, [r1, #8]
	ldr	r3, [r1, #4]
	and	r2, r2, #3145728
	and	r3, r3, #1024
.Ltmp53:
	.loc	7 323 8 is_stmt 0       @ ../Drivers/STM32F7xx_HAL_Driver/Src/stm32f7xx_hal_adc_ex.c:323:8
	tst.w	r0, #31
	beq	.LBB1_9
@ %bb.8:
.Ltmp54:
	.loc	7 337 35 is_stmt 1      @ ../Drivers/STM32F7xx_HAL_Driver/Src/stm32f7xx_hal_adc_ex.c:337:35
	cmp	r1, r4
	mov.w	r0, #0
	it	eq
	orrseq.w	r2, r2, r3
	bne	.LBB1_12
	b	.LBB1_10
.Ltmp55:
.LBB1_9:
	.loc	7 327 15                @ ../Drivers/STM32F7xx_HAL_Driver/Src/stm32f7xx_hal_adc_ex.c:327:15
	orrs.w	r0, r3, r2
	bne	.LBB1_11
.Ltmp56:
.LBB1_10:
	.loc	7 0 15 is_stmt 0        @ ../Drivers/STM32F7xx_HAL_Driver/Src/stm32f7xx_hal_adc_ex.c:0:15
	ldr	r0, [r1, #8]
	orr	r0, r0, #4194304
	str	r0, [r1, #8]
.LBB1_11:
	movs	r0, #0
.LBB1_12:
	.loc	7 347 1 is_stmt 1       @ ../Drivers/STM32F7xx_HAL_Driver/Src/stm32f7xx_hal_adc_ex.c:347:1
	uxtb	r0, r0
	add	sp, #4
	pop	{r4, pc}
.Ltmp57:
	.p2align	2
@ %bb.13:
	.loc	7 0 1 is_stmt 0         @ ../Drivers/STM32F7xx_HAL_Driver/Src/stm32f7xx_hal_adc_ex.c:0:1
__arm_cp.1_0:
	.long	SystemCoreClock
.Lcpi_end3:
	.size	__arm_cp.1_0, .Lcpi_end3-__arm_cp.1_0
__arm_cp.1_1:
	.long	1000000                 @ 0xf4240
.Lcpi_end4:
	.size	__arm_cp.1_1, .Lcpi_end4-__arm_cp.1_1
__arm_cp.1_2:
	.long	1073815552              @ 0x40012000
.Lcpi_end5:
	.size	__arm_cp.1_2, .Lcpi_end5-__arm_cp.1_2
.Lfunc_end1:
	.size	HAL_ADCEx_InjectedStart_IT, .Lfunc_end1-HAL_ADCEx_InjectedStart_IT
	.cfi_endproc
	.cantunwind
	.fnend
                                        @ -- End function
	.section	.text.HAL_ADCEx_InjectedStop,"ax",%progbits
	.hidden	HAL_ADCEx_InjectedStop  @ -- Begin function HAL_ADCEx_InjectedStop
	.globl	HAL_ADCEx_InjectedStop
	.p2align	1
	.type	HAL_ADCEx_InjectedStop,%function
	.code	16                      @ @HAL_ADCEx_InjectedStop
	.thumb_func
HAL_ADCEx_InjectedStop:
.Lfunc_begin2:
	.loc	7 362 0 is_stmt 1       @ ../Drivers/STM32F7xx_HAL_Driver/Src/stm32f7xx_hal_adc_ex.c:362:0
	.fnstart
	.cfi_startproc
@ %bb.0:
	@DEBUG_VALUE: HAL_ADCEx_InjectedStop:hadc <- $r0
	@DEBUG_VALUE: HAL_ADCEx_InjectedStop:hadc <- $r0
	@DEBUG_VALUE: HAL_ADCEx_InjectedStop:tmp_hal_status <- 0
	.loc	7 369 3 prologue_end    @ ../Drivers/STM32F7xx_HAL_Driver/Src/stm32f7xx_hal_adc_ex.c:369:3
	ldrb.w	r1, [r0, #60]
.Ltmp58:
	.loc	7 369 3 is_stmt 0       @ ../Drivers/STM32F7xx_HAL_Driver/Src/stm32f7xx_hal_adc_ex.c:369:3
	cmp	r1, #1
	bne	.LBB2_2
@ %bb.1:
	@DEBUG_VALUE: HAL_ADCEx_InjectedStop:hadc <- $r0
	.loc	7 0 3                   @ ../Drivers/STM32F7xx_HAL_Driver/Src/stm32f7xx_hal_adc_ex.c:0:3
	movs	r1, #2
	b	.LBB2_9
.LBB2_2:
	@DEBUG_VALUE: HAL_ADCEx_InjectedStop:hadc <- $r0
	movs	r1, #1
.Ltmp59:
	.loc	7 369 3                 @ ../Drivers/STM32F7xx_HAL_Driver/Src/stm32f7xx_hal_adc_ex.c:369:3
	strb.w	r1, [r0, #60]
.Ltmp60:
	.loc	7 377 14 is_stmt 1      @ ../Drivers/STM32F7xx_HAL_Driver/Src/stm32f7xx_hal_adc_ex.c:377:14
	ldr	r1, [r0, #64]
	.loc	7 377 57 is_stmt 0      @ ../Drivers/STM32F7xx_HAL_Driver/Src/stm32f7xx_hal_adc_ex.c:377:57
	tst.w	r1, #256
	bne	.LBB2_6
@ %bb.3:
	@DEBUG_VALUE: HAL_ADCEx_InjectedStop:hadc <- $r0
	.loc	7 378 6 is_stmt 1       @ ../Drivers/STM32F7xx_HAL_Driver/Src/stm32f7xx_hal_adc_ex.c:378:6
	ldr	r1, [r0]
	ldr	r2, [r1, #4]
.Ltmp61:
	.loc	7 377 6                 @ ../Drivers/STM32F7xx_HAL_Driver/Src/stm32f7xx_hal_adc_ex.c:377:6
	tst.w	r2, #1024
	bne	.LBB2_6
@ %bb.4:
	@DEBUG_VALUE: HAL_ADCEx_InjectedStop:hadc <- $r0
.Ltmp62:
	.loc	7 382 5                 @ ../Drivers/STM32F7xx_HAL_Driver/Src/stm32f7xx_hal_adc_ex.c:382:5
	ldr	r2, [r1, #8]
	bic	r2, r2, #1
	str	r2, [r1, #8]
.Ltmp63:
	.loc	7 385 8                 @ ../Drivers/STM32F7xx_HAL_Driver/Src/stm32f7xx_hal_adc_ex.c:385:8
	ldr	r1, [r1, #8]
.Ltmp64:
	.loc	7 385 8 is_stmt 0       @ ../Drivers/STM32F7xx_HAL_Driver/Src/stm32f7xx_hal_adc_ex.c:385:8
	tst.w	r1, #1
	bne	.LBB2_10
@ %bb.5:
	@DEBUG_VALUE: HAL_ADCEx_InjectedStop:hadc <- $r0
.Ltmp65:
	.loc	7 388 7 is_stmt 1       @ ../Drivers/STM32F7xx_HAL_Driver/Src/stm32f7xx_hal_adc_ex.c:388:7
	ldr	r1, [r0, #64]
	movw	r2, #4353
	bics	r1, r2
	orr	r2, r1, #1
	movs	r1, #0
	b	.LBB2_7
.Ltmp66:
.LBB2_6:
	@DEBUG_VALUE: HAL_ADCEx_InjectedStop:hadc <- $r0
	.loc	7 396 5                 @ ../Drivers/STM32F7xx_HAL_Driver/Src/stm32f7xx_hal_adc_ex.c:396:5
	ldr	r1, [r0, #64]
	orr	r2, r1, #32
	movs	r1, #1
.Ltmp67:
	@DEBUG_VALUE: HAL_ADCEx_InjectedStop:tmp_hal_status <- 1
.LBB2_7:
	@DEBUG_VALUE: HAL_ADCEx_InjectedStop:hadc <- $r0
	.loc	7 0 5 is_stmt 0         @ ../Drivers/STM32F7xx_HAL_Driver/Src/stm32f7xx_hal_adc_ex.c:0:5
	str	r2, [r0, #64]
.LBB2_8:
	@DEBUG_VALUE: HAL_ADCEx_InjectedStop:hadc <- $r0
.Ltmp68:
	.loc	7 402 3 is_stmt 1       @ ../Drivers/STM32F7xx_HAL_Driver/Src/stm32f7xx_hal_adc_ex.c:402:3
	movs	r2, #0
	strb.w	r2, [r0, #60]
.Ltmp69:
.LBB2_9:
	@DEBUG_VALUE: HAL_ADCEx_InjectedStop:hadc <- $r0
	.loc	7 406 1                 @ ../Drivers/STM32F7xx_HAL_Driver/Src/stm32f7xx_hal_adc_ex.c:406:1
	uxtb	r0, r1
	bx	lr
.Ltmp70:
.LBB2_10:
	@DEBUG_VALUE: HAL_ADCEx_InjectedStop:hadc <- $r0
	.loc	7 0 1 is_stmt 0         @ ../Drivers/STM32F7xx_HAL_Driver/Src/stm32f7xx_hal_adc_ex.c:0:1
	movs	r1, #0
	b	.LBB2_8
.Lfunc_end2:
	.size	HAL_ADCEx_InjectedStop, .Lfunc_end2-HAL_ADCEx_InjectedStop
	.cfi_endproc
	.cantunwind
	.fnend
                                        @ -- End function
	.section	.text.HAL_ADCEx_InjectedPollForConversion,"ax",%progbits
	.hidden	HAL_ADCEx_InjectedPollForConversion @ -- Begin function HAL_ADCEx_InjectedPollForConversion
	.globl	HAL_ADCEx_InjectedPollForConversion
	.p2align	1
	.type	HAL_ADCEx_InjectedPollForConversion,%function
	.code	16                      @ @HAL_ADCEx_InjectedPollForConversion
	.thumb_func
HAL_ADCEx_InjectedPollForConversion:
.Lfunc_begin3:
	.loc	7 416 0 is_stmt 1       @ ../Drivers/STM32F7xx_HAL_Driver/Src/stm32f7xx_hal_adc_ex.c:416:0
	.fnstart
	.cfi_startproc
@ %bb.0:
	.save	{r4, r5, r6, r7, lr}
	.pad	#4
	push	{r3, r4, r5, r6, r7, lr}
	.cfi_def_cfa_offset 24
	.cfi_offset lr, -4
	.cfi_offset r7, -8
	.cfi_offset r6, -12
	.cfi_offset r5, -16
	.cfi_offset r4, -20
	@DEBUG_VALUE: HAL_ADCEx_InjectedPollForConversion:hadc <- $r0
	@DEBUG_VALUE: HAL_ADCEx_InjectedPollForConversion:Timeout <- $r1
	mov	r5, r1
	mov	r4, r0
.Ltmp71:
	@DEBUG_VALUE: HAL_ADCEx_InjectedPollForConversion:tickstart <- 0
	@DEBUG_VALUE: HAL_ADCEx_InjectedPollForConversion:Timeout <- $r5
	@DEBUG_VALUE: HAL_ADCEx_InjectedPollForConversion:hadc <- $r4
	.loc	7 420 15 prologue_end   @ ../Drivers/STM32F7xx_HAL_Driver/Src/stm32f7xx_hal_adc_ex.c:420:15
	bl	HAL_GetTick
	mov	r6, r0
.Ltmp72:
	@DEBUG_VALUE: HAL_ADCEx_InjectedPollForConversion:tickstart <- $r6
	.loc	7 0 15 is_stmt 0        @ ../Drivers/STM32F7xx_HAL_Driver/Src/stm32f7xx_hal_adc_ex.c:0:15
	adds	r7, r5, #1
.Ltmp73:
.LBB3_1:                                @ =>This Inner Loop Header: Depth=1
	@DEBUG_VALUE: HAL_ADCEx_InjectedPollForConversion:tickstart <- $r6
	@DEBUG_VALUE: HAL_ADCEx_InjectedPollForConversion:hadc <- $r4
	@DEBUG_VALUE: HAL_ADCEx_InjectedPollForConversion:Timeout <- $r5
	.loc	7 423 11 is_stmt 1      @ ../Drivers/STM32F7xx_HAL_Driver/Src/stm32f7xx_hal_adc_ex.c:423:11
	ldr	r0, [r4]
	ldr	r1, [r0]
	.loc	7 423 3 is_stmt 0       @ ../Drivers/STM32F7xx_HAL_Driver/Src/stm32f7xx_hal_adc_ex.c:423:3
	tst.w	r1, #4
	bne	.LBB3_6
.Ltmp74:
@ %bb.2:                                @   in Loop: Header=BB3_1 Depth=1
	@DEBUG_VALUE: HAL_ADCEx_InjectedPollForConversion:tickstart <- $r6
	@DEBUG_VALUE: HAL_ADCEx_InjectedPollForConversion:hadc <- $r4
	@DEBUG_VALUE: HAL_ADCEx_InjectedPollForConversion:Timeout <- $r5
	.loc	7 426 8 is_stmt 1       @ ../Drivers/STM32F7xx_HAL_Driver/Src/stm32f7xx_hal_adc_ex.c:426:8
	cmp	r7, #0
	beq	.LBB3_1
.Ltmp75:
@ %bb.3:                                @   in Loop: Header=BB3_1 Depth=1
	@DEBUG_VALUE: HAL_ADCEx_InjectedPollForConversion:tickstart <- $r6
	@DEBUG_VALUE: HAL_ADCEx_InjectedPollForConversion:hadc <- $r4
	@DEBUG_VALUE: HAL_ADCEx_InjectedPollForConversion:Timeout <- $r5
	cbz	r5, .LBB3_5
.Ltmp76:
@ %bb.4:                                @   in Loop: Header=BB3_1 Depth=1
	@DEBUG_VALUE: HAL_ADCEx_InjectedPollForConversion:tickstart <- $r6
	@DEBUG_VALUE: HAL_ADCEx_InjectedPollForConversion:hadc <- $r4
	@DEBUG_VALUE: HAL_ADCEx_InjectedPollForConversion:Timeout <- $r5
	.loc	7 428 28                @ ../Drivers/STM32F7xx_HAL_Driver/Src/stm32f7xx_hal_adc_ex.c:428:28
	bl	HAL_GetTick
	.loc	7 428 42 is_stmt 0      @ ../Drivers/STM32F7xx_HAL_Driver/Src/stm32f7xx_hal_adc_ex.c:428:42
	subs	r0, r0, r6
.Ltmp77:
	.loc	7 428 10                @ ../Drivers/STM32F7xx_HAL_Driver/Src/stm32f7xx_hal_adc_ex.c:428:10
	cmp	r0, r5
	bls	.LBB3_1
.Ltmp78:
.LBB3_5:
	@DEBUG_VALUE: HAL_ADCEx_InjectedPollForConversion:tickstart <- $r6
	@DEBUG_VALUE: HAL_ADCEx_InjectedPollForConversion:hadc <- $r4
	@DEBUG_VALUE: HAL_ADCEx_InjectedPollForConversion:Timeout <- $r5
	.loc	7 432 9 is_stmt 1       @ ../Drivers/STM32F7xx_HAL_Driver/Src/stm32f7xx_hal_adc_ex.c:432:9
	movs	r0, #0
	strb.w	r0, [r4, #60]
.Ltmp79:
	.loc	7 430 20                @ ../Drivers/STM32F7xx_HAL_Driver/Src/stm32f7xx_hal_adc_ex.c:430:20
	movs	r0, #4
	str	r0, [r4, #64]
	movs	r0, #3
	b	.LBB3_10
.Ltmp80:
.LBB3_6:
	@DEBUG_VALUE: HAL_ADCEx_InjectedPollForConversion:tickstart <- $r6
	@DEBUG_VALUE: HAL_ADCEx_InjectedPollForConversion:hadc <- $r4
	@DEBUG_VALUE: HAL_ADCEx_InjectedPollForConversion:Timeout <- $r5
	.loc	7 439 3                 @ ../Drivers/STM32F7xx_HAL_Driver/Src/stm32f7xx_hal_adc_ex.c:439:3
	mvn	r1, #12
	str	r1, [r0]
	.loc	7 442 3                 @ ../Drivers/STM32F7xx_HAL_Driver/Src/stm32f7xx_hal_adc_ex.c:442:3
	ldr	r1, [r4, #64]
	orr	r1, r1, #8192
	str	r1, [r4, #64]
.Ltmp81:
	.loc	7 450 6                 @ ../Drivers/STM32F7xx_HAL_Driver/Src/stm32f7xx_hal_adc_ex.c:450:6
	ldr	r1, [r0, #8]
	.loc	7 450 62 is_stmt 0      @ ../Drivers/STM32F7xx_HAL_Driver/Src/stm32f7xx_hal_adc_ex.c:450:62
	tst.w	r1, #3145728
	bne	.LBB3_9
.Ltmp82:
@ %bb.7:
	@DEBUG_VALUE: HAL_ADCEx_InjectedPollForConversion:tickstart <- $r6
	@DEBUG_VALUE: HAL_ADCEx_InjectedPollForConversion:hadc <- $r4
	@DEBUG_VALUE: HAL_ADCEx_InjectedPollForConversion:Timeout <- $r5
	.loc	7 451 7 is_stmt 1       @ ../Drivers/STM32F7xx_HAL_Driver/Src/stm32f7xx_hal_adc_ex.c:451:7
	ldr	r1, [r0, #56]
	.loc	7 451 58 is_stmt 0      @ ../Drivers/STM32F7xx_HAL_Driver/Src/stm32f7xx_hal_adc_ex.c:451:58
	tst.w	r1, #3145728
	.loc	7 452 7 is_stmt 1       @ ../Drivers/STM32F7xx_HAL_Driver/Src/stm32f7xx_hal_adc_ex.c:452:7
	itt	ne
	ldrne	r1, [r0, #8]
	.loc	7 452 62 is_stmt 0      @ ../Drivers/STM32F7xx_HAL_Driver/Src/stm32f7xx_hal_adc_ex.c:452:62
	tstne.w	r1, #1024
	bne	.LBB3_9
.Ltmp83:
@ %bb.8:
	@DEBUG_VALUE: HAL_ADCEx_InjectedPollForConversion:tickstart <- $r6
	@DEBUG_VALUE: HAL_ADCEx_InjectedPollForConversion:hadc <- $r4
	@DEBUG_VALUE: HAL_ADCEx_InjectedPollForConversion:Timeout <- $r5
	.loc	7 453 7 is_stmt 1       @ ../Drivers/STM32F7xx_HAL_Driver/Src/stm32f7xx_hal_adc_ex.c:453:7
	ldr	r1, [r0, #4]
	.loc	7 453 58 is_stmt 0      @ ../Drivers/STM32F7xx_HAL_Driver/Src/stm32f7xx_hal_adc_ex.c:453:58
	tst.w	r1, #1024
	.loc	7 454 8 is_stmt 1       @ ../Drivers/STM32F7xx_HAL_Driver/Src/stm32f7xx_hal_adc_ex.c:454:8
	itt	eq
	ldreq	r0, [r0, #8]
	.loc	7 454 50 is_stmt 0      @ ../Drivers/STM32F7xx_HAL_Driver/Src/stm32f7xx_hal_adc_ex.c:454:50
	tsteq.w	r0, #805306368
	beq	.LBB3_11
.Ltmp84:
.LBB3_9:
	@DEBUG_VALUE: HAL_ADCEx_InjectedPollForConversion:tickstart <- $r6
	@DEBUG_VALUE: HAL_ADCEx_InjectedPollForConversion:hadc <- $r4
	@DEBUG_VALUE: HAL_ADCEx_InjectedPollForConversion:Timeout <- $r5
	.loc	7 0 50                  @ ../Drivers/STM32F7xx_HAL_Driver/Src/stm32f7xx_hal_adc_ex.c:0:50
	movs	r0, #0
.Ltmp85:
.LBB3_10:
	@DEBUG_VALUE: HAL_ADCEx_InjectedPollForConversion:tickstart <- $r6
	@DEBUG_VALUE: HAL_ADCEx_InjectedPollForConversion:hadc <- $r4
	@DEBUG_VALUE: HAL_ADCEx_InjectedPollForConversion:Timeout <- $r5
	.loc	7 468 1 is_stmt 1       @ ../Drivers/STM32F7xx_HAL_Driver/Src/stm32f7xx_hal_adc_ex.c:468:1
	uxtb	r0, r0
	add	sp, #4
	pop	{r4, r5, r6, r7, pc}
.Ltmp86:
.LBB3_11:
	@DEBUG_VALUE: HAL_ADCEx_InjectedPollForConversion:tickstart <- $r6
	@DEBUG_VALUE: HAL_ADCEx_InjectedPollForConversion:hadc <- $r4
	@DEBUG_VALUE: HAL_ADCEx_InjectedPollForConversion:Timeout <- $r5
	.loc	7 455 19                @ ../Drivers/STM32F7xx_HAL_Driver/Src/stm32f7xx_hal_adc_ex.c:455:19
	ldr	r0, [r4, #24]
.Ltmp87:
	.loc	7 450 6                 @ ../Drivers/STM32F7xx_HAL_Driver/Src/stm32f7xx_hal_adc_ex.c:450:6
	cmp	r0, #0
	bne	.LBB3_9
.Ltmp88:
@ %bb.12:
	@DEBUG_VALUE: HAL_ADCEx_InjectedPollForConversion:tickstart <- $r6
	@DEBUG_VALUE: HAL_ADCEx_InjectedPollForConversion:hadc <- $r4
	@DEBUG_VALUE: HAL_ADCEx_InjectedPollForConversion:Timeout <- $r5
	.loc	7 458 5                 @ ../Drivers/STM32F7xx_HAL_Driver/Src/stm32f7xx_hal_adc_ex.c:458:5
	ldr	r0, [r4, #64]
	bic	r0, r0, #4096
	str	r0, [r4, #64]
.Ltmp89:
	.loc	7 460 9                 @ ../Drivers/STM32F7xx_HAL_Driver/Src/stm32f7xx_hal_adc_ex.c:460:9
	ldr	r0, [r4, #64]
.Ltmp90:
	.loc	7 460 9 is_stmt 0       @ ../Drivers/STM32F7xx_HAL_Driver/Src/stm32f7xx_hal_adc_ex.c:460:9
	tst.w	r0, #256
.Ltmp91:
	.loc	7 462 7 is_stmt 1       @ ../Drivers/STM32F7xx_HAL_Driver/Src/stm32f7xx_hal_adc_ex.c:462:7
	ittt	eq
	ldreq	r0, [r4, #64]
	orreq	r0, r0, #1
	streq	r0, [r4, #64]
	b	.LBB3_9
.Ltmp92:
.Lfunc_end3:
	.size	HAL_ADCEx_InjectedPollForConversion, .Lfunc_end3-HAL_ADCEx_InjectedPollForConversion
	.cfi_endproc
	.cantunwind
	.fnend
                                        @ -- End function
	.section	.text.HAL_ADCEx_InjectedStop_IT,"ax",%progbits
	.hidden	HAL_ADCEx_InjectedStop_IT @ -- Begin function HAL_ADCEx_InjectedStop_IT
	.globl	HAL_ADCEx_InjectedStop_IT
	.p2align	1
	.type	HAL_ADCEx_InjectedStop_IT,%function
	.code	16                      @ @HAL_ADCEx_InjectedStop_IT
	.thumb_func
HAL_ADCEx_InjectedStop_IT:
.Lfunc_begin4:
	.loc	7 483 0                 @ ../Drivers/STM32F7xx_HAL_Driver/Src/stm32f7xx_hal_adc_ex.c:483:0
	.fnstart
	.cfi_startproc
@ %bb.0:
	@DEBUG_VALUE: HAL_ADCEx_InjectedStop_IT:hadc <- $r0
	@DEBUG_VALUE: HAL_ADCEx_InjectedStop_IT:hadc <- $r0
	@DEBUG_VALUE: HAL_ADCEx_InjectedStop_IT:tmp_hal_status <- 0
	.loc	7 490 3 prologue_end    @ ../Drivers/STM32F7xx_HAL_Driver/Src/stm32f7xx_hal_adc_ex.c:490:3
	ldrb.w	r1, [r0, #60]
.Ltmp93:
	.loc	7 490 3 is_stmt 0       @ ../Drivers/STM32F7xx_HAL_Driver/Src/stm32f7xx_hal_adc_ex.c:490:3
	cmp	r1, #1
	bne	.LBB4_2
@ %bb.1:
	@DEBUG_VALUE: HAL_ADCEx_InjectedStop_IT:hadc <- $r0
	.loc	7 0 3                   @ ../Drivers/STM32F7xx_HAL_Driver/Src/stm32f7xx_hal_adc_ex.c:0:3
	movs	r1, #2
	b	.LBB4_9
.LBB4_2:
	@DEBUG_VALUE: HAL_ADCEx_InjectedStop_IT:hadc <- $r0
	movs	r1, #1
.Ltmp94:
	.loc	7 490 3                 @ ../Drivers/STM32F7xx_HAL_Driver/Src/stm32f7xx_hal_adc_ex.c:490:3
	strb.w	r1, [r0, #60]
.Ltmp95:
	.loc	7 498 14 is_stmt 1      @ ../Drivers/STM32F7xx_HAL_Driver/Src/stm32f7xx_hal_adc_ex.c:498:14
	ldr	r1, [r0, #64]
	.loc	7 498 57 is_stmt 0      @ ../Drivers/STM32F7xx_HAL_Driver/Src/stm32f7xx_hal_adc_ex.c:498:57
	tst.w	r1, #256
	bne	.LBB4_6
@ %bb.3:
	@DEBUG_VALUE: HAL_ADCEx_InjectedStop_IT:hadc <- $r0
	.loc	7 499 6 is_stmt 1       @ ../Drivers/STM32F7xx_HAL_Driver/Src/stm32f7xx_hal_adc_ex.c:499:6
	ldr	r1, [r0]
	ldr	r2, [r1, #4]
.Ltmp96:
	.loc	7 498 6                 @ ../Drivers/STM32F7xx_HAL_Driver/Src/stm32f7xx_hal_adc_ex.c:498:6
	tst.w	r2, #1024
	bne	.LBB4_6
@ %bb.4:
	@DEBUG_VALUE: HAL_ADCEx_InjectedStop_IT:hadc <- $r0
.Ltmp97:
	.loc	7 503 5                 @ ../Drivers/STM32F7xx_HAL_Driver/Src/stm32f7xx_hal_adc_ex.c:503:5
	ldr	r2, [r1, #8]
	bic	r2, r2, #1
	str	r2, [r1, #8]
.Ltmp98:
	.loc	7 506 8                 @ ../Drivers/STM32F7xx_HAL_Driver/Src/stm32f7xx_hal_adc_ex.c:506:8
	ldr	r2, [r1, #8]
.Ltmp99:
	.loc	7 506 8 is_stmt 0       @ ../Drivers/STM32F7xx_HAL_Driver/Src/stm32f7xx_hal_adc_ex.c:506:8
	tst.w	r2, #1
	bne	.LBB4_10
@ %bb.5:
	@DEBUG_VALUE: HAL_ADCEx_InjectedStop_IT:hadc <- $r0
.Ltmp100:
	.loc	7 509 7 is_stmt 1       @ ../Drivers/STM32F7xx_HAL_Driver/Src/stm32f7xx_hal_adc_ex.c:509:7
	ldr	r2, [r1, #4]
	bic	r2, r2, #128
	str	r2, [r1, #4]
	.loc	7 512 7                 @ ../Drivers/STM32F7xx_HAL_Driver/Src/stm32f7xx_hal_adc_ex.c:512:7
	movw	r2, #4353
	ldr	r1, [r0, #64]
	bics	r1, r2
	orr	r2, r1, #1
	movs	r1, #0
	b	.LBB4_7
.Ltmp101:
.LBB4_6:
	@DEBUG_VALUE: HAL_ADCEx_InjectedStop_IT:hadc <- $r0
	.loc	7 520 5                 @ ../Drivers/STM32F7xx_HAL_Driver/Src/stm32f7xx_hal_adc_ex.c:520:5
	ldr	r1, [r0, #64]
	orr	r2, r1, #32
	movs	r1, #1
.Ltmp102:
	@DEBUG_VALUE: HAL_ADCEx_InjectedStop_IT:tmp_hal_status <- 1
.LBB4_7:
	@DEBUG_VALUE: HAL_ADCEx_InjectedStop_IT:hadc <- $r0
	.loc	7 0 5 is_stmt 0         @ ../Drivers/STM32F7xx_HAL_Driver/Src/stm32f7xx_hal_adc_ex.c:0:5
	str	r2, [r0, #64]
.LBB4_8:
	@DEBUG_VALUE: HAL_ADCEx_InjectedStop_IT:hadc <- $r0
.Ltmp103:
	.loc	7 526 3 is_stmt 1       @ ../Drivers/STM32F7xx_HAL_Driver/Src/stm32f7xx_hal_adc_ex.c:526:3
	movs	r2, #0
	strb.w	r2, [r0, #60]
.Ltmp104:
.LBB4_9:
	@DEBUG_VALUE: HAL_ADCEx_InjectedStop_IT:hadc <- $r0
	.loc	7 530 1                 @ ../Drivers/STM32F7xx_HAL_Driver/Src/stm32f7xx_hal_adc_ex.c:530:1
	uxtb	r0, r1
	bx	lr
.Ltmp105:
.LBB4_10:
	@DEBUG_VALUE: HAL_ADCEx_InjectedStop_IT:hadc <- $r0
	.loc	7 0 1 is_stmt 0         @ ../Drivers/STM32F7xx_HAL_Driver/Src/stm32f7xx_hal_adc_ex.c:0:1
	movs	r1, #0
	b	.LBB4_8
.Lfunc_end4:
	.size	HAL_ADCEx_InjectedStop_IT, .Lfunc_end4-HAL_ADCEx_InjectedStop_IT
	.cfi_endproc
	.cantunwind
	.fnend
                                        @ -- End function
	.section	.text.HAL_ADCEx_InjectedGetValue,"ax",%progbits
	.hidden	HAL_ADCEx_InjectedGetValue @ -- Begin function HAL_ADCEx_InjectedGetValue
	.globl	HAL_ADCEx_InjectedGetValue
	.p2align	2
	.type	HAL_ADCEx_InjectedGetValue,%function
	.code	16                      @ @HAL_ADCEx_InjectedGetValue
	.thumb_func
HAL_ADCEx_InjectedGetValue:
.Lfunc_begin5:
	.loc	7 545 0 is_stmt 1       @ ../Drivers/STM32F7xx_HAL_Driver/Src/stm32f7xx_hal_adc_ex.c:545:0
	.fnstart
	.cfi_startproc
@ %bb.0:
	.pad	#4
	sub	sp, #4
	.cfi_def_cfa_offset 4
	@DEBUG_VALUE: HAL_ADCEx_InjectedGetValue:hadc <- $r0
	@DEBUG_VALUE: HAL_ADCEx_InjectedGetValue:InjectedRank <- $r1
	movs	r2, #0
.Ltmp106:
	@DEBUG_VALUE: HAL_ADCEx_InjectedGetValue:tmp <- 0
	@DEBUG_VALUE: HAL_ADCEx_InjectedGetValue:InjectedRank <- $r1
	@DEBUG_VALUE: HAL_ADCEx_InjectedGetValue:hadc <- $r0
	.loc	7 556 3 prologue_end    @ ../Drivers/STM32F7xx_HAL_Driver/Src/stm32f7xx_hal_adc_ex.c:556:3
	subs	r1, #1
.Ltmp107:
	.loc	7 546 17                @ ../Drivers/STM32F7xx_HAL_Driver/Src/stm32f7xx_hal_adc_ex.c:546:17
	str	r2, [sp]
	.loc	7 553 3                 @ ../Drivers/STM32F7xx_HAL_Driver/Src/stm32f7xx_hal_adc_ex.c:553:3
	mvn	r2, #4
	.loc	7 556 3                 @ ../Drivers/STM32F7xx_HAL_Driver/Src/stm32f7xx_hal_adc_ex.c:556:3
	cmp	r1, #3
	.loc	7 553 3                 @ ../Drivers/STM32F7xx_HAL_Driver/Src/stm32f7xx_hal_adc_ex.c:553:3
	ldr	r0, [r0]
.Ltmp108:
	str	r2, [r0]
	.loc	7 556 3                 @ ../Drivers/STM32F7xx_HAL_Driver/Src/stm32f7xx_hal_adc_ex.c:556:3
	bhi	.LBB5_8
@ %bb.1:
	.loc	7 0 3 is_stmt 0         @ ../Drivers/STM32F7xx_HAL_Driver/Src/stm32f7xx_hal_adc_ex.c:0:3
.LCPI5_0:
	tbb	[pc, r1]
@ %bb.2:
.LJTI5_0:
	.byte	(.LBB5_3-(.LCPI5_0+4))/2
	.byte	(.LBB5_4-(.LCPI5_0+4))/2
	.byte	(.LBB5_5-(.LCPI5_0+4))/2
	.byte	(.LBB5_6-(.LCPI5_0+4))/2
	.p2align	1
.LBB5_3:
.Ltmp109:
	.loc	7 575 30 is_stmt 1      @ ../Drivers/STM32F7xx_HAL_Driver/Src/stm32f7xx_hal_adc_ex.c:575:30
	ldr	r0, [r0, #60]
	b	.LBB5_7
.Ltmp110:
.LBB5_4:
	.loc	7 570 30                @ ../Drivers/STM32F7xx_HAL_Driver/Src/stm32f7xx_hal_adc_ex.c:570:30
	ldr	r0, [r0, #64]
	b	.LBB5_7
.Ltmp111:
.LBB5_5:
	.loc	7 565 30                @ ../Drivers/STM32F7xx_HAL_Driver/Src/stm32f7xx_hal_adc_ex.c:565:30
	ldr	r0, [r0, #68]
	b	.LBB5_7
.Ltmp112:
.LBB5_6:
	.loc	7 560 30                @ ../Drivers/STM32F7xx_HAL_Driver/Src/stm32f7xx_hal_adc_ex.c:560:30
	ldr	r0, [r0, #72]
.Ltmp113:
.LBB5_7:
	@DEBUG_VALUE: HAL_ADCEx_InjectedGetValue:tmp <- $r0
	.loc	7 0 30 is_stmt 0        @ ../Drivers/STM32F7xx_HAL_Driver/Src/stm32f7xx_hal_adc_ex.c:0:30
	str	r0, [sp]
.Ltmp114:
.LBB5_8:
	.loc	7 581 10 is_stmt 1      @ ../Drivers/STM32F7xx_HAL_Driver/Src/stm32f7xx_hal_adc_ex.c:581:10
	ldr	r0, [sp]
.Ltmp115:
	@DEBUG_VALUE: HAL_ADCEx_InjectedGetValue:tmp <- $r0
	.loc	7 581 3 is_stmt 0       @ ../Drivers/STM32F7xx_HAL_Driver/Src/stm32f7xx_hal_adc_ex.c:581:3
	add	sp, #4
	bx	lr
.Ltmp116:
.Lfunc_end5:
	.size	HAL_ADCEx_InjectedGetValue, .Lfunc_end5-HAL_ADCEx_InjectedGetValue
	.cfi_endproc
	.cantunwind
	.fnend
                                        @ -- End function
	.section	.text.HAL_ADCEx_MultiModeStart_DMA,"ax",%progbits
	.hidden	HAL_ADCEx_MultiModeStart_DMA @ -- Begin function HAL_ADCEx_MultiModeStart_DMA
	.globl	HAL_ADCEx_MultiModeStart_DMA
	.p2align	2
	.type	HAL_ADCEx_MultiModeStart_DMA,%function
	.code	16                      @ @HAL_ADCEx_MultiModeStart_DMA
	.thumb_func
HAL_ADCEx_MultiModeStart_DMA:
.Lfunc_begin6:
	.loc	7 596 0 is_stmt 1       @ ../Drivers/STM32F7xx_HAL_Driver/Src/stm32f7xx_hal_adc_ex.c:596:0
	.fnstart
	.cfi_startproc
@ %bb.0:
	.save	{r4, r5, r6, r7, lr}
	.pad	#4
	push	{r3, r4, r5, r6, r7, lr}
	.cfi_def_cfa_offset 24
	.cfi_offset lr, -4
	.cfi_offset r7, -8
	.cfi_offset r6, -12
	.cfi_offset r5, -16
	.cfi_offset r4, -20
	@DEBUG_VALUE: HAL_ADCEx_MultiModeStart_DMA:hadc <- $r0
	@DEBUG_VALUE: HAL_ADCEx_MultiModeStart_DMA:pData <- $r1
	@DEBUG_VALUE: HAL_ADCEx_MultiModeStart_DMA:Length <- $r2
	mov	r4, r0
	movs	r0, #0
.Ltmp117:
	@DEBUG_VALUE: HAL_ADCEx_MultiModeStart_DMA:counter <- 0
	@DEBUG_VALUE: HAL_ADCEx_MultiModeStart_DMA:Length <- $lr
	@DEBUG_VALUE: HAL_ADCEx_MultiModeStart_DMA:pData <- $r7
	@DEBUG_VALUE: HAL_ADCEx_MultiModeStart_DMA:hadc <- $r4
	mov	lr, r2
.Ltmp118:
	mov	r7, r1
.Ltmp119:
	.loc	7 597 17 prologue_end   @ ../Drivers/STM32F7xx_HAL_Driver/Src/stm32f7xx_hal_adc_ex.c:597:17
	str	r0, [sp]
.Ltmp120:
	.loc	7 605 3                 @ ../Drivers/STM32F7xx_HAL_Driver/Src/stm32f7xx_hal_adc_ex.c:605:3
	ldrb.w	r0, [r4, #60]
.Ltmp121:
	.loc	7 605 3 is_stmt 0       @ ../Drivers/STM32F7xx_HAL_Driver/Src/stm32f7xx_hal_adc_ex.c:605:3
	cmp	r0, #1
	bne	.LBB6_2
.Ltmp122:
@ %bb.1:
	@DEBUG_VALUE: HAL_ADCEx_MultiModeStart_DMA:hadc <- $r4
	.loc	7 0 3                   @ ../Drivers/STM32F7xx_HAL_Driver/Src/stm32f7xx_hal_adc_ex.c:0:3
	movs	r5, #2
	b	.LBB6_10
.Ltmp123:
.LBB6_2:
	@DEBUG_VALUE: HAL_ADCEx_MultiModeStart_DMA:hadc <- $r4
	movs	r0, #1
.Ltmp124:
	.loc	7 605 3                 @ ../Drivers/STM32F7xx_HAL_Driver/Src/stm32f7xx_hal_adc_ex.c:605:3
	strb.w	r0, [r4, #60]
.Ltmp125:
	.loc	7 609 13 is_stmt 1      @ ../Drivers/STM32F7xx_HAL_Driver/Src/stm32f7xx_hal_adc_ex.c:609:13
	ldr	r1, [r4]
	.loc	7 609 23 is_stmt 0      @ ../Drivers/STM32F7xx_HAL_Driver/Src/stm32f7xx_hal_adc_ex.c:609:23
	ldr	r0, [r1, #8]
.Ltmp126:
	.loc	7 609 6                 @ ../Drivers/STM32F7xx_HAL_Driver/Src/stm32f7xx_hal_adc_ex.c:609:6
	tst.w	r0, #1
	bne	.LBB6_6
.Ltmp127:
@ %bb.3:
	@DEBUG_VALUE: HAL_ADCEx_MultiModeStart_DMA:hadc <- $r4
	.loc	7 612 5 is_stmt 1       @ ../Drivers/STM32F7xx_HAL_Driver/Src/stm32f7xx_hal_adc_ex.c:612:5
	ldr	r0, [r1, #8]
	.loc	7 616 53                @ ../Drivers/STM32F7xx_HAL_Driver/Src/stm32f7xx_hal_adc_ex.c:616:53
	ldr	r5, __arm_cp.6_1
	.loc	7 612 5                 @ ../Drivers/STM32F7xx_HAL_Driver/Src/stm32f7xx_hal_adc_ex.c:612:5
	orr	r0, r0, #1
	str	r0, [r1, #8]
	.loc	7 616 37                @ ../Drivers/STM32F7xx_HAL_Driver/Src/stm32f7xx_hal_adc_ex.c:616:37
	ldr	r0, __arm_cp.6_0
	ldr	r0, [r0]
	.loc	7 616 53 is_stmt 0      @ ../Drivers/STM32F7xx_HAL_Driver/Src/stm32f7xx_hal_adc_ex.c:616:53
	udiv	r0, r0, r5
	.loc	7 616 34                @ ../Drivers/STM32F7xx_HAL_Driver/Src/stm32f7xx_hal_adc_ex.c:616:34
	add.w	r0, r0, r0, lsl #1
	b	.LBB6_5
.Ltmp128:
.LBB6_4:                                @   in Loop: Header=BB6_5 Depth=1
	@DEBUG_VALUE: HAL_ADCEx_MultiModeStart_DMA:counter <- $r0
	@DEBUG_VALUE: HAL_ADCEx_MultiModeStart_DMA:hadc <- $r4
	.loc	7 619 14 is_stmt 1      @ ../Drivers/STM32F7xx_HAL_Driver/Src/stm32f7xx_hal_adc_ex.c:619:14
	ldr	r0, [sp]
.Ltmp129:
	@DEBUG_VALUE: HAL_ADCEx_MultiModeStart_DMA:counter <- $r0
	subs	r0, #1
.Ltmp130:
.LBB6_5:                                @ =>This Inner Loop Header: Depth=1
	@DEBUG_VALUE: HAL_ADCEx_MultiModeStart_DMA:hadc <- $r4
	@DEBUG_VALUE: HAL_ADCEx_MultiModeStart_DMA:counter <- $r0
	.loc	7 0 14 is_stmt 0        @ ../Drivers/STM32F7xx_HAL_Driver/Src/stm32f7xx_hal_adc_ex.c:0:14
	str	r0, [sp]
	.loc	7 617 11 is_stmt 1      @ ../Drivers/STM32F7xx_HAL_Driver/Src/stm32f7xx_hal_adc_ex.c:617:11
	ldr	r0, [sp]
.Ltmp131:
	@DEBUG_VALUE: HAL_ADCEx_MultiModeStart_DMA:counter <- $r0
	.loc	7 617 5 is_stmt 0       @ ../Drivers/STM32F7xx_HAL_Driver/Src/stm32f7xx_hal_adc_ex.c:617:5
	cmp	r0, #0
	bne	.LBB6_4
.Ltmp132:
.LBB6_6:
	@DEBUG_VALUE: HAL_ADCEx_MultiModeStart_DMA:hadc <- $r4
	.loc	7 624 6 is_stmt 1       @ ../Drivers/STM32F7xx_HAL_Driver/Src/stm32f7xx_hal_adc_ex.c:624:6
	ldr	r0, [r1, #8]
.Ltmp133:
	.loc	7 624 6 is_stmt 0       @ ../Drivers/STM32F7xx_HAL_Driver/Src/stm32f7xx_hal_adc_ex.c:624:6
	tst.w	r0, #1
	beq	.LBB6_9
.Ltmp134:
@ %bb.7:
	@DEBUG_VALUE: HAL_ADCEx_MultiModeStart_DMA:hadc <- $r4
	.loc	7 629 5 is_stmt 1       @ ../Drivers/STM32F7xx_HAL_Driver/Src/stm32f7xx_hal_adc_ex.c:629:5
	ldr	r0, [r4, #64]
	movw	r5, #1793
	.loc	7 661 44                @ ../Drivers/STM32F7xx_HAL_Driver/Src/stm32f7xx_hal_adc_ex.c:661:44
	ldr.w	r12, __arm_cp.6_2
	.loc	7 658 40                @ ../Drivers/STM32F7xx_HAL_Driver/Src/stm32f7xx_hal_adc_ex.c:658:40
	ldr	r3, __arm_cp.6_3
	.loc	7 629 5                 @ ../Drivers/STM32F7xx_HAL_Driver/Src/stm32f7xx_hal_adc_ex.c:629:5
	bics	r0, r5
	orr	r0, r0, #256
	str	r0, [r4, #64]
.Ltmp135:
	.loc	7 635 9                 @ ../Drivers/STM32F7xx_HAL_Driver/Src/stm32f7xx_hal_adc_ex.c:635:9
	ldr	r0, [r1, #4]
.Ltmp136:
	.loc	7 635 9 is_stmt 0       @ ../Drivers/STM32F7xx_HAL_Driver/Src/stm32f7xx_hal_adc_ex.c:635:9
	tst.w	r0, #1024
.Ltmp137:
	.loc	7 637 7 is_stmt 1       @ ../Drivers/STM32F7xx_HAL_Driver/Src/stm32f7xx_hal_adc_ex.c:637:7
	itttt	ne
	ldrne	r0, [r4, #64]
	movne	r5, #1
	bfine	r0, r5, #12, #2
	strne	r0, [r4, #64]
.Ltmp138:
	.loc	7 641 9                 @ ../Drivers/STM32F7xx_HAL_Driver/Src/stm32f7xx_hal_adc_ex.c:641:9
	ldr	r0, [r4, #64]
	movs	r5, #0
.Ltmp139:
	.loc	7 641 9 is_stmt 0       @ ../Drivers/STM32F7xx_HAL_Driver/Src/stm32f7xx_hal_adc_ex.c:641:9
	tst.w	r0, #4096
	mov.w	r0, #0
.Ltmp140:
	.loc	7 644 7 is_stmt 1       @ ../Drivers/STM32F7xx_HAL_Driver/Src/stm32f7xx_hal_adc_ex.c:644:7
	itt	ne
	ldrne	r0, [r4, #68]
	bicne	r0, r0, #6
.Ltmp141:
	.loc	7 655 5                 @ ../Drivers/STM32F7xx_HAL_Driver/Src/stm32f7xx_hal_adc_ex.c:655:5
	strb.w	r5, [r4, #60]
	str	r0, [r4, #68]
.Ltmp142:
	.loc	7 658 11                @ ../Drivers/STM32F7xx_HAL_Driver/Src/stm32f7xx_hal_adc_ex.c:658:11
	ldr	r0, [r4, #56]
	.loc	7 658 40 is_stmt 0      @ ../Drivers/STM32F7xx_HAL_Driver/Src/stm32f7xx_hal_adc_ex.c:658:40
	strd	r3, r12, [r0, #60]
	.loc	7 664 41 is_stmt 1      @ ../Drivers/STM32F7xx_HAL_Driver/Src/stm32f7xx_hal_adc_ex.c:664:41
	ldr	r3, __arm_cp.6_4
	str	r3, [r0, #76]
	.loc	7 671 5                 @ ../Drivers/STM32F7xx_HAL_Driver/Src/stm32f7xx_hal_adc_ex.c:671:5
	mvn	r3, #2
	str	r3, [r1]
	.loc	7 674 5                 @ ../Drivers/STM32F7xx_HAL_Driver/Src/stm32f7xx_hal_adc_ex.c:674:5
	ldr	r3, [r1, #4]
	orr	r3, r3, #67108864
	str	r3, [r1, #4]
	ldr	r1, __arm_cp.6_5
.Ltmp143:
	.loc	7 676 20                @ ../Drivers/STM32F7xx_HAL_Driver/Src/stm32f7xx_hal_adc_ex.c:676:20
	ldr	r3, [r4, #48]
	ldr	r2, [r1]
.Ltmp144:
	.loc	7 676 9 is_stmt 0       @ ../Drivers/STM32F7xx_HAL_Driver/Src/stm32f7xx_hal_adc_ex.c:676:9
	cmp	r3, #0
	.loc	7 688 5 is_stmt 1       @ ../Drivers/STM32F7xx_HAL_Driver/Src/stm32f7xx_hal_adc_ex.c:688:5
	mov	r3, lr
.Ltmp145:
	.loc	7 679 16                @ ../Drivers/STM32F7xx_HAL_Driver/Src/stm32f7xx_hal_adc_ex.c:679:16
	orr	r6, r2, #8192
.Ltmp146:
	.loc	7 676 9                 @ ../Drivers/STM32F7xx_HAL_Driver/Src/stm32f7xx_hal_adc_ex.c:676:9
	it	eq
	biceq	r6, r2, #8192
	.loc	7 688 5                 @ ../Drivers/STM32F7xx_HAL_Driver/Src/stm32f7xx_hal_adc_ex.c:688:5
	mov	r2, r7
	stm	r1!, {r6}
	bl	HAL_DMA_Start_IT
.Ltmp147:
	.loc	7 691 15                @ ../Drivers/STM32F7xx_HAL_Driver/Src/stm32f7xx_hal_adc_ex.c:691:15
	ldr	r0, [r4]
	.loc	7 691 25 is_stmt 0      @ ../Drivers/STM32F7xx_HAL_Driver/Src/stm32f7xx_hal_adc_ex.c:691:25
	ldr	r1, [r0, #8]
.Ltmp148:
	.loc	7 691 8                 @ ../Drivers/STM32F7xx_HAL_Driver/Src/stm32f7xx_hal_adc_ex.c:691:8
	tst.w	r1, #805306368
	bne	.LBB6_10
.Ltmp149:
@ %bb.8:
	@DEBUG_VALUE: HAL_ADCEx_MultiModeStart_DMA:hadc <- $r4
	.loc	7 694 27 is_stmt 1      @ ../Drivers/STM32F7xx_HAL_Driver/Src/stm32f7xx_hal_adc_ex.c:694:27
	ldr	r1, [r0, #8]
	orr	r1, r1, #1073741824
	str	r1, [r0, #8]
.Ltmp150:
.LBB6_9:
	@DEBUG_VALUE: HAL_ADCEx_MultiModeStart_DMA:hadc <- $r4
	.loc	7 0 27 is_stmt 0        @ ../Drivers/STM32F7xx_HAL_Driver/Src/stm32f7xx_hal_adc_ex.c:0:27
	movs	r5, #0
.Ltmp151:
.LBB6_10:
	@DEBUG_VALUE: HAL_ADCEx_MultiModeStart_DMA:hadc <- $r4
	.loc	7 700 1 is_stmt 1       @ ../Drivers/STM32F7xx_HAL_Driver/Src/stm32f7xx_hal_adc_ex.c:700:1
	uxtb	r0, r5
	add	sp, #4
	pop	{r4, r5, r6, r7, pc}
.Ltmp152:
	.p2align	2
@ %bb.11:
	.loc	7 0 1 is_stmt 0         @ ../Drivers/STM32F7xx_HAL_Driver/Src/stm32f7xx_hal_adc_ex.c:0:1
__arm_cp.6_0:
	.long	SystemCoreClock
.Lcpi_end6:
	.size	__arm_cp.6_0, .Lcpi_end6-__arm_cp.6_0
__arm_cp.6_1:
	.long	1000000                 @ 0xf4240
.Lcpi_end7:
	.size	__arm_cp.6_1, .Lcpi_end7-__arm_cp.6_1
__arm_cp.6_2:
	.long	ADC_MultiModeDMAHalfConvCplt
.Lcpi_end8:
	.size	__arm_cp.6_2, .Lcpi_end8-__arm_cp.6_2
__arm_cp.6_3:
	.long	ADC_MultiModeDMAConvCplt
.Lcpi_end9:
	.size	__arm_cp.6_3, .Lcpi_end9-__arm_cp.6_3
__arm_cp.6_4:
	.long	ADC_MultiModeDMAError
.Lcpi_end10:
	.size	__arm_cp.6_4, .Lcpi_end10-__arm_cp.6_4
__arm_cp.6_5:
	.long	1073816324              @ 0x40012304
.Lcpi_end11:
	.size	__arm_cp.6_5, .Lcpi_end11-__arm_cp.6_5
.Lfunc_end6:
	.size	HAL_ADCEx_MultiModeStart_DMA, .Lfunc_end6-HAL_ADCEx_MultiModeStart_DMA
	.cfi_endproc
	.cantunwind
	.fnend
                                        @ -- End function
	.section	.text.ADC_MultiModeDMAConvCplt,"ax",%progbits
	.p2align	1               @ -- Begin function ADC_MultiModeDMAConvCplt
	.type	ADC_MultiModeDMAConvCplt,%function
	.code	16                      @ @ADC_MultiModeDMAConvCplt
	.thumb_func
ADC_MultiModeDMAConvCplt:
.Lfunc_begin7:
	.loc	7 980 0 is_stmt 1       @ ../Drivers/STM32F7xx_HAL_Driver/Src/stm32f7xx_hal_adc_ex.c:980:0
	.fnstart
	.cfi_startproc
@ %bb.0:
	@DEBUG_VALUE: ADC_MultiModeDMAConvCplt:hdma <- $r0
	mov	r1, r0
.Ltmp153:
	@DEBUG_VALUE: ADC_MultiModeDMAConvCplt:hdma <- $r1
	.loc	7 982 80 prologue_end   @ ../Drivers/STM32F7xx_HAL_Driver/Src/stm32f7xx_hal_adc_ex.c:982:80
	ldr	r0, [r0, #56]
.Ltmp154:
	@DEBUG_VALUE: ADC_MultiModeDMAConvCplt:hadc <- $r0
	.loc	7 985 7                 @ ../Drivers/STM32F7xx_HAL_Driver/Src/stm32f7xx_hal_adc_ex.c:985:7
	ldr	r2, [r0, #64]
.Ltmp155:
	.loc	7 985 7 is_stmt 0       @ ../Drivers/STM32F7xx_HAL_Driver/Src/stm32f7xx_hal_adc_ex.c:985:7
	tst.w	r2, #80
	beq	.LBB7_2
.Ltmp156:
@ %bb.1:
	@DEBUG_VALUE: ADC_MultiModeDMAConvCplt:hadc <- $r0
	@DEBUG_VALUE: ADC_MultiModeDMAConvCplt:hdma <- $r1
	.loc	7 1022 11 is_stmt 1     @ ../Drivers/STM32F7xx_HAL_Driver/Src/stm32f7xx_hal_adc_ex.c:1022:11
	ldr	r0, [r0, #56]
.Ltmp157:
	.loc	7 1022 23 is_stmt 0     @ ../Drivers/STM32F7xx_HAL_Driver/Src/stm32f7xx_hal_adc_ex.c:1022:23
	ldr	r2, [r0, #76]
	.loc	7 1022 5                @ ../Drivers/STM32F7xx_HAL_Driver/Src/stm32f7xx_hal_adc_ex.c:1022:5
	mov	r0, r1
	bx	r2
.Ltmp158:
.LBB7_2:
	@DEBUG_VALUE: ADC_MultiModeDMAConvCplt:hadc <- $r0
	@DEBUG_VALUE: ADC_MultiModeDMAConvCplt:hdma <- $r1
	.loc	7 996 8 is_stmt 1       @ ../Drivers/STM32F7xx_HAL_Driver/Src/stm32f7xx_hal_adc_ex.c:996:8
	ldr	r1, [r0]
.Ltmp159:
	.loc	7 988 5                 @ ../Drivers/STM32F7xx_HAL_Driver/Src/stm32f7xx_hal_adc_ex.c:988:5
	ldr	r2, [r0, #64]
	orr	r2, r2, #512
	str	r2, [r0, #64]
.Ltmp160:
	.loc	7 996 8                 @ ../Drivers/STM32F7xx_HAL_Driver/Src/stm32f7xx_hal_adc_ex.c:996:8
	ldr	r2, [r1, #8]
	.loc	7 996 62 is_stmt 0      @ ../Drivers/STM32F7xx_HAL_Driver/Src/stm32f7xx_hal_adc_ex.c:996:62
	tst.w	r2, #805306368
	bne	.LBB7_5
.Ltmp161:
@ %bb.3:
	@DEBUG_VALUE: ADC_MultiModeDMAConvCplt:hadc <- $r0
	.loc	7 997 20 is_stmt 1      @ ../Drivers/STM32F7xx_HAL_Driver/Src/stm32f7xx_hal_adc_ex.c:997:20
	ldr	r2, [r0, #24]
	.loc	7 997 62 is_stmt 0      @ ../Drivers/STM32F7xx_HAL_Driver/Src/stm32f7xx_hal_adc_ex.c:997:62
	cmp	r2, #0
.Ltmp162:
	.loc	7 1017 5 is_stmt 1      @ ../Drivers/STM32F7xx_HAL_Driver/Src/stm32f7xx_hal_adc_ex.c:1017:5
	it	ne
	bne	HAL_ADC_ConvCpltCallback
.Ltmp163:
	.loc	7 998 9                 @ ../Drivers/STM32F7xx_HAL_Driver/Src/stm32f7xx_hal_adc_ex.c:998:9
	ldr	r2, [r1, #44]
	.loc	7 998 58 is_stmt 0      @ ../Drivers/STM32F7xx_HAL_Driver/Src/stm32f7xx_hal_adc_ex.c:998:58
	tst.w	r2, #15728640
	.loc	7 999 9 is_stmt 1       @ ../Drivers/STM32F7xx_HAL_Driver/Src/stm32f7xx_hal_adc_ex.c:999:9
	itt	ne
	ldrne	r2, [r1, #8]
.Ltmp164:
	.loc	7 996 8                 @ ../Drivers/STM32F7xx_HAL_Driver/Src/stm32f7xx_hal_adc_ex.c:996:8
	tstne.w	r2, #1024
	bne	.LBB7_5
.Ltmp165:
@ %bb.4:
	@DEBUG_VALUE: ADC_MultiModeDMAConvCplt:hadc <- $r0
	.loc	7 1005 7                @ ../Drivers/STM32F7xx_HAL_Driver/Src/stm32f7xx_hal_adc_ex.c:1005:7
	ldr	r2, [r1, #4]
	bic	r2, r2, #32
	str	r2, [r1, #4]
	.loc	7 1008 7                @ ../Drivers/STM32F7xx_HAL_Driver/Src/stm32f7xx_hal_adc_ex.c:1008:7
	ldr	r1, [r0, #64]
	bic	r1, r1, #256
	str	r1, [r0, #64]
.Ltmp166:
	.loc	7 1010 11               @ ../Drivers/STM32F7xx_HAL_Driver/Src/stm32f7xx_hal_adc_ex.c:1010:11
	ldr	r1, [r0, #64]
.Ltmp167:
	.loc	7 1010 11 is_stmt 0     @ ../Drivers/STM32F7xx_HAL_Driver/Src/stm32f7xx_hal_adc_ex.c:1010:11
	tst.w	r1, #4096
.Ltmp168:
	.loc	7 1012 9 is_stmt 1      @ ../Drivers/STM32F7xx_HAL_Driver/Src/stm32f7xx_hal_adc_ex.c:1012:9
	ittt	eq
	ldreq	r1, [r0, #64]
	orreq	r1, r1, #1
	streq	r1, [r0, #64]
.Ltmp169:
.LBB7_5:
	@DEBUG_VALUE: ADC_MultiModeDMAConvCplt:hadc <- $r0
	.loc	7 1017 5                @ ../Drivers/STM32F7xx_HAL_Driver/Src/stm32f7xx_hal_adc_ex.c:1017:5
	b	HAL_ADC_ConvCpltCallback
.Ltmp170:
.Lfunc_end7:
	.size	ADC_MultiModeDMAConvCplt, .Lfunc_end7-ADC_MultiModeDMAConvCplt
	.cfi_endproc
	.cantunwind
	.fnend
                                        @ -- End function
	.section	.text.ADC_MultiModeDMAHalfConvCplt,"ax",%progbits
	.p2align	1               @ -- Begin function ADC_MultiModeDMAHalfConvCplt
	.type	ADC_MultiModeDMAHalfConvCplt,%function
	.code	16                      @ @ADC_MultiModeDMAHalfConvCplt
	.thumb_func
ADC_MultiModeDMAHalfConvCplt:
.Lfunc_begin8:
	.loc	7 1033 0                @ ../Drivers/STM32F7xx_HAL_Driver/Src/stm32f7xx_hal_adc_ex.c:1033:0
	.fnstart
	.cfi_startproc
@ %bb.0:
	@DEBUG_VALUE: ADC_MultiModeDMAHalfConvCplt:hdma <- $r0
	@DEBUG_VALUE: ADC_MultiModeDMAHalfConvCplt:hdma <- $r0
	.loc	7 1034 82 prologue_end  @ ../Drivers/STM32F7xx_HAL_Driver/Src/stm32f7xx_hal_adc_ex.c:1034:82
	ldr	r0, [r0, #56]
.Ltmp171:
	@DEBUG_VALUE: ADC_MultiModeDMAHalfConvCplt:hadc <- $r0
	.loc	7 1036 5                @ ../Drivers/STM32F7xx_HAL_Driver/Src/stm32f7xx_hal_adc_ex.c:1036:5
	b	HAL_ADC_ConvHalfCpltCallback
.Ltmp172:
.Lfunc_end8:
	.size	ADC_MultiModeDMAHalfConvCplt, .Lfunc_end8-ADC_MultiModeDMAHalfConvCplt
	.cfi_endproc
	.cantunwind
	.fnend
                                        @ -- End function
	.section	.text.ADC_MultiModeDMAError,"ax",%progbits
	.p2align	1               @ -- Begin function ADC_MultiModeDMAError
	.type	ADC_MultiModeDMAError,%function
	.code	16                      @ @ADC_MultiModeDMAError
	.thumb_func
ADC_MultiModeDMAError:
.Lfunc_begin9:
	.loc	7 1046 0                @ ../Drivers/STM32F7xx_HAL_Driver/Src/stm32f7xx_hal_adc_ex.c:1046:0
	.fnstart
	.cfi_startproc
@ %bb.0:
	@DEBUG_VALUE: ADC_MultiModeDMAError:hdma <- $r0
	@DEBUG_VALUE: ADC_MultiModeDMAError:hdma <- $r0
	.loc	7 1047 82 prologue_end  @ ../Drivers/STM32F7xx_HAL_Driver/Src/stm32f7xx_hal_adc_ex.c:1047:82
	ldr	r0, [r0, #56]
.Ltmp173:
	@DEBUG_VALUE: ADC_MultiModeDMAError:hadc <- $r0
	.loc	7 0 82 is_stmt 0        @ ../Drivers/STM32F7xx_HAL_Driver/Src/stm32f7xx_hal_adc_ex.c:0:82
	movs	r1, #64
	.loc	7 1048 16 is_stmt 1     @ ../Drivers/STM32F7xx_HAL_Driver/Src/stm32f7xx_hal_adc_ex.c:1048:16
	str	r1, [r0, #64]
	.loc	7 1050 21               @ ../Drivers/STM32F7xx_HAL_Driver/Src/stm32f7xx_hal_adc_ex.c:1050:21
	ldr	r1, [r0, #68]
	orr	r1, r1, #4
	str	r1, [r0, #68]
	.loc	7 1051 5                @ ../Drivers/STM32F7xx_HAL_Driver/Src/stm32f7xx_hal_adc_ex.c:1051:5
	b	HAL_ADC_ErrorCallback
.Ltmp174:
.Lfunc_end9:
	.size	ADC_MultiModeDMAError, .Lfunc_end9-ADC_MultiModeDMAError
	.cfi_endproc
	.cantunwind
	.fnend
                                        @ -- End function
	.section	.text.HAL_ADCEx_MultiModeStop_DMA,"ax",%progbits
	.hidden	HAL_ADCEx_MultiModeStop_DMA @ -- Begin function HAL_ADCEx_MultiModeStop_DMA
	.globl	HAL_ADCEx_MultiModeStop_DMA
	.p2align	2
	.type	HAL_ADCEx_MultiModeStop_DMA,%function
	.code	16                      @ @HAL_ADCEx_MultiModeStop_DMA
	.thumb_func
HAL_ADCEx_MultiModeStop_DMA:
.Lfunc_begin10:
	.loc	7 709 0                 @ ../Drivers/STM32F7xx_HAL_Driver/Src/stm32f7xx_hal_adc_ex.c:709:0
	.fnstart
	.cfi_startproc
@ %bb.0:
	.save	{r4, r5, r7, lr}
	push	{r4, r5, r7, lr}
	.cfi_def_cfa_offset 16
	.cfi_offset lr, -4
	.cfi_offset r7, -8
	.cfi_offset r5, -12
	.cfi_offset r4, -16
	@DEBUG_VALUE: HAL_ADCEx_MultiModeStop_DMA:hadc <- $r0
	mov	r4, r0
.Ltmp175:
	@DEBUG_VALUE: HAL_ADCEx_MultiModeStop_DMA:tmp_hal_status <- 0
	@DEBUG_VALUE: HAL_ADCEx_MultiModeStop_DMA:hadc <- $r4
	.loc	7 716 3 prologue_end    @ ../Drivers/STM32F7xx_HAL_Driver/Src/stm32f7xx_hal_adc_ex.c:716:3
	ldrb.w	r0, [r0, #60]
.Ltmp176:
	.loc	7 716 3 is_stmt 0       @ ../Drivers/STM32F7xx_HAL_Driver/Src/stm32f7xx_hal_adc_ex.c:716:3
	cmp	r0, #1
	itt	eq
	moveq	r0, #2
.Ltmp177:
	.loc	7 746 1 is_stmt 1       @ ../Drivers/STM32F7xx_HAL_Driver/Src/stm32f7xx_hal_adc_ex.c:746:1
	popeq	{r4, r5, r7, pc}
.Ltmp178:
	.loc	7 0 1 is_stmt 0         @ ../Drivers/STM32F7xx_HAL_Driver/Src/stm32f7xx_hal_adc_ex.c:0:1
	movs	r0, #1
	movs	r5, #0
.Ltmp179:
	.loc	7 716 3 is_stmt 1       @ ../Drivers/STM32F7xx_HAL_Driver/Src/stm32f7xx_hal_adc_ex.c:716:3
	strb.w	r0, [r4, #60]
.Ltmp180:
	.loc	7 720 3                 @ ../Drivers/STM32F7xx_HAL_Driver/Src/stm32f7xx_hal_adc_ex.c:720:3
	ldr	r0, [r4]
	ldr	r1, [r0, #8]
	bic	r1, r1, #1
	str	r1, [r0, #8]
.Ltmp181:
	.loc	7 723 6                 @ ../Drivers/STM32F7xx_HAL_Driver/Src/stm32f7xx_hal_adc_ex.c:723:6
	ldr	r0, [r0, #8]
.Ltmp182:
	.loc	7 723 6 is_stmt 0       @ ../Drivers/STM32F7xx_HAL_Driver/Src/stm32f7xx_hal_adc_ex.c:723:6
	tst.w	r0, #1
	mov.w	r0, #0
	bne	.LBB10_2
@ %bb.1:
.Ltmp183:
	.loc	7 726 14 is_stmt 1      @ ../Drivers/STM32F7xx_HAL_Driver/Src/stm32f7xx_hal_adc_ex.c:726:14
	ldr	r0, __arm_cp.10_0
	ldr	r1, [r0]
	bic	r1, r1, #8192
	str	r1, [r0]
	.loc	7 730 42                @ ../Drivers/STM32F7xx_HAL_Driver/Src/stm32f7xx_hal_adc_ex.c:730:42
	ldr	r0, [r4, #56]
	.loc	7 730 22 is_stmt 0      @ ../Drivers/STM32F7xx_HAL_Driver/Src/stm32f7xx_hal_adc_ex.c:730:22
	bl	HAL_DMA_Abort
	.loc	7 733 5 is_stmt 1       @ ../Drivers/STM32F7xx_HAL_Driver/Src/stm32f7xx_hal_adc_ex.c:733:5
	ldr	r1, [r4]
	ldr	r2, [r1, #4]
	bic	r2, r2, #67108864
	str	r2, [r1, #4]
	.loc	7 736 5                 @ ../Drivers/STM32F7xx_HAL_Driver/Src/stm32f7xx_hal_adc_ex.c:736:5
	movw	r2, #4353
	ldr	r1, [r4, #64]
	bics	r1, r2
	orr	r1, r1, #1
	str	r1, [r4, #64]
.Ltmp184:
.LBB10_2:
	.loc	7 742 3                 @ ../Drivers/STM32F7xx_HAL_Driver/Src/stm32f7xx_hal_adc_ex.c:742:3
	strb.w	r5, [r4, #60]
.Ltmp185:
	.loc	7 746 1                 @ ../Drivers/STM32F7xx_HAL_Driver/Src/stm32f7xx_hal_adc_ex.c:746:1
	pop	{r4, r5, r7, pc}
.Ltmp186:
	.p2align	2
@ %bb.3:
	.loc	7 0 1 is_stmt 0         @ ../Drivers/STM32F7xx_HAL_Driver/Src/stm32f7xx_hal_adc_ex.c:0:1
__arm_cp.10_0:
	.long	1073816324              @ 0x40012304
.Lcpi_end12:
	.size	__arm_cp.10_0, .Lcpi_end12-__arm_cp.10_0
.Lfunc_end10:
	.size	HAL_ADCEx_MultiModeStop_DMA, .Lfunc_end10-HAL_ADCEx_MultiModeStop_DMA
	.cfi_endproc
	.cantunwind
	.fnend
                                        @ -- End function
	.section	.text.HAL_ADCEx_MultiModeGetValue,"ax",%progbits
	.hidden	HAL_ADCEx_MultiModeGetValue @ -- Begin function HAL_ADCEx_MultiModeGetValue
	.globl	HAL_ADCEx_MultiModeGetValue
	.p2align	2
	.type	HAL_ADCEx_MultiModeGetValue,%function
	.code	16                      @ @HAL_ADCEx_MultiModeGetValue
	.thumb_func
HAL_ADCEx_MultiModeGetValue:
.Lfunc_begin11:
	.loc	7 756 0 is_stmt 1       @ ../Drivers/STM32F7xx_HAL_Driver/Src/stm32f7xx_hal_adc_ex.c:756:0
	.fnstart
	.cfi_startproc
@ %bb.0:
	@DEBUG_VALUE: HAL_ADCEx_MultiModeGetValue:hadc <- $r0
	.loc	7 758 15 prologue_end   @ ../Drivers/STM32F7xx_HAL_Driver/Src/stm32f7xx_hal_adc_ex.c:758:15
	ldr	r0, __arm_cp.11_0
.Ltmp187:
	ldr	r0, [r0]
	.loc	7 758 3 is_stmt 0       @ ../Drivers/STM32F7xx_HAL_Driver/Src/stm32f7xx_hal_adc_ex.c:758:3
	bx	lr
.Ltmp188:
	.p2align	2
@ %bb.1:
	.loc	7 0 3                   @ ../Drivers/STM32F7xx_HAL_Driver/Src/stm32f7xx_hal_adc_ex.c:0:3
__arm_cp.11_0:
	.long	1073816328              @ 0x40012308
.Lcpi_end13:
	.size	__arm_cp.11_0, .Lcpi_end13-__arm_cp.11_0
.Lfunc_end11:
	.size	HAL_ADCEx_MultiModeGetValue, .Lfunc_end11-HAL_ADCEx_MultiModeGetValue
	.cfi_endproc
	.cantunwind
	.fnend
                                        @ -- End function
	.section	.text.HAL_ADCEx_InjectedConvCpltCallback,"ax",%progbits
	.hidden	HAL_ADCEx_InjectedConvCpltCallback @ -- Begin function HAL_ADCEx_InjectedConvCpltCallback
	.weak	HAL_ADCEx_InjectedConvCpltCallback
	.p2align	1
	.type	HAL_ADCEx_InjectedConvCpltCallback,%function
	.code	16                      @ @HAL_ADCEx_InjectedConvCpltCallback
	.thumb_func
HAL_ADCEx_InjectedConvCpltCallback:
.Lfunc_begin12:
	.loc	7 768 0 is_stmt 1       @ ../Drivers/STM32F7xx_HAL_Driver/Src/stm32f7xx_hal_adc_ex.c:768:0
	.fnstart
	.cfi_startproc
@ %bb.0:
	@DEBUG_VALUE: HAL_ADCEx_InjectedConvCpltCallback:hadc <- $r0
	.loc	7 774 1 prologue_end    @ ../Drivers/STM32F7xx_HAL_Driver/Src/stm32f7xx_hal_adc_ex.c:774:1
	bx	lr
.Ltmp189:
.Lfunc_end12:
	.size	HAL_ADCEx_InjectedConvCpltCallback, .Lfunc_end12-HAL_ADCEx_InjectedConvCpltCallback
	.cfi_endproc
	.cantunwind
	.fnend
                                        @ -- End function
	.section	.text.HAL_ADCEx_InjectedConfigChannel,"ax",%progbits
	.hidden	HAL_ADCEx_InjectedConfigChannel @ -- Begin function HAL_ADCEx_InjectedConfigChannel
	.globl	HAL_ADCEx_InjectedConfigChannel
	.p2align	2
	.type	HAL_ADCEx_InjectedConfigChannel,%function
	.code	16                      @ @HAL_ADCEx_InjectedConfigChannel
	.thumb_func
HAL_ADCEx_InjectedConfigChannel:
.Lfunc_begin13:
	.loc	7 785 0                 @ ../Drivers/STM32F7xx_HAL_Driver/Src/stm32f7xx_hal_adc_ex.c:785:0
	.fnstart
	.cfi_startproc
@ %bb.0:
	@DEBUG_VALUE: HAL_ADCEx_InjectedConfigChannel:hadc <- $r0
	@DEBUG_VALUE: HAL_ADCEx_InjectedConfigChannel:hadc <- $r0
	@DEBUG_VALUE: HAL_ADCEx_InjectedConfigChannel:sConfigInjected <- $r1
	@DEBUG_VALUE: HAL_ADCEx_InjectedConfigChannel:sConfigInjected <- $r1
	.loc	7 811 3 prologue_end    @ ../Drivers/STM32F7xx_HAL_Driver/Src/stm32f7xx_hal_adc_ex.c:811:3
	ldrb.w	r2, [r0, #60]
.Ltmp190:
	.loc	7 811 3 is_stmt 0       @ ../Drivers/STM32F7xx_HAL_Driver/Src/stm32f7xx_hal_adc_ex.c:811:3
	cmp	r2, #1
	bne	.LBB13_2
.Ltmp191:
@ %bb.1:
	@DEBUG_VALUE: HAL_ADCEx_InjectedConfigChannel:sConfigInjected <- $r1
	@DEBUG_VALUE: HAL_ADCEx_InjectedConfigChannel:hadc <- $r0
	.loc	7 0 3                   @ ../Drivers/STM32F7xx_HAL_Driver/Src/stm32f7xx_hal_adc_ex.c:0:3
	movs	r1, #2
.Ltmp192:
	b	.LBB13_20
.LBB13_2:
.Ltmp193:
	@DEBUG_VALUE: HAL_ADCEx_InjectedConfigChannel:sConfigInjected <- $r1
	@DEBUG_VALUE: HAL_ADCEx_InjectedConfigChannel:hadc <- $r0
	.save	{r4, r5, r6, lr}
	push	{r4, r5, r6, lr}
	.cfi_def_cfa_offset 16
	.cfi_offset lr, -4
	.cfi_offset r6, -8
	.cfi_offset r5, -12
	.cfi_offset r4, -16
	movs	r2, #1
.Ltmp194:
	.loc	7 811 3                 @ ../Drivers/STM32F7xx_HAL_Driver/Src/stm32f7xx_hal_adc_ex.c:811:3
	strb.w	r2, [r0, #60]
.Ltmp195:
	.loc	7 814 24 is_stmt 1      @ ../Drivers/STM32F7xx_HAL_Driver/Src/stm32f7xx_hal_adc_ex.c:814:24
	ldr.w	r12, [r1]
	uxth.w	lr, r12
.Ltmp196:
	.loc	7 814 7 is_stmt 0       @ ../Drivers/STM32F7xx_HAL_Driver/Src/stm32f7xx_hal_adc_ex.c:814:7
	cmp.w	r12, #10
	lsl.w	r2, lr, #1
	uxtah	r2, r2, r12
	blo	.LBB13_4
.Ltmp197:
@ %bb.3:
	@DEBUG_VALUE: HAL_ADCEx_InjectedConfigChannel:sConfigInjected <- $r1
	@DEBUG_VALUE: HAL_ADCEx_InjectedConfigChannel:hadc <- $r0
	.loc	7 817 11 is_stmt 1      @ ../Drivers/STM32F7xx_HAL_Driver/Src/stm32f7xx_hal_adc_ex.c:817:11
	ldr	r3, [r0]
	.loc	7 817 31 is_stmt 0      @ ../Drivers/STM32F7xx_HAL_Driver/Src/stm32f7xx_hal_adc_ex.c:817:31
	subs	r2, #30
	.loc	7 817 21                @ ../Drivers/STM32F7xx_HAL_Driver/Src/stm32f7xx_hal_adc_ex.c:817:21
	add.w	r4, r3, #12
	b	.LBB13_5
.Ltmp198:
.LBB13_4:
	@DEBUG_VALUE: HAL_ADCEx_InjectedConfigChannel:sConfigInjected <- $r1
	@DEBUG_VALUE: HAL_ADCEx_InjectedConfigChannel:hadc <- $r0
	.loc	7 825 11 is_stmt 1      @ ../Drivers/STM32F7xx_HAL_Driver/Src/stm32f7xx_hal_adc_ex.c:825:11
	ldr	r3, [r0]
	.loc	7 825 21 is_stmt 0      @ ../Drivers/STM32F7xx_HAL_Driver/Src/stm32f7xx_hal_adc_ex.c:825:21
	add.w	r4, r3, #16
.Ltmp199:
.LBB13_5:
	@DEBUG_VALUE: HAL_ADCEx_InjectedConfigChannel:sConfigInjected <- $r1
	@DEBUG_VALUE: HAL_ADCEx_InjectedConfigChannel:hadc <- $r0
	.loc	7 0 21                  @ ../Drivers/STM32F7xx_HAL_Driver/Src/stm32f7xx_hal_adc_ex.c:0:21
	ldr	r6, [r4]
	movs	r5, #7
	lsls	r5, r2
	bic.w	r5, r6, r5
	str	r5, [r4]
	ldr	r5, [r1, #8]
	lsl.w	r2, r5, r2
	ldr	r5, [r4]
	orrs	r2, r5
	str	r2, [r4]
	.loc	7 833 28 is_stmt 1      @ ../Drivers/STM32F7xx_HAL_Driver/Src/stm32f7xx_hal_adc_ex.c:833:28
	ldr	r4, __arm_cp.13_0
	.loc	7 832 24                @ ../Drivers/STM32F7xx_HAL_Driver/Src/stm32f7xx_hal_adc_ex.c:832:24
	ldr	r2, [r3, #56]
	bic	r2, r2, #3145728
	str	r2, [r3, #56]
	.loc	7 833 28                @ ../Drivers/STM32F7xx_HAL_Driver/Src/stm32f7xx_hal_adc_ex.c:833:28
	ldr	r2, [r1, #16]
	.loc	7 833 24 is_stmt 0      @ ../Drivers/STM32F7xx_HAL_Driver/Src/stm32f7xx_hal_adc_ex.c:833:24
	ldr	r5, [r3, #56]
	.loc	7 833 28                @ ../Drivers/STM32F7xx_HAL_Driver/Src/stm32f7xx_hal_adc_ex.c:833:28
	add.w	r4, r4, r2, lsl #20
	.loc	7 838 28 is_stmt 1      @ ../Drivers/STM32F7xx_HAL_Driver/Src/stm32f7xx_hal_adc_ex.c:838:28
	rsb.w	r2, r2, #3
	.loc	7 833 24                @ ../Drivers/STM32F7xx_HAL_Driver/Src/stm32f7xx_hal_adc_ex.c:833:24
	orrs	r4, r5
	str	r4, [r3, #56]
	.loc	7 838 28                @ ../Drivers/STM32F7xx_HAL_Driver/Src/stm32f7xx_hal_adc_ex.c:838:28
	ldr	r5, [r1, #4]
	.loc	7 838 24 is_stmt 0      @ ../Drivers/STM32F7xx_HAL_Driver/Src/stm32f7xx_hal_adc_ex.c:838:24
	ldr	r6, [r3, #56]
	.loc	7 838 28                @ ../Drivers/STM32F7xx_HAL_Driver/Src/stm32f7xx_hal_adc_ex.c:838:28
	add	r2, r5
	uxtb	r4, r2
	lsls	r4, r4, #2
	uxtab	r2, r4, r2
	movs	r4, #31
	lsls	r4, r2
	.loc	7 841 27 is_stmt 1      @ ../Drivers/STM32F7xx_HAL_Driver/Src/stm32f7xx_hal_adc_ex.c:841:27
	lsl.w	r2, lr, r2
	.loc	7 838 24                @ ../Drivers/STM32F7xx_HAL_Driver/Src/stm32f7xx_hal_adc_ex.c:838:24
	bic.w	r4, r6, r4
	str	r4, [r3, #56]
	.loc	7 841 24                @ ../Drivers/STM32F7xx_HAL_Driver/Src/stm32f7xx_hal_adc_ex.c:841:24
	ldr	r6, [r3, #56]
	orrs	r2, r6
.Ltmp200:
	.loc	7 848 45                @ ../Drivers/STM32F7xx_HAL_Driver/Src/stm32f7xx_hal_adc_ex.c:848:45
	ldr	r6, __arm_cp.13_1
.Ltmp201:
	.loc	7 841 24                @ ../Drivers/STM32F7xx_HAL_Driver/Src/stm32f7xx_hal_adc_ex.c:841:24
	str	r2, [r3, #56]
.Ltmp202:
	.loc	7 848 23                @ ../Drivers/STM32F7xx_HAL_Driver/Src/stm32f7xx_hal_adc_ex.c:848:23
	ldr	r4, [r1, #28]
	ldr	r2, [r3, #8]
	bic	r2, r2, #983040
.Ltmp203:
	.loc	7 848 6 is_stmt 0       @ ../Drivers/STM32F7xx_HAL_Driver/Src/stm32f7xx_hal_adc_ex.c:848:6
	cmp	r4, r6
	str	r2, [r3, #8]
	ldr	r2, [r3, #8]
	bne	.LBB13_7
.Ltmp204:
@ %bb.6:
	@DEBUG_VALUE: HAL_ADCEx_InjectedConfigChannel:sConfigInjected <- $r1
	@DEBUG_VALUE: HAL_ADCEx_InjectedConfigChannel:hadc <- $r0
	.loc	7 862 25 is_stmt 1      @ ../Drivers/STM32F7xx_HAL_Driver/Src/stm32f7xx_hal_adc_ex.c:862:25
	bic	r4, r2, #3145728
	b	.LBB13_8
.Ltmp205:
.LBB13_7:
	@DEBUG_VALUE: HAL_ADCEx_InjectedConfigChannel:sConfigInjected <- $r1
	@DEBUG_VALUE: HAL_ADCEx_InjectedConfigChannel:hadc <- $r0
	.loc	7 852 25                @ ../Drivers/STM32F7xx_HAL_Driver/Src/stm32f7xx_hal_adc_ex.c:852:25
	orrs	r2, r4
	str	r2, [r3, #8]
	.loc	7 855 25                @ ../Drivers/STM32F7xx_HAL_Driver/Src/stm32f7xx_hal_adc_ex.c:855:25
	ldr	r2, [r3, #8]
	bic	r2, r2, #3145728
	str	r2, [r3, #8]
	.loc	7 856 45                @ ../Drivers/STM32F7xx_HAL_Driver/Src/stm32f7xx_hal_adc_ex.c:856:45
	ldr	r2, [r1, #32]
	.loc	7 856 25 is_stmt 0      @ ../Drivers/STM32F7xx_HAL_Driver/Src/stm32f7xx_hal_adc_ex.c:856:25
	ldr	r6, [r3, #8]
	orr.w	r4, r6, r2
.Ltmp206:
.LBB13_8:
	@DEBUG_VALUE: HAL_ADCEx_InjectedConfigChannel:sConfigInjected <- $r1
	@DEBUG_VALUE: HAL_ADCEx_InjectedConfigChannel:hadc <- $r0
	.loc	7 0 25                  @ ../Drivers/STM32F7xx_HAL_Driver/Src/stm32f7xx_hal_adc_ex.c:0:25
	str	r4, [r3, #8]
.Ltmp207:
	.loc	7 865 24 is_stmt 1      @ ../Drivers/STM32F7xx_HAL_Driver/Src/stm32f7xx_hal_adc_ex.c:865:24
	ldr	r2, [r1, #24]
	ldr	r6, [r3, #4]
.Ltmp208:
	.loc	7 868 25                @ ../Drivers/STM32F7xx_HAL_Driver/Src/stm32f7xx_hal_adc_ex.c:868:25
	orr	r4, r6, #1024
.Ltmp209:
	.loc	7 865 7                 @ ../Drivers/STM32F7xx_HAL_Driver/Src/stm32f7xx_hal_adc_ex.c:865:7
	cmp	r2, #0
	it	eq
	biceq	r4, r6, #1024
	str	r4, [r3, #4]
.Ltmp210:
	.loc	7 876 24                @ ../Drivers/STM32F7xx_HAL_Driver/Src/stm32f7xx_hal_adc_ex.c:876:24
	ldr	r2, [r1, #20]
	ldr	r6, [r3, #4]
.Ltmp211:
	.loc	7 879 25                @ ../Drivers/STM32F7xx_HAL_Driver/Src/stm32f7xx_hal_adc_ex.c:879:25
	orr	r4, r6, #4096
.Ltmp212:
	.loc	7 876 7                 @ ../Drivers/STM32F7xx_HAL_Driver/Src/stm32f7xx_hal_adc_ex.c:876:7
	cmp	r2, #0
	it	eq
	biceq	r4, r6, #4096
	.loc	7 887 3                 @ ../Drivers/STM32F7xx_HAL_Driver/Src/stm32f7xx_hal_adc_ex.c:887:3
	cmp	r5, #3
	str	r4, [r3, #4]
	beq	.LBB13_12
.Ltmp213:
@ %bb.9:
	@DEBUG_VALUE: HAL_ADCEx_InjectedConfigChannel:sConfigInjected <- $r1
	@DEBUG_VALUE: HAL_ADCEx_InjectedConfigChannel:hadc <- $r0
	cmp	r5, #2
	beq	.LBB13_11
.Ltmp214:
@ %bb.10:
	@DEBUG_VALUE: HAL_ADCEx_InjectedConfigChannel:sConfigInjected <- $r1
	@DEBUG_VALUE: HAL_ADCEx_InjectedConfigChannel:hadc <- $r0
	cmp	r5, #1
.Ltmp215:
	.loc	7 906 23                @ ../Drivers/STM32F7xx_HAL_Driver/Src/stm32f7xx_hal_adc_ex.c:906:23
	ite	ne
	addne.w	r2, r3, #32
	.loc	7 891 23                @ ../Drivers/STM32F7xx_HAL_Driver/Src/stm32f7xx_hal_adc_ex.c:891:23
	addeq.w	r2, r3, #20
	b	.LBB13_13
.Ltmp216:
.LBB13_11:
	@DEBUG_VALUE: HAL_ADCEx_InjectedConfigChannel:sConfigInjected <- $r1
	@DEBUG_VALUE: HAL_ADCEx_InjectedConfigChannel:hadc <- $r0
	.loc	7 896 23                @ ../Drivers/STM32F7xx_HAL_Driver/Src/stm32f7xx_hal_adc_ex.c:896:23
	add.w	r2, r3, #24
	b	.LBB13_13
.Ltmp217:
.LBB13_12:
	@DEBUG_VALUE: HAL_ADCEx_InjectedConfigChannel:sConfigInjected <- $r1
	@DEBUG_VALUE: HAL_ADCEx_InjectedConfigChannel:hadc <- $r0
	.loc	7 901 23                @ ../Drivers/STM32F7xx_HAL_Driver/Src/stm32f7xx_hal_adc_ex.c:901:23
	add.w	r2, r3, #28
.Ltmp218:
.LBB13_13:
	@DEBUG_VALUE: HAL_ADCEx_InjectedConfigChannel:sConfigInjected <- $r1
	@DEBUG_VALUE: HAL_ADCEx_InjectedConfigChannel:hadc <- $r0
	.loc	7 0 23 is_stmt 0        @ ../Drivers/STM32F7xx_HAL_Driver/Src/stm32f7xx_hal_adc_ex.c:0:23
	ldr	r6, [r2]
	movw	r5, #4095
	bics	r6, r5
	str	r6, [r2]
	ldr	r1, [r1, #12]
.Ltmp219:
	ldr	r6, [r2]
	orrs	r1, r6
	str	r1, [r2]
	ldr	r1, __arm_cp.13_2
.Ltmp220:
	.loc	7 912 23 is_stmt 1      @ ../Drivers/STM32F7xx_HAL_Driver/Src/stm32f7xx_hal_adc_ex.c:912:23
	sub.w	r2, r1, #772
	.loc	7 912 32 is_stmt 0      @ ../Drivers/STM32F7xx_HAL_Driver/Src/stm32f7xx_hal_adc_ex.c:912:32
	cmp	r3, r2
	pop.w	{r4, r5, r6, lr}
	bne	.LBB13_19
.Ltmp221:
@ %bb.14:
	@DEBUG_VALUE: HAL_ADCEx_InjectedConfigChannel:hadc <- $r0
	.loc	7 912 7                 @ ../Drivers/STM32F7xx_HAL_Driver/Src/stm32f7xx_hal_adc_ex.c:912:7
	cmp.w	r12, #17
	itt	ne
	ldrne	r2, __arm_cp.13_3
	cmpne	r12, r2
	bne	.LBB13_16
@ %bb.15:
	@DEBUG_VALUE: HAL_ADCEx_InjectedConfigChannel:hadc <- $r0
.Ltmp222:
	.loc	7 922 14 is_stmt 1      @ ../Drivers/STM32F7xx_HAL_Driver/Src/stm32f7xx_hal_adc_ex.c:922:14
	ldr	r2, [r1]
	orr	r2, r2, #8388608
	b	.LBB13_18
.Ltmp223:
.LBB13_16:
	@DEBUG_VALUE: HAL_ADCEx_InjectedConfigChannel:hadc <- $r0
	.loc	7 912 7                 @ ../Drivers/STM32F7xx_HAL_Driver/Src/stm32f7xx_hal_adc_ex.c:912:7
	cmp.w	r12, #18
	bne	.LBB13_19
@ %bb.17:
	@DEBUG_VALUE: HAL_ADCEx_InjectedConfigChannel:hadc <- $r0
.Ltmp224:
	.loc	7 915 14                @ ../Drivers/STM32F7xx_HAL_Driver/Src/stm32f7xx_hal_adc_ex.c:915:14
	ldr	r2, [r1]
	orr	r2, r2, #4194304
.Ltmp225:
.LBB13_18:
	@DEBUG_VALUE: HAL_ADCEx_InjectedConfigChannel:hadc <- $r0
	.loc	7 0 14 is_stmt 0        @ ../Drivers/STM32F7xx_HAL_Driver/Src/stm32f7xx_hal_adc_ex.c:0:14
	str	r2, [r1]
.LBB13_19:
	@DEBUG_VALUE: HAL_ADCEx_InjectedConfigChannel:hadc <- $r0
	movs	r1, #0
.Ltmp226:
	.loc	7 926 3 is_stmt 1       @ ../Drivers/STM32F7xx_HAL_Driver/Src/stm32f7xx_hal_adc_ex.c:926:3
	strb.w	r1, [r0, #60]
.Ltmp227:
.LBB13_20:
	@DEBUG_VALUE: HAL_ADCEx_InjectedConfigChannel:hadc <- $r0
	.loc	7 930 1                 @ ../Drivers/STM32F7xx_HAL_Driver/Src/stm32f7xx_hal_adc_ex.c:930:1
	uxtb	r0, r1
	bx	lr
.Ltmp228:
	.p2align	2
@ %bb.21:
	.loc	7 0 1 is_stmt 0         @ ../Drivers/STM32F7xx_HAL_Driver/Src/stm32f7xx_hal_adc_ex.c:0:1
__arm_cp.13_0:
	.long	4293918720              @ 0xfff00000
.Lcpi_end14:
	.size	__arm_cp.13_0, .Lcpi_end14-__arm_cp.13_0
__arm_cp.13_1:
	.long	983041                  @ 0xf0001
.Lcpi_end15:
	.size	__arm_cp.13_1, .Lcpi_end15-__arm_cp.13_1
__arm_cp.13_2:
	.long	1073816324              @ 0x40012304
.Lcpi_end16:
	.size	__arm_cp.13_2, .Lcpi_end16-__arm_cp.13_2
__arm_cp.13_3:
	.long	268435474               @ 0x10000012
.Lcpi_end17:
	.size	__arm_cp.13_3, .Lcpi_end17-__arm_cp.13_3
.Lfunc_end13:
	.size	HAL_ADCEx_InjectedConfigChannel, .Lfunc_end13-HAL_ADCEx_InjectedConfigChannel
	.cfi_endproc
	.cantunwind
	.fnend
                                        @ -- End function
	.section	.text.HAL_ADCEx_MultiModeConfigChannel,"ax",%progbits
	.hidden	HAL_ADCEx_MultiModeConfigChannel @ -- Begin function HAL_ADCEx_MultiModeConfigChannel
	.globl	HAL_ADCEx_MultiModeConfigChannel
	.p2align	2
	.type	HAL_ADCEx_MultiModeConfigChannel,%function
	.code	16                      @ @HAL_ADCEx_MultiModeConfigChannel
	.thumb_func
HAL_ADCEx_MultiModeConfigChannel:
.Lfunc_begin14:
	.loc	7 941 0 is_stmt 1       @ ../Drivers/STM32F7xx_HAL_Driver/Src/stm32f7xx_hal_adc_ex.c:941:0
	.fnstart
	.cfi_startproc
@ %bb.0:
	@DEBUG_VALUE: HAL_ADCEx_MultiModeConfigChannel:hadc <- $r0
	@DEBUG_VALUE: HAL_ADCEx_MultiModeConfigChannel:hadc <- $r0
	@DEBUG_VALUE: HAL_ADCEx_MultiModeConfigChannel:multimode <- $r1
	@DEBUG_VALUE: HAL_ADCEx_MultiModeConfigChannel:multimode <- $r1
	.loc	7 948 3 prologue_end    @ ../Drivers/STM32F7xx_HAL_Driver/Src/stm32f7xx_hal_adc_ex.c:948:3
	ldrb.w	r2, [r0, #60]
.Ltmp229:
	.loc	7 948 3 is_stmt 0       @ ../Drivers/STM32F7xx_HAL_Driver/Src/stm32f7xx_hal_adc_ex.c:948:3
	cmp	r2, #1
	bne	.LBB14_2
.Ltmp230:
@ %bb.1:
	@DEBUG_VALUE: HAL_ADCEx_MultiModeConfigChannel:multimode <- $r1
	@DEBUG_VALUE: HAL_ADCEx_MultiModeConfigChannel:hadc <- $r0
	.loc	7 0 3                   @ ../Drivers/STM32F7xx_HAL_Driver/Src/stm32f7xx_hal_adc_ex.c:0:3
	movs	r1, #2
.Ltmp231:
	b	.LBB14_3
.LBB14_2:
.Ltmp232:
	@DEBUG_VALUE: HAL_ADCEx_MultiModeConfigChannel:multimode <- $r1
	@DEBUG_VALUE: HAL_ADCEx_MultiModeConfigChannel:hadc <- $r0
	ldr	r2, __arm_cp.14_0
	.loc	7 951 12 is_stmt 1      @ ../Drivers/STM32F7xx_HAL_Driver/Src/stm32f7xx_hal_adc_ex.c:951:12
	ldr	r3, [r2]
	bic	r3, r3, #31
	str	r3, [r2]
	.loc	7 952 26                @ ../Drivers/STM32F7xx_HAL_Driver/Src/stm32f7xx_hal_adc_ex.c:952:26
	ldr.w	r12, [r1]
	.loc	7 952 12 is_stmt 0      @ ../Drivers/STM32F7xx_HAL_Driver/Src/stm32f7xx_hal_adc_ex.c:952:12
	ldr	r3, [r2]
	orr.w	r3, r3, r12
	str	r3, [r2]
	.loc	7 955 12 is_stmt 1      @ ../Drivers/STM32F7xx_HAL_Driver/Src/stm32f7xx_hal_adc_ex.c:955:12
	ldr	r3, [r2]
	bic	r3, r3, #49152
	str	r3, [r2]
	.loc	7 956 26                @ ../Drivers/STM32F7xx_HAL_Driver/Src/stm32f7xx_hal_adc_ex.c:956:26
	ldr.w	r12, [r1, #4]
	.loc	7 956 12 is_stmt 0      @ ../Drivers/STM32F7xx_HAL_Driver/Src/stm32f7xx_hal_adc_ex.c:956:12
	ldr	r3, [r2]
	orr.w	r3, r3, r12
	str	r3, [r2]
	.loc	7 959 12 is_stmt 1      @ ../Drivers/STM32F7xx_HAL_Driver/Src/stm32f7xx_hal_adc_ex.c:959:12
	ldr	r3, [r2]
	bic	r3, r3, #3840
	str	r3, [r2]
	.loc	7 960 26                @ ../Drivers/STM32F7xx_HAL_Driver/Src/stm32f7xx_hal_adc_ex.c:960:26
	ldr	r1, [r1, #8]
.Ltmp233:
	.loc	7 960 12 is_stmt 0      @ ../Drivers/STM32F7xx_HAL_Driver/Src/stm32f7xx_hal_adc_ex.c:960:12
	ldr	r3, [r2]
	orrs	r1, r3
	str	r1, [r2]
	movs	r1, #0
.Ltmp234:
	.loc	7 963 3 is_stmt 1       @ ../Drivers/STM32F7xx_HAL_Driver/Src/stm32f7xx_hal_adc_ex.c:963:3
	strb.w	r1, [r0, #60]
.Ltmp235:
.LBB14_3:
	@DEBUG_VALUE: HAL_ADCEx_MultiModeConfigChannel:hadc <- $r0
	.loc	7 967 1                 @ ../Drivers/STM32F7xx_HAL_Driver/Src/stm32f7xx_hal_adc_ex.c:967:1
	uxtb	r0, r1
	bx	lr
.Ltmp236:
	.p2align	2
@ %bb.4:
	.loc	7 0 1 is_stmt 0         @ ../Drivers/STM32F7xx_HAL_Driver/Src/stm32f7xx_hal_adc_ex.c:0:1
__arm_cp.14_0:
	.long	1073816324              @ 0x40012304
.Lcpi_end18:
	.size	__arm_cp.14_0, .Lcpi_end18-__arm_cp.14_0
.Lfunc_end14:
	.size	HAL_ADCEx_MultiModeConfigChannel, .Lfunc_end14-HAL_ADCEx_MultiModeConfigChannel
	.cfi_endproc
	.cantunwind
	.fnend
                                        @ -- End function
	.file	8 "../Drivers/STM32F7xx_HAL_Driver/Inc" "stm32f7xx_hal_adc_ex.h"
	.section	".note.GNU-stack","",%progbits
	.eabi_attribute	30, 4	@ Tag_ABI_optimization_goals
	.ARM_attribute	16, 1	@ Tag_AV_eba