	.text
	.syntax unified
	.eabi_attribute	67, "2.09"	@ Tag_conformance
	.cpu	cortex-m7
	.eabi_attribute	6, 13	@ Tag_CPU_arch
	.eabi_attribute	7, 77	@ Tag_CPU_arch_profile
	.eabi_attribute	8, 0	@ Tag_ARM_ISA_use
	.eabi_attribute	9, 2	@ Tag_THUMB_ISA_use
	.fpu	fpv5-sp-d16
	.eabi_attribute	27, 1	@ Tag_ABI_HardFP_use
	.eabi_attribute	36, 1	@ Tag_FP_HP_extension
	.eabi_attribute	34, 1	@ Tag_CPU_unaligned_access
	.eabi_attribute	17, 1	@ Tag_ABI_PCS_GOT_use
	.eabi_attribute	20, 2	@ Tag_ABI_FP_denormal
	.eabi_attribute	21, 0	@ Tag_ABI_FP_exceptions
	.eabi_attribute	23, 1	@ Tag_ABI_FP_number_model
	.eabi_attribute	24, 1	@ Tag_ABI_align_needed
	.eabi_attribute	25, 1	@ Tag_ABI_align_preserved
	.eabi_attribute	28, 1	@ Tag_ABI_VFP_args
	.eabi_attribute	38, 1	@ Tag_ABI_FP_16bit_format
	.eabi_attribute	18, 2	@ Tag_ABI_PCS_wchar_t
	.eabi_attribute	26, 1	@ Tag_ABI_enum_size
	.eabi_attribute	14, 0	@ Tag_ABI_PCS_R9_use
	.file	"stm32f7xx_hal_pwr_ex.c"
	.file	1 "../Drivers/STM32F7xx_HAL_Driver/Inc" "stm32f7xx_hal_def.h"
	.file	2 "../Drivers/CMSIS/Device/ST/STM32F7xx/Include" "stm32f7xx.h"
	.file	3 "C:\\Keil\\ARM\\ARMCLANG\\Bin\\..\\include" "stdint.h"
	.file	4 "../Drivers/CMSIS/Device/ST/STM32F7xx/Include" "stm32f746xx.h"
	.file	5 "C:/Keil/ARM/PACK/ARM/CMSIS/5.3.0/CMSIS/Include" "core_cm7.h"
	.section	.text.HAL_PWREx_EnableBkUpReg,"ax",%progbits
	.hidden	HAL_PWREx_EnableBkUpReg @ -- Begin function HAL_PWREx_EnableBkUpReg
	.globl	HAL_PWREx_EnableBkUpReg
	.p2align	2
	.type	HAL_PWREx_EnableBkUpReg,%function
	.code	16                      @ @HAL_PWREx_EnableBkUpReg
	.thumb_func
HAL_PWREx_EnableBkUpReg:
.Lfunc_begin0:
	.file	6 "../Drivers/STM32F7xx_HAL_Driver/Src" "stm32f7xx_hal_pwr_ex.c"
	.loc	6 152 0                 @ ../Drivers/STM32F7xx_HAL_Driver/Src/stm32f7xx_hal_pwr_ex.c:152:0
	.fnstart
	.cfi_sections .debug_frame
	.cfi_startproc
@ %bb.0:
	.save	{r4, r5, r7, lr}
	push	{r4, r5, r7, lr}
	.cfi_def_cfa_offset 16
	.cfi_offset lr, -4
	.cfi_offset r7, -8
	.cfi_offset r5, -12
	.cfi_offset r4, -16
	ldr	r5, __arm_cp.0_0
.Ltmp0:
	@DEBUG_VALUE: HAL_PWREx_EnableBkUpReg:tickstart <- 0
	.loc	6 156 13 prologue_end   @ ../Drivers/STM32F7xx_HAL_Driver/Src/stm32f7xx_hal_pwr_ex.c:156:13
	ldr	r0, [r5]
	orr	r0, r0, #512
	str	r0, [r5]
	.loc	6 160 13                @ ../Drivers/STM32F7xx_HAL_Driver/Src/stm32f7xx_hal_pwr_ex.c:160:13
	ldr	r0, [r5]
	orr	r0, r0, #256
	str	r0, [r5]
	.loc	6 163 15                @ ../Drivers/STM32F7xx_HAL_Driver/Src/stm32f7xx_hal_pwr_ex.c:163:15
	bl	HAL_GetTick
	mov	r4, r0
.Ltmp1:
	@DEBUG_VALUE: HAL_PWREx_EnableBkUpReg:tickstart <- $r4
.LBB0_1:                                @ =>This Inner Loop Header: Depth=1
	@DEBUG_VALUE: HAL_PWREx_EnableBkUpReg:tickstart <- $r4
	.loc	6 166 9                 @ ../Drivers/STM32F7xx_HAL_Driver/Src/stm32f7xx_hal_pwr_ex.c:166:9
	ldr	r0, [r5]
	.loc	6 166 3 is_stmt 0       @ ../Drivers/STM32F7xx_HAL_Driver/Src/stm32f7xx_hal_pwr_ex.c:166:3
	tst.w	r0, #8
	bne	.LBB0_4
.Ltmp2:
@ %bb.2:                                @   in Loop: Header=BB0_1 Depth=1
	@DEBUG_VALUE: HAL_PWREx_EnableBkUpReg:tickstart <- $r4
	.loc	6 168 9 is_stmt 1       @ ../Drivers/STM32F7xx_HAL_Driver/Src/stm32f7xx_hal_pwr_ex.c:168:9
	bl	HAL_GetTick
	.loc	6 168 23 is_stmt 0      @ ../Drivers/STM32F7xx_HAL_Driver/Src/stm32f7xx_hal_pwr_ex.c:168:23
	subs	r0, r0, r4
.Ltmp3:
	.loc	6 168 8                 @ ../Drivers/STM32F7xx_HAL_Driver/Src/stm32f7xx_hal_pwr_ex.c:168:8
	cmp.w	r0, #1000
	bls	.LBB0_1
.Ltmp4:
@ %bb.3:
	@DEBUG_VALUE: HAL_PWREx_EnableBkUpReg:tickstart <- $r4
	.loc	6 0 8                   @ ../Drivers/STM32F7xx_HAL_Driver/Src/stm32f7xx_hal_pwr_ex.c:0:8
	movs	r0, #3
	b	.LBB0_5
.Ltmp5:
.LBB0_4:
	@DEBUG_VALUE: HAL_PWREx_EnableBkUpReg:tickstart <- $r4
	movs	r0, #0
.Ltmp6:
.LBB0_5:
	@DEBUG_VALUE: HAL_PWREx_EnableBkUpReg:tickstart <- $r4
	.loc	6 174 1 is_stmt 1       @ ../Drivers/STM32F7xx_HAL_Driver/Src/stm32f7xx_hal_pwr_ex.c:174:1
	uxtb	r0, r0
	pop	{r4, r5, r7, pc}
.Ltmp7:
	.p2align	2
@ %bb.6:
	.loc	6 0 1 is_stmt 0         @ ../Drivers/STM32F7xx_HAL_Driver/Src/stm32f7xx_hal_pwr_ex.c:0:1
__arm_cp.0_0:
	.long	1073770500              @ 0x40007004
.Lcpi_end0:
	.size	__arm_cp.0_0, .Lcpi_end0-__arm_cp.0_0
.Lfunc_end0:
	.size	HAL_PWREx_EnableBkUpReg, .Lfunc_end0-HAL_PWREx_EnableBkUpReg
	.cfi_endproc
	.cantunwind
	.fnend
                                        @ -- End function
	.section	.text.HAL_PWREx_DisableBkUpReg,"ax",%progbits
	.hidden	HAL_PWREx_DisableBkUpReg @ -- Begin function HAL_PWREx_DisableBkUpReg
	.globl	HAL_PWREx_DisableBkUpReg
	.p2align	2
	.type	HAL_PWREx_DisableBkUpReg,%function
	.code	16                      @ @HAL_PWREx_DisableBkUpReg
	.thumb_func
HAL_PWREx_DisableBkUpReg:
.Lfunc_begin1:
	.loc	6 181 0 is_stmt 1       @ ../Drivers/STM32F7xx_HAL_Driver/Src/stm32f7xx_hal_pwr_ex.c:181:0
	.fnstart
	.cfi_startproc
@ %bb.0:
	.save	{r4, r5, r7, lr}
	push	{r4, r5, r7, lr}
	.cfi_def_cfa_offset 16
	.cfi_offset lr, -4
	.cfi_offset r7, -8
	.cfi_offset r5, -12
	.cfi_offset r4, -16
	ldr	r5, __arm_cp.1_0
.Ltmp8:
	@DEBUG_VALUE: HAL_PWREx_DisableBkUpReg:tickstart <- 0
	.loc	6 185 13 prologue_end   @ ../Drivers/STM32F7xx_HAL_Driver/Src/stm32f7xx_hal_pwr_ex.c:185:13
	ldr	r0, [r5]
	bic	r0, r0, #512
	str	r0, [r5]
	.loc	6 189 13                @ ../Drivers/STM32F7xx_HAL_Driver/Src/stm32f7xx_hal_pwr_ex.c:189:13
	ldr	r0, [r5]
	orr	r0, r0, #256
	str	r0, [r5]
	.loc	6 192 15                @ ../Drivers/STM32F7xx_HAL_Driver/Src/stm32f7xx_hal_pwr_ex.c:192:15
	bl	HAL_GetTick
	mov	r4, r0
.Ltmp9:
	@DEBUG_VALUE: HAL_PWREx_DisableBkUpReg:tickstart <- $r4
.LBB1_1:                                @ =>This Inner Loop Header: Depth=1
	@DEBUG_VALUE: HAL_PWREx_DisableBkUpReg:tickstart <- $r4
	.loc	6 195 9                 @ ../Drivers/STM32F7xx_HAL_Driver/Src/stm32f7xx_hal_pwr_ex.c:195:9
	ldr	r0, [r5]
	.loc	6 195 3 is_stmt 0       @ ../Drivers/STM32F7xx_HAL_Driver/Src/stm32f7xx_hal_pwr_ex.c:195:3
	tst.w	r0, #8
	beq	.LBB1_4
.Ltmp10:
@ %bb.2:                                @   in Loop: Header=BB1_1 Depth=1
	@DEBUG_VALUE: HAL_PWREx_DisableBkUpReg:tickstart <- $r4
	.loc	6 197 9 is_stmt 1       @ ../Drivers/STM32F7xx_HAL_Driver/Src/stm32f7xx_hal_pwr_ex.c:197:9
	bl	HAL_GetTick
	.loc	6 197 23 is_stmt 0      @ ../Drivers/STM32F7xx_HAL_Driver/Src/stm32f7xx_hal_pwr_ex.c:197:23
	subs	r0, r0, r4
.Ltmp11:
	.loc	6 197 8                 @ ../Drivers/STM32F7xx_HAL_Driver/Src/stm32f7xx_hal_pwr_ex.c:197:8
	cmp.w	r0, #1000
	bls	.LBB1_1
.Ltmp12:
@ %bb.3:
	@DEBUG_VALUE: HAL_PWREx_DisableBkUpReg:tickstart <- $r4
	.loc	6 0 8                   @ ../Drivers/STM32F7xx_HAL_Driver/Src/stm32f7xx_hal_pwr_ex.c:0:8
	movs	r0, #3
	b	.LBB1_5
.Ltmp13:
.LBB1_4:
	@DEBUG_VALUE: HAL_PWREx_DisableBkUpReg:tickstart <- $r4
	movs	r0, #0
.Ltmp14:
.LBB1_5:
	@DEBUG_VALUE: HAL_PWREx_DisableBkUpReg:tickstart <- $r4
	.loc	6 203 1 is_stmt 1       @ ../Drivers/STM32F7xx_HAL_Driver/Src/stm32f7xx_hal_pwr_ex.c:203:1
	uxtb	r0, r0
	pop	{r4, r5, r7, pc}
.Ltmp15:
	.p2align	2
@ %bb.6:
	.loc	6 0 1 is_stmt 0         @ ../Drivers/STM32F7xx_HAL_Driver/Src/stm32f7xx_hal_pwr_ex.c:0:1
__arm_cp.1_0:
	.long	1073770500              @ 0x40007004
.Lcpi_end1:
	.size	__arm_cp.1_0, .Lcpi_end1-__arm_cp.1_0
.Lfunc_end1:
	.size	HAL_PWREx_DisableBkUpReg, .Lfunc_end1-HAL_PWREx_DisableBkUpReg
	.cfi_endproc
	.cantunwind
	.fnend
                                        @ -- End function
	.section	.text.HAL_PWREx_EnableFlashPowerDown,"ax",%progbits
	.hidden	HAL_PWREx_EnableFlashPowerDown @ -- Begin function HAL_PWREx_EnableFlashPowerDown
	.globl	HAL_PWREx_EnableFlashPowerDown
	.p2align	2
	.type	HAL_PWREx_EnableFlashPowerDown,%function
	.code	16                      @ @HAL_PWREx_EnableFlashPowerDown
	.thumb_func
HAL_PWREx_EnableFlashPowerDown:
.Lfunc_begin2:
	.loc	6 210 0 is_stmt 1       @ ../Drivers/STM32F7xx_HAL_Driver/Src/stm32f7xx_hal_pwr_ex.c:210:0
	.fnstart
	.cfi_startproc
@ %bb.0:
	.loc	6 212 12 prologue_end   @ ../Drivers/STM32F7xx_HAL_Driver/Src/stm32f7xx_hal_pwr_ex.c:212:12
	ldr	r0, __arm_cp.2_0
	ldr	r1, [r0]
	orr	r1, r1, #512
	str	r1, [r0]
	.loc	6 213 1                 @ ../Drivers/STM32F7xx_HAL_Driver/Src/stm32f7xx_hal_pwr_ex.c:213:1
	bx	lr
.Ltmp16:
	.p2align	2
@ %bb.1:
	.loc	6 0 1 is_stmt 0         @ ../Drivers/STM32F7xx_HAL_Driver/Src/stm32f7xx_hal_pwr_ex.c:0:1
__arm_cp.2_0:
	.long	1073770496              @ 0x40007000
.Lcpi_end2:
	.size	__arm_cp.2_0, .Lcpi_end2-__arm_cp.2_0
.Lfunc_end2:
	.size	HAL_PWREx_EnableFlashPowerDown, .Lfunc_end2-HAL_PWREx_EnableFlashPowerDown
	.cfi_endproc
	.cantunwind
	.fnend
                                        @ -- End function
	.section	.text.HAL_PWREx_DisableFlashPowerDown,"ax",%progbits
	.hidden	HAL_PWREx_DisableFlashPowerDown @ -- Begin function HAL_PWREx_DisableFlashPowerDown
	.globl	HAL_PWREx_DisableFlashPowerDown
	.p2align	2
	.type	HAL_PWREx_DisableFlashPowerDown,%function
	.code	16                      @ @HAL_PWREx_DisableFlashPowerDown
	.thumb_func
HAL_PWREx_DisableFlashPowerDown:
.Lfunc_begin3:
	.loc	6 220 0 is_stmt 1       @ ../Drivers/STM32F7xx_HAL_Driver/Src/stm32f7xx_hal_pwr_ex.c:220:0
	.fnstart
	.cfi_startproc
@ %bb.0:
	.loc	6 222 12 prologue_end   @ ../Drivers/STM32F7xx_HAL_Driver/Src/stm32f7xx_hal_pwr_ex.c:222:12
	ldr	r0, __arm_cp.3_0
	ldr	r1, [r0]
	bic	r1, r1, #512
	str	r1, [r0]
	.loc	6 223 1                 @ ../Drivers/STM32F7xx_HAL_Driver/Src/stm32f7xx_hal_pwr_ex.c:223:1
	bx	lr
.Ltmp17:
	.p2align	2
@ %bb.1:
	.loc	6 0 1 is_stmt 0         @ ../Drivers/STM32F7xx_HAL_Driver/Src/stm32f7xx_hal_pwr_ex.c:0:1
__arm_cp.3_0:
	.long	1073770496              @ 0x40007000
.Lcpi_end3:
	.size	__arm_cp.3_0, .Lcpi_end3-__arm_cp.3_0
.Lfunc_end3:
	.size	HAL_PWREx_DisableFlashPowerDown, .Lfunc_end3-HAL_PWREx_DisableFlashPowerDown
	.cfi_endproc
	.cantunwind
	.fnend
                                        @ -- End function
	.section	.text.HAL_PWREx_EnableMainRegulatorLowVoltage,"ax",%progbits
	.hidden	HAL_PWREx_EnableMainRegulatorLowVoltage @ -- Begin function HAL_PWREx_EnableMainRegulatorLowVoltage
	.globl	HAL_PWREx_EnableMainRegulatorLowVoltage
	.p2align	2
	.type	HAL_PWREx_EnableMainRegulatorLowVoltage,%function
	.code	16                      @ @HAL_PWREx_EnableMainRegulatorLowVoltage
	.thumb_func
HAL_PWREx_EnableMainRegulatorLowVoltage:
.Lfunc_begin4:
	.loc	6 230 0 is_stmt 1       @ ../Drivers/STM32F7xx_HAL_Driver/Src/stm32f7xx_hal_pwr_ex.c:230:0
	.fnstart
	.cfi_startproc
@ %bb.0:
	.loc	6 232 12 prologue_end   @ ../Drivers/STM32F7xx_HAL_Driver/Src/stm32f7xx_hal_pwr_ex.c:232:12
	ldr	r0, __arm_cp.4_0
	ldr	r1, [r0]
	orr	r1, r1, #2048
	str	r1, [r0]
	.loc	6 233 1                 @ ../Drivers/STM32F7xx_HAL_Driver/Src/stm32f7xx_hal_pwr_ex.c:233:1
	bx	lr
.Ltmp18:
	.p2align	2
@ %bb.1:
	.loc	6 0 1 is_stmt 0         @ ../Drivers/STM32F7xx_HAL_Driver/Src/stm32f7xx_hal_pwr_ex.c:0:1
__arm_cp.4_0:
	.long	1073770496              @ 0x40007000
.Lcpi_end4:
	.size	__arm_cp.4_0, .Lcpi_end4-__arm_cp.4_0
.Lfunc_end4:
	.size	HAL_PWREx_EnableMainRegulatorLowVoltage, .Lfunc_end4-HAL_PWREx_EnableMainRegulatorLowVoltage
	.cfi_endproc
	.cantunwind
	.fnend
                                        @ -- End function
	.section	.text.HAL_PWREx_DisableMainRegulatorLowVoltage,"ax",%progbits
	.hidden	HAL_PWREx_DisableMainRegulatorLowVoltage @ -- Begin function HAL_PWREx_DisableMainRegulatorLowVoltage
	.globl	HAL_PWREx_DisableMainRegulatorLowVoltage
	.p2align	2
	.type	HAL_PWREx_DisableMainRegulatorLowVoltage,%function
	.code	16                      @ @HAL_PWREx_DisableMainRegulatorLowVoltage
	.thumb_func
HAL_PWREx_DisableMainRegulatorLowVoltage:
.Lfunc_begin5:
	.loc	6 240 0 is_stmt 1       @ ../Drivers/STM32F7xx_HAL_Driver/Src/stm32f7xx_hal_pwr_ex.c:240:0
	.fnstart
	.cfi_startproc
@ %bb.0:
	.loc	6 242 12 prologue_end   @ ../Drivers/STM32F7xx_HAL_Driver/Src/stm32f7xx_hal_pwr_ex.c:242:12
	ldr	r0, __arm_cp.5_0
	ldr	r1, [r0]
	bic	r1, r1, #2048
	str	r1, [r0]
	.loc	6 243 1                 @ ../Drivers/STM32F7xx_HAL_Driver/Src/stm32f7xx_hal_pwr_ex.c:243:1
	bx	lr
.Ltmp19:
	.p2align	2
@ %bb.1:
	.loc	6 0 1 is_stmt 0         @ ../Drivers/STM32F7xx_HAL_Driver/Src/stm32f7xx_hal_pwr_ex.c:0:1
__arm_cp.5_0:
	.long	1073770496              @ 0x40007000
.Lcpi_end5:
	.size	__arm_cp.5_0, .Lcpi_end5-__arm_cp.5_0
.Lfunc_end5:
	.size	HAL_PWREx_DisableMainRegulatorLowVoltage, .Lfunc_end5-HAL_PWREx_DisableMainRegulatorLowVoltage
	.cfi_endproc
	.cantunwind
	.fnend
                                        @ -- End function
	.section	.text.HAL_PWREx_EnableLowRegulatorLowVoltage,"ax",%progbits
	.hidden	HAL_PWREx_EnableLowRegulatorLowVoltage @ -- Begin function HAL_PWREx_EnableLowRegulatorLowVoltage
	.globl	HAL_PWREx_EnableLowRegulatorLowVoltage
	.p2align	2
	.type	HAL_PWREx_EnableLowRegulatorLowVoltage,%function
	.code	16                      @ @HAL_PWREx_EnableLowRegulatorLowVoltage
	.thumb_func
HAL_PWREx_EnableLowRegulatorLowVoltage:
.Lfunc_begin6:
	.loc	6 250 0 is_stmt 1       @ ../Drivers/STM32F7xx_HAL_Driver/Src/stm32f7xx_hal_pwr_ex.c:250:0
	.fnstart
	.cfi_startproc
@ %bb.0:
	.loc	6 252 12 prologue_end   @ ../Drivers/STM32F7xx_HAL_Driver/Src/stm32f7xx_hal_pwr_ex.c:252:12
	ldr	r0, __arm_cp.6_0
	ldr	r1, [r0]
	orr	r1, r1, #1024
	str	r1, [r0]
	.loc	6 253 1                 @ ../Drivers/STM32F7xx_HAL_Driver/Src/stm32f7xx_hal_pwr_ex.c:253:1
	bx	lr
.Ltmp20:
	.p2align	2
@ %bb.1:
	.loc	6 0 1 is_stmt 0         @ ../Drivers/STM32F7xx_HAL_Driver/Src/stm32f7xx_hal_pwr_ex.c:0:1
__arm_cp.6_0:
	.long	1073770496              @ 0x40007000
.Lcpi_end6:
	.size	__arm_cp.6_0, .Lcpi_end6-__arm_cp.6_0
.Lfunc_end6:
	.size	HAL_PWREx_EnableLowRegulatorLowVoltage, .Lfunc_end6-HAL_PWREx_EnableLowRegulatorLowVoltage
	.cfi_endproc
	.cantunwind
	.fnend
                                        @ -- End function
	.section	.text.HAL_PWREx_DisableLowRegulatorLowVoltage,"ax",%progbits
	.hidden	HAL_PWREx_DisableLowRegulatorLowVoltage @ -- Begin function HAL_PWREx_DisableLowRegulatorLowVoltage
	.globl	HAL_PWREx_DisableLowRegulatorLowVoltage
	.p2align	2
	.type	HAL_PWREx_DisableLowRegulatorLowVoltage,%function
	.code	16                      @ @HAL_PWREx_DisableLowRegulatorLowVoltage
	.thumb_func
HAL_PWREx_DisableLowRegulatorLowVoltage:
.Lfunc_begin7:
	.loc	6 260 0 is_stmt 1       @ ../Drivers/STM32F7xx_HAL_Driver/Src/stm32f7xx_hal_pwr_ex.c:260:0
	.fnstart
	.cfi_startproc
@ %bb.0:
	.loc	6 262 12 prologue_end   @ ../Drivers/STM32F7xx_HAL_Driver/Src/stm32f7xx_hal_pwr_ex.c:262:12
	ldr	r0, __arm_cp.7_0
	ldr	r1, [r0]
	bic	r1, r1, #1024
	str	r1, [r0]
	.loc	6 263 1                 @ ../Drivers/STM32F7xx_HAL_Driver/Src/stm32f7xx_hal_pwr_ex.c:263:1
	bx	lr
.Ltmp21:
	.p2align	2
@ %bb.1:
	.loc	6 0 1 is_stmt 0         @ ../Drivers/STM32F7xx_HAL_Driver/Src/stm32f7xx_hal_pwr_ex.c:0:1
__arm_cp.7_0:
	.long	1073770496              @ 0x40007000
.Lcpi_end7:
	.size	__arm_cp.7_0, .Lcpi_end7-__arm_cp.7_0
.Lfunc_end7:
	.size	HAL_PWREx_DisableLowRegulatorLowVoltage, .Lfunc_end7-HAL_PWREx_DisableLowRegulatorLowVoltage
	.cfi_endproc
	.cantunwind
	.fnend
                                        @ -- End function
	.section	.text.HAL_PWREx_EnableOverDrive,"ax",%progbits
	.hidden	HAL_PWREx_EnableOverDrive @ -- Begin function HAL_PWREx_EnableOverDrive
	.globl	HAL_PWREx_EnableOverDrive
	.p2align	2
	.type	HAL_PWREx_EnableOverDrive,%function
	.code	16                      @ @HAL_PWREx_EnableOverDrive
	.thumb_func
HAL_PWREx_EnableOverDrive:
.Lfunc_begin8:
	.loc	6 276 0 is_stmt 1       @ ../Drivers/STM32F7xx_HAL_Driver/Src/stm32f7xx_hal_pwr_ex.c:276:0
	.fnstart
	.cfi_startproc
@ %bb.0:
	.save	{r4, r5, r7, lr}
	.pad	#8
	push	{r2, r3, r4, r5, r7, lr}
	.cfi_def_cfa_offset 24
	.cfi_offset lr, -4
	.cfi_offset r7, -8
	.cfi_offset r5, -12
	.cfi_offset r4, -16
	ldr	r0, __arm_cp.8_0
.Ltmp22:
	@DEBUG_VALUE: HAL_PWREx_EnableOverDrive:tickstart <- 0
	ldr	r5, __arm_cp.8_1
.Ltmp23:
	.loc	6 279 3 prologue_end    @ ../Drivers/STM32F7xx_HAL_Driver/Src/stm32f7xx_hal_pwr_ex.c:279:3
	ldr	r1, [r0]
	orr	r1, r1, #268435456
	str	r1, [r0]
	ldr	r0, [r0]
	and	r0, r0, #268435456
.Ltmp24:
	@DEBUG_VALUE: tmpreg <- $r0
	str	r0, [sp, #4]
	ldr	r0, [sp, #4]
.Ltmp25:
	@DEBUG_VALUE: tmpreg <- $r0
	.loc	6 282 3                 @ ../Drivers/STM32F7xx_HAL_Driver/Src/stm32f7xx_hal_pwr_ex.c:282:3
	ldr	r0, [r5]
.Ltmp26:
	orr	r0, r0, #65536
	str	r0, [r5]
	.loc	6 285 15                @ ../Drivers/STM32F7xx_HAL_Driver/Src/stm32f7xx_hal_pwr_ex.c:285:15
	bl	HAL_GetTick
	mov	r4, r0
.Ltmp27:
	@DEBUG_VALUE: HAL_PWREx_EnableOverDrive:tickstart <- $r4
.LBB8_1:                                @ =>This Inner Loop Header: Depth=1
	@DEBUG_VALUE: HAL_PWREx_EnableOverDrive:tickstart <- $r4
	.loc	6 287 10                @ ../Drivers/STM32F7xx_HAL_Driver/Src/stm32f7xx_hal_pwr_ex.c:287:10
	ldr	r0, [r5, #4]
	.loc	6 287 3 is_stmt 0       @ ../Drivers/STM32F7xx_HAL_Driver/Src/stm32f7xx_hal_pwr_ex.c:287:3
	tst.w	r0, #65536
	bne	.LBB8_3
.Ltmp28:
@ %bb.2:                                @   in Loop: Header=BB8_1 Depth=1
	@DEBUG_VALUE: HAL_PWREx_EnableOverDrive:tickstart <- $r4
	.loc	6 289 9 is_stmt 1       @ ../Drivers/STM32F7xx_HAL_Driver/Src/stm32f7xx_hal_pwr_ex.c:289:9
	bl	HAL_GetTick
	.loc	6 289 23 is_stmt 0      @ ../Drivers/STM32F7xx_HAL_Driver/Src/stm32f7xx_hal_pwr_ex.c:289:23
	subs	r0, r0, r4
.Ltmp29:
	.loc	6 289 8                 @ ../Drivers/STM32F7xx_HAL_Driver/Src/stm32f7xx_hal_pwr_ex.c:289:8
	cmp.w	r0, #1000
	bls	.LBB8_1
	b	.LBB8_6
.Ltmp30:
.LBB8_3:
	@DEBUG_VALUE: HAL_PWREx_EnableOverDrive:tickstart <- $r4
	.loc	6 296 3 is_stmt 1       @ ../Drivers/STM32F7xx_HAL_Driver/Src/stm32f7xx_hal_pwr_ex.c:296:3
	ldr	r0, [r5]
	orr	r0, r0, #131072
	str	r0, [r5]
	.loc	6 299 15                @ ../Drivers/STM32F7xx_HAL_Driver/Src/stm32f7xx_hal_pwr_ex.c:299:15
	bl	HAL_GetTick
	mov	r4, r0
.Ltmp31:
	@DEBUG_VALUE: HAL_PWREx_EnableOverDrive:tickstart <- $r4
.LBB8_4:                                @ =>This Inner Loop Header: Depth=1
	@DEBUG_VALUE: HAL_PWREx_EnableOverDrive:tickstart <- $r4
	.loc	6 301 10                @ ../Drivers/STM32F7xx_HAL_Driver/Src/stm32f7xx_hal_pwr_ex.c:301:10
	ldr	r0, [r5, #4]
	.loc	6 301 3 is_stmt 0       @ ../Drivers/STM32F7xx_HAL_Driver/Src/stm32f7xx_hal_pwr_ex.c:301:3
	tst.w	r0, #131072
	bne	.LBB8_7
.Ltmp32:
@ %bb.5:                                @   in Loop: Header=BB8_4 Depth=1
	@DEBUG_VALUE: HAL_PWREx_EnableOverDrive:tickstart <- $r4
	.loc	6 303 9 is_stmt 1       @ ../Drivers/STM32F7xx_HAL_Driver/Src/stm32f7xx_hal_pwr_ex.c:303:9
	bl	HAL_GetTick
	.loc	6 303 23 is_stmt 0      @ ../Drivers/STM32F7xx_HAL_Driver/Src/stm32f7xx_hal_pwr_ex.c:303:23
	subs	r0, r0, r4
.Ltmp33:
	.loc	6 303 8                 @ ../Drivers/STM32F7xx_HAL_Driver/Src/stm32f7xx_hal_pwr_ex.c:303:8
	cmp.w	r0, #1000
	bls	.LBB8_4
.Ltmp34:
.LBB8_6:
	@DEBUG_VALUE: HAL_PWREx_EnableOverDrive:tickstart <- $r4
	.loc	6 0 8                   @ ../Drivers/STM32F7xx_HAL_Driver/Src/stm32f7xx_hal_pwr_ex.c:0:8
	movs	r0, #3
	b	.LBB8_8
.Ltmp35:
.LBB8_7:
	@DEBUG_VALUE: HAL_PWREx_EnableOverDrive:tickstart <- $r4
	movs	r0, #0
.Ltmp36:
.LBB8_8:
	@DEBUG_VALUE: HAL_PWREx_EnableOverDrive:tickstart <- $r4
	.loc	6 309 1 is_stmt 1       @ ../Drivers/STM32F7xx_HAL_Driver/Src/stm32f7xx_hal_pwr_ex.c:309:1
	uxtb	r0, r0
	add	sp, #8
	pop	{r4, r5, r7, pc}
.Ltmp37:
	.p2align	2
@ %bb.9:
	.loc	6 0 1 is_stmt 0         @ ../Drivers/STM32F7xx_HAL_Driver/Src/stm32f7xx_hal_pwr_ex.c:0:1
__arm_cp.8_0:
	.long	1073887296              @ 0x40023840
.Lcpi_end8:
	.size	__arm_cp.8_0, .Lcpi_end8-__arm_cp.8_0
__arm_cp.8_1:
	.long	1073770496              @ 0x40007000
.Lcpi_end9:
	.size	__arm_cp.8_1, .Lcpi_end9-__arm_cp.8_1
.Lfunc_end8:
	.size	HAL_PWREx_EnableOverDrive, .Lfunc_end8-HAL_PWREx_EnableOverDrive
	.cfi_endproc
	.cantunwind
	.fnend
                                        @ -- End function
	.section	.text.HAL_PWREx_DisableOverDrive,"ax",%progbits
	.hidden	HAL_PWREx_DisableOverDrive @ -- Begin function HAL_PWREx_DisableOverDrive
	.globl	HAL_PWREx_DisableOverDrive
	.p2align	2
	.type	HAL_PWREx_DisableOverDrive,%function
	.code	16                      @ @HAL_PWREx_DisableOverDrive
	.thumb_func
HAL_PWREx_DisableOverDrive:
.Lfunc_begin9:
	.loc	6 322 0 is_stmt 1       @ ../Drivers/STM32F7xx_HAL_Driver/Src/stm32f7xx_hal_pwr_ex.c:322:0
	.fnstart
	.cfi_startproc
@ %bb.0:
	.save	{r4, r5, r7, lr}
	.pad	#8
	push	{r2, r3, r4, r5, r7, lr}
	.cfi_def_cfa_offset 24
	.cfi_offset lr, -4
	.cfi_offset r7, -8
	.cfi_offset r5, -12
	.cfi_offset r4, -16
	ldr	r0, __arm_cp.9_0
.Ltmp38:
	@DEBUG_VALUE: HAL_PWREx_DisableOverDrive:tickstart <- 0
	ldr	r5, __arm_cp.9_1
.Ltmp39:
	.loc	6 325 3 prologue_end    @ ../Drivers/STM32F7xx_HAL_Driver/Src/stm32f7xx_hal_pwr_ex.c:325:3
	ldr	r1, [r0]
	orr	r1, r1, #268435456
	str	r1, [r0]
	ldr	r0, [r0]
	and	r0, r0, #268435456
.Ltmp40:
	@DEBUG_VALUE: tmpreg <- $r0
	str	r0, [sp, #4]
	ldr	r0, [sp, #4]
.Ltmp41:
	@DEBUG_VALUE: tmpreg <- $r0
	.loc	6 328 3                 @ ../Drivers/STM32F7xx_HAL_Driver/Src/stm32f7xx_hal_pwr_ex.c:328:3
	ldr	r0, [r5]
.Ltmp42:
	bic	r0, r0, #131072
	str	r0, [r5]
	.loc	6 331 15                @ ../Drivers/STM32F7xx_HAL_Driver/Src/stm32f7xx_hal_pwr_ex.c:331:15
	bl	HAL_GetTick
	mov	r4, r0
.Ltmp43:
	@DEBUG_VALUE: HAL_PWREx_DisableOverDrive:tickstart <- $r4
.LBB9_1:                                @ =>This Inner Loop Header: Depth=1
	@DEBUG_VALUE: HAL_PWREx_DisableOverDrive:tickstart <- $r4
	.loc	6 333 9                 @ ../Drivers/STM32F7xx_HAL_Driver/Src/stm32f7xx_hal_pwr_ex.c:333:9
	ldr	r0, [r5, #4]
	.loc	6 333 3 is_stmt 0       @ ../Drivers/STM32F7xx_HAL_Driver/Src/stm32f7xx_hal_pwr_ex.c:333:3
	tst.w	r0, #131072
	beq	.LBB9_3
.Ltmp44:
@ %bb.2:                                @   in Loop: Header=BB9_1 Depth=1
	@DEBUG_VALUE: HAL_PWREx_DisableOverDrive:tickstart <- $r4
	.loc	6 335 9 is_stmt 1       @ ../Drivers/STM32F7xx_HAL_Driver/Src/stm32f7xx_hal_pwr_ex.c:335:9
	bl	HAL_GetTick
	.loc	6 335 23 is_stmt 0      @ ../Drivers/STM32F7xx_HAL_Driver/Src/stm32f7xx_hal_pwr_ex.c:335:23
	subs	r0, r0, r4
.Ltmp45:
	.loc	6 335 8                 @ ../Drivers/STM32F7xx_HAL_Driver/Src/stm32f7xx_hal_pwr_ex.c:335:8
	cmp.w	r0, #1000
	bls	.LBB9_1
	b	.LBB9_6
.Ltmp46:
.LBB9_3:
	@DEBUG_VALUE: HAL_PWREx_DisableOverDrive:tickstart <- $r4
	.loc	6 342 3 is_stmt 1       @ ../Drivers/STM32F7xx_HAL_Driver/Src/stm32f7xx_hal_pwr_ex.c:342:3
	ldr	r0, [r5]
	bic	r0, r0, #65536
	str	r0, [r5]
	.loc	6 345 15                @ ../Drivers/STM32F7xx_HAL_Driver/Src/stm32f7xx_hal_pwr_ex.c:345:15
	bl	HAL_GetTick
	mov	r4, r0
.Ltmp47:
	@DEBUG_VALUE: HAL_PWREx_DisableOverDrive:tickstart <- $r4
.LBB9_4:                                @ =>This Inner Loop Header: Depth=1
	@DEBUG_VALUE: HAL_PWREx_DisableOverDrive:tickstart <- $r4
	.loc	6 347 9                 @ ../Drivers/STM32F7xx_HAL_Driver/Src/stm32f7xx_hal_pwr_ex.c:347:9
	ldr	r0, [r5, #4]
	.loc	6 347 3 is_stmt 0       @ ../Drivers/STM32F7xx_HAL_Driver/Src/stm32f7xx_hal_pwr_ex.c:347:3
	tst.w	r0, #65536
	beq	.LBB9_7
.Ltmp48:
@ %bb.5:                                @   in Loop: Header=BB9_4 Depth=1
	@DEBUG_VALUE: HAL_PWREx_DisableOverDrive:tickstart <- $r4
	.loc	6 349 9 is_stmt 1       @ ../Drivers/STM32F7xx_HAL_Driver/Src/stm32f7xx_hal_pwr_ex.c:349:9
	bl	HAL_GetTick
	.loc	6 349 23 is_stmt 0      @ ../Drivers/STM32F7xx_HAL_Driver/Src/stm32f7xx_hal_pwr_ex.c:349:23
	subs	r0, r0, r4
.Ltmp49:
	.loc	6 349 8                 @ ../Drivers/STM32F7xx_HAL_Driver/Src/stm32f7xx_hal_pwr_ex.c:349:8
	cmp.w	r0, #1000
	bls	.LBB9_4
.Ltmp50:
.LBB9_6:
	@DEBUG_VALUE: HAL_PWREx_DisableOverDrive:tickstart <- $r4
	.loc	6 0 8                   @ ../Drivers/STM32F7xx_HAL_Driver/Src/stm32f7xx_hal_pwr_ex.c:0:8
	movs	r0, #3
	b	.LBB9_8
.Ltmp51:
.LBB9_7:
	@DEBUG_VALUE: HAL_PWREx_DisableOverDrive:tickstart <- $r4
	movs	r0, #0
.Ltmp52:
.LBB9_8:
	@DEBUG_VALUE: HAL_PWREx_DisableOverDrive:tickstart <- $r4
	.loc	6 356 1 is_stmt 1       @ ../Drivers/STM32F7xx_HAL_Driver/Src/stm32f7xx_hal_pwr_ex.c:356:1
	uxtb	r0, r0
	add	sp, #8
	pop	{r4, r5, r7, pc}
.Ltmp53:
	.p2align	2
@ %bb.9:
	.loc	6 0 1 is_stmt 0         @ ../Drivers/STM32F7xx_HAL_Driver/Src/stm32f7xx_hal_pwr_ex.c:0:1
__arm_cp.9_0:
	.long	1073887296              @ 0x40023840
.Lcpi_end10:
	.size	__arm_cp.9_0, .Lcpi_end10-__arm_cp.9_0
__arm_cp.9_1:
	.long	1073770496              @ 0x40007000
.Lcpi_end11:
	.size	__arm_cp.9_1, .Lcpi_end11-__arm_cp.9_1
.Lfunc_end9:
	.size	HAL_PWREx_DisableOverDrive, .Lfunc_end9-HAL_PWREx_DisableOverDrive
	.cfi_endproc
	.cantunwind
	.fnend
                                        @ -- End function
	.section	.text.HAL_PWREx_EnterUnderDriveSTOPMode,"ax",%progbits
	.hidden	HAL_PWREx_EnterUnderDriveSTOPMode @ -- Begin function HAL_PWREx_EnterUnderDriveSTOPMode
	.globl	HAL_PWREx_EnterUnderDriveSTOPMode
	.p2align	2
	.type	HAL_PWREx_EnterUnderDriveSTOPMode,%function
	.code	16                      @ @HAL_PWREx_EnterUnderDriveSTOPMode
	.thumb_func
HAL_PWREx_EnterUnderDriveSTOPMode:
.Lfunc_begin10:
	.loc	6 396 0 is_stmt 1       @ ../Drivers/STM32F7xx_HAL_Driver/Src/stm32f7xx_hal_pwr_ex.c:396:0
	.fnstart
	.cfi_startproc
@ %bb.0:
	.save	{r4, r5, r6, r7, lr}
	.pad	#4
	push	{r3, r4, r5, r6, r7, lr}
	.cfi_def_cfa_offset 24
	.cfi_offset lr, -4
	.cfi_offset r7, -8
	.cfi_offset r6, -12
	.cfi_offset r5, -16
	.cfi_offset r4, -20
	@DEBUG_VALUE: HAL_PWREx_EnterUnderDriveSTOPMode:Regulator <- $r0
	@DEBUG_VALUE: HAL_PWREx_EnterUnderDriveSTOPMode:STOPEntry <- $r1
	mov	r5, r0
	ldr	r0, __arm_cp.10_0
.Ltmp54:
	@DEBUG_VALUE: HAL_PWREx_EnterUnderDriveSTOPMode:tickstart <- 0
	@DEBUG_VALUE: HAL_PWREx_EnterUnderDriveSTOPMode:tempreg <- 0
	@DEBUG_VALUE: HAL_PWREx_EnterUnderDriveSTOPMode:STOPEntry <- $r4
	@DEBUG_VALUE: HAL_PWREx_EnterUnderDriveSTOPMode:Regulator <- $r5
	mov	r4, r1
.Ltmp55:
	ldr	r7, __arm_cp.10_1
.Ltmp56:
	.loc	6 405 3 prologue_end    @ ../Drivers/STM32F7xx_HAL_Driver/Src/stm32f7xx_hal_pwr_ex.c:405:3
	ldr	r1, [r0]
	orr	r1, r1, #268435456
	str	r1, [r0]
	ldr	r0, [r0]
	and	r0, r0, #268435456
.Ltmp57:
	@DEBUG_VALUE: tmpreg <- $r0
	str	r0, [sp]
	ldr	r0, [sp]
.Ltmp58:
	@DEBUG_VALUE: tmpreg <- $r0
	.loc	6 408 3                 @ ../Drivers/STM32F7xx_HAL_Driver/Src/stm32f7xx_hal_pwr_ex.c:408:3
	ldr	r0, [r7, #4]
.Ltmp59:
	orr	r0, r0, #786432
	str	r0, [r7, #4]
	.loc	6 411 3                 @ ../Drivers/STM32F7xx_HAL_Driver/Src/stm32f7xx_hal_pwr_ex.c:411:3
	ldr	r0, [r7]
	orr	r0, r0, #786432
	str	r0, [r7]
.Ltmp60:
	@DEBUG_VALUE: HAL_PWREx_EnterUnderDriveSTOPMode:STOPEntry <- undef
	.loc	6 414 15                @ ../Drivers/STM32F7xx_HAL_Driver/Src/stm32f7xx_hal_pwr_ex.c:414:15
	bl	HAL_GetTick
	mov	r6, r0
.Ltmp61:
	@DEBUG_VALUE: HAL_PWREx_EnterUnderDriveSTOPMode:tickstart <- $r6
.LBB10_1:                               @ =>This Inner Loop Header: Depth=1
	@DEBUG_VALUE: HAL_PWREx_EnterUnderDriveSTOPMode:tickstart <- $r6
	@DEBUG_VALUE: HAL_PWREx_EnterUnderDriveSTOPMode:Regulator <- $r5
	.loc	6 417 9                 @ ../Drivers/STM32F7xx_HAL_Driver/Src/stm32f7xx_hal_pwr_ex.c:417:9
	ldr	r0, [r7, #4]
	and	r0, r0, #786432
	.loc	6 417 3 is_stmt 0       @ ../Drivers/STM32F7xx_HAL_Driver/Src/stm32f7xx_hal_pwr_ex.c:417:3
	cmp.w	r0, #786432
	bne	.LBB10_4
.Ltmp62:
@ %bb.2:                                @   in Loop: Header=BB10_1 Depth=1
	@DEBUG_VALUE: HAL_PWREx_EnterUnderDriveSTOPMode:tickstart <- $r6
	@DEBUG_VALUE: HAL_PWREx_EnterUnderDriveSTOPMode:Regulator <- $r5
	.loc	6 419 9 is_stmt 1       @ ../Drivers/STM32F7xx_HAL_Driver/Src/stm32f7xx_hal_pwr_ex.c:419:9
	bl	HAL_GetTick
	.loc	6 419 23 is_stmt 0      @ ../Drivers/STM32F7xx_HAL_Driver/Src/stm32f7xx_hal_pwr_ex.c:419:23
	subs	r0, r0, r6
.Ltmp63:
	.loc	6 419 8                 @ ../Drivers/STM32F7xx_HAL_Driver/Src/stm32f7xx_hal_pwr_ex.c:419:8
	cmp.w	r0, #1000
	bls	.LBB10_1
.Ltmp64:
@ %bb.3:
	@DEBUG_VALUE: HAL_PWREx_EnterUnderDriveSTOPMode:tickstart <- $r6
	@DEBUG_VALUE: HAL_PWREx_EnterUnderDriveSTOPMode:Regulator <- $r5
	.loc	6 0 8                   @ ../Drivers/STM32F7xx_HAL_Driver/Src/stm32f7xx_hal_pwr_ex.c:0:8
	movs	r0, #3
	b	.LBB10_5
.Ltmp65:
.LBB10_4:
	@DEBUG_VALUE: HAL_PWREx_EnterUnderDriveSTOPMode:tickstart <- $r6
	@DEBUG_VALUE: HAL_PWREx_EnterUnderDriveSTOPMode:Regulator <- $r5
	.loc	6 426 18 is_stmt 1      @ ../Drivers/STM32F7xx_HAL_Driver/Src/stm32f7xx_hal_pwr_ex.c:426:18
	ldr	r0, [r7]
.Ltmp66:
	@DEBUG_VALUE: HAL_PWREx_EnterUnderDriveSTOPMode:tempreg <- $r0
	.loc	6 428 11                @ ../Drivers/STM32F7xx_HAL_Driver/Src/stm32f7xx_hal_pwr_ex.c:428:11
	movw	r1, #3075
	.loc	6 440 6                 @ ../Drivers/STM32F7xx_HAL_Driver/Src/stm32f7xx_hal_pwr_ex.c:440:6
	cmp	r4, #1
	.loc	6 428 11                @ ../Drivers/STM32F7xx_HAL_Driver/Src/stm32f7xx_hal_pwr_ex.c:428:11
	bic.w	r0, r0, r1
.Ltmp67:
	@DEBUG_VALUE: HAL_PWREx_EnterUnderDriveSTOPMode:tempreg <- $r0
	.loc	6 431 11                @ ../Drivers/STM32F7xx_HAL_Driver/Src/stm32f7xx_hal_pwr_ex.c:431:11
	orr.w	r0, r0, r5
.Ltmp68:
	@DEBUG_VALUE: HAL_PWREx_EnterUnderDriveSTOPMode:tempreg <- $r0
	.loc	6 434 12                @ ../Drivers/STM32F7xx_HAL_Driver/Src/stm32f7xx_hal_pwr_ex.c:434:12
	str	r0, [r7]
	ldr	r0, __arm_cp.10_2
.Ltmp69:
	.loc	6 437 12                @ ../Drivers/STM32F7xx_HAL_Driver/Src/stm32f7xx_hal_pwr_ex.c:437:12
	ldr	r1, [r0]
	orr	r1, r1, #4
	str	r1, [r0]
.Ltmp70:
	.loc	6 448 5                 @ ../Drivers/STM32F7xx_HAL_Driver/Src/stm32f7xx_hal_pwr_ex.c:448:5
	ite	ne
	wfene
.Ltmp71:
	.loc	6 443 5                 @ ../Drivers/STM32F7xx_HAL_Driver/Src/stm32f7xx_hal_pwr_ex.c:443:5
	wfieq
.Ltmp72:
	.loc	6 451 12                @ ../Drivers/STM32F7xx_HAL_Driver/Src/stm32f7xx_hal_pwr_ex.c:451:12
	ldr	r1, [r0]
	bic	r1, r1, #4
	str	r1, [r0]
	movs	r0, #0
.Ltmp73:
.LBB10_5:
	@DEBUG_VALUE: HAL_PWREx_EnterUnderDriveSTOPMode:tickstart <- $r6
	@DEBUG_VALUE: HAL_PWREx_EnterUnderDriveSTOPMode:Regulator <- $r5
	.loc	6 454 1                 @ ../Drivers/STM32F7xx_HAL_Driver/Src/stm32f7xx_hal_pwr_ex.c:454:1
	uxtb	r0, r0
	add	sp, #4
	pop	{r4, r5, r6, r7, pc}
.Ltmp74:
	.p2align	2
@ %bb.6:
	.loc	6 0 1 is_stmt 0         @ ../Drivers/STM32F7xx_HAL_Driver/Src/stm32f7xx_hal_pwr_ex.c:0:1
__arm_cp.10_0:
	.long	1073887296              @ 0x40023840
.Lcpi_end12:
	.size	__arm_cp.10_0, .Lcpi_end12-__arm_cp.10_0
__arm_cp.10_1:
	.long	1073770496              @ 0x40007000
.Lcpi_end13:
	.size	__arm_cp.10_1, .Lcpi_end13-__arm_cp.10_1
__arm_cp.10_2:
	.long	3758157072              @ 0xe000ed10
.Lcpi_end14:
	.size	__arm_cp.10_2, .Lcpi_end14-__arm_cp.10_2
.Lfunc_end10:
	.size	HAL_PWREx_EnterUnderDriveSTOPMode, .Lfunc_end10-HAL_PWREx_EnterUnderDriveSTOPMode
	.cfi_endproc
	.cantunwind
	.fnend
                                        @ -- End function
	.section	.text.HAL_PWREx_GetVoltageRange,"ax",%progbits
	.hidden	HAL_PWREx_GetVoltageRange @ -- Begin function HAL_PWREx_GetVoltageRange
	.globl	HAL_PWREx_GetVoltageRange
	.p2align	2
	.type	HAL_PWREx_GetVoltageRange,%function
	.code	16                      @ @HAL_PWREx_GetVoltageRange
	.thumb_func
HAL_PWREx_GetVoltageRange:
.Lfunc_begin11:
	.loc	6 462 0 is_stmt 1       @ ../Drivers/STM32F7xx_HAL_Driver/Src/stm32f7xx_hal_pwr_ex.c:462:0
	.fnstart
	.cfi_startproc
@ %bb.0:
	.loc	6 463 17 prologue_end   @ ../Drivers/STM32F7xx_HAL_Driver/Src/stm32f7xx_hal_pwr_ex.c:463:17
	ldr	r0, __arm_cp.11_0
	ldr	r0, [r0]
	.loc	6 463 21 is_stmt 0      @ ../Drivers/STM32F7xx_HAL_Driver/Src/stm32f7xx_hal_pwr_ex.c:463:21
	and	r0, r0, #49152
	.loc	6 463 3                 @ ../Drivers/STM32F7xx_HAL_Driver/Src/stm32f7xx_hal_pwr_ex.c:463:3
	bx	lr
.Ltmp75:
	.p2align	2
@ %bb.1:
	.loc	6 0 3                   @ ../Drivers/STM32F7xx_HAL_Driver/Src/stm32f7xx_hal_pwr_ex.c:0:3
__arm_cp.11_0:
	.long	1073770496              @ 0x40007000
.Lcpi_end15:
	.size	__arm_cp.11_0, .Lcpi_end15-__arm_cp.11_0
.Lfunc_end11:
	.size	HAL_PWREx_GetVoltageRange, .Lfunc_end11-HAL_PWREx_GetVoltageRange
	.cfi_endproc
	.cantunwind
	.fnend
                                        @ -- End function
	.section	.text.HAL_PWREx_ControlVoltageScaling,"ax",%progbits
	.hidden	HAL_PWREx_ControlVoltageScaling @ -- Begin function HAL_PWREx_ControlVoltageScaling
	.globl	HAL_PWREx_ControlVoltageScaling
	.p2align	2
	.type	HAL_PWREx_ControlVoltageScaling,%function
	.code	16                      @ @HAL_PWREx_ControlVoltageScaling
	.thumb_func
HAL_PWREx_ControlVoltageScaling:
.Lfunc_begin12:
	.loc	6 494 0 is_stmt 1       @ ../Drivers/STM32F7xx_HAL_Driver/Src/stm32f7xx_hal_pwr_ex.c:494:0
	.fnstart
	.cfi_startproc
@ %bb.0:
	.save	{r4, r5, r6, r7, r8, lr}
	.pad	#8
	push.w	{r2, r3, r4, r5, r6, r7, r8, lr}
	.cfi_def_cfa_offset 32
	.cfi_offset lr, -4
	.cfi_offset r8, -8
	.cfi_offset r7, -12
	.cfi_offset r6, -16
	.cfi_offset r5, -20
	.cfi_offset r4, -24
	@DEBUG_VALUE: HAL_PWREx_ControlVoltageScaling:VoltageScaling <- $r0
	mov	r4, r0
	ldr	r0, __arm_cp.12_0
.Ltmp76:
	@DEBUG_VALUE: HAL_PWREx_ControlVoltageScaling:tickstart <- 0
	@DEBUG_VALUE: HAL_PWREx_ControlVoltageScaling:VoltageScaling <- $r4
	.loc	6 500 3 prologue_end    @ ../Drivers/STM32F7xx_HAL_Driver/Src/stm32f7xx_hal_pwr_ex.c:500:3
	ldr	r1, [r0]
	orr	r1, r1, #268435456
	str	r1, [r0]
	ldr	r1, [r0]
	and	r1, r1, #268435456
.Ltmp77:
	@DEBUG_VALUE: tmpreg <- $r1
	str	r1, [sp, #4]
	ldr	r1, [sp, #4]
.Ltmp78:
	@DEBUG_VALUE: tmpreg <- $r1
	.loc	6 503 6                 @ ../Drivers/STM32F7xx_HAL_Driver/Src/stm32f7xx_hal_pwr_ex.c:503:6
	ldr	r0, [r0, #-56]
	and	r0, r0, #12
.Ltmp79:
	.loc	6 503 6 is_stmt 0       @ ../Drivers/STM32F7xx_HAL_Driver/Src/stm32f7xx_hal_pwr_ex.c:503:6
	cmp	r0, #8
	bne	.LBB12_2
.Ltmp80:
@ %bb.1:
	@DEBUG_VALUE: HAL_PWREx_ControlVoltageScaling:VoltageScaling <- $r4
	.loc	6 0 6                   @ ../Drivers/STM32F7xx_HAL_Driver/Src/stm32f7xx_hal_pwr_ex.c:0:6
	movs	r0, #1
	b	.LBB12_11
.Ltmp81:
.LBB12_2:
	@DEBUG_VALUE: HAL_PWREx_ControlVoltageScaling:VoltageScaling <- $r4
	ldr	r6, __arm_cp.12_1
.Ltmp82:
	.loc	6 506 5 is_stmt 1       @ ../Drivers/STM32F7xx_HAL_Driver/Src/stm32f7xx_hal_pwr_ex.c:506:5
	mov.w	r7, #116736
	ldr	r0, [r6, r7]
	bic	r0, r0, #16777216
	str	r0, [r6, r7]
	.loc	6 509 17                @ ../Drivers/STM32F7xx_HAL_Driver/Src/stm32f7xx_hal_pwr_ex.c:509:17
	bl	HAL_GetTick
	mov	r5, r0
.Ltmp83:
	@DEBUG_VALUE: HAL_PWREx_ControlVoltageScaling:tickstart <- $r5
.LBB12_3:                               @ =>This Inner Loop Header: Depth=1
	@DEBUG_VALUE: HAL_PWREx_ControlVoltageScaling:tickstart <- $r5
	@DEBUG_VALUE: HAL_PWREx_ControlVoltageScaling:VoltageScaling <- $r4
	.loc	6 511 11                @ ../Drivers/STM32F7xx_HAL_Driver/Src/stm32f7xx_hal_pwr_ex.c:511:11
	ldr	r0, [r6, r7]
	.loc	6 511 5 is_stmt 0       @ ../Drivers/STM32F7xx_HAL_Driver/Src/stm32f7xx_hal_pwr_ex.c:511:5
	tst.w	r0, #33554432
	beq	.LBB12_5
.Ltmp84:
@ %bb.4:                                @   in Loop: Header=BB12_3 Depth=1
	@DEBUG_VALUE: HAL_PWREx_ControlVoltageScaling:tickstart <- $r5
	@DEBUG_VALUE: HAL_PWREx_ControlVoltageScaling:VoltageScaling <- $r4
	.loc	6 513 11 is_stmt 1      @ ../Drivers/STM32F7xx_HAL_Driver/Src/stm32f7xx_hal_pwr_ex.c:513:11
	bl	HAL_GetTick
	.loc	6 513 25 is_stmt 0      @ ../Drivers/STM32F7xx_HAL_Driver/Src/stm32f7xx_hal_pwr_ex.c:513:25
	subs	r0, r0, r5
.Ltmp85:
	.loc	6 513 10                @ ../Drivers/STM32F7xx_HAL_Driver/Src/stm32f7xx_hal_pwr_ex.c:513:10
	cmp	r0, #2
	bls	.LBB12_3
	b	.LBB12_10
.Ltmp86:
.LBB12_5:
	@DEBUG_VALUE: HAL_PWREx_ControlVoltageScaling:tickstart <- $r5
	@DEBUG_VALUE: HAL_PWREx_ControlVoltageScaling:VoltageScaling <- $r4
	.loc	6 520 5 is_stmt 1       @ ../Drivers/STM32F7xx_HAL_Driver/Src/stm32f7xx_hal_pwr_ex.c:520:5
	ldr	r0, [r6]
.Ltmp87:
	.loc	6 523 5                 @ ../Drivers/STM32F7xx_HAL_Driver/Src/stm32f7xx_hal_pwr_ex.c:523:5
	mov.w	r8, #116736
.Ltmp88:
	.loc	6 520 5                 @ ../Drivers/STM32F7xx_HAL_Driver/Src/stm32f7xx_hal_pwr_ex.c:520:5
	bic	r0, r0, #49152
	orrs	r0, r4
	str	r0, [r6]
	ldr	r0, [r6]
	and	r0, r0, #49152
.Ltmp89:
	@DEBUG_VALUE: tmpreg <- $r0
	str	r0, [sp]
	ldr	r0, [sp]
.Ltmp90:
	@DEBUG_VALUE: tmpreg <- $r0
	.loc	6 523 5                 @ ../Drivers/STM32F7xx_HAL_Driver/Src/stm32f7xx_hal_pwr_ex.c:523:5
	ldr.w	r0, [r6, r8]
.Ltmp91:
	orr	r0, r0, #16777216
	str.w	r0, [r6, r8]
	.loc	6 526 17                @ ../Drivers/STM32F7xx_HAL_Driver/Src/stm32f7xx_hal_pwr_ex.c:526:17
	bl	HAL_GetTick
	mov	r5, r0
.Ltmp92:
	@DEBUG_VALUE: HAL_PWREx_ControlVoltageScaling:tickstart <- $r5
.LBB12_6:                               @ =>This Inner Loop Header: Depth=1
	@DEBUG_VALUE: HAL_PWREx_ControlVoltageScaling:tickstart <- $r5
	@DEBUG_VALUE: HAL_PWREx_ControlVoltageScaling:VoltageScaling <- $r4
	.loc	6 528 11                @ ../Drivers/STM32F7xx_HAL_Driver/Src/stm32f7xx_hal_pwr_ex.c:528:11
	ldr.w	r7, [r6, r8]
	.loc	6 0 0 is_stmt 0         @ ../Drivers/STM32F7xx_HAL_Driver/Src/stm32f7xx_hal_pwr_ex.c:0:0
	bl	HAL_GetTick
	mov	r4, r0
.Ltmp93:
	.loc	6 528 5                 @ ../Drivers/STM32F7xx_HAL_Driver/Src/stm32f7xx_hal_pwr_ex.c:528:5
	tst.w	r7, #33554432
	bne	.LBB12_8
.Ltmp94:
@ %bb.7:                                @   in Loop: Header=BB12_6 Depth=1
	@DEBUG_VALUE: HAL_PWREx_ControlVoltageScaling:tickstart <- $r5
	.loc	6 530 25 is_stmt 1      @ ../Drivers/STM32F7xx_HAL_Driver/Src/stm32f7xx_hal_pwr_ex.c:530:25
	subs	r0, r4, r5
.Ltmp95:
	.loc	6 530 10 is_stmt 0      @ ../Drivers/STM32F7xx_HAL_Driver/Src/stm32f7xx_hal_pwr_ex.c:530:10
	cmp	r0, #2
	bls	.LBB12_6
	b	.LBB12_10
.Ltmp96:
.LBB12_8:                               @ =>This Inner Loop Header: Depth=1
	@DEBUG_VALUE: HAL_PWREx_ControlVoltageScaling:tickstart <- $r5
	.loc	6 538 12 is_stmt 1      @ ../Drivers/STM32F7xx_HAL_Driver/Src/stm32f7xx_hal_pwr_ex.c:538:12
	ldr	r0, [r6, #4]
	.loc	6 538 5 is_stmt 0       @ ../Drivers/STM32F7xx_HAL_Driver/Src/stm32f7xx_hal_pwr_ex.c:538:5
	tst.w	r0, #16384
	bne	.LBB12_12
.Ltmp97:
@ %bb.9:                                @   in Loop: Header=BB12_8 Depth=1
	@DEBUG_VALUE: HAL_PWREx_ControlVoltageScaling:tickstart <- $r5
	.loc	6 540 11 is_stmt 1      @ ../Drivers/STM32F7xx_HAL_Driver/Src/stm32f7xx_hal_pwr_ex.c:540:11
	bl	HAL_GetTick
	.loc	6 540 25 is_stmt 0      @ ../Drivers/STM32F7xx_HAL_Driver/Src/stm32f7xx_hal_pwr_ex.c:540:25
	subs	r0, r0, r4
.Ltmp98:
	.loc	6 540 10                @ ../Drivers/STM32F7xx_HAL_Driver/Src/stm32f7xx_hal_pwr_ex.c:540:10
	cmp.w	r0, #1000
	bls	.LBB12_8
.Ltmp99:
.LBB12_10:
	@DEBUG_VALUE: HAL_PWREx_ControlVoltageScaling:tickstart <- $r5
	.loc	6 0 10                  @ ../Drivers/STM32F7xx_HAL_Driver/Src/stm32f7xx_hal_pwr_ex.c:0:10
	movs	r0, #3
.Ltmp100:
.LBB12_11:
	.loc	6 551 1 is_stmt 1       @ ../Drivers/STM32F7xx_HAL_Driver/Src/stm32f7xx_hal_pwr_ex.c:551:1
	uxtb	r0, r0
	add	sp, #8
	pop.w	{r4, r5, r6, r7, r8, pc}
.Ltmp101:
.LBB12_12:
	@DEBUG_VALUE: HAL_PWREx_ControlVoltageScaling:tickstart <- $r5
	.loc	6 0 1 is_stmt 0         @ ../Drivers/STM32F7xx_HAL_Driver/Src/stm32f7xx_hal_pwr_ex.c:0:1
	movs	r0, #0
	b	.LBB12_11
.Ltmp102:
	.p2align	2
@ %bb.13:
__arm_cp.12_0:
	.long	1073887296              @ 0x40023840
.Lcpi_end16:
	.size	__arm_cp.12_0, .Lcpi_end16-__arm_cp.12_0
__arm_cp.12_1:
	.long	1073770496              @ 0x40007000
.Lcpi_end17:
	.size	__arm_cp.12_1, .Lcpi_end17-__arm_cp.12_1
.Lfunc_end12:
	.size	HAL_PWREx_ControlVoltageScaling, .Lfunc_end12-HAL_PWREx_ControlVoltageScaling
	.cfi_endproc
	.cantunwind
	.fnend
                                        @ -- End function
	.section	".note.GNU-stack","",%progbits
	.eabi_attribute	30, 4	@ Tag_ABI_optimization_goals
	.ARM_attribute	16, 1	@ Tag_AV_eba