	.text
	.syntax unified
	.eabi_attribute	67, "2.09"	@ Tag_conformance
	.cpu	cortex-m7
	.eabi_attribute	6, 13	@ Tag_CPU_arch
	.eabi_attribute	7, 77	@ Tag_CPU_arch_profile
	.eabi_attribute	8, 0	@ Tag_ARM_ISA_use
	.eabi_attribute	9, 2	@ Tag_THUMB_ISA_use
	.fpu	fpv5-sp-d16
	.eabi_attribute	27, 1	@ Tag_ABI_HardFP_use
	.eabi_attribute	36, 1	@ Tag_FP_HP_extension
	.eabi_attribute	34, 1	@ Tag_CPU_unaligned_access
	.eabi_attribute	17, 1	@ Tag_ABI_PCS_GOT_use
	.eabi_attribute	20, 2	@ Tag_ABI_FP_denormal
	.eabi_attribute	21, 0	@ Tag_ABI_FP_exceptions
	.eabi_attribute	23, 1	@ Tag_ABI_FP_number_model
	.eabi_attribute	24, 1	@ Tag_ABI_align_needed
	.eabi_attribute	25, 1	@ Tag_ABI_align_preserved
	.eabi_attribute	28, 1	@ Tag_ABI_VFP_args
	.eabi_attribute	38, 1	@ Tag_ABI_FP_16bit_format
	.eabi_attribute	18, 2	@ Tag_ABI_PCS_wchar_t
	.eabi_attribute	26, 1	@ Tag_ABI_enum_size
	.eabi_attribute	14, 0	@ Tag_ABI_PCS_R9_use
	.file	"stm32f7xx_hal_qspi.c"
	.file	1 "../Drivers/STM32F7xx_HAL_Driver/Inc" "stm32f7xx_hal_def.h"
	.file	2 "../Drivers/STM32F7xx_HAL_Driver/Inc" "stm32f7xx_hal_dma.h"
	.file	3 "../Drivers/STM32F7xx_HAL_Driver/Inc" "stm32f7xx_hal_qspi.h"
	.file	4 "../Drivers/CMSIS/Device/ST/STM32F7xx/Include" "stm32f7xx.h"
	.file	5 "C:\\Keil\\ARM\\ARMCLANG\\Bin\\..\\include" "stdint.h"
	.file	6 "../Drivers/CMSIS/Device/ST/STM32F7xx/Include" "stm32f746xx.h"
	.section	.text.HAL_QSPI_Init,"ax",%progbits
	.hidden	HAL_QSPI_Init           @ -- Begin function HAL_QSPI_Init
	.globl	HAL_QSPI_Init
	.p2align	2
	.type	HAL_QSPI_Init,%function
	.code	16                      @ @HAL_QSPI_Init
	.thumb_func
HAL_QSPI_Init:
.Lfunc_begin0:
	.file	7 "../Drivers/STM32F7xx_HAL_Driver/Src" "stm32f7xx_hal_qspi.c"
	.loc	7 250 0                 @ ../Drivers/STM32F7xx_HAL_Driver/Src/stm32f7xx_hal_qspi.c:250:0
	.fnstart
	.cfi_sections .debug_frame
	.cfi_startproc
@ %bb.0:
	.save	{r4, r5, r6, r7, r8, lr}
	.pad	#8
	push.w	{r2, r3, r4, r5, r6, r7, r8, lr}
	.cfi_def_cfa_offset 32
	.cfi_offset lr, -4
	.cfi_offset r8, -8
	.cfi_offset r7, -12
	.cfi_offset r6, -16
	.cfi_offset r5, -20
	.cfi_offset r4, -24
	@DEBUG_VALUE: HAL_QSPI_Init:hqspi <- $r0
.Ltmp0:
	@DEBUG_VALUE: HAL_QSPI_SetTimeout:hqspi <- $r0
	mov	r4, r0
.Ltmp1:
	@DEBUG_VALUE: HAL_QSPI_Init:status <- 1
	@DEBUG_VALUE: HAL_QSPI_SetTimeout:hqspi <- $r4
	@DEBUG_VALUE: HAL_QSPI_Init:hqspi <- $r4
	.loc	7 252 24 prologue_end   @ ../Drivers/STM32F7xx_HAL_Driver/Src/stm32f7xx_hal_qspi.c:252:24
	bl	HAL_GetTick
	mov	r5, r0
.Ltmp2:
	@DEBUG_VALUE: HAL_QSPI_Init:tickstart <- $r5
	.loc	7 255 6                 @ ../Drivers/STM32F7xx_HAL_Driver/Src/stm32f7xx_hal_qspi.c:255:6
	cbz	r4, .LBB0_3
.Ltmp3:
@ %bb.1:
	@DEBUG_VALUE: HAL_QSPI_Init:tickstart <- $r5
	@DEBUG_VALUE: HAL_QSPI_Init:hqspi <- $r4
	.loc	7 276 3                 @ ../Drivers/STM32F7xx_HAL_Driver/Src/stm32f7xx_hal_qspi.c:276:3
	ldrb.w	r0, [r4, #64]
.Ltmp4:
	.loc	7 276 3 is_stmt 0       @ ../Drivers/STM32F7xx_HAL_Driver/Src/stm32f7xx_hal_qspi.c:276:3
	cmp	r0, #1
	bne	.LBB0_4
.Ltmp5:
@ %bb.2:
	@DEBUG_VALUE: HAL_QSPI_Init:tickstart <- $r5
	@DEBUG_VALUE: HAL_QSPI_Init:hqspi <- $r4
	.loc	7 0 3                   @ ../Drivers/STM32F7xx_HAL_Driver/Src/stm32f7xx_hal_qspi.c:0:3
	movs	r0, #2
	b	.LBB0_10
.Ltmp6:
.LBB0_3:
	@DEBUG_VALUE: HAL_QSPI_Init:tickstart <- $r5
	@DEBUG_VALUE: HAL_QSPI_Init:hqspi <- $r4
	movs	r0, #1
	b	.LBB0_10
.Ltmp7:
.LBB0_4:
	@DEBUG_VALUE: HAL_QSPI_Init:tickstart <- $r5
	@DEBUG_VALUE: HAL_QSPI_Init:hqspi <- $r4
	movs	r0, #1
.Ltmp8:
	.loc	7 276 3                 @ ../Drivers/STM32F7xx_HAL_Driver/Src/stm32f7xx_hal_qspi.c:276:3
	strb.w	r0, [r4, #64]
.Ltmp9:
	.loc	7 278 13 is_stmt 1      @ ../Drivers/STM32F7xx_HAL_Driver/Src/stm32f7xx_hal_qspi.c:278:13
	ldrb.w	r0, [r4, #65]
.Ltmp10:
	.loc	7 278 6 is_stmt 0       @ ../Drivers/STM32F7xx_HAL_Driver/Src/stm32f7xx_hal_qspi.c:278:6
	cbz	r0, .LBB0_6
.Ltmp11:
@ %bb.5:
	@DEBUG_VALUE: HAL_QSPI_Init:tickstart <- $r5
	@DEBUG_VALUE: HAL_QSPI_Init:hqspi <- $r4
	.loc	7 294 91 is_stmt 1      @ ../Drivers/STM32F7xx_HAL_Driver/Src/stm32f7xx_hal_qspi.c:294:91
	ldr	r0, [r4, #72]
	b	.LBB0_7
.Ltmp12:
.LBB0_6:
	@DEBUG_VALUE: HAL_QSPI_Init:tickstart <- $r5
	@DEBUG_VALUE: HAL_QSPI_Init:hqspi <- $r4
	.loc	7 281 17                @ ../Drivers/STM32F7xx_HAL_Driver/Src/stm32f7xx_hal_qspi.c:281:17
	movs	r0, #0
	strb.w	r0, [r4, #64]
	.loc	7 284 5                 @ ../Drivers/STM32F7xx_HAL_Driver/Src/stm32f7xx_hal_qspi.c:284:5
	mov	r0, r4
	bl	HAL_QSPI_MspInit
	movw	r0, #5000
.Ltmp13:
	@DEBUG_VALUE: HAL_QSPI_SetTimeout:Timeout <- 5000
	.loc	7 1985 18               @ ../Drivers/STM32F7xx_HAL_Driver/Src/stm32f7xx_hal_qspi.c:1985:18
	str	r0, [r4, #72]
.Ltmp14:
.LBB0_7:
	@DEBUG_VALUE: HAL_QSPI_Init:tickstart <- $r5
	@DEBUG_VALUE: HAL_QSPI_Init:hqspi <- $r4
	.loc	7 291 3                 @ ../Drivers/STM32F7xx_HAL_Driver/Src/stm32f7xx_hal_qspi.c:291:3
	ldr	r1, [r4]
	mvn	r6, #255
	mov.w	r8, #0
	ldr	r2, [r1]
	ldr	r3, [r4, #8]
	add.w	r3, r6, r3, lsl #8
	bic	r2, r2, #7936
	orrs	r2, r3
	.loc	7 294 12                @ ../Drivers/STM32F7xx_HAL_Driver/Src/stm32f7xx_hal_qspi.c:294:12
	mov	r3, r5
	.loc	7 291 3                 @ ../Drivers/STM32F7xx_HAL_Driver/Src/stm32f7xx_hal_qspi.c:291:3
	str	r2, [r1]
	.loc	7 294 12                @ ../Drivers/STM32F7xx_HAL_Driver/Src/stm32f7xx_hal_qspi.c:294:12
	str	r0, [sp]
	mov	r0, r4
	movs	r1, #32
	movs	r2, #0
	bl	QSPI_WaitFlagStateUntilTimeout
	.loc	7 296 6                 @ ../Drivers/STM32F7xx_HAL_Driver/Src/stm32f7xx_hal_qspi.c:296:6
	cbnz	r0, .LBB0_9
.Ltmp15:
@ %bb.8:
	@DEBUG_VALUE: HAL_QSPI_Init:tickstart <- $r5
	@DEBUG_VALUE: HAL_QSPI_Init:hqspi <- $r4
	.loc	7 300 5                 @ ../Drivers/STM32F7xx_HAL_Driver/Src/stm32f7xx_hal_qspi.c:300:5
	ldrd	r1, r2, [r4]
	ldr	r5, __arm_cp.0_0
.Ltmp16:
	ldr	r3, [r1]
	ands	r3, r5
	ldr	r5, [r4, #12]
	ldrd	r6, r7, [r4, #28]
	orrs	r3, r5
	orr.w	r2, r3, r2, lsl #24
	.loc	7 303 5                 @ ../Drivers/STM32F7xx_HAL_Driver/Src/stm32f7xx_hal_qspi.c:303:5
	ldr	r3, __arm_cp.0_1
	.loc	7 300 5                 @ ../Drivers/STM32F7xx_HAL_Driver/Src/stm32f7xx_hal_qspi.c:300:5
	orrs	r2, r6
	orrs	r2, r7
	str	r2, [r1]
	.loc	7 303 5                 @ ../Drivers/STM32F7xx_HAL_Driver/Src/stm32f7xx_hal_qspi.c:303:5
	ldr	r2, [r1, #4]
	ands	r2, r3
	ldrd	r3, r7, [r4, #16]
	ldr	r6, [r4, #24]
	orrs	r2, r7
	orr.w	r2, r2, r3, lsl #16
	orrs	r2, r6
	str	r2, [r1, #4]
	.loc	7 307 5                 @ ../Drivers/STM32F7xx_HAL_Driver/Src/stm32f7xx_hal_qspi.c:307:5
	ldr	r2, [r1]
	orr	r2, r2, #1
	str	r2, [r1]
	movs	r1, #1
	.loc	7 310 22                @ ../Drivers/STM32F7xx_HAL_Driver/Src/stm32f7xx_hal_qspi.c:310:22
	str.w	r8, [r4, #68]
	.loc	7 313 18                @ ../Drivers/STM32F7xx_HAL_Driver/Src/stm32f7xx_hal_qspi.c:313:18
	strb.w	r1, [r4, #65]
.Ltmp17:
.LBB0_9:
	@DEBUG_VALUE: HAL_QSPI_Init:hqspi <- $r4
	.loc	7 317 3                 @ ../Drivers/STM32F7xx_HAL_Driver/Src/stm32f7xx_hal_qspi.c:317:3
	strb.w	r8, [r4, #64]
.Ltmp18:
.LBB0_10:
	@DEBUG_VALUE: HAL_QSPI_Init:hqspi <- $r4
	.loc	7 321 1                 @ ../Drivers/STM32F7xx_HAL_Driver/Src/stm32f7xx_hal_qspi.c:321:1
	add	sp, #8
	pop.w	{r4, r5, r6, r7, r8, pc}
.Ltmp19:
	.p2align	2
@ %bb.11:
	.loc	7 0 1 is_stmt 0         @ ../Drivers/STM32F7xx_HAL_Driver/Src/stm32f7xx_hal_qspi.c:0:1
__arm_cp.0_0:
	.long	16777007                @ 0xffff2f
.Lcpi_end0:
	.size	__arm_cp.0_0, .Lcpi_end0-__arm_cp.0_0
__arm_cp.0_1:
	.long	4292933886              @ 0xffe0f8fe
.Lcpi_end1:
	.size	__arm_cp.0_1, .Lcpi_end1-__arm_cp.0_1
.Lfunc_end0:
	.size	HAL_QSPI_Init, .Lfunc_end0-HAL_QSPI_Init
	.cfi_endproc
	.cantunwind
	.fnend
                                        @ -- End function
	.section	.text.HAL_QSPI_MspInit,"ax",%progbits
	.hidden	HAL_QSPI_MspInit        @ -- Begin function HAL_QSPI_MspInit
	.weak	HAL_QSPI_MspInit
	.p2align	1
	.type	HAL_QSPI_MspInit,%function
	.code	16                      @ @HAL_QSPI_MspInit
	.thumb_func
HAL_QSPI_MspInit:
.Lfunc_begin1:
	.loc	7 363 0 is_stmt 1       @ ../Drivers/STM32F7xx_HAL_Driver/Src/stm32f7xx_hal_qspi.c:363:0
	.fnstart
	.cfi_startproc
@ %bb.0:
	@DEBUG_VALUE: HAL_QSPI_MspInit:hqspi <- $r0
	.loc	7 370 1 prologue_end    @ ../Drivers/STM32F7xx_HAL_Driver/Src/stm32f7xx_hal_qspi.c:370:1
	bx	lr
.Ltmp20:
.Lfunc_end1:
	.size	HAL_QSPI_MspInit, .Lfunc_end1-HAL_QSPI_MspInit
	.cfi_endproc
	.cantunwind
	.fnend
                                        @ -- End function
	.section	.text.HAL_QSPI_SetTimeout,"ax",%progbits
	.hidden	HAL_QSPI_SetTimeout     @ -- Begin function HAL_QSPI_SetTimeout
	.globl	HAL_QSPI_SetTimeout
	.p2align	1
	.type	HAL_QSPI_SetTimeout,%function
	.code	16                      @ @HAL_QSPI_SetTimeout
	.thumb_func
HAL_QSPI_SetTimeout:
.Lfunc_begin2:
	.loc	7 1984 0                @ ../Drivers/STM32F7xx_HAL_Driver/Src/stm32f7xx_hal_qspi.c:1984:0
	.fnstart
	.cfi_startproc
@ %bb.0:
	@DEBUG_VALUE: HAL_QSPI_SetTimeout:hqspi <- $r0
	@DEBUG_VALUE: HAL_QSPI_SetTimeout:hqspi <- $r0
	@DEBUG_VALUE: HAL_QSPI_SetTimeout:Timeout <- $r1
	@DEBUG_VALUE: HAL_QSPI_SetTimeout:Timeout <- $r1
	.loc	7 1985 18 prologue_end  @ ../Drivers/STM32F7xx_HAL_Driver/Src/stm32f7xx_hal_qspi.c:1985:18
	str	r1, [r0, #72]
	.loc	7 1986 1                @ ../Drivers/STM32F7xx_HAL_Driver/Src/stm32f7xx_hal_qspi.c:1986:1
	bx	lr
.Ltmp21:
.Lfunc_end2:
	.size	HAL_QSPI_SetTimeout, .Lfunc_end2-HAL_QSPI_SetTimeout
	.cfi_endproc
	.cantunwind
	.fnend
                                        @ -- End function
	.section	.text.QSPI_WaitFlagStateUntilTimeout,"ax",%progbits
	.p2align	1               @ -- Begin function QSPI_WaitFlagStateUntilTimeout
	.type	QSPI_WaitFlagStateUntilTimeout,%function
	.code	16                      @ @QSPI_WaitFlagStateUntilTimeout
	.thumb_func
QSPI_WaitFlagStateUntilTimeout:
.Lfunc_begin3:
	.loc	7 2158 0                @ ../Drivers/STM32F7xx_HAL_Driver/Src/stm32f7xx_hal_qspi.c:2158:0
	.fnstart
	.cfi_startproc
@ %bb.0:
	.save	{r4, r5, r6, r7, r8, r9, lr}
	.pad	#4
	push.w	{r3, r4, r5, r6, r7, r8, r9, lr}
	.cfi_def_cfa_offset 32
	.cfi_offset lr, -4
	.cfi_offset r9, -8
	.cfi_offset r8, -12
	.cfi_offset r7, -16
	.cfi_offset r6, -20
	.cfi_offset r5, -24
	.cfi_offset r4, -28
	@DEBUG_VALUE: QSPI_WaitFlagStateUntilTimeout:hqspi <- $r0
	@DEBUG_VALUE: QSPI_WaitFlagStateUntilTimeout:Flag <- $r1
	@DEBUG_VALUE: QSPI_WaitFlagStateUntilTimeout:State <- $r2
	@DEBUG_VALUE: QSPI_WaitFlagStateUntilTimeout:tickstart <- $r3
	@DEBUG_VALUE: QSPI_WaitFlagStateUntilTimeout:Timeout <- [DW_OP_plus_uconst 32] [$sp+0]
	ldr.w	r9, [sp, #32]
	mov	r8, r3
.Ltmp22:
	@DEBUG_VALUE: QSPI_WaitFlagStateUntilTimeout:tickstart <- $r8
	mov	r6, r2
.Ltmp23:
	@DEBUG_VALUE: QSPI_WaitFlagStateUntilTimeout:State <- $r6
	mov	r7, r1
.Ltmp24:
	@DEBUG_VALUE: QSPI_WaitFlagStateUntilTimeout:Flag <- $r7
	mov	r4, r0
.Ltmp25:
	@DEBUG_VALUE: QSPI_WaitFlagStateUntilTimeout:State <- undef
	@DEBUG_VALUE: QSPI_WaitFlagStateUntilTimeout:hqspi <- $r4
	add.w	r5, r9, #1
.Ltmp26:
.LBB3_1:                                @ =>This Inner Loop Header: Depth=1
	@DEBUG_VALUE: QSPI_WaitFlagStateUntilTimeout:hqspi <- $r4
	@DEBUG_VALUE: QSPI_WaitFlagStateUntilTimeout:Flag <- $r7
	@DEBUG_VALUE: QSPI_WaitFlagStateUntilTimeout:tickstart <- $r8
	@DEBUG_VALUE: QSPI_WaitFlagStateUntilTimeout:Timeout <- [DW_OP_plus_uconst 32] [$sp+0]
	.loc	7 2160 22 prologue_end  @ ../Drivers/STM32F7xx_HAL_Driver/Src/stm32f7xx_hal_qspi.c:2160:22
	ldr	r0, [r4]
	ldr	r0, [r0, #8]
	ands	r0, r7
	it	ne
	movne	r0, #1
	.loc	7 2160 3 is_stmt 0      @ ../Drivers/STM32F7xx_HAL_Driver/Src/stm32f7xx_hal_qspi.c:2160:3
	cmp	r0, r6
	beq	.LBB3_6
.Ltmp27:
@ %bb.2:                                @   in Loop: Header=BB3_1 Depth=1
	@DEBUG_VALUE: QSPI_WaitFlagStateUntilTimeout:hqspi <- $r4
	@DEBUG_VALUE: QSPI_WaitFlagStateUntilTimeout:Flag <- $r7
	@DEBUG_VALUE: QSPI_WaitFlagStateUntilTimeout:tickstart <- $r8
	@DEBUG_VALUE: QSPI_WaitFlagStateUntilTimeout:Timeout <- [DW_OP_plus_uconst 32] [$sp+0]
	.loc	7 2163 9 is_stmt 1      @ ../Drivers/STM32F7xx_HAL_Driver/Src/stm32f7xx_hal_qspi.c:2163:9
	cmp	r5, #0
	beq	.LBB3_1
.Ltmp28:
@ %bb.3:                                @   in Loop: Header=BB3_1 Depth=1
	@DEBUG_VALUE: QSPI_WaitFlagStateUntilTimeout:hqspi <- $r4
	@DEBUG_VALUE: QSPI_WaitFlagStateUntilTimeout:Flag <- $r7
	@DEBUG_VALUE: QSPI_WaitFlagStateUntilTimeout:tickstart <- $r8
	@DEBUG_VALUE: QSPI_WaitFlagStateUntilTimeout:Timeout <- [DW_OP_plus_uconst 32] [$sp+0]
	cmp.w	r9, #0
	beq	.LBB3_5
.Ltmp29:
@ %bb.4:                                @   in Loop: Header=BB3_1 Depth=1
	@DEBUG_VALUE: QSPI_WaitFlagStateUntilTimeout:hqspi <- $r4
	@DEBUG_VALUE: QSPI_WaitFlagStateUntilTimeout:Flag <- $r7
	@DEBUG_VALUE: QSPI_WaitFlagStateUntilTimeout:tickstart <- $r8
	@DEBUG_VALUE: QSPI_WaitFlagStateUntilTimeout:Timeout <- [DW_OP_plus_uconst 32] [$sp+0]
	.loc	7 2165 30               @ ../Drivers/STM32F7xx_HAL_Driver/Src/stm32f7xx_hal_qspi.c:2165:30
	bl	HAL_GetTick
	.loc	7 2165 44 is_stmt 0     @ ../Drivers/STM32F7xx_HAL_Driver/Src/stm32f7xx_hal_qspi.c:2165:44
	sub.w	r0, r0, r8
.Ltmp30:
	.loc	7 2165 10               @ ../Drivers/STM32F7xx_HAL_Driver/Src/stm32f7xx_hal_qspi.c:2165:10
	cmp	r0, r9
	bls	.LBB3_1
.Ltmp31:
.LBB3_5:
	@DEBUG_VALUE: QSPI_WaitFlagStateUntilTimeout:hqspi <- $r4
	@DEBUG_VALUE: QSPI_WaitFlagStateUntilTimeout:Flag <- $r7
	@DEBUG_VALUE: QSPI_WaitFlagStateUntilTimeout:tickstart <- $r8
	@DEBUG_VALUE: QSPI_WaitFlagStateUntilTimeout:Timeout <- [DW_OP_plus_uconst 32] [$sp+0]
	.loc	7 2167 26 is_stmt 1     @ ../Drivers/STM32F7xx_HAL_Driver/Src/stm32f7xx_hal_qspi.c:2167:26
	movs	r0, #4
	strb.w	r0, [r4, #65]
	.loc	7 2168 26               @ ../Drivers/STM32F7xx_HAL_Driver/Src/stm32f7xx_hal_qspi.c:2168:26
	ldr	r0, [r4, #68]
	orr	r0, r0, #1
	str	r0, [r4, #68]
	movs	r0, #1
	b	.LBB3_7
.Ltmp32:
.LBB3_6:
	@DEBUG_VALUE: QSPI_WaitFlagStateUntilTimeout:hqspi <- $r4
	@DEBUG_VALUE: QSPI_WaitFlagStateUntilTimeout:Flag <- $r7
	@DEBUG_VALUE: QSPI_WaitFlagStateUntilTimeout:tickstart <- $r8
	@DEBUG_VALUE: QSPI_WaitFlagStateUntilTimeout:Timeout <- [DW_OP_plus_uconst 32] [$sp+0]
	.loc	7 0 26 is_stmt 0        @ ../Drivers/STM32F7xx_HAL_Driver/Src/stm32f7xx_hal_qspi.c:0:26
	movs	r0, #0
.Ltmp33:
.LBB3_7:
	@DEBUG_VALUE: QSPI_WaitFlagStateUntilTimeout:hqspi <- $r4
	@DEBUG_VALUE: QSPI_WaitFlagStateUntilTimeout:Flag <- $r7
	@DEBUG_VALUE: QSPI_WaitFlagStateUntilTimeout:tickstart <- $r8
	@DEBUG_VALUE: QSPI_WaitFlagStateUntilTimeout:Timeout <- [DW_OP_plus_uconst 32] [$sp+0]
	.loc	7 2175 1 is_stmt 1      @ ../Drivers/STM32F7xx_HAL_Driver/Src/stm32f7xx_hal_qspi.c:2175:1
	add	sp, #4
.Ltmp34:
	pop.w	{r4, r5, r6, r7, r8, r9, pc}
.Ltmp35:
.Lfunc_end3:
	.size	QSPI_WaitFlagStateUntilTimeout, .Lfunc_end3-QSPI_WaitFlagStateUntilTimeout
	.cfi_endproc
	.cantunwind
	.fnend
                                        @ -- End function
	.section	.text.HAL_QSPI_DeInit,"ax",%progbits
	.hidden	HAL_QSPI_DeInit         @ -- Begin function HAL_QSPI_DeInit
	.globl	HAL_QSPI_DeInit
	.p2align	1
	.type	HAL_QSPI_DeInit,%function
	.code	16                      @ @HAL_QSPI_DeInit
	.thumb_func
HAL_QSPI_DeInit:
.Lfunc_begin4:
	.loc	7 329 0                 @ ../Drivers/STM32F7xx_HAL_Driver/Src/stm32f7xx_hal_qspi.c:329:0
	.fnstart
	.cfi_startproc
@ %bb.0:
	.save	{r4, lr}
	push	{r4, lr}
	.cfi_def_cfa_offset 8
	.cfi_offset lr, -4
	.cfi_offset r4, -8
	@DEBUG_VALUE: HAL_QSPI_DeInit:hqspi <- $r0
	mov	r4, r0
.Ltmp36:
	@DEBUG_VALUE: HAL_QSPI_DeInit:hqspi <- $r4
	.loc	7 331 6 prologue_end    @ ../Drivers/STM32F7xx_HAL_Driver/Src/stm32f7xx_hal_qspi.c:331:6
	cbz	r0, .LBB4_3
.Ltmp37:
@ %bb.1:
	@DEBUG_VALUE: HAL_QSPI_DeInit:hqspi <- $r4
	.loc	7 337 3                 @ ../Drivers/STM32F7xx_HAL_Driver/Src/stm32f7xx_hal_qspi.c:337:3
	ldrb.w	r0, [r4, #64]
.Ltmp38:
	.loc	7 337 3 is_stmt 0       @ ../Drivers/STM32F7xx_HAL_Driver/Src/stm32f7xx_hal_qspi.c:337:3
	cmp	r0, #1
	bne	.LBB4_4
.Ltmp39:
@ %bb.2:
	@DEBUG_VALUE: HAL_QSPI_DeInit:hqspi <- $r4
	.loc	7 0 3                   @ ../Drivers/STM32F7xx_HAL_Driver/Src/stm32f7xx_hal_qspi.c:0:3
	movs	r0, #2
	b	.LBB4_5
.Ltmp40:
.LBB4_3:
	@DEBUG_VALUE: HAL_QSPI_DeInit:hqspi <- $r4
	movs	r0, #1
	b	.LBB4_5
.Ltmp41:
.LBB4_4:
	@DEBUG_VALUE: HAL_QSPI_DeInit:hqspi <- $r4
	.loc	7 337 3                 @ ../Drivers/STM32F7xx_HAL_Driver/Src/stm32f7xx_hal_qspi.c:337:3
	movs	r0, #1
	strb.w	r0, [r4, #64]
.Ltmp42:
	.loc	7 340 3 is_stmt 1       @ ../Drivers/STM32F7xx_HAL_Driver/Src/stm32f7xx_hal_qspi.c:340:3
	ldr	r0, [r4]
	ldr	r1, [r0]
	bic	r1, r1, #1
	str	r1, [r0]
	.loc	7 343 3                 @ ../Drivers/STM32F7xx_HAL_Driver/Src/stm32f7xx_hal_qspi.c:343:3
	mov	r0, r4
	bl	HAL_QSPI_MspDeInit
	movs	r0, #0
	.loc	7 346 20                @ ../Drivers/STM32F7xx_HAL_Driver/Src/stm32f7xx_hal_qspi.c:346:20
	str	r0, [r4, #68]
	.loc	7 349 16                @ ../Drivers/STM32F7xx_HAL_Driver/Src/stm32f7xx_hal_qspi.c:349:16
	strb.w	r0, [r4, #65]
.Ltmp43:
	.loc	7 352 3                 @ ../Drivers/STM32F7xx_HAL_Driver/Src/stm32f7xx_hal_qspi.c:352:3
	strb.w	r0, [r4, #64]
.Ltmp44:
.LBB4_5:
	@DEBUG_VALUE: HAL_QSPI_DeInit:hqspi <- $r4
	.loc	7 355 1                 @ ../Drivers/STM32F7xx_HAL_Driver/Src/stm32f7xx_hal_qspi.c:355:1
	uxtb	r0, r0
	pop	{r4, pc}
.Ltmp45:
.Lfunc_end4:
	.size	HAL_QSPI_DeInit, .Lfunc_end4-HAL_QSPI_DeInit
	.cfi_endproc
	.cantunwind
	.fnend
                                        @ -- End function
	.section	.text.HAL_QSPI_MspDeInit,"ax",%progbits
	.hidden	HAL_QSPI_MspDeInit      @ -- Begin function HAL_QSPI_MspDeInit
	.weak	HAL_QSPI_MspDeInit
	.p2align	1
	.type	HAL_QSPI_MspDeInit,%function
	.code	16                      @ @HAL_QSPI_MspDeInit
	.thumb_func
HAL_QSPI_MspDeInit:
.Lfunc_begin5:
	.loc	7 378 0                 @ ../Drivers/STM32F7xx_HAL_Driver/Src/stm32f7xx_hal_qspi.c:378:0
	.fnstart
	.cfi_startproc
@ %bb.0:
	@DEBUG_VALUE: HAL_QSPI_MspDeInit:hqspi <- $r0
	.loc	7 385 1 prologue_end    @ ../Drivers/STM32F7xx_HAL_Driver/Src/stm32f7xx_hal_qspi.c:385:1
	bx	lr
.Ltmp46:
.Lfunc_end5:
	.size	HAL_QSPI_MspDeInit, .Lfunc_end5-HAL_QSPI_MspDeInit
	.cfi_endproc
	.cantunwind
	.fnend
                                        @ -- End function
	.section	.text.HAL_QSPI_IRQHandler,"ax",%progbits
	.hidden	HAL_QSPI_IRQHandler     @ -- Begin function HAL_QSPI_IRQHandler
	.globl	HAL_QSPI_IRQHandler
	.p2align	2
	.type	HAL_QSPI_IRQHandler,%function
	.code	16                      @ @HAL_QSPI_IRQHandler
	.thumb_func
HAL_QSPI_IRQHandler:
.Lfunc_begin6:
	.loc	7 417 0                 @ ../Drivers/STM32F7xx_HAL_Driver/Src/stm32f7xx_hal_qspi.c:417:0
	.fnstart
	.cfi_startproc
@ %bb.0:
	.save	{r4, lr}
	push	{r4, lr}
	.cfi_def_cfa_offset 8
	.cfi_offset lr, -4
	.cfi_offset r4, -8
	@DEBUG_VALUE: HAL_QSPI_IRQHandler:hqspi <- $r0
	mov	r4, r0
.Ltmp47:
	@DEBUG_VALUE: HAL_QSPI_IRQHandler:hqspi <- $r4
	.loc	7 419 19 prologue_end   @ ../Drivers/STM32F7xx_HAL_Driver/Src/stm32f7xx_hal_qspi.c:419:19
	ldr	r0, [r0]
	ldr	r2, [r0, #8]
.Ltmp48:
	@DEBUG_VALUE: HAL_QSPI_IRQHandler:flag <- $r2
	.loc	7 420 23                @ ../Drivers/STM32F7xx_HAL_Driver/Src/stm32f7xx_hal_qspi.c:420:23
	ldr	r1, [r0]
.Ltmp49:
	@DEBUG_VALUE: HAL_QSPI_IRQHandler:itsource <- $r1
	.loc	7 423 38                @ ../Drivers/STM32F7xx_HAL_Driver/Src/stm32f7xx_hal_qspi.c:423:38
	tst.w	r2, #4
	it	ne
	andsne	r3, r1, #262144
	bne	.LBB6_7
.Ltmp50:
@ %bb.1:
	@DEBUG_VALUE: HAL_QSPI_IRQHandler:itsource <- $r1
	@DEBUG_VALUE: HAL_QSPI_IRQHandler:flag <- $r2
	@DEBUG_VALUE: HAL_QSPI_IRQHandler:hqspi <- $r4
	.loc	7 473 43                @ ../Drivers/STM32F7xx_HAL_Driver/Src/stm32f7xx_hal_qspi.c:473:43
	lsls	r3, r2, #30
	bpl	.LBB6_12
.Ltmp51:
@ %bb.2:
	@DEBUG_VALUE: HAL_QSPI_IRQHandler:itsource <- $r1
	@DEBUG_VALUE: HAL_QSPI_IRQHandler:flag <- $r2
	@DEBUG_VALUE: HAL_QSPI_IRQHandler:hqspi <- $r4
	.loc	7 0 43 is_stmt 0        @ ../Drivers/STM32F7xx_HAL_Driver/Src/stm32f7xx_hal_qspi.c:0:43
	ands	r3, r1, #131072
	.loc	7 473 43                @ ../Drivers/STM32F7xx_HAL_Driver/Src/stm32f7xx_hal_qspi.c:473:43
	beq	.LBB6_12
.Ltmp52:
@ %bb.3:
	@DEBUG_VALUE: HAL_QSPI_IRQHandler:itsource <- $r1
	@DEBUG_VALUE: HAL_QSPI_IRQHandler:flag <- $r2
	@DEBUG_VALUE: HAL_QSPI_IRQHandler:hqspi <- $r4
	.loc	7 476 5 is_stmt 1       @ ../Drivers/STM32F7xx_HAL_Driver/Src/stm32f7xx_hal_qspi.c:476:5
	movs	r1, #2
.Ltmp53:
	str	r1, [r0, #12]
	.loc	7 479 5                 @ ../Drivers/STM32F7xx_HAL_Driver/Src/stm32f7xx_hal_qspi.c:479:5
	ldr	r1, [r0]
	bic	r1, r1, #458752
	str	r1, [r0]
.Ltmp54:
	.loc	7 482 15                @ ../Drivers/STM32F7xx_HAL_Driver/Src/stm32f7xx_hal_qspi.c:482:15
	ldrb.w	r1, [r4, #65]
.Ltmp55:
	.loc	7 482 8 is_stmt 0       @ ../Drivers/STM32F7xx_HAL_Driver/Src/stm32f7xx_hal_qspi.c:482:8
	cmp	r1, #18
	bne	.LBB6_17
.Ltmp56:
@ %bb.4:
	@DEBUG_VALUE: HAL_QSPI_IRQHandler:flag <- $r2
	@DEBUG_VALUE: HAL_QSPI_IRQHandler:hqspi <- $r4
	.loc	7 484 29 is_stmt 1      @ ../Drivers/STM32F7xx_HAL_Driver/Src/stm32f7xx_hal_qspi.c:484:29
	ldr	r1, [r0]
.Ltmp57:
	.loc	7 484 11 is_stmt 0      @ ../Drivers/STM32F7xx_HAL_Driver/Src/stm32f7xx_hal_qspi.c:484:11
	tst.w	r1, #4
	beq	.LBB6_6
.Ltmp58:
@ %bb.5:
	@DEBUG_VALUE: HAL_QSPI_IRQHandler:flag <- $r2
	@DEBUG_VALUE: HAL_QSPI_IRQHandler:hqspi <- $r4
	.loc	7 487 9 is_stmt 1       @ ../Drivers/STM32F7xx_HAL_Driver/Src/stm32f7xx_hal_qspi.c:487:9
	ldr	r1, [r0]
	bic	r1, r1, #4
	str	r1, [r0]
	.loc	7 490 9                 @ ../Drivers/STM32F7xx_HAL_Driver/Src/stm32f7xx_hal_qspi.c:490:9
	ldr	r0, [r4, #60]
	ldr	r0, [r0]
	ldr	r1, [r0]
	bic	r1, r1, #1
	str	r1, [r0]
.Ltmp59:
.LBB6_6:
	@DEBUG_VALUE: HAL_QSPI_IRQHandler:flag <- $r2
	@DEBUG_VALUE: HAL_QSPI_IRQHandler:hqspi <- $r4
	.loc	7 495 7                 @ ../Drivers/STM32F7xx_HAL_Driver/Src/stm32f7xx_hal_qspi.c:495:7
	mov	r0, r4
	bl	HAL_QSPI_Abort_IT
.Ltmp60:
	.loc	7 499 20                @ ../Drivers/STM32F7xx_HAL_Driver/Src/stm32f7xx_hal_qspi.c:499:20
	movs	r0, #1
	strb.w	r0, [r4, #65]
	.loc	7 502 7                 @ ../Drivers/STM32F7xx_HAL_Driver/Src/stm32f7xx_hal_qspi.c:502:7
	mov	r0, r4
	pop.w	{r4, lr}
.Ltmp61:
	b	HAL_QSPI_TxCpltCallback
.Ltmp62:
.LBB6_7:
	@DEBUG_VALUE: HAL_QSPI_IRQHandler:itsource <- $r1
	@DEBUG_VALUE: HAL_QSPI_IRQHandler:flag <- $r2
	@DEBUG_VALUE: HAL_QSPI_IRQHandler:hqspi <- $r4
	.loc	7 427 15                @ ../Drivers/STM32F7xx_HAL_Driver/Src/stm32f7xx_hal_qspi.c:427:15
	ldrb.w	r1, [r4, #65]
.Ltmp63:
	.loc	7 427 8 is_stmt 0       @ ../Drivers/STM32F7xx_HAL_Driver/Src/stm32f7xx_hal_qspi.c:427:8
	cmp	r1, #18
	bne	.LBB6_20
.Ltmp64:
@ %bb.8:
	@DEBUG_VALUE: HAL_QSPI_IRQHandler:flag <- $r2
	@DEBUG_VALUE: HAL_QSPI_IRQHandler:hqspi <- $r4
	.loc	7 430 13 is_stmt 1      @ ../Drivers/STM32F7xx_HAL_Driver/Src/stm32f7xx_hal_qspi.c:430:13
	mov	r1, r0
	b	.LBB6_11
.Ltmp65:
.LBB6_9:                                @   in Loop: Header=BB6_11 Depth=1
	@DEBUG_VALUE: HAL_QSPI_IRQHandler:hqspi <- $r4
	.loc	7 432 20                @ ../Drivers/STM32F7xx_HAL_Driver/Src/stm32f7xx_hal_qspi.c:432:20
	ldr	r2, [r4, #44]
.Ltmp66:
	.loc	7 432 13 is_stmt 0      @ ../Drivers/STM32F7xx_HAL_Driver/Src/stm32f7xx_hal_qspi.c:432:13
	cmp	r2, #0
	beq	.LBB6_28
.Ltmp67:
@ %bb.10:                               @   in Loop: Header=BB6_11 Depth=1
	@DEBUG_VALUE: HAL_QSPI_IRQHandler:hqspi <- $r4
	.loc	7 435 57 is_stmt 1      @ ../Drivers/STM32F7xx_HAL_Driver/Src/stm32f7xx_hal_qspi.c:435:57
	ldr	r1, [r4, #36]
	adds	r2, r1, #1
	str	r2, [r4, #36]
	.loc	7 435 39 is_stmt 0      @ ../Drivers/STM32F7xx_HAL_Driver/Src/stm32f7xx_hal_qspi.c:435:39
	ldrb	r1, [r1]
	.loc	7 435 37                @ ../Drivers/STM32F7xx_HAL_Driver/Src/stm32f7xx_hal_qspi.c:435:37
	strb.w	r1, [r0, #32]
.Ltmp68:
	.loc	7 430 13 is_stmt 1      @ ../Drivers/STM32F7xx_HAL_Driver/Src/stm32f7xx_hal_qspi.c:430:13
	ldr	r1, [r4]
.Ltmp69:
	.loc	7 436 29                @ ../Drivers/STM32F7xx_HAL_Driver/Src/stm32f7xx_hal_qspi.c:436:29
	ldr	r2, [r4, #44]
	subs	r2, #1
	str	r2, [r4, #44]
.Ltmp70:
.LBB6_11:                               @ =>This Inner Loop Header: Depth=1
	@DEBUG_VALUE: HAL_QSPI_IRQHandler:flag <- $r2
	@DEBUG_VALUE: HAL_QSPI_IRQHandler:hqspi <- $r4
	.loc	7 430 13                @ ../Drivers/STM32F7xx_HAL_Driver/Src/stm32f7xx_hal_qspi.c:430:13
	ldr	r2, [r1, #8]
.Ltmp71:
	.loc	7 430 7 is_stmt 0       @ ../Drivers/STM32F7xx_HAL_Driver/Src/stm32f7xx_hal_qspi.c:430:7
	tst.w	r2, #4
	bne	.LBB6_9
	b	.LBB6_29
.Ltmp72:
.LBB6_12:
	@DEBUG_VALUE: HAL_QSPI_IRQHandler:itsource <- $r1
	@DEBUG_VALUE: HAL_QSPI_IRQHandler:flag <- $r2
	@DEBUG_VALUE: HAL_QSPI_IRQHandler:hqspi <- $r4
	.loc	7 574 43 is_stmt 1      @ ../Drivers/STM32F7xx_HAL_Driver/Src/stm32f7xx_hal_qspi.c:574:43
	lsls	r3, r2, #28
	bpl	.LBB6_25
.Ltmp73:
@ %bb.13:
	@DEBUG_VALUE: HAL_QSPI_IRQHandler:itsource <- $r1
	@DEBUG_VALUE: HAL_QSPI_IRQHandler:flag <- $r2
	@DEBUG_VALUE: HAL_QSPI_IRQHandler:hqspi <- $r4
	.loc	7 0 43 is_stmt 0        @ ../Drivers/STM32F7xx_HAL_Driver/Src/stm32f7xx_hal_qspi.c:0:43
	ands	r3, r1, #524288
	.loc	7 574 43                @ ../Drivers/STM32F7xx_HAL_Driver/Src/stm32f7xx_hal_qspi.c:574:43
	beq	.LBB6_25
.Ltmp74:
@ %bb.14:
	@DEBUG_VALUE: HAL_QSPI_IRQHandler:itsource <- $r1
	@DEBUG_VALUE: HAL_QSPI_IRQHandler:flag <- $r2
	@DEBUG_VALUE: HAL_QSPI_IRQHandler:hqspi <- $r4
	.loc	7 577 5 is_stmt 1       @ ../Drivers/STM32F7xx_HAL_Driver/Src/stm32f7xx_hal_qspi.c:577:5
	movs	r1, #8
.Ltmp75:
	str	r1, [r0, #12]
.Ltmp76:
	.loc	7 580 8                 @ ../Drivers/STM32F7xx_HAL_Driver/Src/stm32f7xx_hal_qspi.c:580:8
	ldr	r1, [r0]
.Ltmp77:
	.loc	7 580 8 is_stmt 0       @ ../Drivers/STM32F7xx_HAL_Driver/Src/stm32f7xx_hal_qspi.c:580:8
	tst.w	r1, #4194304
	beq	.LBB6_16
.Ltmp78:
@ %bb.15:
	@DEBUG_VALUE: HAL_QSPI_IRQHandler:flag <- $r2
	@DEBUG_VALUE: HAL_QSPI_IRQHandler:hqspi <- $r4
	.loc	7 583 7 is_stmt 1       @ ../Drivers/STM32F7xx_HAL_Driver/Src/stm32f7xx_hal_qspi.c:583:7
	ldr	r1, [r0]
	bic	r1, r1, #589824
	str	r1, [r0]
	.loc	7 586 20                @ ../Drivers/STM32F7xx_HAL_Driver/Src/stm32f7xx_hal_qspi.c:586:20
	movs	r0, #1
	strb.w	r0, [r4, #65]
.Ltmp79:
.LBB6_16:
	@DEBUG_VALUE: HAL_QSPI_IRQHandler:flag <- $r2
	@DEBUG_VALUE: HAL_QSPI_IRQHandler:hqspi <- $r4
	.loc	7 590 5                 @ ../Drivers/STM32F7xx_HAL_Driver/Src/stm32f7xx_hal_qspi.c:590:5
	mov	r0, r4
	pop.w	{r4, lr}
.Ltmp80:
	b	HAL_QSPI_StatusMatchCallback
.Ltmp81:
.LBB6_17:
	@DEBUG_VALUE: HAL_QSPI_IRQHandler:flag <- $r2
	@DEBUG_VALUE: HAL_QSPI_IRQHandler:hqspi <- $r4
	.loc	7 504 20                @ ../Drivers/STM32F7xx_HAL_Driver/Src/stm32f7xx_hal_qspi.c:504:20
	ldrb.w	r1, [r4, #65]
.Ltmp82:
	.loc	7 504 13 is_stmt 0      @ ../Drivers/STM32F7xx_HAL_Driver/Src/stm32f7xx_hal_qspi.c:504:13
	cmp	r1, #34
	bne	.LBB6_30
.Ltmp83:
@ %bb.18:
	@DEBUG_VALUE: HAL_QSPI_IRQHandler:flag <- $r2
	@DEBUG_VALUE: HAL_QSPI_IRQHandler:hqspi <- $r4
	.loc	7 506 29 is_stmt 1      @ ../Drivers/STM32F7xx_HAL_Driver/Src/stm32f7xx_hal_qspi.c:506:29
	ldr	r1, [r0]
.Ltmp84:
	.loc	7 506 11 is_stmt 0      @ ../Drivers/STM32F7xx_HAL_Driver/Src/stm32f7xx_hal_qspi.c:506:11
	tst.w	r1, #4
	bne	.LBB6_34
.Ltmp85:
@ %bb.19:
	@DEBUG_VALUE: HAL_QSPI_IRQHandler:flag <- $r2
	@DEBUG_VALUE: HAL_QSPI_IRQHandler:hqspi <- $r4
	.loc	7 517 15 is_stmt 1      @ ../Drivers/STM32F7xx_HAL_Driver/Src/stm32f7xx_hal_qspi.c:517:15
	mov	r1, r0
	b	.LBB6_40
.Ltmp86:
.LBB6_20:
	@DEBUG_VALUE: HAL_QSPI_IRQHandler:flag <- $r2
	@DEBUG_VALUE: HAL_QSPI_IRQHandler:hqspi <- $r4
	.loc	7 447 20                @ ../Drivers/STM32F7xx_HAL_Driver/Src/stm32f7xx_hal_qspi.c:447:20
	ldrb.w	r1, [r4, #65]
.Ltmp87:
	.loc	7 447 13 is_stmt 0      @ ../Drivers/STM32F7xx_HAL_Driver/Src/stm32f7xx_hal_qspi.c:447:13
	cmp	r1, #34
	bne	.LBB6_29
.Ltmp88:
@ %bb.21:
	@DEBUG_VALUE: HAL_QSPI_IRQHandler:flag <- $r2
	@DEBUG_VALUE: HAL_QSPI_IRQHandler:hqspi <- $r4
	.loc	7 450 13 is_stmt 1      @ ../Drivers/STM32F7xx_HAL_Driver/Src/stm32f7xx_hal_qspi.c:450:13
	mov	r1, r0
	b	.LBB6_24
.Ltmp89:
.LBB6_22:                               @   in Loop: Header=BB6_24 Depth=1
	@DEBUG_VALUE: HAL_QSPI_IRQHandler:hqspi <- $r4
	.loc	7 452 20                @ ../Drivers/STM32F7xx_HAL_Driver/Src/stm32f7xx_hal_qspi.c:452:20
	ldr	r2, [r4, #56]
.Ltmp90:
	.loc	7 452 13 is_stmt 0      @ ../Drivers/STM32F7xx_HAL_Driver/Src/stm32f7xx_hal_qspi.c:452:13
	cbz	r2, .LBB6_28
.Ltmp91:
@ %bb.23:                               @   in Loop: Header=BB6_24 Depth=1
	@DEBUG_VALUE: HAL_QSPI_IRQHandler:hqspi <- $r4
	.loc	7 455 34 is_stmt 1      @ ../Drivers/STM32F7xx_HAL_Driver/Src/stm32f7xx_hal_qspi.c:455:34
	ldrb.w	r1, [r0, #32]
	.loc	7 455 29 is_stmt 0      @ ../Drivers/STM32F7xx_HAL_Driver/Src/stm32f7xx_hal_qspi.c:455:29
	ldr	r2, [r4, #48]
	adds	r3, r2, #1
	str	r3, [r4, #48]
	.loc	7 455 32                @ ../Drivers/STM32F7xx_HAL_Driver/Src/stm32f7xx_hal_qspi.c:455:32
	strb	r1, [r2]
.Ltmp92:
	.loc	7 450 13 is_stmt 1      @ ../Drivers/STM32F7xx_HAL_Driver/Src/stm32f7xx_hal_qspi.c:450:13
	ldr	r1, [r4]
.Ltmp93:
	.loc	7 456 29                @ ../Drivers/STM32F7xx_HAL_Driver/Src/stm32f7xx_hal_qspi.c:456:29
	ldr	r2, [r4, #56]
	subs	r2, #1
	str	r2, [r4, #56]
.Ltmp94:
.LBB6_24:                               @ =>This Inner Loop Header: Depth=1
	@DEBUG_VALUE: HAL_QSPI_IRQHandler:flag <- $r2
	@DEBUG_VALUE: HAL_QSPI_IRQHandler:hqspi <- $r4
	.loc	7 450 13                @ ../Drivers/STM32F7xx_HAL_Driver/Src/stm32f7xx_hal_qspi.c:450:13
	ldr	r2, [r1, #8]
.Ltmp95:
	.loc	7 450 7 is_stmt 0       @ ../Drivers/STM32F7xx_HAL_Driver/Src/stm32f7xx_hal_qspi.c:450:7
	tst.w	r2, #4
	bne	.LBB6_22
	b	.LBB6_29
.Ltmp96:
.LBB6_25:
	@DEBUG_VALUE: HAL_QSPI_IRQHandler:itsource <- $r1
	@DEBUG_VALUE: HAL_QSPI_IRQHandler:flag <- $r2
	@DEBUG_VALUE: HAL_QSPI_IRQHandler:hqspi <- $r4
	.loc	7 594 43 is_stmt 1      @ ../Drivers/STM32F7xx_HAL_Driver/Src/stm32f7xx_hal_qspi.c:594:43
	lsls	r3, r2, #31
	it	ne
	andsne	r3, r1, #65536
	bne	.LBB6_32
.Ltmp97:
@ %bb.26:
	@DEBUG_VALUE: HAL_QSPI_IRQHandler:itsource <- $r1
	@DEBUG_VALUE: HAL_QSPI_IRQHandler:flag <- $r2
	@DEBUG_VALUE: HAL_QSPI_IRQHandler:hqspi <- $r4
	.loc	7 625 43                @ ../Drivers/STM32F7xx_HAL_Driver/Src/stm32f7xx_hal_qspi.c:625:43
	lsls	r2, r2, #27
.Ltmp98:
	.loc	7 633 1                 @ ../Drivers/STM32F7xx_HAL_Driver/Src/stm32f7xx_hal_qspi.c:633:1
	it	pl
	poppl	{r4, pc}
.Ltmp99:
	.loc	7 0 1 is_stmt 0         @ ../Drivers/STM32F7xx_HAL_Driver/Src/stm32f7xx_hal_qspi.c:0:1
	ands	r1, r1, #1048576
.Ltmp100:
	.loc	7 625 43 is_stmt 1      @ ../Drivers/STM32F7xx_HAL_Driver/Src/stm32f7xx_hal_qspi.c:625:43
	beq	.LBB6_38
@ %bb.27:
.Ltmp101:
	@DEBUG_VALUE: HAL_QSPI_IRQHandler:itsource <- $r1
	.loc	7 628 5                 @ ../Drivers/STM32F7xx_HAL_Driver/Src/stm32f7xx_hal_qspi.c:628:5
	movs	r1, #16
.Ltmp102:
	str	r1, [r0, #12]
	.loc	7 631 5                 @ ../Drivers/STM32F7xx_HAL_Driver/Src/stm32f7xx_hal_qspi.c:631:5
	mov	r0, r4
	pop.w	{r4, lr}
	b	HAL_QSPI_TimeOutCallback
.Ltmp103:
.LBB6_28:
	@DEBUG_VALUE: HAL_QSPI_IRQHandler:hqspi <- $r4
	.loc	7 0 5 is_stmt 0         @ ../Drivers/STM32F7xx_HAL_Driver/Src/stm32f7xx_hal_qspi.c:0:5
	ldr	r0, [r1]
	bic	r0, r0, #262144
	str	r0, [r1]
.Ltmp104:
.LBB6_29:
	@DEBUG_VALUE: HAL_QSPI_IRQHandler:hqspi <- $r4
	.loc	7 469 5 is_stmt 1       @ ../Drivers/STM32F7xx_HAL_Driver/Src/stm32f7xx_hal_qspi.c:469:5
	mov	r0, r4
	pop.w	{r4, lr}
.Ltmp105:
	b	HAL_QSPI_FifoThresholdCallback
.Ltmp106:
.LBB6_30:
	@DEBUG_VALUE: HAL_QSPI_IRQHandler:flag <- $r2
	@DEBUG_VALUE: HAL_QSPI_IRQHandler:hqspi <- $r4
	.loc	7 543 20                @ ../Drivers/STM32F7xx_HAL_Driver/Src/stm32f7xx_hal_qspi.c:543:20
	ldrb.w	r0, [r4, #65]
.Ltmp107:
	.loc	7 543 13 is_stmt 0      @ ../Drivers/STM32F7xx_HAL_Driver/Src/stm32f7xx_hal_qspi.c:543:13
	cmp	r0, #2
	bne	.LBB6_35
.Ltmp108:
@ %bb.31:
	@DEBUG_VALUE: HAL_QSPI_IRQHandler:flag <- $r2
	@DEBUG_VALUE: HAL_QSPI_IRQHandler:hqspi <- $r4
	.loc	7 546 20 is_stmt 1      @ ../Drivers/STM32F7xx_HAL_Driver/Src/stm32f7xx_hal_qspi.c:546:20
	movs	r0, #1
	strb.w	r0, [r4, #65]
	.loc	7 549 7                 @ ../Drivers/STM32F7xx_HAL_Driver/Src/stm32f7xx_hal_qspi.c:549:7
	mov	r0, r4
	pop.w	{r4, lr}
.Ltmp109:
	b	HAL_QSPI_CmdCpltCallback
.Ltmp110:
.LBB6_32:
	@DEBUG_VALUE: HAL_QSPI_IRQHandler:itsource <- $r1
	@DEBUG_VALUE: HAL_QSPI_IRQHandler:flag <- $r2
	@DEBUG_VALUE: HAL_QSPI_IRQHandler:hqspi <- $r4
	.loc	7 597 5                 @ ../Drivers/STM32F7xx_HAL_Driver/Src/stm32f7xx_hal_qspi.c:597:5
	movs	r1, #1
.Ltmp111:
	str	r1, [r0, #12]
	.loc	7 600 5                 @ ../Drivers/STM32F7xx_HAL_Driver/Src/stm32f7xx_hal_qspi.c:600:5
	ldr	r2, [r0]
.Ltmp112:
	bic	r2, r2, #983040
	str	r2, [r0]
	.loc	7 603 22                @ ../Drivers/STM32F7xx_HAL_Driver/Src/stm32f7xx_hal_qspi.c:603:22
	ldr	r2, [r4, #68]
	orr	r2, r2, #2
	str	r2, [r4, #68]
.Ltmp113:
	.loc	7 605 27                @ ../Drivers/STM32F7xx_HAL_Driver/Src/stm32f7xx_hal_qspi.c:605:27
	ldr	r2, [r0]
.Ltmp114:
	.loc	7 605 9 is_stmt 0       @ ../Drivers/STM32F7xx_HAL_Driver/Src/stm32f7xx_hal_qspi.c:605:9
	tst.w	r2, #4
	bne	.LBB6_42
.Ltmp115:
@ %bb.33:
	@DEBUG_VALUE: HAL_QSPI_IRQHandler:hqspi <- $r4
	.loc	7 617 20 is_stmt 1      @ ../Drivers/STM32F7xx_HAL_Driver/Src/stm32f7xx_hal_qspi.c:617:20
	strb.w	r1, [r4, #65]
	b	.LBB6_37
.Ltmp116:
.LBB6_34:
	@DEBUG_VALUE: HAL_QSPI_IRQHandler:flag <- $r2
	@DEBUG_VALUE: HAL_QSPI_IRQHandler:hqspi <- $r4
	.loc	7 509 9                 @ ../Drivers/STM32F7xx_HAL_Driver/Src/stm32f7xx_hal_qspi.c:509:9
	ldr	r1, [r0]
	bic	r1, r1, #4
	str	r1, [r0]
	.loc	7 512 9                 @ ../Drivers/STM32F7xx_HAL_Driver/Src/stm32f7xx_hal_qspi.c:512:9
	ldr	r0, [r4, #60]
	ldr	r0, [r0]
	ldr	r1, [r0]
	bic	r1, r1, #1
	str	r1, [r0]
	b	.LBB6_41
.Ltmp117:
.LBB6_35:
	@DEBUG_VALUE: HAL_QSPI_IRQHandler:flag <- $r2
	@DEBUG_VALUE: HAL_QSPI_IRQHandler:hqspi <- $r4
	.loc	7 551 20                @ ../Drivers/STM32F7xx_HAL_Driver/Src/stm32f7xx_hal_qspi.c:551:20
	ldrb.w	r0, [r4, #65]
.Ltmp118:
	.loc	7 551 13 is_stmt 0      @ ../Drivers/STM32F7xx_HAL_Driver/Src/stm32f7xx_hal_qspi.c:551:13
	cmp	r0, #8
	bne	.LBB6_38
.Ltmp119:
@ %bb.36:
	@DEBUG_VALUE: HAL_QSPI_IRQHandler:flag <- $r2
	@DEBUG_VALUE: HAL_QSPI_IRQHandler:hqspi <- $r4
	.loc	7 0 13                  @ ../Drivers/STM32F7xx_HAL_Driver/Src/stm32f7xx_hal_qspi.c:0:13
	movs	r0, #1
.Ltmp120:
	.loc	7 554 20 is_stmt 1      @ ../Drivers/STM32F7xx_HAL_Driver/Src/stm32f7xx_hal_qspi.c:554:20
	strb.w	r0, [r4, #65]
.Ltmp121:
	.loc	7 556 18                @ ../Drivers/STM32F7xx_HAL_Driver/Src/stm32f7xx_hal_qspi.c:556:18
	ldr	r0, [r4, #68]
.Ltmp122:
	.loc	7 556 11 is_stmt 0      @ ../Drivers/STM32F7xx_HAL_Driver/Src/stm32f7xx_hal_qspi.c:556:11
	cbz	r0, .LBB6_43
.Ltmp123:
.LBB6_37:
	@DEBUG_VALUE: HAL_QSPI_IRQHandler:hqspi <- $r4
	.loc	7 0 11                  @ ../Drivers/STM32F7xx_HAL_Driver/Src/stm32f7xx_hal_qspi.c:0:11
	mov	r0, r4
	pop.w	{r4, lr}
.Ltmp124:
	b	HAL_QSPI_ErrorCallback
.LBB6_38:
	.loc	7 633 1 is_stmt 1       @ ../Drivers/STM32F7xx_HAL_Driver/Src/stm32f7xx_hal_qspi.c:633:1
	pop	{r4, pc}
.LBB6_39:                               @   in Loop: Header=BB6_40 Depth=1
.Ltmp125:
	@DEBUG_VALUE: HAL_QSPI_IRQHandler:flag <- $r2
	@DEBUG_VALUE: HAL_QSPI_IRQHandler:hqspi <- $r4
	.loc	7 522 36                @ ../Drivers/STM32F7xx_HAL_Driver/Src/stm32f7xx_hal_qspi.c:522:36
	ldrb.w	r1, [r0, #32]
	.loc	7 522 31 is_stmt 0      @ ../Drivers/STM32F7xx_HAL_Driver/Src/stm32f7xx_hal_qspi.c:522:31
	ldr	r2, [r4, #48]
.Ltmp126:
	adds	r3, r2, #1
	str	r3, [r4, #48]
	.loc	7 522 34                @ ../Drivers/STM32F7xx_HAL_Driver/Src/stm32f7xx_hal_qspi.c:522:34
	strb	r1, [r2]
.Ltmp127:
	.loc	7 517 15 is_stmt 1      @ ../Drivers/STM32F7xx_HAL_Driver/Src/stm32f7xx_hal_qspi.c:517:15
	ldr	r1, [r4]
.Ltmp128:
	.loc	7 523 31                @ ../Drivers/STM32F7xx_HAL_Driver/Src/stm32f7xx_hal_qspi.c:523:31
	ldr	r2, [r4, #56]
	subs	r2, #1
	str	r2, [r4, #56]
.Ltmp129:
.LBB6_40:                               @ =>This Inner Loop Header: Depth=1
	@DEBUG_VALUE: HAL_QSPI_IRQHandler:flag <- $r2
	@DEBUG_VALUE: HAL_QSPI_IRQHandler:hqspi <- $r4
	.loc	7 517 15                @ ../Drivers/STM32F7xx_HAL_Driver/Src/stm32f7xx_hal_qspi.c:517:15
	ldr	r1, [r1, #8]
	.loc	7 517 9 is_stmt 0       @ ../Drivers/STM32F7xx_HAL_Driver/Src/stm32f7xx_hal_qspi.c:517:9
	tst.w	r1, #7936
.Ltmp130:
	.loc	7 519 22 is_stmt 1      @ ../Drivers/STM32F7xx_HAL_Driver/Src/stm32f7xx_hal_qspi.c:519:22
	itt	ne
	ldrne	r1, [r4, #56]
.Ltmp131:
	.loc	7 519 15 is_stmt 0      @ ../Drivers/STM32F7xx_HAL_Driver/Src/stm32f7xx_hal_qspi.c:519:15
	cmpne	r1, #0
	bne	.LBB6_39
.Ltmp132:
.LBB6_41:
	@DEBUG_VALUE: HAL_QSPI_IRQHandler:flag <- $r2
	@DEBUG_VALUE: HAL_QSPI_IRQHandler:hqspi <- $r4
	.loc	7 534 7 is_stmt 1       @ ../Drivers/STM32F7xx_HAL_Driver/Src/stm32f7xx_hal_qspi.c:534:7
	mov	r0, r4
	bl	HAL_QSPI_Abort_IT
.Ltmp133:
	.loc	7 538 20                @ ../Drivers/STM32F7xx_HAL_Driver/Src/stm32f7xx_hal_qspi.c:538:20
	movs	r0, #1
	strb.w	r0, [r4, #65]
	.loc	7 541 7                 @ ../Drivers/STM32F7xx_HAL_Driver/Src/stm32f7xx_hal_qspi.c:541:7
	mov	r0, r4
	pop.w	{r4, lr}
.Ltmp134:
	b	HAL_QSPI_RxCpltCallback
.Ltmp135:
.LBB6_42:
	@DEBUG_VALUE: HAL_QSPI_IRQHandler:hqspi <- $r4
	.loc	7 608 7                 @ ../Drivers/STM32F7xx_HAL_Driver/Src/stm32f7xx_hal_qspi.c:608:7
	ldr	r1, [r0]
	bic	r1, r1, #4
	str	r1, [r0]
	.loc	7 611 38                @ ../Drivers/STM32F7xx_HAL_Driver/Src/stm32f7xx_hal_qspi.c:611:38
	ldr	r1, __arm_cp.6_0
	.loc	7 611 14 is_stmt 0      @ ../Drivers/STM32F7xx_HAL_Driver/Src/stm32f7xx_hal_qspi.c:611:14
	ldr	r0, [r4, #60]
	.loc	7 611 38                @ ../Drivers/STM32F7xx_HAL_Driver/Src/stm32f7xx_hal_qspi.c:611:38
	str	r1, [r0, #80]
	.loc	7 612 7 is_stmt 1       @ ../Drivers/STM32F7xx_HAL_Driver/Src/stm32f7xx_hal_qspi.c:612:7
	bl	HAL_DMA_Abort_IT
.Ltmp136:
	.loc	7 633 1                 @ ../Drivers/STM32F7xx_HAL_Driver/Src/stm32f7xx_hal_qspi.c:633:1
	pop	{r4, pc}
.Ltmp137:
.LBB6_43:
	@DEBUG_VALUE: HAL_QSPI_IRQHandler:flag <- $r2
	@DEBUG_VALUE: HAL_QSPI_IRQHandler:hqspi <- $r4
	.loc	7 561 9                 @ ../Drivers/STM32F7xx_HAL_Driver/Src/stm32f7xx_hal_qspi.c:561:9
	mov	r0, r4
	pop.w	{r4, lr}
.Ltmp138:
	b	HAL_QSPI_AbortCpltCallback
.Ltmp139:
	.p2align	2
@ %bb.44:
	.loc	7 0 9 is_stmt 0         @ ../Drivers/STM32F7xx_HAL_Driver/Src/stm32f7xx_hal_qspi.c:0:9
__arm_cp.6_0:
	.long	QSPI_DMAAbortCplt
.Lcpi_end2:
	.size	__arm_cp.6_0, .Lcpi_end2-__arm_cp.6_0
.Lfunc_end6:
	.size	HAL_QSPI_IRQHandler, .Lfunc_end6-HAL_QSPI_IRQHandler
	.cfi_endproc
	.cantunwind
	.fnend
                                        @ -- End function
	.section	.text.HAL_QSPI_FifoThresholdCallback,"ax",%progbits
	.hidden	HAL_QSPI_FifoThresholdCallback @ -- Begin function HAL_QSPI_FifoThresholdCallback
	.weak	HAL_QSPI_FifoThresholdCallback
	.p2align	1
	.type	HAL_QSPI_FifoThresholdCallback,%function
	.code	16                      @ @HAL_QSPI_FifoThresholdCallback
	.thumb_func
HAL_QSPI_FifoThresholdCallback:
.Lfunc_begin7:
	.loc	7 1798 0 is_stmt 1      @ ../Drivers/STM32F7xx_HAL_Driver/Src/stm32f7xx_hal_qspi.c:1798:0
	.fnstart
	.cfi_startproc
@ %bb.0:
	@DEBUG_VALUE: HAL_QSPI_FifoThresholdCallback:hqspi <- $r0
	.loc	7 1805 1 prologue_end   @ ../Drivers/STM32F7xx_HAL_Driver/Src/stm32f7xx_hal_qspi.c:1805:1
	bx	lr
.Ltmp140:
.Lfunc_end7:
	.size	HAL_QSPI_FifoThresholdCallback, .Lfunc_end7-HAL_QSPI_FifoThresholdCallback
	.cfi_endproc
	.cantunwind
	.fnend
                                        @ -- End function
	.section	.text.HAL_QSPI_Abort_IT,"ax",%progbits
	.hidden	HAL_QSPI_Abort_IT       @ -- Begin function HAL_QSPI_Abort_IT
	.globl	HAL_QSPI_Abort_IT
	.p2align	2
	.type	HAL_QSPI_Abort_IT,%function
	.code	16                      @ @HAL_QSPI_Abort_IT
	.thumb_func
HAL_QSPI_Abort_IT:
.Lfunc_begin8:
	.loc	7 1938 0                @ ../Drivers/STM32F7xx_HAL_Driver/Src/stm32f7xx_hal_qspi.c:1938:0
	.fnstart
	.cfi_startproc
@ %bb.0:
	@DEBUG_VALUE: HAL_QSPI_Abort_IT:hqspi <- $r0
	@DEBUG_VALUE: HAL_QSPI_Abort_IT:hqspi <- $r0
	@DEBUG_VALUE: HAL_QSPI_Abort_IT:status <- 0
	.loc	7 1942 15 prologue_end  @ ../Drivers/STM32F7xx_HAL_Driver/Src/stm32f7xx_hal_qspi.c:1942:15
	ldrb.w	r1, [r0, #65]
.Ltmp141:
	.loc	7 1942 7 is_stmt 0      @ ../Drivers/STM32F7xx_HAL_Driver/Src/stm32f7xx_hal_qspi.c:1942:7
	tst.w	r1, #2
	beq	.LBB8_4
.Ltmp142:
@ %bb.1:
	@DEBUG_VALUE: HAL_QSPI_Abort_IT:hqspi <- $r0
	.loc	7 0 7                   @ ../Drivers/STM32F7xx_HAL_Driver/Src/stm32f7xx_hal_qspi.c:0:7
	movs	r1, #0
.Ltmp143:
	.loc	7 1945 5 is_stmt 1      @ ../Drivers/STM32F7xx_HAL_Driver/Src/stm32f7xx_hal_qspi.c:1945:5
	strb.w	r1, [r0, #64]
.Ltmp144:
	.loc	7 1948 18               @ ../Drivers/STM32F7xx_HAL_Driver/Src/stm32f7xx_hal_qspi.c:1948:18
	movs	r1, #8
	strb.w	r1, [r0, #65]
	.loc	7 1951 5                @ ../Drivers/STM32F7xx_HAL_Driver/Src/stm32f7xx_hal_qspi.c:1951:5
	ldr	r1, [r0]
	ldr	r2, [r1]
	bic	r2, r2, #2031616
	str	r2, [r1]
.Ltmp145:
	.loc	7 1953 27               @ ../Drivers/STM32F7xx_HAL_Driver/Src/stm32f7xx_hal_qspi.c:1953:27
	ldr	r2, [r1]
.Ltmp146:
	.loc	7 1953 9 is_stmt 0      @ ../Drivers/STM32F7xx_HAL_Driver/Src/stm32f7xx_hal_qspi.c:1953:9
	tst.w	r2, #4
	bne	.LBB8_3
.Ltmp147:
@ %bb.2:
	@DEBUG_VALUE: HAL_QSPI_Abort_IT:hqspi <- $r0
	.loc	7 1965 7 is_stmt 1      @ ../Drivers/STM32F7xx_HAL_Driver/Src/stm32f7xx_hal_qspi.c:1965:7
	movs	r0, #2
.Ltmp148:
	str	r0, [r1, #12]
	.loc	7 1968 7                @ ../Drivers/STM32F7xx_HAL_Driver/Src/stm32f7xx_hal_qspi.c:1968:7
	ldr	r0, [r1]
	orr	r0, r0, #131072
	str	r0, [r1]
	.loc	7 1971 7                @ ../Drivers/STM32F7xx_HAL_Driver/Src/stm32f7xx_hal_qspi.c:1971:7
	ldr	r0, [r1]
	orr	r0, r0, #2
	str	r0, [r1]
	b	.LBB8_4
.Ltmp149:
.LBB8_3:
	@DEBUG_VALUE: HAL_QSPI_Abort_IT:hqspi <- $r0
	.loc	7 0 7 is_stmt 0         @ ../Drivers/STM32F7xx_HAL_Driver/Src/stm32f7xx_hal_qspi.c:0:7
	.save	{r7, lr}
	push	{r7, lr}
	.cfi_def_cfa_offset 8
	.cfi_offset lr, -4
	.cfi_offset r7, -8
.Ltmp150:
	.loc	7 1956 7 is_stmt 1      @ ../Drivers/STM32F7xx_HAL_Driver/Src/stm32f7xx_hal_qspi.c:1956:7
	ldr	r2, [r1]
	bic	r2, r2, #4
	str	r2, [r1]
	.loc	7 1959 38               @ ../Drivers/STM32F7xx_HAL_Driver/Src/stm32f7xx_hal_qspi.c:1959:38
	ldr	r1, __arm_cp.8_0
	.loc	7 1959 14 is_stmt 0     @ ../Drivers/STM32F7xx_HAL_Driver/Src/stm32f7xx_hal_qspi.c:1959:14
	ldr	r0, [r0, #60]
.Ltmp151:
	.loc	7 1959 38               @ ../Drivers/STM32F7xx_HAL_Driver/Src/stm32f7xx_hal_qspi.c:1959:38
	str	r1, [r0, #80]
	.loc	7 1960 7 is_stmt 1      @ ../Drivers/STM32F7xx_HAL_Driver/Src/stm32f7xx_hal_qspi.c:1960:7
	bl	HAL_DMA_Abort_IT
	.loc	7 1961 5                @ ../Drivers/STM32F7xx_HAL_Driver/Src/stm32f7xx_hal_qspi.c:1961:5
	pop.w	{r7, lr}
.Ltmp152:
.LBB8_4:
	.loc	7 1975 3                @ ../Drivers/STM32F7xx_HAL_Driver/Src/stm32f7xx_hal_qspi.c:1975:3
	movs	r0, #0
	bx	lr
.Ltmp153:
	.p2align	2
@ %bb.5:
	.loc	7 0 3 is_stmt 0         @ ../Drivers/STM32F7xx_HAL_Driver/Src/stm32f7xx_hal_qspi.c:0:3
__arm_cp.8_0:
	.long	QSPI_DMAAbortCplt
.Lcpi_end3:
	.size	__arm_cp.8_0, .Lcpi_end3-__arm_cp.8_0
.Lfunc_end8:
	.size	HAL_QSPI_Abort_IT, .Lfunc_end8-HAL_QSPI_Abort_IT
	.cfi_endproc
	.cantunwind
	.fnend
                                        @ -- End function
	.section	.text.HAL_QSPI_TxCpltCallback,"ax",%progbits
	.hidden	HAL_QSPI_TxCpltCallback @ -- Begin function HAL_QSPI_TxCpltCallback
	.weak	HAL_QSPI_TxCpltCallback
	.p2align	1
	.type	HAL_QSPI_TxCpltCallback,%function
	.code	16                      @ @HAL_QSPI_TxCpltCallback
	.thumb_func
HAL_QSPI_TxCpltCallback:
.Lfunc_begin9:
	.loc	7 1753 0 is_stmt 1      @ ../Drivers/STM32F7xx_HAL_Driver/Src/stm32f7xx_hal_qspi.c:1753:0
	.fnstart
	.cfi_startproc
@ %bb.0:
	@DEBUG_VALUE: HAL_QSPI_TxCpltCallback:hqspi <- $r0
	.loc	7 1760 1 prologue_end   @ ../Drivers/STM32F7xx_HAL_Driver/Src/stm32f7xx_hal_qspi.c:1760:1
	bx	lr
.Ltmp154:
.Lfunc_end9:
	.size	HAL_QSPI_TxCpltCallback, .Lfunc_end9-HAL_QSPI_TxCpltCallback
	.cfi_endproc
	.cantunwind
	.fnend
                                        @ -- End function
	.section	.text.HAL_QSPI_RxCpltCallback,"ax",%progbits
	.hidden	HAL_QSPI_RxCpltCallback @ -- Begin function HAL_QSPI_RxCpltCallback
	.weak	HAL_QSPI_RxCpltCallback
	.p2align	1
	.type	HAL_QSPI_RxCpltCallback,%function
	.code	16                      @ @HAL_QSPI_RxCpltCallback
	.thumb_func
HAL_QSPI_RxCpltCallback:
.Lfunc_begin10:
	.loc	7 1738 0                @ ../Drivers/STM32F7xx_HAL_Driver/Src/stm32f7xx_hal_qspi.c:1738:0
	.fnstart
	.cfi_startproc
@ %bb.0:
	@DEBUG_VALUE: HAL_QSPI_RxCpltCallback:hqspi <- $r0
	.loc	7 1745 1 prologue_end   @ ../Drivers/STM32F7xx_HAL_Driver/Src/stm32f7xx_hal_qspi.c:1745:1
	bx	lr
.Ltmp155:
.Lfunc_end10:
	.size	HAL_QSPI_RxCpltCallback, .Lfunc_end10-HAL_QSPI_RxCpltCallback
	.cfi_endproc
	.cantunwind
	.fnend
                                        @ -- End function
	.section	.text.HAL_QSPI_CmdCpltCallback,"ax",%progbits
	.hidden	HAL_QSPI_CmdCpltCallback @ -- Begin function HAL_QSPI_CmdCpltCallback
	.weak	HAL_QSPI_CmdCpltCallback
	.p2align	1
	.type	HAL_QSPI_CmdCpltCallback,%function
	.code	16                      @ @HAL_QSPI_CmdCpltCallback
	.thumb_func
HAL_QSPI_CmdCpltCallback:
.Lfunc_begin11:
	.loc	7 1723 0                @ ../Drivers/STM32F7xx_HAL_Driver/Src/stm32f7xx_hal_qspi.c:1723:0
	.fnstart
	.cfi_startproc
@ %bb.0:
	@DEBUG_VALUE: HAL_QSPI_CmdCpltCallback:hqspi <- $r0
	.loc	7 1730 1 prologue_end   @ ../Drivers/STM32F7xx_HAL_Driver/Src/stm32f7xx_hal_qspi.c:1730:1
	bx	lr
.Ltmp156:
.Lfunc_end11:
	.size	HAL_QSPI_CmdCpltCallback, .Lfunc_end11-HAL_QSPI_CmdCpltCallback
	.cfi_endproc
	.cantunwind
	.fnend
                                        @ -- End function
	.section	.text.HAL_QSPI_AbortCpltCallback,"ax",%progbits
	.hidden	HAL_QSPI_AbortCpltCallback @ -- Begin function HAL_QSPI_AbortCpltCallback
	.weak	HAL_QSPI_AbortCpltCallback
	.p2align	1
	.type	HAL_QSPI_AbortCpltCallback,%function
	.code	16                      @ @HAL_QSPI_AbortCpltCallback
	.thumb_func
HAL_QSPI_AbortCpltCallback:
.Lfunc_begin12:
	.loc	7 1708 0                @ ../Drivers/STM32F7xx_HAL_Driver/Src/stm32f7xx_hal_qspi.c:1708:0
	.fnstart
	.cfi_startproc
@ %bb.0:
	@DEBUG_VALUE: HAL_QSPI_AbortCpltCallback:hqspi <- $r0
	.loc	7 1715 1 prologue_end   @ ../Drivers/STM32F7xx_HAL_Driver/Src/stm32f7xx_hal_qspi.c:1715:1
	bx	lr
.Ltmp157:
.Lfunc_end12:
	.size	HAL_QSPI_AbortCpltCallback, .Lfunc_end12-HAL_QSPI_AbortCpltCallback
	.cfi_endproc
	.cantunwind
	.fnend
                                        @ -- End function
	.section	.text.HAL_QSPI_ErrorCallback,"ax",%progbits
	.hidden	HAL_QSPI_ErrorCallback  @ -- Begin function HAL_QSPI_ErrorCallback
	.weak	HAL_QSPI_ErrorCallback
	.p2align	1
	.type	HAL_QSPI_ErrorCallback,%function
	.code	16                      @ @HAL_QSPI_ErrorCallback
	.thumb_func
HAL_QSPI_ErrorCallback:
.Lfunc_begin13:
	.loc	7 1693 0                @ ../Drivers/STM32F7xx_HAL_Driver/Src/stm32f7xx_hal_qspi.c:1693:0
	.fnstart
	.cfi_startproc
@ %bb.0:
	@DEBUG_VALUE: HAL_QSPI_ErrorCallback:hqspi <- $r0
	.loc	7 1700 1 prologue_end   @ ../Drivers/STM32F7xx_HAL_Driver/Src/stm32f7xx_hal_qspi.c:1700:1
	bx	lr
.Ltmp158:
.Lfunc_end13:
	.size	HAL_QSPI_ErrorCallback, .Lfunc_end13-HAL_QSPI_ErrorCallback
	.cfi_endproc
	.cantunwind
	.fnend
                                        @ -- End function
	.section	.text.HAL_QSPI_StatusMatchCallback,"ax",%progbits
	.hidden	HAL_QSPI_StatusMatchCallback @ -- Begin function HAL_QSPI_StatusMatchCallback
	.weak	HAL_QSPI_StatusMatchCallback
	.p2align	1
	.type	HAL_QSPI_StatusMatchCallback,%function
	.code	16                      @ @HAL_QSPI_StatusMatchCallback
	.thumb_func
HAL_QSPI_StatusMatchCallback:
.Lfunc_begin14:
	.loc	7 1813 0                @ ../Drivers/STM32F7xx_HAL_Driver/Src/stm32f7xx_hal_qspi.c:1813:0
	.fnstart
	.cfi_startproc
@ %bb.0:
	@DEBUG_VALUE: HAL_QSPI_StatusMatchCallback:hqspi <- $r0
	.loc	7 1820 1 prologue_end   @ ../Drivers/STM32F7xx_HAL_Driver/Src/stm32f7xx_hal_qspi.c:1820:1
	bx	lr
.Ltmp159:
.Lfunc_end14:
	.size	HAL_QSPI_StatusMatchCallback, .Lfunc_end14-HAL_QSPI_StatusMatchCallback
	.cfi_endproc
	.cantunwind
	.fnend
                                        @ -- End function
	.section	.text.QSPI_DMAAbortCplt,"ax",%progbits
	.p2align	1               @ -- Begin function QSPI_DMAAbortCplt
	.type	QSPI_DMAAbortCplt,%function
	.code	16                      @ @QSPI_DMAAbortCplt
	.thumb_func
QSPI_DMAAbortCplt:
.Lfunc_begin15:
	.loc	7 2118 0                @ ../Drivers/STM32F7xx_HAL_Driver/Src/stm32f7xx_hal_qspi.c:2118:0
	.fnstart
	.cfi_startproc
@ %bb.0:
	@DEBUG_VALUE: QSPI_DMAAbortCplt:hdma <- $r0
	@DEBUG_VALUE: QSPI_DMAAbortCplt:hdma <- $r0
	.loc	7 2119 83 prologue_end  @ ../Drivers/STM32F7xx_HAL_Driver/Src/stm32f7xx_hal_qspi.c:2119:83
	ldr	r0, [r0, #56]
.Ltmp160:
	@DEBUG_VALUE: QSPI_DMAAbortCplt:hqspi <- $r0
	.loc	7 0 83 is_stmt 0        @ ../Drivers/STM32F7xx_HAL_Driver/Src/stm32f7xx_hal_qspi.c:0:83
	movs	r1, #0
	.loc	7 2121 22 is_stmt 1     @ ../Drivers/STM32F7xx_HAL_Driver/Src/stm32f7xx_hal_qspi.c:2121:22
	str	r1, [r0, #56]
	.loc	7 2122 22               @ ../Drivers/STM32F7xx_HAL_Driver/Src/stm32f7xx_hal_qspi.c:2122:22
	str	r1, [r0, #44]
.Ltmp161:
	.loc	7 2124 13               @ ../Drivers/STM32F7xx_HAL_Driver/Src/stm32f7xx_hal_qspi.c:2124:13
	ldrb.w	r1, [r0, #65]
.Ltmp162:
	.loc	7 2124 6 is_stmt 0      @ ../Drivers/STM32F7xx_HAL_Driver/Src/stm32f7xx_hal_qspi.c:2124:6
	cmp	r1, #8
	bne	.LBB15_2
.Ltmp163:
@ %bb.1:
	@DEBUG_VALUE: QSPI_DMAAbortCplt:hqspi <- $r0
	.loc	7 2128 5 is_stmt 1      @ ../Drivers/STM32F7xx_HAL_Driver/Src/stm32f7xx_hal_qspi.c:2128:5
	ldr	r0, [r0]
.Ltmp164:
	movs	r1, #2
	str	r1, [r0, #12]
	.loc	7 2131 5                @ ../Drivers/STM32F7xx_HAL_Driver/Src/stm32f7xx_hal_qspi.c:2131:5
	ldr	r1, [r0]
	orr	r1, r1, #131072
	str	r1, [r0]
	.loc	7 2134 5                @ ../Drivers/STM32F7xx_HAL_Driver/Src/stm32f7xx_hal_qspi.c:2134:5
	ldr	r1, [r0]
	orr	r1, r1, #2
	str	r1, [r0]
.Ltmp165:
	.loc	7 2145 1                @ ../Drivers/STM32F7xx_HAL_Driver/Src/stm32f7xx_hal_qspi.c:2145:1
	bx	lr
.LBB15_2:
.Ltmp166:
	@DEBUG_VALUE: QSPI_DMAAbortCplt:hqspi <- $r0
	.loc	7 2140 18               @ ../Drivers/STM32F7xx_HAL_Driver/Src/stm32f7xx_hal_qspi.c:2140:18
	movs	r1, #1
	strb.w	r1, [r0, #65]
	.loc	7 2143 5                @ ../Drivers/STM32F7xx_HAL_Driver/Src/stm32f7xx_hal_qspi.c:2143:5
	b	HAL_QSPI_ErrorCallback
.Ltmp167:
.Lfunc_end15:
	.size	QSPI_DMAAbortCplt, .Lfunc_end15-QSPI_DMAAbortCplt
	.cfi_endproc
	.cantunwind
	.fnend
                                        @ -- End function
	.section	.text.HAL_QSPI_TimeOutCallback,"ax",%progbits
	.hidden	HAL_QSPI_TimeOutCallback @ -- Begin function HAL_QSPI_TimeOutCallback
	.weak	HAL_QSPI_TimeOutCallback
	.p2align	1
	.type	HAL_QSPI_TimeOutCallback,%function
	.code	16                      @ @HAL_QSPI_TimeOutCallback
	.thumb_func
HAL_QSPI_TimeOutCallback:
.Lfunc_begin16:
	.loc	7 1828 0                @ ../Drivers/STM32F7xx_HAL_Driver/Src/stm32f7xx_hal_qspi.c:1828:0
	.fnstart
	.cfi_startproc
@ %bb.0:
	@DEBUG_VALUE: HAL_QSPI_TimeOutCallback:hqspi <- $r0
	.loc	7 1835 1 prologue_end   @ ../Drivers/STM32F7xx_HAL_Driver/Src/stm32f7xx_hal_qspi.c:1835:1
	bx	lr
.Ltmp168:
.Lfunc_end16:
	.size	HAL_QSPI_TimeOutCallback, .Lfunc_end16-HAL_QSPI_TimeOutCallback
	.cfi_endproc
	.cantunwind
	.fnend
                                        @ -- End function
	.section	.text.HAL_QSPI_Command,"ax",%progbits
	.hidden	HAL_QSPI_Command        @ -- Begin function HAL_QSPI_Command
	.globl	HAL_QSPI_Command
	.p2align	1
	.type	HAL_QSPI_Command,%function
	.code	16                      @ @HAL_QSPI_Command
	.thumb_func
HAL_QSPI_Command:
.Lfunc_begin17:
	.loc	7 644 0                 @ ../Drivers/STM32F7xx_HAL_Driver/Src/stm32f7xx_hal_qspi.c:644:0
	.fnstart
	.cfi_startproc
@ %bb.0:
	.save	{r4, r5, r6, r7, lr}
	.pad	#4
	push	{r3, r4, r5, r6, r7, lr}
	.cfi_def_cfa_offset 24
	.cfi_offset lr, -4
	.cfi_offset r7, -8
	.cfi_offset r6, -12
	.cfi_offset r5, -16
	.cfi_offset r4, -20
	@DEBUG_VALUE: HAL_QSPI_Command:hqspi <- $r0
	@DEBUG_VALUE: HAL_QSPI_Command:cmd <- $r1
	@DEBUG_VALUE: HAL_QSPI_Command:Timeout <- $r2
	mov	r5, r2
	mov	r7, r1
	mov	r4, r0
.Ltmp169:
	@DEBUG_VALUE: HAL_QSPI_Command:status <- 1
	@DEBUG_VALUE: HAL_QSPI_Command:Timeout <- $r5
	@DEBUG_VALUE: HAL_QSPI_Command:cmd <- $r7
	@DEBUG_VALUE: HAL_QSPI_Command:hqspi <- $r4
	.loc	7 646 24 prologue_end   @ ../Drivers/STM32F7xx_HAL_Driver/Src/stm32f7xx_hal_qspi.c:646:24
	bl	HAL_GetTick
	mov	r6, r0
.Ltmp170:
	@DEBUG_VALUE: HAL_QSPI_Command:tickstart <- $r6
	.loc	7 675 3                 @ ../Drivers/STM32F7xx_HAL_Driver/Src/stm32f7xx_hal_qspi.c:675:3
	ldrb.w	r0, [r4, #64]
.Ltmp171:
	.loc	7 675 3 is_stmt 0       @ ../Drivers/STM32F7xx_HAL_Driver/Src/stm32f7xx_hal_qspi.c:675:3
	cmp	r0, #1
	bne	.LBB17_2
.Ltmp172:
@ %bb.1:
	@DEBUG_VALUE: HAL_QSPI_Command:tickstart <- $r6
	@DEBUG_VALUE: HAL_QSPI_Command:hqspi <- $r4
	@DEBUG_VALUE: HAL_QSPI_Command:cmd <- $r7
	@DEBUG_VALUE: HAL_QSPI_Command:Timeout <- $r5
	.loc	7 0 3                   @ ../Drivers/STM32F7xx_HAL_Driver/Src/stm32f7xx_hal_qspi.c:0:3
	movs	r0, #2
	b	.LBB17_9
.Ltmp173:
.LBB17_2:
	@DEBUG_VALUE: HAL_QSPI_Command:tickstart <- $r6
	@DEBUG_VALUE: HAL_QSPI_Command:hqspi <- $r4
	@DEBUG_VALUE: HAL_QSPI_Command:cmd <- $r7
	@DEBUG_VALUE: HAL_QSPI_Command:Timeout <- $r5
	movs	r0, #1
.Ltmp174:
	.loc	7 675 3                 @ ../Drivers/STM32F7xx_HAL_Driver/Src/stm32f7xx_hal_qspi.c:675:3
	strb.w	r0, [r4, #64]
	movs	r0, #2
.Ltmp175:
	.loc	7 677 13 is_stmt 1      @ ../Drivers/STM32F7xx_HAL_Driver/Src/stm32f7xx_hal_qspi.c:677:13
	ldrb.w	r1, [r4, #65]
.Ltmp176:
	.loc	7 677 6 is_stmt 0       @ ../Drivers/STM32F7xx_HAL_Driver/Src/stm32f7xx_hal_qspi.c:677:6
	cmp	r1, #1
	bne	.LBB17_8
.Ltmp177:
@ %bb.3:
	@DEBUG_VALUE: HAL_QSPI_Command:tickstart <- $r6
	@DEBUG_VALUE: HAL_QSPI_Command:hqspi <- $r4
	@DEBUG_VALUE: HAL_QSPI_Command:cmd <- $r7
	@DEBUG_VALUE: HAL_QSPI_Command:Timeout <- $r5
	.loc	7 0 6                   @ ../Drivers/STM32F7xx_HAL_Driver/Src/stm32f7xx_hal_qspi.c:0:6
	movs	r1, #0
.Ltmp178:
	.loc	7 685 14 is_stmt 1      @ ../Drivers/STM32F7xx_HAL_Driver/Src/stm32f7xx_hal_qspi.c:685:14
	movs	r2, #0
	mov	r3, r6
	.loc	7 679 22                @ ../Drivers/STM32F7xx_HAL_Driver/Src/stm32f7xx_hal_qspi.c:679:22
	str	r1, [r4, #68]
	.loc	7 682 18                @ ../Drivers/STM32F7xx_HAL_Driver/Src/stm32f7xx_hal_qspi.c:682:18
	strb.w	r0, [r4, #65]
	.loc	7 685 14                @ ../Drivers/STM32F7xx_HAL_Driver/Src/stm32f7xx_hal_qspi.c:685:14
	mov	r0, r4
	movs	r1, #32
	str	r5, [sp]
	bl	QSPI_WaitFlagStateUntilTimeout
	.loc	7 687 9                 @ ../Drivers/STM32F7xx_HAL_Driver/Src/stm32f7xx_hal_qspi.c:687:9
	cbnz	r0, .LBB17_8
.Ltmp179:
@ %bb.4:
	@DEBUG_VALUE: HAL_QSPI_Command:tickstart <- $r6
	@DEBUG_VALUE: HAL_QSPI_Command:hqspi <- $r4
	@DEBUG_VALUE: HAL_QSPI_Command:cmd <- $r7
	@DEBUG_VALUE: HAL_QSPI_Command:Timeout <- $r5
	.loc	7 690 7                 @ ../Drivers/STM32F7xx_HAL_Driver/Src/stm32f7xx_hal_qspi.c:690:7
	mov	r0, r4
	mov	r1, r7
	movs	r2, #0
	bl	QSPI_Config
.Ltmp180:
	.loc	7 692 16                @ ../Drivers/STM32F7xx_HAL_Driver/Src/stm32f7xx_hal_qspi.c:692:16
	ldr	r0, [r7, #36]
.Ltmp181:
	.loc	7 692 11 is_stmt 0      @ ../Drivers/STM32F7xx_HAL_Driver/Src/stm32f7xx_hal_qspi.c:692:11
	cbz	r0, .LBB17_7
.Ltmp182:
@ %bb.5:
	@DEBUG_VALUE: HAL_QSPI_Command:tickstart <- $r6
	@DEBUG_VALUE: HAL_QSPI_Command:hqspi <- $r4
	@DEBUG_VALUE: HAL_QSPI_Command:cmd <- $r7
	@DEBUG_VALUE: HAL_QSPI_Command:Timeout <- $r5
	.loc	7 710 22 is_stmt 1      @ ../Drivers/STM32F7xx_HAL_Driver/Src/stm32f7xx_hal_qspi.c:710:22
	movs	r0, #1
	strb.w	r0, [r4, #65]
.Ltmp183:
.LBB17_6:
	@DEBUG_VALUE: HAL_QSPI_Command:tickstart <- $r6
	@DEBUG_VALUE: HAL_QSPI_Command:hqspi <- $r4
	.loc	7 0 22 is_stmt 0        @ ../Drivers/STM32F7xx_HAL_Driver/Src/stm32f7xx_hal_qspi.c:0:22
	movs	r0, #0
	b	.LBB17_8
.Ltmp184:
.LBB17_7:
	@DEBUG_VALUE: HAL_QSPI_Command:tickstart <- $r6
	@DEBUG_VALUE: HAL_QSPI_Command:hqspi <- $r4
	@DEBUG_VALUE: HAL_QSPI_Command:cmd <- $r7
	@DEBUG_VALUE: HAL_QSPI_Command:Timeout <- $r5
	.loc	7 696 18 is_stmt 1      @ ../Drivers/STM32F7xx_HAL_Driver/Src/stm32f7xx_hal_qspi.c:696:18
	mov	r0, r4
	movs	r1, #2
	movs	r2, #1
	mov	r3, r6
	str	r5, [sp]
	movs	r5, #2
.Ltmp185:
	.loc	7 0 18 is_stmt 0        @ ../Drivers/STM32F7xx_HAL_Driver/Src/stm32f7xx_hal_qspi.c:0:18
	movs	r7, #1
.Ltmp186:
	.loc	7 696 18                @ ../Drivers/STM32F7xx_HAL_Driver/Src/stm32f7xx_hal_qspi.c:696:18
	bl	QSPI_WaitFlagStateUntilTimeout
	.loc	7 698 13 is_stmt 1      @ ../Drivers/STM32F7xx_HAL_Driver/Src/stm32f7xx_hal_qspi.c:698:13
	cbz	r0, .LBB17_10
.Ltmp187:
.LBB17_8:
	@DEBUG_VALUE: HAL_QSPI_Command:tickstart <- $r6
	@DEBUG_VALUE: HAL_QSPI_Command:hqspi <- $r4
	.loc	7 720 3                 @ ../Drivers/STM32F7xx_HAL_Driver/Src/stm32f7xx_hal_qspi.c:720:3
	movs	r1, #0
	strb.w	r1, [r4, #64]
.Ltmp188:
.LBB17_9:
	@DEBUG_VALUE: HAL_QSPI_Command:tickstart <- $r6
	@DEBUG_VALUE: HAL_QSPI_Command:hqspi <- $r4
	.loc	7 724 1                 @ ../Drivers/STM32F7xx_HAL_Driver/Src/stm32f7xx_hal_qspi.c:724:1
	add	sp, #4
	pop	{r4, r5, r6, r7, pc}
.Ltmp189:
.LBB17_10:
	@DEBUG_VALUE: HAL_QSPI_Command:tickstart <- $r6
	@DEBUG_VALUE: HAL_QSPI_Command:hqspi <- $r4
	.loc	7 700 11                @ ../Drivers/STM32F7xx_HAL_Driver/Src/stm32f7xx_hal_qspi.c:700:11
	ldr	r0, [r4]
	str	r5, [r0, #12]
	.loc	7 703 24                @ ../Drivers/STM32F7xx_HAL_Driver/Src/stm32f7xx_hal_qspi.c:703:24
	strb.w	r7, [r4, #65]
	b	.LBB17_6
.Ltmp190:
.Lfunc_end17:
	.size	HAL_QSPI_Command, .Lfunc_end17-HAL_QSPI_Command
	.cfi_endproc
	.cantunwind
	.fnend
                                        @ -- End function
	.section	.text.QSPI_Config,"ax",%progbits
	.p2align	1               @ -- Begin function QSPI_Config
	.type	QSPI_Config,%function
	.code	16                      @ @QSPI_Config
	.thumb_func
QSPI_Config:
.Lfunc_begin18:
	.loc	7 2190 0                @ ../Drivers/STM32F7xx_HAL_Driver/Src/stm32f7xx_hal_qspi.c:2190:0
	.fnstart
	.cfi_startproc
@ %bb.0:
	.save	{r4, r5, r6, r7, r8, lr}
	push.w	{r4, r5, r6, r7, r8, lr}
	.cfi_def_cfa_offset 24
	.cfi_offset lr, -4
	.cfi_offset r8, -8
	.cfi_offset r7, -12
	.cfi_offset r6, -16
	.cfi_offset r5, -20
	.cfi_offset r4, -24
	@DEBUG_VALUE: QSPI_Config:hqspi <- $r0
	@DEBUG_VALUE: QSPI_Config:hqspi <- $r0
	@DEBUG_VALUE: QSPI_Config:cmd <- $r1
	@DEBUG_VALUE: QSPI_Config:cmd <- $r1
	@DEBUG_VALUE: QSPI_Config:FunctionalMode <- $r2
	@DEBUG_VALUE: QSPI_Config:FunctionalMode <- $r2
.Ltmp191:
	.loc	7 2193 13 prologue_end  @ ../Drivers/STM32F7xx_HAL_Driver/Src/stm32f7xx_hal_qspi.c:2193:13
	ldr.w	r12, [r1, #36]
	.loc	7 2193 41 is_stmt 0     @ ../Drivers/STM32F7xx_HAL_Driver/Src/stm32f7xx_hal_qspi.c:2193:41
	cmp.w	r2, #201326592
	itttt	ne
	cmpne.w	r12, #0
.Ltmp192:
	.loc	7 2196 5 is_stmt 1      @ ../Drivers/STM32F7xx_HAL_Driver/Src/stm32f7xx_hal_qspi.c:2196:5
	ldrne	r3, [r0]
	ldrne	r4, [r1, #40]
	subne	r4, #1
	it	ne
	strne	r4, [r3, #16]
.Ltmp193:
	.loc	7 2199 12               @ ../Drivers/STM32F7xx_HAL_Driver/Src/stm32f7xx_hal_qspi.c:2199:12
	ldr.w	lr, [r1, #24]
	ldr	r3, [r1, #32]
.Ltmp194:
	.loc	7 2199 7 is_stmt 0      @ ../Drivers/STM32F7xx_HAL_Driver/Src/stm32f7xx_hal_qspi.c:2199:7
	cmp.w	lr, #0
	beq	.LBB18_4
.Ltmp195:
@ %bb.1:
	@DEBUG_VALUE: QSPI_Config:FunctionalMode <- $r2
	@DEBUG_VALUE: QSPI_Config:cmd <- $r1
	@DEBUG_VALUE: QSPI_Config:hqspi <- $r0
	.loc	7 2201 9 is_stmt 1      @ ../Drivers/STM32F7xx_HAL_Driver/Src/stm32f7xx_hal_qspi.c:2201:9
	cmp	r3, #0
	beq	.LBB18_7
.Ltmp196:
@ %bb.2:
	@DEBUG_VALUE: QSPI_Config:FunctionalMode <- $r2
	@DEBUG_VALUE: QSPI_Config:cmd <- $r1
	@DEBUG_VALUE: QSPI_Config:hqspi <- $r0
	.loc	7 2204 7                @ ../Drivers/STM32F7xx_HAL_Driver/Src/stm32f7xx_hal_qspi.c:2204:7
	ldr.w	r8, [r0]
	ldr	r0, [r1, #8]
.Ltmp197:
	str.w	r0, [r8, #28]
	orr.w	r0, r3, r12
	ldrd	r12, r5, [r1, #16]
.Ltmp198:
	.loc	7 2206 16               @ ../Drivers/STM32F7xx_HAL_Driver/Src/stm32f7xx_hal_qspi.c:2206:16
	ldr	r3, [r1, #28]
	ldrd	r6, r7, [r1, #44]
	ldr	r4, [r1, #52]
	orrs	r0, r6
.Ltmp199:
	.loc	7 2206 11 is_stmt 0     @ ../Drivers/STM32F7xx_HAL_Driver/Src/stm32f7xx_hal_qspi.c:2206:11
	cmp	r3, #0
	orr.w	r0, r0, r7
	orr.w	r0, r0, r4
	orr.w	r0, r0, r5, lsl #18
	orr.w	r0, r0, r12
	beq	.LBB18_9
.Ltmp200:
@ %bb.3:
	@DEBUG_VALUE: QSPI_Config:FunctionalMode <- $r2
	@DEBUG_VALUE: QSPI_Config:cmd <- $r1
	.loc	7 2210 9 is_stmt 1      @ ../Drivers/STM32F7xx_HAL_Driver/Src/stm32f7xx_hal_qspi.c:2210:9
	orr.w	r7, lr, r2
	.loc	7 2215 13               @ ../Drivers/STM32F7xx_HAL_Driver/Src/stm32f7xx_hal_qspi.c:2215:13
	cmp.w	r2, #201326592
	.loc	7 2210 9                @ ../Drivers/STM32F7xx_HAL_Driver/Src/stm32f7xx_hal_qspi.c:2210:9
	orr.w	r3, r3, r7
	ldr	r7, [r1, #12]
	orr.w	r0, r0, r3
	ldr	r3, [r1]
	orr.w	r0, r0, r7
	orr.w	r0, r0, r3
	str.w	r0, [r8, #20]
.Ltmp201:
	.loc	7 2218 11               @ ../Drivers/STM32F7xx_HAL_Driver/Src/stm32f7xx_hal_qspi.c:2218:11
	ittt	ne
	ldrne	r0, [r1, #4]
	strne.w	r0, [r8, #24]
.Ltmp202:
	.loc	7 2321 1                @ ../Drivers/STM32F7xx_HAL_Driver/Src/stm32f7xx_hal_qspi.c:2321:1
	popne.w	{r4, r5, r6, r7, r8, pc}
	pop.w	{r4, r5, r6, r7, r8, pc}
.Ltmp203:
.LBB18_4:
	@DEBUG_VALUE: QSPI_Config:FunctionalMode <- $r2
	@DEBUG_VALUE: QSPI_Config:cmd <- $r1
	@DEBUG_VALUE: QSPI_Config:hqspi <- $r0
	.loc	7 2261 9                @ ../Drivers/STM32F7xx_HAL_Driver/Src/stm32f7xx_hal_qspi.c:2261:9
	cmp	r3, #0
	beq	.LBB18_10
.Ltmp204:
@ %bb.5:
	@DEBUG_VALUE: QSPI_Config:FunctionalMode <- $r2
	@DEBUG_VALUE: QSPI_Config:cmd <- $r1
	@DEBUG_VALUE: QSPI_Config:hqspi <- $r0
	.loc	7 2264 7                @ ../Drivers/STM32F7xx_HAL_Driver/Src/stm32f7xx_hal_qspi.c:2264:7
	ldr.w	lr, [r0]
	ldr	r7, [r1, #8]
	str.w	r7, [lr, #28]
	orr.w	r7, r3, r12
	ldrd	r12, r5, [r1, #16]
.Ltmp205:
	.loc	7 2266 16               @ ../Drivers/STM32F7xx_HAL_Driver/Src/stm32f7xx_hal_qspi.c:2266:16
	ldr	r3, [r1, #28]
	ldrd	r4, r6, [r1, #44]
	ldr	r0, [r1, #52]
.Ltmp206:
	.loc	7 0 16 is_stmt 0        @ ../Drivers/STM32F7xx_HAL_Driver/Src/stm32f7xx_hal_qspi.c:0:16
	orrs	r4, r7
.Ltmp207:
	.loc	7 2266 11               @ ../Drivers/STM32F7xx_HAL_Driver/Src/stm32f7xx_hal_qspi.c:2266:11
	cmp	r3, #0
	orr.w	r4, r4, r6
	orr.w	r0, r0, r4
	orr.w	r0, r0, r5, lsl #18
	orr.w	r4, r0, r12
	beq	.LBB18_13
.Ltmp208:
@ %bb.6:
	@DEBUG_VALUE: QSPI_Config:FunctionalMode <- $r2
	@DEBUG_VALUE: QSPI_Config:cmd <- $r1
	.loc	7 2270 9 is_stmt 1      @ ../Drivers/STM32F7xx_HAL_Driver/Src/stm32f7xx_hal_qspi.c:2270:9
	orr.w	r0, r3, r2
	ldr	r3, [r1, #12]
	.loc	7 2275 13               @ ../Drivers/STM32F7xx_HAL_Driver/Src/stm32f7xx_hal_qspi.c:2275:13
	cmp.w	r2, #201326592
	.loc	7 2270 9                @ ../Drivers/STM32F7xx_HAL_Driver/Src/stm32f7xx_hal_qspi.c:2270:9
	orr.w	r0, r0, r4
	orr.w	r0, r0, r3
	str.w	r0, [lr, #20]
.Ltmp209:
	.loc	7 2278 11               @ ../Drivers/STM32F7xx_HAL_Driver/Src/stm32f7xx_hal_qspi.c:2278:11
	ittt	ne
	ldrne	r0, [r1, #4]
	strne.w	r0, [lr, #24]
.Ltmp210:
	.loc	7 2321 1                @ ../Drivers/STM32F7xx_HAL_Driver/Src/stm32f7xx_hal_qspi.c:2321:1
	popne.w	{r4, r5, r6, r7, r8, pc}
	pop.w	{r4, r5, r6, r7, r8, pc}
.Ltmp211:
.LBB18_7:
	@DEBUG_VALUE: QSPI_Config:FunctionalMode <- $r2
	@DEBUG_VALUE: QSPI_Config:cmd <- $r1
	@DEBUG_VALUE: QSPI_Config:hqspi <- $r0
	.loc	7 0 1 is_stmt 0         @ ../Drivers/STM32F7xx_HAL_Driver/Src/stm32f7xx_hal_qspi.c:0:1
	add.w	r7, r1, #44
.Ltmp212:
	.loc	7 2233 16 is_stmt 1     @ ../Drivers/STM32F7xx_HAL_Driver/Src/stm32f7xx_hal_qspi.c:2233:16
	ldr	r3, [r1, #28]
	ldr	r4, [r1, #20]
	ldm	r7, {r5, r6, r7}
.Ltmp213:
	.loc	7 2233 11 is_stmt 0     @ ../Drivers/STM32F7xx_HAL_Driver/Src/stm32f7xx_hal_qspi.c:2233:11
	cmp	r3, #0
	orr.w	r5, r5, r12
	orr.w	r6, r6, r5
	orr.w	r7, r7, r6
	orr.w	r12, r7, r4, lsl #18
	beq	.LBB18_14
.Ltmp214:
@ %bb.8:
	@DEBUG_VALUE: QSPI_Config:FunctionalMode <- $r2
	@DEBUG_VALUE: QSPI_Config:cmd <- $r1
	@DEBUG_VALUE: QSPI_Config:hqspi <- $r0
	.loc	7 2237 9 is_stmt 1      @ ../Drivers/STM32F7xx_HAL_Driver/Src/stm32f7xx_hal_qspi.c:2237:9
	orr.w	r7, lr, r2
	ldr	r6, [r1, #12]
	orrs	r3, r7
	ldr	r7, [r1]
	orr.w	r3, r3, r12
	orrs	r3, r6
	orrs	r3, r7
	b	.LBB18_12
.Ltmp215:
.LBB18_9:
	@DEBUG_VALUE: QSPI_Config:FunctionalMode <- $r2
	@DEBUG_VALUE: QSPI_Config:cmd <- $r1
	.loc	7 2225 9                @ ../Drivers/STM32F7xx_HAL_Driver/Src/stm32f7xx_hal_qspi.c:2225:9
	ldr	r1, [r1]
.Ltmp216:
	orr.w	r2, r2, lr
.Ltmp217:
	orrs	r0, r2
	orrs	r0, r1
	str.w	r0, [r8, #20]
.Ltmp218:
	.loc	7 2321 1                @ ../Drivers/STM32F7xx_HAL_Driver/Src/stm32f7xx_hal_qspi.c:2321:1
	pop.w	{r4, r5, r6, r7, r8, pc}
.LBB18_10:
.Ltmp219:
	@DEBUG_VALUE: QSPI_Config:FunctionalMode <- $r2
	@DEBUG_VALUE: QSPI_Config:cmd <- $r1
	@DEBUG_VALUE: QSPI_Config:hqspi <- $r0
	.loc	7 2293 16               @ ../Drivers/STM32F7xx_HAL_Driver/Src/stm32f7xx_hal_qspi.c:2293:16
	ldr	r3, [r1, #28]
.Ltmp220:
	.loc	7 2293 11 is_stmt 0     @ ../Drivers/STM32F7xx_HAL_Driver/Src/stm32f7xx_hal_qspi.c:2293:11
	cbz	r3, .LBB18_15
.Ltmp221:
@ %bb.11:
	@DEBUG_VALUE: QSPI_Config:FunctionalMode <- $r2
	@DEBUG_VALUE: QSPI_Config:cmd <- $r1
	@DEBUG_VALUE: QSPI_Config:hqspi <- $r0
	.loc	7 2297 9 is_stmt 1      @ ../Drivers/STM32F7xx_HAL_Driver/Src/stm32f7xx_hal_qspi.c:2297:9
	orr.w	r7, r12, r2
	ldr.w	r12, [r1, #12]
	ldr	r6, [r1, #20]
	ldrd	r5, r4, [r1, #44]
	orrs	r3, r7
	ldr	r7, [r1, #52]
	orrs	r3, r5
	orrs	r3, r4
	orrs	r3, r7
	orr.w	r3, r3, r6, lsl #18
	orr.w	r3, r3, r12
.Ltmp222:
.LBB18_12:
	@DEBUG_VALUE: QSPI_Config:FunctionalMode <- $r2
	@DEBUG_VALUE: QSPI_Config:cmd <- $r1
	@DEBUG_VALUE: QSPI_Config:hqspi <- $r0
	.loc	7 0 9 is_stmt 0         @ ../Drivers/STM32F7xx_HAL_Driver/Src/stm32f7xx_hal_qspi.c:0:9
	ldr	r0, [r0]
.Ltmp223:
	cmp.w	r2, #201326592
	str	r3, [r0, #20]
	ittt	ne
	ldrne	r1, [r1, #4]
.Ltmp224:
	strne	r1, [r0, #24]
	.loc	7 2321 1 is_stmt 1      @ ../Drivers/STM32F7xx_HAL_Driver/Src/stm32f7xx_hal_qspi.c:2321:1
	popne.w	{r4, r5, r6, r7, r8, pc}
	pop.w	{r4, r5, r6, r7, r8, pc}
.Ltmp225:
.LBB18_13:
	@DEBUG_VALUE: QSPI_Config:FunctionalMode <- $r2
	@DEBUG_VALUE: QSPI_Config:cmd <- $r1
	.loc	7 2285 9                @ ../Drivers/STM32F7xx_HAL_Driver/Src/stm32f7xx_hal_qspi.c:2285:9
	orr.w	r0, r4, r2
	str.w	r0, [lr, #20]
.Ltmp226:
	.loc	7 2321 1                @ ../Drivers/STM32F7xx_HAL_Driver/Src/stm32f7xx_hal_qspi.c:2321:1
	pop.w	{r4, r5, r6, r7, r8, pc}
.Ltmp227:
.LBB18_14:
	@DEBUG_VALUE: QSPI_Config:FunctionalMode <- $r2
	@DEBUG_VALUE: QSPI_Config:cmd <- $r1
	@DEBUG_VALUE: QSPI_Config:hqspi <- $r0
	.loc	7 2252 9                @ ../Drivers/STM32F7xx_HAL_Driver/Src/stm32f7xx_hal_qspi.c:2252:9
	ldr	r1, [r1]
.Ltmp228:
	orr.w	r2, r2, lr
.Ltmp229:
	orr.w	r2, r2, r12
	orrs	r1, r2
	b	.LBB18_16
.Ltmp230:
.LBB18_15:
	@DEBUG_VALUE: QSPI_Config:FunctionalMode <- $r2
	@DEBUG_VALUE: QSPI_Config:cmd <- $r1
	@DEBUG_VALUE: QSPI_Config:hqspi <- $r0
	.loc	7 2311 13               @ ../Drivers/STM32F7xx_HAL_Driver/Src/stm32f7xx_hal_qspi.c:2311:13
	cmp.w	r12, #0
.Ltmp231:
	.loc	7 2321 1                @ ../Drivers/STM32F7xx_HAL_Driver/Src/stm32f7xx_hal_qspi.c:2321:1
	it	eq
	popeq.w	{r4, r5, r6, r7, r8, pc}
.Ltmp232:
	.loc	7 2314 11               @ ../Drivers/STM32F7xx_HAL_Driver/Src/stm32f7xx_hal_qspi.c:2314:11
	ldr	r3, [r1, #20]
	ldrd	r7, r6, [r1, #44]
	ldr	r1, [r1, #52]
.Ltmp233:
	orr.w	r2, r2, r12
.Ltmp234:
	orrs	r2, r7
	orrs	r2, r6
	orrs	r1, r2
	orr.w	r1, r1, r3, lsl #18
.Ltmp235:
.LBB18_16:
	@DEBUG_VALUE: QSPI_Config:hqspi <- $r0
	.loc	7 0 11 is_stmt 0        @ ../Drivers/STM32F7xx_HAL_Driver/Src/stm32f7xx_hal_qspi.c:0:11
	ldr	r0, [r0]
.Ltmp236:
	str	r1, [r0, #20]
	.loc	7 2321 1 is_stmt 1      @ ../Drivers/STM32F7xx_HAL_Driver/Src/stm32f7xx_hal_qspi.c:2321:1
	pop.w	{r4, r5, r6, r7, r8, pc}
.Ltmp237:
.Lfunc_end18:
	.size	QSPI_Config, .Lfunc_end18-QSPI_Config
	.cfi_endproc
	.cantunwind
	.fnend
                                        @ -- End function
	.section	.text.HAL_QSPI_Command_IT,"ax",%progbits
	.hidden	HAL_QSPI_Command_IT     @ -- Begin function HAL_QSPI_Command_IT
	.globl	HAL_QSPI_Command_IT
	.p2align	1
	.type	HAL_QSPI_Command_IT,%function
	.code	16                      @ @HAL_QSPI_Command_IT
	.thumb_func
HAL_QSPI_Command_IT:
.Lfunc_begin19:
	.loc	7 734 0                 @ ../Drivers/STM32F7xx_HAL_Driver/Src/stm32f7xx_hal_qspi.c:734:0
	.fnstart
	.cfi_startproc
@ %bb.0:
	.save	{r4, r5, r6, r7, lr}
	.pad	#4
	push	{r3, r4, r5, r6, r7, lr}
	.cfi_def_cfa_offset 24
	.cfi_offset lr, -4
	.cfi_offset r7, -8
	.cfi_offset r6, -12
	.cfi_offset r5, -16
	.cfi_offset r4, -20
	@DEBUG_VALUE: HAL_QSPI_Command_IT:hqspi <- $r0
	@DEBUG_VALUE: HAL_QSPI_Command_IT:cmd <- $r1
	mov	r5, r1
	mov	r4, r0
.Ltmp238:
	@DEBUG_VALUE: HAL_QSPI_Command_IT:status <- 1
	@DEBUG_VALUE: HAL_QSPI_Command_IT:cmd <- $r5
	@DEBUG_VALUE: HAL_QSPI_Command_IT:hqspi <- $r4
	.loc	7 736 24 prologue_end   @ ../Drivers/STM32F7xx_HAL_Driver/Src/stm32f7xx_hal_qspi.c:736:24
	bl	HAL_GetTick
	mov	r3, r0
.Ltmp239:
	@DEBUG_VALUE: HAL_QSPI_Command_IT:tickstart <- $r3
	.loc	7 765 3                 @ ../Drivers/STM32F7xx_HAL_Driver/Src/stm32f7xx_hal_qspi.c:765:3
	ldrb.w	r0, [r4, #64]
.Ltmp240:
	.loc	7 765 3 is_stmt 0       @ ../Drivers/STM32F7xx_HAL_Driver/Src/stm32f7xx_hal_qspi.c:765:3
	cmp	r0, #1
	beq	.LBB19_5
.Ltmp241:
@ %bb.1:
	@DEBUG_VALUE: HAL_QSPI_Command_IT:tickstart <- $r3
	@DEBUG_VALUE: HAL_QSPI_Command_IT:hqspi <- $r4
	@DEBUG_VALUE: HAL_QSPI_Command_IT:cmd <- $r5
	.loc	7 0 3                   @ ../Drivers/STM32F7xx_HAL_Driver/Src/stm32f7xx_hal_qspi.c:0:3
	movs	r0, #1
.Ltmp242:
	.loc	7 765 3                 @ ../Drivers/STM32F7xx_HAL_Driver/Src/stm32f7xx_hal_qspi.c:765:3
	strb.w	r0, [r4, #64]
.Ltmp243:
	.loc	7 767 13 is_stmt 1      @ ../Drivers/STM32F7xx_HAL_Driver/Src/stm32f7xx_hal_qspi.c:767:13
	ldrb.w	r0, [r4, #65]
.Ltmp244:
	.loc	7 767 6 is_stmt 0       @ ../Drivers/STM32F7xx_HAL_Driver/Src/stm32f7xx_hal_qspi.c:767:6
	cmp	r0, #1
	bne	.LBB19_4
.Ltmp245:
@ %bb.2:
	@DEBUG_VALUE: HAL_QSPI_Command_IT:tickstart <- $r3
	@DEBUG_VALUE: HAL_QSPI_Command_IT:hqspi <- $r4
	@DEBUG_VALUE: HAL_QSPI_Command_IT:cmd <- $r5
	.loc	7 0 6                   @ ../Drivers/STM32F7xx_HAL_Driver/Src/stm32f7xx_hal_qspi.c:0:6
	movs	r7, #0
.Ltmp246:
	.loc	7 772 18 is_stmt 1      @ ../Drivers/STM32F7xx_HAL_Driver/Src/stm32f7xx_hal_qspi.c:772:18
	movs	r0, #2
	.loc	7 775 14                @ ../Drivers/STM32F7xx_HAL_Driver/Src/stm32f7xx_hal_qspi.c:775:14
	movs	r1, #32
	movs	r2, #0
	.loc	7 769 22                @ ../Drivers/STM32F7xx_HAL_Driver/Src/stm32f7xx_hal_qspi.c:769:22
	str	r7, [r4, #68]
	.loc	7 772 18                @ ../Drivers/STM32F7xx_HAL_Driver/Src/stm32f7xx_hal_qspi.c:772:18
	strb.w	r0, [r4, #65]
	.loc	7 775 93                @ ../Drivers/STM32F7xx_HAL_Driver/Src/stm32f7xx_hal_qspi.c:775:93
	ldr	r0, [r4, #72]
	.loc	7 775 14 is_stmt 0      @ ../Drivers/STM32F7xx_HAL_Driver/Src/stm32f7xx_hal_qspi.c:775:14
	str	r0, [sp]
	mov	r0, r4
	bl	QSPI_WaitFlagStateUntilTimeout
.Ltmp247:
	mov	r6, r0
	.loc	7 777 9 is_stmt 1       @ ../Drivers/STM32F7xx_HAL_Driver/Src/stm32f7xx_hal_qspi.c:777:9
	cbz	r0, .LBB19_7
.Ltmp248:
@ %bb.3:
	@DEBUG_VALUE: HAL_QSPI_Command_IT:hqspi <- $r4
	@DEBUG_VALUE: HAL_QSPI_Command_IT:cmd <- $r5
	.loc	7 810 7                 @ ../Drivers/STM32F7xx_HAL_Driver/Src/stm32f7xx_hal_qspi.c:810:7
	strb.w	r7, [r4, #64]
	b	.LBB19_6
.Ltmp249:
.LBB19_4:
	@DEBUG_VALUE: HAL_QSPI_Command_IT:tickstart <- $r3
	@DEBUG_VALUE: HAL_QSPI_Command_IT:hqspi <- $r4
	@DEBUG_VALUE: HAL_QSPI_Command_IT:cmd <- $r5
	@DEBUG_VALUE: HAL_QSPI_Command_IT:status <- 2
	.loc	7 818 5                 @ ../Drivers/STM32F7xx_HAL_Driver/Src/stm32f7xx_hal_qspi.c:818:5
	movs	r0, #0
	strb.w	r0, [r4, #64]
.Ltmp250:
.LBB19_5:
	@DEBUG_VALUE: HAL_QSPI_Command_IT:tickstart <- $r3
	@DEBUG_VALUE: HAL_QSPI_Command_IT:hqspi <- $r4
	@DEBUG_VALUE: HAL_QSPI_Command_IT:cmd <- $r5
	.loc	7 0 5 is_stmt 0         @ ../Drivers/STM32F7xx_HAL_Driver/Src/stm32f7xx_hal_qspi.c:0:5
	movs	r6, #2
.Ltmp251:
.LBB19_6:
	@DEBUG_VALUE: HAL_QSPI_Command_IT:hqspi <- $r4
	@DEBUG_VALUE: HAL_QSPI_Command_IT:cmd <- $r5
	.loc	7 823 1 is_stmt 1       @ ../Drivers/STM32F7xx_HAL_Driver/Src/stm32f7xx_hal_qspi.c:823:1
	mov	r0, r6
	add	sp, #4
	pop	{r4, r5, r6, r7, pc}
.Ltmp252:
.LBB19_7:
	@DEBUG_VALUE: HAL_QSPI_Command_IT:hqspi <- $r4
	@DEBUG_VALUE: HAL_QSPI_Command_IT:cmd <- $r5
	.loc	7 779 16                @ ../Drivers/STM32F7xx_HAL_Driver/Src/stm32f7xx_hal_qspi.c:779:16
	ldr	r0, [r5, #36]
.Ltmp253:
	.loc	7 779 11 is_stmt 0      @ ../Drivers/STM32F7xx_HAL_Driver/Src/stm32f7xx_hal_qspi.c:779:11
	cbnz	r0, .LBB19_9
.Ltmp254:
@ %bb.8:
	@DEBUG_VALUE: HAL_QSPI_Command_IT:hqspi <- $r4
	@DEBUG_VALUE: HAL_QSPI_Command_IT:cmd <- $r5
	.loc	7 782 9 is_stmt 1       @ ../Drivers/STM32F7xx_HAL_Driver/Src/stm32f7xx_hal_qspi.c:782:9
	ldr	r0, [r4]
	movs	r1, #3
	str	r1, [r0, #12]
.Ltmp255:
.LBB19_9:
	@DEBUG_VALUE: HAL_QSPI_Command_IT:hqspi <- $r4
	@DEBUG_VALUE: HAL_QSPI_Command_IT:cmd <- $r5
	.loc	7 786 7                 @ ../Drivers/STM32F7xx_HAL_Driver/Src/stm32f7xx_hal_qspi.c:786:7
	mov	r0, r4
	mov	r1, r5
	movs	r2, #0
	movs	r6, #0
	bl	QSPI_Config
.Ltmp256:
	.loc	7 788 16                @ ../Drivers/STM32F7xx_HAL_Driver/Src/stm32f7xx_hal_qspi.c:788:16
	ldr	r0, [r5, #36]
.Ltmp257:
	.loc	7 788 11 is_stmt 0      @ ../Drivers/STM32F7xx_HAL_Driver/Src/stm32f7xx_hal_qspi.c:788:11
	cbz	r0, .LBB19_11
.Ltmp258:
@ %bb.10:
	@DEBUG_VALUE: HAL_QSPI_Command_IT:hqspi <- $r4
	@DEBUG_VALUE: HAL_QSPI_Command_IT:cmd <- $r5
	.loc	7 801 22 is_stmt 1      @ ../Drivers/STM32F7xx_HAL_Driver/Src/stm32f7xx_hal_qspi.c:801:22
	movs	r0, #1
	strb.w	r0, [r4, #65]
.Ltmp259:
	.loc	7 804 9                 @ ../Drivers/STM32F7xx_HAL_Driver/Src/stm32f7xx_hal_qspi.c:804:9
	strb.w	r6, [r4, #64]
	b	.LBB19_6
.Ltmp260:
.LBB19_11:
	@DEBUG_VALUE: HAL_QSPI_Command_IT:hqspi <- $r4
	@DEBUG_VALUE: HAL_QSPI_Command_IT:cmd <- $r5
	.loc	7 793 9                 @ ../Drivers/STM32F7xx_HAL_Driver/Src/stm32f7xx_hal_qspi.c:793:9
	strb.w	r6, [r4, #64]
.Ltmp261:
	.loc	7 796 9                 @ ../Drivers/STM32F7xx_HAL_Driver/Src/stm32f7xx_hal_qspi.c:796:9
	ldr	r0, [r4]
	ldr	r1, [r0]
	orr	r1, r1, #196608
	str	r1, [r0]
	b	.LBB19_6
.Ltmp262:
.Lfunc_end19:
	.size	HAL_QSPI_Command_IT, .Lfunc_end19-HAL_QSPI_Command_IT
	.cfi_endproc
	.cantunwind
	.fnend
                                        @ -- End function
	.section	.text.HAL_QSPI_Transmit,"ax",%progbits
	.hidden	HAL_QSPI_Transmit       @ -- Begin function HAL_QSPI_Transmit
	.globl	HAL_QSPI_Transmit
	.p2align	1
	.type	HAL_QSPI_Transmit,%function
	.code	16                      @ @HAL_QSPI_Transmit
	.thumb_func
HAL_QSPI_Transmit:
.Lfunc_begin20:
	.loc	7 834 0                 @ ../Drivers/STM32F7xx_HAL_Driver/Src/stm32f7xx_hal_qspi.c:834:0
	.fnstart
	.cfi_startproc
@ %bb.0:
	.save	{r4, r5, r6, r7, r8, lr}
	.pad	#8
	push.w	{r2, r3, r4, r5, r6, r7, r8, lr}
	.cfi_def_cfa_offset 32
	.cfi_offset lr, -4
	.cfi_offset r8, -8
	.cfi_offset r7, -12
	.cfi_offset r6, -16
	.cfi_offset r5, -20
	.cfi_offset r4, -24
	@DEBUG_VALUE: HAL_QSPI_Transmit:hqspi <- $r0
	@DEBUG_VALUE: HAL_QSPI_Transmit:pData <- $r1
	@DEBUG_VALUE: HAL_QSPI_Transmit:Timeout <- $r2
	mov	r5, r2
	mov	r8, r1
	mov	r4, r0
.Ltmp263:
	@DEBUG_VALUE: HAL_QSPI_Transmit:status <- 0
	@DEBUG_VALUE: HAL_QSPI_Transmit:Timeout <- $r5
	@DEBUG_VALUE: HAL_QSPI_Transmit:pData <- $r8
	@DEBUG_VALUE: HAL_QSPI_Transmit:hqspi <- $r4
	.loc	7 836 24 prologue_end   @ ../Drivers/STM32F7xx_HAL_Driver/Src/stm32f7xx_hal_qspi.c:836:24
	bl	HAL_GetTick
	mov	r6, r0
.Ltmp264:
	@DEBUG_VALUE: HAL_QSPI_Transmit:tickstart <- $r6
	.loc	7 837 37                @ ../Drivers/STM32F7xx_HAL_Driver/Src/stm32f7xx_hal_qspi.c:837:37
	ldr	r7, [r4]
.Ltmp265:
	.loc	7 840 3                 @ ../Drivers/STM32F7xx_HAL_Driver/Src/stm32f7xx_hal_qspi.c:840:3
	ldrb.w	r0, [r4, #64]
.Ltmp266:
	.loc	7 840 3 is_stmt 0       @ ../Drivers/STM32F7xx_HAL_Driver/Src/stm32f7xx_hal_qspi.c:840:3
	cmp	r0, #1
	bne	.LBB20_2
.Ltmp267:
@ %bb.1:
	@DEBUG_VALUE: HAL_QSPI_Transmit:tickstart <- $r6
	@DEBUG_VALUE: HAL_QSPI_Transmit:hqspi <- $r4
	@DEBUG_VALUE: HAL_QSPI_Transmit:pData <- $r8
	@DEBUG_VALUE: HAL_QSPI_Transmit:Timeout <- $r5
	.loc	7 0 3                   @ ../Drivers/STM32F7xx_HAL_Driver/Src/stm32f7xx_hal_qspi.c:0:3
	movs	r0, #2
	b	.LBB20_14
.Ltmp268:
.LBB20_2:
	@DEBUG_VALUE: HAL_QSPI_Transmit:tickstart <- $r6
	@DEBUG_VALUE: HAL_QSPI_Transmit:hqspi <- $r4
	@DEBUG_VALUE: HAL_QSPI_Transmit:pData <- $r8
	@DEBUG_VALUE: HAL_QSPI_Transmit:Timeout <- $r5
	movs	r0, #1
.Ltmp269:
	.loc	7 840 3                 @ ../Drivers/STM32F7xx_HAL_Driver/Src/stm32f7xx_hal_qspi.c:840:3
	strb.w	r0, [r4, #64]
.Ltmp270:
	.loc	7 842 13 is_stmt 1      @ ../Drivers/STM32F7xx_HAL_Driver/Src/stm32f7xx_hal_qspi.c:842:13
	ldrb.w	r0, [r4, #65]
.Ltmp271:
	.loc	7 842 6 is_stmt 0       @ ../Drivers/STM32F7xx_HAL_Driver/Src/stm32f7xx_hal_qspi.c:842:6
	cmp	r0, #1
	bne	.LBB20_11
.Ltmp272:
@ %bb.3:
	@DEBUG_VALUE: HAL_QSPI_Transmit:tickstart <- $r6
	@DEBUG_VALUE: HAL_QSPI_Transmit:hqspi <- $r4
	@DEBUG_VALUE: HAL_QSPI_Transmit:pData <- $r8
	@DEBUG_VALUE: HAL_QSPI_Transmit:Timeout <- $r5
	.loc	7 0 6                   @ ../Drivers/STM32F7xx_HAL_Driver/Src/stm32f7xx_hal_qspi.c:0:6
	movs	r0, #0
.Ltmp273:
	.loc	7 846 8 is_stmt 1       @ ../Drivers/STM32F7xx_HAL_Driver/Src/stm32f7xx_hal_qspi.c:846:8
	cmp.w	r8, #0
	.loc	7 844 22                @ ../Drivers/STM32F7xx_HAL_Driver/Src/stm32f7xx_hal_qspi.c:844:22
	str	r0, [r4, #68]
	.loc	7 846 8                 @ ../Drivers/STM32F7xx_HAL_Driver/Src/stm32f7xx_hal_qspi.c:846:8
	beq	.LBB20_12
.Ltmp274:
@ %bb.4:
	@DEBUG_VALUE: HAL_QSPI_Transmit:tickstart <- $r6
	@DEBUG_VALUE: HAL_QSPI_Transmit:hqspi <- $r4
	@DEBUG_VALUE: HAL_QSPI_Transmit:pData <- $r8
	@DEBUG_VALUE: HAL_QSPI_Transmit:Timeout <- $r5
	.loc	7 849 20                @ ../Drivers/STM32F7xx_HAL_Driver/Src/stm32f7xx_hal_qspi.c:849:20
	movs	r0, #18
	strb.w	r0, [r4, #65]
	.loc	7 852 28                @ ../Drivers/STM32F7xx_HAL_Driver/Src/stm32f7xx_hal_qspi.c:852:28
	ldr	r0, [r7, #16]
	.loc	7 852 59 is_stmt 0      @ ../Drivers/STM32F7xx_HAL_Driver/Src/stm32f7xx_hal_qspi.c:852:59
	adds	r0, #1
	.loc	7 852 26                @ ../Drivers/STM32F7xx_HAL_Driver/Src/stm32f7xx_hal_qspi.c:852:26
	str	r0, [r4, #44]
	.loc	7 853 27 is_stmt 1      @ ../Drivers/STM32F7xx_HAL_Driver/Src/stm32f7xx_hal_qspi.c:853:27
	ldr	r0, [r7, #16]
	.loc	7 854 25                @ ../Drivers/STM32F7xx_HAL_Driver/Src/stm32f7xx_hal_qspi.c:854:25
	str.w	r8, [r4, #36]
	.loc	7 853 58                @ ../Drivers/STM32F7xx_HAL_Driver/Src/stm32f7xx_hal_qspi.c:853:58
	adds	r0, #1
	.loc	7 853 25 is_stmt 0      @ ../Drivers/STM32F7xx_HAL_Driver/Src/stm32f7xx_hal_qspi.c:853:25
	str	r0, [r4, #40]
	.loc	7 857 7 is_stmt 1       @ ../Drivers/STM32F7xx_HAL_Driver/Src/stm32f7xx_hal_qspi.c:857:7
	ldr	r0, [r7, #20]
	bic	r0, r0, #201326592
	str	r0, [r7, #20]
	b	.LBB20_7
.Ltmp275:
.LBB20_5:                               @   in Loop: Header=BB20_7 Depth=1
	@DEBUG_VALUE: HAL_QSPI_Transmit:tickstart <- $r6
	@DEBUG_VALUE: HAL_QSPI_Transmit:hqspi <- $r4
	@DEBUG_VALUE: HAL_QSPI_Transmit:pData <- $r8
	@DEBUG_VALUE: HAL_QSPI_Transmit:Timeout <- $r5
	.loc	7 862 18                @ ../Drivers/STM32F7xx_HAL_Driver/Src/stm32f7xx_hal_qspi.c:862:18
	mov	r0, r4
	movs	r1, #4
	movs	r2, #1
	mov	r3, r6
	str	r5, [sp]
	bl	QSPI_WaitFlagStateUntilTimeout
	.loc	7 864 13                @ ../Drivers/STM32F7xx_HAL_Driver/Src/stm32f7xx_hal_qspi.c:864:13
	cbnz	r0, .LBB20_10
.Ltmp276:
@ %bb.6:                                @   in Loop: Header=BB20_7 Depth=1
	@DEBUG_VALUE: HAL_QSPI_Transmit:tickstart <- $r6
	@DEBUG_VALUE: HAL_QSPI_Transmit:hqspi <- $r4
	@DEBUG_VALUE: HAL_QSPI_Transmit:pData <- $r8
	@DEBUG_VALUE: HAL_QSPI_Transmit:Timeout <- $r5
	.loc	7 869 55                @ ../Drivers/STM32F7xx_HAL_Driver/Src/stm32f7xx_hal_qspi.c:869:55
	ldr	r0, [r4, #36]
	adds	r1, r0, #1
	str	r1, [r4, #36]
	.loc	7 869 37 is_stmt 0      @ ../Drivers/STM32F7xx_HAL_Driver/Src/stm32f7xx_hal_qspi.c:869:37
	ldrb	r0, [r0]
	.loc	7 869 35                @ ../Drivers/STM32F7xx_HAL_Driver/Src/stm32f7xx_hal_qspi.c:869:35
	strb.w	r0, [r7, #32]
	.loc	7 870 27 is_stmt 1      @ ../Drivers/STM32F7xx_HAL_Driver/Src/stm32f7xx_hal_qspi.c:870:27
	ldr	r0, [r4, #44]
	subs	r0, #1
	str	r0, [r4, #44]
.Ltmp277:
.LBB20_7:                               @ =>This Inner Loop Header: Depth=1
	@DEBUG_VALUE: HAL_QSPI_Transmit:tickstart <- $r6
	@DEBUG_VALUE: HAL_QSPI_Transmit:hqspi <- $r4
	@DEBUG_VALUE: HAL_QSPI_Transmit:pData <- $r8
	@DEBUG_VALUE: HAL_QSPI_Transmit:Timeout <- $r5
	.loc	7 859 20                @ ../Drivers/STM32F7xx_HAL_Driver/Src/stm32f7xx_hal_qspi.c:859:20
	ldr	r0, [r4, #44]
	.loc	7 859 7 is_stmt 0       @ ../Drivers/STM32F7xx_HAL_Driver/Src/stm32f7xx_hal_qspi.c:859:7
	cmp	r0, #0
	bne	.LBB20_5
.Ltmp278:
@ %bb.8:
	@DEBUG_VALUE: HAL_QSPI_Transmit:tickstart <- $r6
	@DEBUG_VALUE: HAL_QSPI_Transmit:hqspi <- $r4
	@DEBUG_VALUE: HAL_QSPI_Transmit:pData <- $r8
	@DEBUG_VALUE: HAL_QSPI_Transmit:Timeout <- $r5
	.loc	7 876 18 is_stmt 1      @ ../Drivers/STM32F7xx_HAL_Driver/Src/stm32f7xx_hal_qspi.c:876:18
	mov	r0, r4
	movs	r1, #2
	movs	r2, #1
	mov	r3, r6
	str	r5, [sp]
	movs	r5, #2
.Ltmp279:
	bl	QSPI_WaitFlagStateUntilTimeout
	.loc	7 878 13                @ ../Drivers/STM32F7xx_HAL_Driver/Src/stm32f7xx_hal_qspi.c:878:13
	cbnz	r0, .LBB20_10
.Ltmp280:
@ %bb.9:
	@DEBUG_VALUE: HAL_QSPI_Transmit:tickstart <- $r6
	@DEBUG_VALUE: HAL_QSPI_Transmit:hqspi <- $r4
	@DEBUG_VALUE: HAL_QSPI_Transmit:pData <- $r8
	.loc	7 881 11                @ ../Drivers/STM32F7xx_HAL_Driver/Src/stm32f7xx_hal_qspi.c:881:11
	ldr	r0, [r4]
	str	r5, [r0, #12]
	.loc	7 885 20                @ ../Drivers/STM32F7xx_HAL_Driver/Src/stm32f7xx_hal_qspi.c:885:20
	mov	r0, r4
	bl	HAL_QSPI_Abort
.Ltmp281:
.LBB20_10:
	@DEBUG_VALUE: HAL_QSPI_Transmit:tickstart <- $r6
	@DEBUG_VALUE: HAL_QSPI_Transmit:hqspi <- $r4
	@DEBUG_VALUE: HAL_QSPI_Transmit:pData <- $r8
	.loc	7 891 20                @ ../Drivers/STM32F7xx_HAL_Driver/Src/stm32f7xx_hal_qspi.c:891:20
	movs	r1, #1
	strb.w	r1, [r4, #65]
	b	.LBB20_13
.Ltmp282:
.LBB20_11:
	@DEBUG_VALUE: HAL_QSPI_Transmit:tickstart <- $r6
	@DEBUG_VALUE: HAL_QSPI_Transmit:hqspi <- $r4
	@DEBUG_VALUE: HAL_QSPI_Transmit:pData <- $r8
	@DEBUG_VALUE: HAL_QSPI_Transmit:Timeout <- $r5
	.loc	7 0 20 is_stmt 0        @ ../Drivers/STM32F7xx_HAL_Driver/Src/stm32f7xx_hal_qspi.c:0:20
	movs	r0, #2
	b	.LBB20_13
.Ltmp283:
.LBB20_12:
	@DEBUG_VALUE: HAL_QSPI_Transmit:tickstart <- $r6
	@DEBUG_VALUE: HAL_QSPI_Transmit:hqspi <- $r4
	@DEBUG_VALUE: HAL_QSPI_Transmit:pData <- $r8
	@DEBUG_VALUE: HAL_QSPI_Transmit:Timeout <- $r5
	.loc	7 895 24 is_stmt 1      @ ../Drivers/STM32F7xx_HAL_Driver/Src/stm32f7xx_hal_qspi.c:895:24
	ldr	r0, [r4, #68]
	orr	r0, r0, #8
	str	r0, [r4, #68]
	movs	r0, #1
.Ltmp284:
	@DEBUG_VALUE: HAL_QSPI_Transmit:status <- 1
.LBB20_13:
	@DEBUG_VALUE: HAL_QSPI_Transmit:tickstart <- $r6
	@DEBUG_VALUE: HAL_QSPI_Transmit:hqspi <- $r4
	@DEBUG_VALUE: HAL_QSPI_Transmit:pData <- $r8
	.loc	7 905 3                 @ ../Drivers/STM32F7xx_HAL_Driver/Src/stm32f7xx_hal_qspi.c:905:3
	movs	r1, #0
	strb.w	r1, [r4, #64]
.Ltmp285:
.LBB20_14:
	@DEBUG_VALUE: HAL_QSPI_Transmit:tickstart <- $r6
	@DEBUG_VALUE: HAL_QSPI_Transmit:hqspi <- $r4
	@DEBUG_VALUE: HAL_QSPI_Transmit:pData <- $r8
	.loc	7 908 1                 @ ../Drivers/STM32F7xx_HAL_Driver/Src/stm32f7xx_hal_qspi.c:908:1
	add	sp, #8
	pop.w	{r4, r5, r6, r7, r8, pc}
.Ltmp286:
.Lfunc_end20:
	.size	HAL_QSPI_Transmit, .Lfunc_end20-HAL_QSPI_Transmit
	.cfi_endproc
	.cantunwind
	.fnend
                                        @ -- End function
	.section	.text.HAL_QSPI_Abort,"ax",%progbits
	.hidden	HAL_QSPI_Abort          @ -- Begin function HAL_QSPI_Abort
	.globl	HAL_QSPI_Abort
	.p2align	1
	.type	HAL_QSPI_Abort,%function
	.code	16                      @ @HAL_QSPI_Abort
	.thumb_func
HAL_QSPI_Abort:
.Lfunc_begin21:
	.loc	7 1885 0                @ ../Drivers/STM32F7xx_HAL_Driver/Src/stm32f7xx_hal_qspi.c:1885:0
	.fnstart
	.cfi_startproc
@ %bb.0:
	.save	{r4, r5, r6, lr}
	.pad	#8
	push	{r2, r3, r4, r5, r6, lr}
	.cfi_def_cfa_offset 24
	.cfi_offset lr, -4
	.cfi_offset r6, -8
	.cfi_offset r5, -12
	.cfi_offset r4, -16
	@DEBUG_VALUE: HAL_QSPI_Abort:hqspi <- $r0
	mov	r4, r0
.Ltmp287:
	@DEBUG_VALUE: HAL_QSPI_Abort:status <- 0
	@DEBUG_VALUE: HAL_QSPI_Abort:hqspi <- $r4
	.loc	7 1887 24 prologue_end  @ ../Drivers/STM32F7xx_HAL_Driver/Src/stm32f7xx_hal_qspi.c:1887:24
	bl	HAL_GetTick
.Ltmp288:
	.loc	7 1890 15               @ ../Drivers/STM32F7xx_HAL_Driver/Src/stm32f7xx_hal_qspi.c:1890:15
	ldrb.w	r1, [r4, #65]
.Ltmp289:
	.loc	7 1887 24               @ ../Drivers/STM32F7xx_HAL_Driver/Src/stm32f7xx_hal_qspi.c:1887:24
	mov	r5, r0
.Ltmp290:
	@DEBUG_VALUE: HAL_QSPI_Abort:tickstart <- $r5
	.loc	7 0 24 is_stmt 0        @ ../Drivers/STM32F7xx_HAL_Driver/Src/stm32f7xx_hal_qspi.c:0:24
	movs	r0, #0
	.loc	7 1890 7 is_stmt 1      @ ../Drivers/STM32F7xx_HAL_Driver/Src/stm32f7xx_hal_qspi.c:1890:7
	tst.w	r1, #2
	beq	.LBB21_7
.Ltmp291:
@ %bb.1:
	@DEBUG_VALUE: HAL_QSPI_Abort:tickstart <- $r5
	@DEBUG_VALUE: HAL_QSPI_Abort:hqspi <- $r4
	.loc	7 1893 5                @ ../Drivers/STM32F7xx_HAL_Driver/Src/stm32f7xx_hal_qspi.c:1893:5
	strb.w	r0, [r4, #64]
.Ltmp292:
	.loc	7 1895 17               @ ../Drivers/STM32F7xx_HAL_Driver/Src/stm32f7xx_hal_qspi.c:1895:17
	ldr	r0, [r4]
	.loc	7 1895 27 is_stmt 0     @ ../Drivers/STM32F7xx_HAL_Driver/Src/stm32f7xx_hal_qspi.c:1895:27
	ldr	r1, [r0]
.Ltmp293:
	.loc	7 1895 9                @ ../Drivers/STM32F7xx_HAL_Driver/Src/stm32f7xx_hal_qspi.c:1895:9
	tst.w	r1, #4
	beq	.LBB21_4
.Ltmp294:
@ %bb.2:
	@DEBUG_VALUE: HAL_QSPI_Abort:tickstart <- $r5
	@DEBUG_VALUE: HAL_QSPI_Abort:hqspi <- $r4
	.loc	7 1898 7 is_stmt 1      @ ../Drivers/STM32F7xx_HAL_Driver/Src/stm32f7xx_hal_qspi.c:1898:7
	ldr	r1, [r0]
	bic	r1, r1, #4
	str	r1, [r0]
	.loc	7 1901 37               @ ../Drivers/STM32F7xx_HAL_Driver/Src/stm32f7xx_hal_qspi.c:1901:37
	ldr	r0, [r4, #60]
	.loc	7 1901 16 is_stmt 0     @ ../Drivers/STM32F7xx_HAL_Driver/Src/stm32f7xx_hal_qspi.c:1901:16
	bl	HAL_DMA_Abort
	.loc	7 1902 10 is_stmt 1     @ ../Drivers/STM32F7xx_HAL_Driver/Src/stm32f7xx_hal_qspi.c:1902:10
	cbz	r0, .LBB21_4
.Ltmp295:
@ %bb.3:
	@DEBUG_VALUE: HAL_QSPI_Abort:tickstart <- $r5
	@DEBUG_VALUE: HAL_QSPI_Abort:hqspi <- $r4
	.loc	7 1904 26               @ ../Drivers/STM32F7xx_HAL_Driver/Src/stm32f7xx_hal_qspi.c:1904:26
	ldr	r0, [r4, #68]
	orr	r0, r0, #4
	str	r0, [r4, #68]
.Ltmp296:
.LBB21_4:
	@DEBUG_VALUE: HAL_QSPI_Abort:tickstart <- $r5
	@DEBUG_VALUE: HAL_QSPI_Abort:hqspi <- $r4
	.loc	7 1909 5                @ ../Drivers/STM32F7xx_HAL_Driver/Src/stm32f7xx_hal_qspi.c:1909:5
	ldr	r0, [r4]
	.loc	7 1912 14               @ ../Drivers/STM32F7xx_HAL_Driver/Src/stm32f7xx_hal_qspi.c:1912:14
	movs	r2, #1
	mov	r3, r5
	.loc	7 1909 5                @ ../Drivers/STM32F7xx_HAL_Driver/Src/stm32f7xx_hal_qspi.c:1909:5
	movs	r6, #2
	ldr	r1, [r0]
	orr	r1, r1, #2
	str	r1, [r0]
	.loc	7 1912 14               @ ../Drivers/STM32F7xx_HAL_Driver/Src/stm32f7xx_hal_qspi.c:1912:14
	movs	r1, #2
	.loc	7 1912 89 is_stmt 0     @ ../Drivers/STM32F7xx_HAL_Driver/Src/stm32f7xx_hal_qspi.c:1912:89
	ldr	r0, [r4, #72]
	.loc	7 1912 14               @ ../Drivers/STM32F7xx_HAL_Driver/Src/stm32f7xx_hal_qspi.c:1912:14
	str	r0, [sp]
	mov	r0, r4
	bl	QSPI_WaitFlagStateUntilTimeout
	.loc	7 1914 8 is_stmt 1      @ ../Drivers/STM32F7xx_HAL_Driver/Src/stm32f7xx_hal_qspi.c:1914:8
	cbnz	r0, .LBB21_7
.Ltmp297:
@ %bb.5:
	@DEBUG_VALUE: HAL_QSPI_Abort:tickstart <- $r5
	@DEBUG_VALUE: HAL_QSPI_Abort:hqspi <- $r4
	.loc	7 1916 7                @ ../Drivers/STM32F7xx_HAL_Driver/Src/stm32f7xx_hal_qspi.c:1916:7
	ldr	r0, [r4]
	.loc	7 1919 16               @ ../Drivers/STM32F7xx_HAL_Driver/Src/stm32f7xx_hal_qspi.c:1919:16
	movs	r1, #32
	movs	r2, #0
	mov	r3, r5
	.loc	7 1916 7                @ ../Drivers/STM32F7xx_HAL_Driver/Src/stm32f7xx_hal_qspi.c:1916:7
	str	r6, [r0, #12]
	.loc	7 1919 95               @ ../Drivers/STM32F7xx_HAL_Driver/Src/stm32f7xx_hal_qspi.c:1919:95
	ldr	r0, [r4, #72]
	.loc	7 1919 16 is_stmt 0     @ ../Drivers/STM32F7xx_HAL_Driver/Src/stm32f7xx_hal_qspi.c:1919:16
	str	r0, [sp]
	mov	r0, r4
	bl	QSPI_WaitFlagStateUntilTimeout
.Ltmp298:
	.loc	7 1922 9 is_stmt 1      @ ../Drivers/STM32F7xx_HAL_Driver/Src/stm32f7xx_hal_qspi.c:1922:9
	cbnz	r0, .LBB21_7
.Ltmp299:
@ %bb.6:
	@DEBUG_VALUE: HAL_QSPI_Abort:tickstart <- $r5
	@DEBUG_VALUE: HAL_QSPI_Abort:hqspi <- $r4
	.loc	7 1925 20               @ ../Drivers/STM32F7xx_HAL_Driver/Src/stm32f7xx_hal_qspi.c:1925:20
	movs	r0, #1
	strb.w	r0, [r4, #65]
	movs	r0, #0
.Ltmp300:
.LBB21_7:
	@DEBUG_VALUE: HAL_QSPI_Abort:tickstart <- $r5
	@DEBUG_VALUE: HAL_QSPI_Abort:hqspi <- $r4
	.loc	7 1929 3                @ ../Drivers/STM32F7xx_HAL_Driver/Src/stm32f7xx_hal_qspi.c:1929:3
	add	sp, #8
	pop	{r4, r5, r6, pc}
.Ltmp301:
.Lfunc_end21:
	.size	HAL_QSPI_Abort, .Lfunc_end21-HAL_QSPI_Abort
	.cfi_endproc
	.cantunwind
	.fnend
                                        @ -- End function
	.section	.text.HAL_QSPI_Receive,"ax",%progbits
	.hidden	HAL_QSPI_Receive        @ -- Begin function HAL_QSPI_Receive
	.globl	HAL_QSPI_Receive
	.p2align	1
	.type	HAL_QSPI_Receive,%function
	.code	16                      @ @HAL_QSPI_Receive
	.thumb_func
HAL_QSPI_Receive:
.Lfunc_begin22:
	.loc	7 920 0                 @ ../Drivers/STM32F7xx_HAL_Driver/Src/stm32f7xx_hal_qspi.c:920:0
	.fnstart
	.cfi_startproc
@ %bb.0:
	.save	{r4, r5, r6, r7, r8, lr}
	.pad	#8
	push.w	{r2, r3, r4, r5, r6, r7, r8, lr}
	.cfi_def_cfa_offset 32
	.cfi_offset lr, -4
	.cfi_offset r8, -8
	.cfi_offset r7, -12
	.cfi_offset r6, -16
	.cfi_offset r5, -20
	.cfi_offset r4, -24
	@DEBUG_VALUE: HAL_QSPI_Receive:hqspi <- $r0
	@DEBUG_VALUE: HAL_QSPI_Receive:pData <- $r1
	@DEBUG_VALUE: HAL_QSPI_Receive:Timeout <- $r2
	mov	r5, r2
	mov	r8, r1
	mov	r4, r0
.Ltmp302:
	@DEBUG_VALUE: HAL_QSPI_Receive:status <- 0
	@DEBUG_VALUE: HAL_QSPI_Receive:Timeout <- $r5
	@DEBUG_VALUE: HAL_QSPI_Receive:pData <- $r8
	@DEBUG_VALUE: HAL_QSPI_Receive:hqspi <- $r4
	.loc	7 922 24 prologue_end   @ ../Drivers/STM32F7xx_HAL_Driver/Src/stm32f7xx_hal_qspi.c:922:24
	bl	HAL_GetTick
	.loc	7 923 23                @ ../Drivers/STM32F7xx_HAL_Driver/Src/stm32f7xx_hal_qspi.c:923:23
	ldr	r7, [r4]
	.loc	7 922 24                @ ../Drivers/STM32F7xx_HAL_Driver/Src/stm32f7xx_hal_qspi.c:922:24
	mov	r6, r0
.Ltmp303:
	@DEBUG_VALUE: HAL_QSPI_Receive:tickstart <- $r6
	.loc	7 923 23                @ ../Drivers/STM32F7xx_HAL_Driver/Src/stm32f7xx_hal_qspi.c:923:23
	ldr	r0, [r7, #24]
.Ltmp304:
	@DEBUG_VALUE: HAL_QSPI_Receive:addr_reg <- $r0
	.loc	7 927 3                 @ ../Drivers/STM32F7xx_HAL_Driver/Src/stm32f7xx_hal_qspi.c:927:3
	ldrb.w	r1, [r4, #64]
.Ltmp305:
	.loc	7 927 3 is_stmt 0       @ ../Drivers/STM32F7xx_HAL_Driver/Src/stm32f7xx_hal_qspi.c:927:3
	cmp	r1, #1
	bne	.LBB22_2
.Ltmp306:
@ %bb.1:
	@DEBUG_VALUE: HAL_QSPI_Receive:addr_reg <- $r0
	@DEBUG_VALUE: HAL_QSPI_Receive:tickstart <- $r6
	@DEBUG_VALUE: HAL_QSPI_Receive:hqspi <- $r4
	@DEBUG_VALUE: HAL_QSPI_Receive:pData <- $r8
	@DEBUG_VALUE: HAL_QSPI_Receive:Timeout <- $r5
	.loc	7 0 3                   @ ../Drivers/STM32F7xx_HAL_Driver/Src/stm32f7xx_hal_qspi.c:0:3
	movs	r0, #2
.Ltmp307:
	b	.LBB22_14
.Ltmp308:
.LBB22_2:
	@DEBUG_VALUE: HAL_QSPI_Receive:addr_reg <- $r0
	@DEBUG_VALUE: HAL_QSPI_Receive:tickstart <- $r6
	@DEBUG_VALUE: HAL_QSPI_Receive:hqspi <- $r4
	@DEBUG_VALUE: HAL_QSPI_Receive:pData <- $r8
	@DEBUG_VALUE: HAL_QSPI_Receive:Timeout <- $r5
	movs	r1, #1
.Ltmp309:
	.loc	7 927 3                 @ ../Drivers/STM32F7xx_HAL_Driver/Src/stm32f7xx_hal_qspi.c:927:3
	strb.w	r1, [r4, #64]
.Ltmp310:
	.loc	7 929 13 is_stmt 1      @ ../Drivers/STM32F7xx_HAL_Driver/Src/stm32f7xx_hal_qspi.c:929:13
	ldrb.w	r1, [r4, #65]
.Ltmp311:
	.loc	7 929 6 is_stmt 0       @ ../Drivers/STM32F7xx_HAL_Driver/Src/stm32f7xx_hal_qspi.c:929:6
	cmp	r1, #1
	bne	.LBB22_11
.Ltmp312:
@ %bb.3:
	@DEBUG_VALUE: HAL_QSPI_Receive:addr_reg <- $r0
	@DEBUG_VALUE: HAL_QSPI_Receive:tickstart <- $r6
	@DEBUG_VALUE: HAL_QSPI_Receive:hqspi <- $r4
	@DEBUG_VALUE: HAL_QSPI_Receive:pData <- $r8
	@DEBUG_VALUE: HAL_QSPI_Receive:Timeout <- $r5
	.loc	7 0 6                   @ ../Drivers/STM32F7xx_HAL_Driver/Src/stm32f7xx_hal_qspi.c:0:6
	movs	r1, #0
.Ltmp313:
	.loc	7 932 8 is_stmt 1       @ ../Drivers/STM32F7xx_HAL_Driver/Src/stm32f7xx_hal_qspi.c:932:8
	cmp.w	r8, #0
	.loc	7 931 22                @ ../Drivers/STM32F7xx_HAL_Driver/Src/stm32f7xx_hal_qspi.c:931:22
	str	r1, [r4, #68]
	.loc	7 932 8                 @ ../Drivers/STM32F7xx_HAL_Driver/Src/stm32f7xx_hal_qspi.c:932:8
	beq	.LBB22_12
.Ltmp314:
@ %bb.4:
	@DEBUG_VALUE: HAL_QSPI_Receive:addr_reg <- $r0
	@DEBUG_VALUE: HAL_QSPI_Receive:tickstart <- $r6
	@DEBUG_VALUE: HAL_QSPI_Receive:hqspi <- $r4
	@DEBUG_VALUE: HAL_QSPI_Receive:pData <- $r8
	@DEBUG_VALUE: HAL_QSPI_Receive:Timeout <- $r5
	.loc	7 935 20                @ ../Drivers/STM32F7xx_HAL_Driver/Src/stm32f7xx_hal_qspi.c:935:20
	movs	r1, #34
	movs	r2, #1
	strb.w	r1, [r4, #65]
	.loc	7 938 28                @ ../Drivers/STM32F7xx_HAL_Driver/Src/stm32f7xx_hal_qspi.c:938:28
	ldr	r1, [r7, #16]
	.loc	7 938 59 is_stmt 0      @ ../Drivers/STM32F7xx_HAL_Driver/Src/stm32f7xx_hal_qspi.c:938:59
	adds	r1, #1
	.loc	7 938 26                @ ../Drivers/STM32F7xx_HAL_Driver/Src/stm32f7xx_hal_qspi.c:938:26
	str	r1, [r4, #56]
	.loc	7 939 27 is_stmt 1      @ ../Drivers/STM32F7xx_HAL_Driver/Src/stm32f7xx_hal_qspi.c:939:27
	ldr	r1, [r7, #16]
	.loc	7 940 25                @ ../Drivers/STM32F7xx_HAL_Driver/Src/stm32f7xx_hal_qspi.c:940:25
	str.w	r8, [r4, #48]
	.loc	7 939 58                @ ../Drivers/STM32F7xx_HAL_Driver/Src/stm32f7xx_hal_qspi.c:939:58
	adds	r1, #1
	.loc	7 939 25 is_stmt 0      @ ../Drivers/STM32F7xx_HAL_Driver/Src/stm32f7xx_hal_qspi.c:939:25
	str	r1, [r4, #52]
	.loc	7 943 7 is_stmt 1       @ ../Drivers/STM32F7xx_HAL_Driver/Src/stm32f7xx_hal_qspi.c:943:7
	ldr	r1, [r7, #20]
	bfi	r1, r2, #26, #2
	str	r1, [r7, #20]
	.loc	7 946 7                 @ ../Drivers/STM32F7xx_HAL_Driver/Src/stm32f7xx_hal_qspi.c:946:7
	str	r0, [r7, #24]
	b	.LBB22_7
.Ltmp315:
.LBB22_5:                               @   in Loop: Header=BB22_7 Depth=1
	@DEBUG_VALUE: HAL_QSPI_Receive:tickstart <- $r6
	@DEBUG_VALUE: HAL_QSPI_Receive:hqspi <- $r4
	@DEBUG_VALUE: HAL_QSPI_Receive:pData <- $r8
	@DEBUG_VALUE: HAL_QSPI_Receive:Timeout <- $r5
	.loc	7 951 18                @ ../Drivers/STM32F7xx_HAL_Driver/Src/stm32f7xx_hal_qspi.c:951:18
	mov	r0, r4
	movs	r1, #6
	movs	r2, #1
	mov	r3, r6
	str	r5, [sp]
	bl	QSPI_WaitFlagStateUntilTimeout
	.loc	7 953 14                @ ../Drivers/STM32F7xx_HAL_Driver/Src/stm32f7xx_hal_qspi.c:953:14
	cbnz	r0, .LBB22_10
.Ltmp316:
@ %bb.6:                                @   in Loop: Header=BB22_7 Depth=1
	@DEBUG_VALUE: HAL_QSPI_Receive:tickstart <- $r6
	@DEBUG_VALUE: HAL_QSPI_Receive:hqspi <- $r4
	@DEBUG_VALUE: HAL_QSPI_Receive:pData <- $r8
	@DEBUG_VALUE: HAL_QSPI_Receive:Timeout <- $r5
	.loc	7 958 32                @ ../Drivers/STM32F7xx_HAL_Driver/Src/stm32f7xx_hal_qspi.c:958:32
	ldrb.w	r0, [r7, #32]
	.loc	7 958 27 is_stmt 0      @ ../Drivers/STM32F7xx_HAL_Driver/Src/stm32f7xx_hal_qspi.c:958:27
	ldr	r1, [r4, #48]
	adds	r2, r1, #1
	str	r2, [r4, #48]
	.loc	7 958 30                @ ../Drivers/STM32F7xx_HAL_Driver/Src/stm32f7xx_hal_qspi.c:958:30
	strb	r0, [r1]
	.loc	7 959 27 is_stmt 1      @ ../Drivers/STM32F7xx_HAL_Driver/Src/stm32f7xx_hal_qspi.c:959:27
	ldr	r0, [r4, #56]
	subs	r0, #1
	str	r0, [r4, #56]
.Ltmp317:
.LBB22_7:                               @ =>This Inner Loop Header: Depth=1
	@DEBUG_VALUE: HAL_QSPI_Receive:addr_reg <- $r0
	@DEBUG_VALUE: HAL_QSPI_Receive:tickstart <- $r6
	@DEBUG_VALUE: HAL_QSPI_Receive:hqspi <- $r4
	@DEBUG_VALUE: HAL_QSPI_Receive:pData <- $r8
	@DEBUG_VALUE: HAL_QSPI_Receive:Timeout <- $r5
	.loc	7 948 20                @ ../Drivers/STM32F7xx_HAL_Driver/Src/stm32f7xx_hal_qspi.c:948:20
	ldr	r0, [r4, #56]
.Ltmp318:
	.loc	7 948 7 is_stmt 0       @ ../Drivers/STM32F7xx_HAL_Driver/Src/stm32f7xx_hal_qspi.c:948:7
	cmp	r0, #0
	bne	.LBB22_5
.Ltmp319:
@ %bb.8:
	@DEBUG_VALUE: HAL_QSPI_Receive:tickstart <- $r6
	@DEBUG_VALUE: HAL_QSPI_Receive:hqspi <- $r4
	@DEBUG_VALUE: HAL_QSPI_Receive:pData <- $r8
	@DEBUG_VALUE: HAL_QSPI_Receive:Timeout <- $r5
	.loc	7 965 18 is_stmt 1      @ ../Drivers/STM32F7xx_HAL_Driver/Src/stm32f7xx_hal_qspi.c:965:18
	mov	r0, r4
	movs	r1, #2
	movs	r2, #1
	mov	r3, r6
	str	r5, [sp]
	movs	r5, #2
.Ltmp320:
	bl	QSPI_WaitFlagStateUntilTimeout
	.loc	7 967 14                @ ../Drivers/STM32F7xx_HAL_Driver/Src/stm32f7xx_hal_qspi.c:967:14
	cbnz	r0, .LBB22_10
.Ltmp321:
@ %bb.9:
	@DEBUG_VALUE: HAL_QSPI_Receive:tickstart <- $r6
	@DEBUG_VALUE: HAL_QSPI_Receive:hqspi <- $r4
	@DEBUG_VALUE: HAL_QSPI_Receive:pData <- $r8
	.loc	7 970 11                @ ../Drivers/STM32F7xx_HAL_Driver/Src/stm32f7xx_hal_qspi.c:970:11
	ldr	r0, [r4]
	str	r5, [r0, #12]
	.loc	7 974 19                @ ../Drivers/STM32F7xx_HAL_Driver/Src/stm32f7xx_hal_qspi.c:974:19
	mov	r0, r4
	bl	HAL_QSPI_Abort
.Ltmp322:
.LBB22_10:
	@DEBUG_VALUE: HAL_QSPI_Receive:tickstart <- $r6
	@DEBUG_VALUE: HAL_QSPI_Receive:hqspi <- $r4
	@DEBUG_VALUE: HAL_QSPI_Receive:pData <- $r8
	.loc	7 980 20                @ ../Drivers/STM32F7xx_HAL_Driver/Src/stm32f7xx_hal_qspi.c:980:20
	movs	r1, #1
	strb.w	r1, [r4, #65]
	b	.LBB22_13
.Ltmp323:
.LBB22_11:
	@DEBUG_VALUE: HAL_QSPI_Receive:addr_reg <- $r0
	@DEBUG_VALUE: HAL_QSPI_Receive:tickstart <- $r6
	@DEBUG_VALUE: HAL_QSPI_Receive:hqspi <- $r4
	@DEBUG_VALUE: HAL_QSPI_Receive:pData <- $r8
	@DEBUG_VALUE: HAL_QSPI_Receive:Timeout <- $r5
	.loc	7 0 20 is_stmt 0        @ ../Drivers/STM32F7xx_HAL_Driver/Src/stm32f7xx_hal_qspi.c:0:20
	movs	r0, #2
.Ltmp324:
	b	.LBB22_13
.Ltmp325:
.LBB22_12:
	@DEBUG_VALUE: HAL_QSPI_Receive:addr_reg <- $r0
	@DEBUG_VALUE: HAL_QSPI_Receive:tickstart <- $r6
	@DEBUG_VALUE: HAL_QSPI_Receive:hqspi <- $r4
	@DEBUG_VALUE: HAL_QSPI_Receive:pData <- $r8
	@DEBUG_VALUE: HAL_QSPI_Receive:Timeout <- $r5
	.loc	7 984 24 is_stmt 1      @ ../Drivers/STM32F7xx_HAL_Driver/Src/stm32f7xx_hal_qspi.c:984:24
	ldr	r0, [r4, #68]
.Ltmp326:
	orr	r0, r0, #8
	str	r0, [r4, #68]
	movs	r0, #1
.Ltmp327:
	@DEBUG_VALUE: HAL_QSPI_Receive:status <- 1
.LBB22_13:
	@DEBUG_VALUE: HAL_QSPI_Receive:tickstart <- $r6
	@DEBUG_VALUE: HAL_QSPI_Receive:hqspi <- $r4
	@DEBUG_VALUE: HAL_QSPI_Receive:pData <- $r8
	.loc	7 994 3                 @ ../Drivers/STM32F7xx_HAL_Driver/Src/stm32f7xx_hal_qspi.c:994:3
	movs	r1, #0
	strb.w	r1, [r4, #64]
.Ltmp328:
.LBB22_14:
	@DEBUG_VALUE: HAL_QSPI_Receive:tickstart <- $r6
	@DEBUG_VALUE: HAL_QSPI_Receive:hqspi <- $r4
	@DEBUG_VALUE: HAL_QSPI_Receive:pData <- $r8
	.loc	7 997 1                 @ ../Drivers/STM32F7xx_HAL_Driver/Src/stm32f7xx_hal_qspi.c:997:1
	add	sp, #8
	pop.w	{r4, r5, r6, r7, r8, pc}
.Ltmp329:
.Lfunc_end22:
	.size	HAL_QSPI_Receive, .Lfunc_end22-HAL_QSPI_Receive
	.cfi_endproc
	.cantunwind
	.fnend
                                        @ -- End function
	.section	.text.HAL_QSPI_Transmit_IT,"ax",%progbits
	.hidden	HAL_QSPI_Transmit_IT    @ -- Begin function HAL_QSPI_Transmit_IT
	.globl	HAL_QSPI_Transmit_IT
	.p2align	1
	.type	HAL_QSPI_Transmit_IT,%function
	.code	16                      @ @HAL_QSPI_Transmit_IT
	.thumb_func
HAL_QSPI_Transmit_IT:
.Lfunc_begin23:
	.loc	7 1007 0                @ ../Drivers/STM32F7xx_HAL_Driver/Src/stm32f7xx_hal_qspi.c:1007:0
	.fnstart
	.cfi_startproc
@ %bb.0:
	@DEBUG_VALUE: HAL_QSPI_Transmit_IT:hqspi <- $r0
	@DEBUG_VALUE: HAL_QSPI_Transmit_IT:hqspi <- $r0
	@DEBUG_VALUE: HAL_QSPI_Transmit_IT:pData <- $r1
	@DEBUG_VALUE: HAL_QSPI_Transmit_IT:pData <- $r1
	@DEBUG_VALUE: HAL_QSPI_Transmit_IT:status <- 0
	.loc	7 1011 3 prologue_end   @ ../Drivers/STM32F7xx_HAL_Driver/Src/stm32f7xx_hal_qspi.c:1011:3
	ldrb.w	r2, [r0, #64]
.Ltmp330:
	.loc	7 1011 3 is_stmt 0      @ ../Drivers/STM32F7xx_HAL_Driver/Src/stm32f7xx_hal_qspi.c:1011:3
	cmp	r2, #1
	beq	.LBB23_5
.Ltmp331:
@ %bb.1:
	@DEBUG_VALUE: HAL_QSPI_Transmit_IT:pData <- $r1
	@DEBUG_VALUE: HAL_QSPI_Transmit_IT:hqspi <- $r0
	.loc	7 0 3                   @ ../Drivers/STM32F7xx_HAL_Driver/Src/stm32f7xx_hal_qspi.c:0:3
	movs	r2, #1
.Ltmp332:
	.loc	7 1011 3                @ ../Drivers/STM32F7xx_HAL_Driver/Src/stm32f7xx_hal_qspi.c:1011:3
	strb.w	r2, [r0, #64]
.Ltmp333:
	.loc	7 1013 13 is_stmt 1     @ ../Drivers/STM32F7xx_HAL_Driver/Src/stm32f7xx_hal_qspi.c:1013:13
	ldrb.w	r2, [r0, #65]
.Ltmp334:
	.loc	7 1013 6 is_stmt 0      @ ../Drivers/STM32F7xx_HAL_Driver/Src/stm32f7xx_hal_qspi.c:1013:6
	cmp	r2, #1
	bne	.LBB23_4
.Ltmp335:
@ %bb.2:
	@DEBUG_VALUE: HAL_QSPI_Transmit_IT:pData <- $r1
	@DEBUG_VALUE: HAL_QSPI_Transmit_IT:hqspi <- $r0
	.loc	7 0 6                   @ ../Drivers/STM32F7xx_HAL_Driver/Src/stm32f7xx_hal_qspi.c:0:6
	movs	r2, #0
.Ltmp336:
	.loc	7 1016 8 is_stmt 1      @ ../Drivers/STM32F7xx_HAL_Driver/Src/stm32f7xx_hal_qspi.c:1016:8
	cmp	r1, #0
	.loc	7 1015 22               @ ../Drivers/STM32F7xx_HAL_Driver/Src/stm32f7xx_hal_qspi.c:1015:22
	str	r2, [r0, #68]
	.loc	7 1016 8                @ ../Drivers/STM32F7xx_HAL_Driver/Src/stm32f7xx_hal_qspi.c:1016:8
	beq	.LBB23_7
.Ltmp337:
@ %bb.3:
	@DEBUG_VALUE: HAL_QSPI_Transmit_IT:pData <- $r1
	@DEBUG_VALUE: HAL_QSPI_Transmit_IT:hqspi <- $r0
	.loc	7 1019 20               @ ../Drivers/STM32F7xx_HAL_Driver/Src/stm32f7xx_hal_qspi.c:1019:20
	movs	r3, #18
	strb.w	r3, [r0, #65]
	.loc	7 1022 28               @ ../Drivers/STM32F7xx_HAL_Driver/Src/stm32f7xx_hal_qspi.c:1022:28
	ldr.w	r12, [r0]
	ldr.w	r3, [r12, #16]
	.loc	7 1022 59 is_stmt 0     @ ../Drivers/STM32F7xx_HAL_Driver/Src/stm32f7xx_hal_qspi.c:1022:59
	adds	r3, #1
	.loc	7 1022 26               @ ../Drivers/STM32F7xx_HAL_Driver/Src/stm32f7xx_hal_qspi.c:1022:26
	str	r3, [r0, #44]
	.loc	7 1023 27 is_stmt 1     @ ../Drivers/STM32F7xx_HAL_Driver/Src/stm32f7xx_hal_qspi.c:1023:27
	ldr.w	r3, [r12, #16]
	.loc	7 1024 25               @ ../Drivers/STM32F7xx_HAL_Driver/Src/stm32f7xx_hal_qspi.c:1024:25
	str	r1, [r0, #36]
	.loc	7 1023 58               @ ../Drivers/STM32F7xx_HAL_Driver/Src/stm32f7xx_hal_qspi.c:1023:58
	adds	r1, r3, #1
.Ltmp338:
	.loc	7 1023 25 is_stmt 0     @ ../Drivers/STM32F7xx_HAL_Driver/Src/stm32f7xx_hal_qspi.c:1023:25
	str	r1, [r0, #40]
	.loc	7 1027 7 is_stmt 1      @ ../Drivers/STM32F7xx_HAL_Driver/Src/stm32f7xx_hal_qspi.c:1027:7
	ldr.w	r1, [r12, #20]
	bic	r1, r1, #201326592
	str.w	r1, [r12, #20]
	.loc	7 1030 7                @ ../Drivers/STM32F7xx_HAL_Driver/Src/stm32f7xx_hal_qspi.c:1030:7
	movs	r1, #3
	str.w	r1, [r12, #12]
.Ltmp339:
	.loc	7 1033 7                @ ../Drivers/STM32F7xx_HAL_Driver/Src/stm32f7xx_hal_qspi.c:1033:7
	strb.w	r2, [r0, #64]
.Ltmp340:
	.loc	7 1036 7                @ ../Drivers/STM32F7xx_HAL_Driver/Src/stm32f7xx_hal_qspi.c:1036:7
	ldr.w	r0, [r12]
.Ltmp341:
	orr	r0, r0, #458752
	str.w	r0, [r12]
	b	.LBB23_6
.Ltmp342:
.LBB23_4:
	@DEBUG_VALUE: HAL_QSPI_Transmit_IT:pData <- $r1
	@DEBUG_VALUE: HAL_QSPI_Transmit_IT:hqspi <- $r0
	@DEBUG_VALUE: HAL_QSPI_Transmit_IT:status <- 2
	.loc	7 1053 5                @ ../Drivers/STM32F7xx_HAL_Driver/Src/stm32f7xx_hal_qspi.c:1053:5
	movs	r1, #0
.Ltmp343:
	strb.w	r1, [r0, #64]
.Ltmp344:
.LBB23_5:
	@DEBUG_VALUE: HAL_QSPI_Transmit_IT:hqspi <- $r0
	.loc	7 0 5 is_stmt 0         @ ../Drivers/STM32F7xx_HAL_Driver/Src/stm32f7xx_hal_qspi.c:0:5
	movs	r2, #2
.Ltmp345:
.LBB23_6:
	.loc	7 1057 1 is_stmt 1      @ ../Drivers/STM32F7xx_HAL_Driver/Src/stm32f7xx_hal_qspi.c:1057:1
	uxtb	r0, r2
	bx	lr
.LBB23_7:
.Ltmp346:
	@DEBUG_VALUE: HAL_QSPI_Transmit_IT:pData <- $r1
	@DEBUG_VALUE: HAL_QSPI_Transmit_IT:hqspi <- $r0
	.loc	7 1041 24               @ ../Drivers/STM32F7xx_HAL_Driver/Src/stm32f7xx_hal_qspi.c:1041:24
	ldr	r1, [r0, #68]
.Ltmp347:
	orr	r1, r1, #8
	str	r1, [r0, #68]
.Ltmp348:
	@DEBUG_VALUE: HAL_QSPI_Transmit_IT:status <- 1
	.loc	7 1045 7                @ ../Drivers/STM32F7xx_HAL_Driver/Src/stm32f7xx_hal_qspi.c:1045:7
	strb.w	r2, [r0, #64]
	movs	r2, #1
	b	.LBB23_6
.Ltmp349:
.Lfunc_end23:
	.size	HAL_QSPI_Transmit_IT, .Lfunc_end23-HAL_QSPI_Transmit_IT
	.cfi_endproc
	.cantunwind
	.fnend
                                        @ -- End function
	.section	.text.HAL_QSPI_Receive_IT,"ax",%progbits
	.hidden	HAL_QSPI_Receive_IT     @ -- Begin function HAL_QSPI_Receive_IT
	.globl	HAL_QSPI_Receive_IT
	.p2align	1
	.type	HAL_QSPI_Receive_IT,%function
	.code	16                      @ @HAL_QSPI_Receive_IT
	.thumb_func
HAL_QSPI_Receive_IT:
.Lfunc_begin24:
	.loc	7 1067 0                @ ../Drivers/STM32F7xx_HAL_Driver/Src/stm32f7xx_hal_qspi.c:1067:0
	.fnstart
	.cfi_startproc
@ %bb.0:
	.save	{r7, lr}
	push	{r7, lr}
	.cfi_def_cfa_offset 8
	.cfi_offset lr, -4
	.cfi_offset r7, -8
	@DEBUG_VALUE: HAL_QSPI_Receive_IT:hqspi <- $r0
	@DEBUG_VALUE: HAL_QSPI_Receive_IT:hqspi <- $r0
	@DEBUG_VALUE: HAL_QSPI_Receive_IT:pData <- $r1
	@DEBUG_VALUE: HAL_QSPI_Receive_IT:pData <- $r1
.Ltmp350:
	@DEBUG_VALUE: HAL_QSPI_Receive_IT:status <- 0
	.loc	7 1069 23 prologue_end  @ ../Drivers/STM32F7xx_HAL_Driver/Src/stm32f7xx_hal_qspi.c:1069:23
	ldr	r3, [r0]
	ldr.w	r12, [r3, #24]
.Ltmp351:
	@DEBUG_VALUE: HAL_QSPI_Receive_IT:addr_reg <- $r12
	.loc	7 1072 3                @ ../Drivers/STM32F7xx_HAL_Driver/Src/stm32f7xx_hal_qspi.c:1072:3
	ldrb.w	r2, [r0, #64]
.Ltmp352:
	.loc	7 1072 3 is_stmt 0      @ ../Drivers/STM32F7xx_HAL_Driver/Src/stm32f7xx_hal_qspi.c:1072:3
	cmp	r2, #1
	beq	.LBB24_5
.Ltmp353:
@ %bb.1:
	@DEBUG_VALUE: HAL_QSPI_Receive_IT:addr_reg <- $r12
	@DEBUG_VALUE: HAL_QSPI_Receive_IT:pData <- $r1
	@DEBUG_VALUE: HAL_QSPI_Receive_IT:hqspi <- $r0
	.loc	7 0 3                   @ ../Drivers/STM32F7xx_HAL_Driver/Src/stm32f7xx_hal_qspi.c:0:3
	movs	r2, #1
.Ltmp354:
	.loc	7 1072 3                @ ../Drivers/STM32F7xx_HAL_Driver/Src/stm32f7xx_hal_qspi.c:1072:3
	strb.w	r2, [r0, #64]
.Ltmp355:
	.loc	7 1074 13 is_stmt 1     @ ../Drivers/STM32F7xx_HAL_Driver/Src/stm32f7xx_hal_qspi.c:1074:13
	ldrb.w	r2, [r0, #65]
.Ltmp356:
	.loc	7 1074 6 is_stmt 0      @ ../Drivers/STM32F7xx_HAL_Driver/Src/stm32f7xx_hal_qspi.c:1074:6
	cmp	r2, #1
	bne	.LBB24_4
.Ltmp357:
@ %bb.2:
	@DEBUG_VALUE: HAL_QSPI_Receive_IT:addr_reg <- $r12
	@DEBUG_VALUE: HAL_QSPI_Receive_IT:pData <- $r1
	@DEBUG_VALUE: HAL_QSPI_Receive_IT:hqspi <- $r0
	.loc	7 0 6                   @ ../Drivers/STM32F7xx_HAL_Driver/Src/stm32f7xx_hal_qspi.c:0:6
	mov.w	lr, #0
.Ltmp358:
	.loc	7 1078 8 is_stmt 1      @ ../Drivers/STM32F7xx_HAL_Driver/Src/stm32f7xx_hal_qspi.c:1078:8
	cmp	r1, #0
	.loc	7 1076 22               @ ../Drivers/STM32F7xx_HAL_Driver/Src/stm32f7xx_hal_qspi.c:1076:22
	str.w	lr, [r0, #68]
	.loc	7 1078 8                @ ../Drivers/STM32F7xx_HAL_Driver/Src/stm32f7xx_hal_qspi.c:1078:8
	beq	.LBB24_7
.Ltmp359:
@ %bb.3:
	@DEBUG_VALUE: HAL_QSPI_Receive_IT:addr_reg <- $r12
	@DEBUG_VALUE: HAL_QSPI_Receive_IT:pData <- $r1
	@DEBUG_VALUE: HAL_QSPI_Receive_IT:hqspi <- $r0
	.loc	7 1081 20               @ ../Drivers/STM32F7xx_HAL_Driver/Src/stm32f7xx_hal_qspi.c:1081:20
	movs	r2, #34
	strb.w	r2, [r0, #65]
	.loc	7 1084 28               @ ../Drivers/STM32F7xx_HAL_Driver/Src/stm32f7xx_hal_qspi.c:1084:28
	ldr	r2, [r3, #16]
	.loc	7 1084 59 is_stmt 0     @ ../Drivers/STM32F7xx_HAL_Driver/Src/stm32f7xx_hal_qspi.c:1084:59
	adds	r2, #1
	.loc	7 1084 26               @ ../Drivers/STM32F7xx_HAL_Driver/Src/stm32f7xx_hal_qspi.c:1084:26
	str	r2, [r0, #56]
	.loc	7 1085 27 is_stmt 1     @ ../Drivers/STM32F7xx_HAL_Driver/Src/stm32f7xx_hal_qspi.c:1085:27
	ldr	r2, [r3, #16]
	.loc	7 1086 25               @ ../Drivers/STM32F7xx_HAL_Driver/Src/stm32f7xx_hal_qspi.c:1086:25
	str	r1, [r0, #48]
	.loc	7 1085 58               @ ../Drivers/STM32F7xx_HAL_Driver/Src/stm32f7xx_hal_qspi.c:1085:58
	adds	r1, r2, #1
.Ltmp360:
	.loc	7 0 58 is_stmt 0        @ ../Drivers/STM32F7xx_HAL_Driver/Src/stm32f7xx_hal_qspi.c:0:58
	movs	r2, #1
	.loc	7 1085 25               @ ../Drivers/STM32F7xx_HAL_Driver/Src/stm32f7xx_hal_qspi.c:1085:25
	str	r1, [r0, #52]
	.loc	7 1089 7 is_stmt 1      @ ../Drivers/STM32F7xx_HAL_Driver/Src/stm32f7xx_hal_qspi.c:1089:7
	ldr	r1, [r3, #20]
	bfi	r1, r2, #26, #2
	str	r1, [r3, #20]
	.loc	7 1095 7                @ ../Drivers/STM32F7xx_HAL_Driver/Src/stm32f7xx_hal_qspi.c:1095:7
	movs	r1, #3
	.loc	7 1092 7                @ ../Drivers/STM32F7xx_HAL_Driver/Src/stm32f7xx_hal_qspi.c:1092:7
	str.w	r12, [r3, #24]
	.loc	7 1095 7                @ ../Drivers/STM32F7xx_HAL_Driver/Src/stm32f7xx_hal_qspi.c:1095:7
	str	r1, [r3, #12]
.Ltmp361:
	.loc	7 1098 7                @ ../Drivers/STM32F7xx_HAL_Driver/Src/stm32f7xx_hal_qspi.c:1098:7
	strb.w	lr, [r0, #64]
.Ltmp362:
	.loc	7 1101 7                @ ../Drivers/STM32F7xx_HAL_Driver/Src/stm32f7xx_hal_qspi.c:1101:7
	ldr	r0, [r3]
.Ltmp363:
	orr	r0, r0, #458752
	str	r0, [r3]
	b	.LBB24_6
.Ltmp364:
.LBB24_4:
	@DEBUG_VALUE: HAL_QSPI_Receive_IT:addr_reg <- $r12
	@DEBUG_VALUE: HAL_QSPI_Receive_IT:pData <- $r1
	@DEBUG_VALUE: HAL_QSPI_Receive_IT:hqspi <- $r0
	@DEBUG_VALUE: HAL_QSPI_Receive_IT:status <- 2
	.loc	7 1117 5                @ ../Drivers/STM32F7xx_HAL_Driver/Src/stm32f7xx_hal_qspi.c:1117:5
	movs	r1, #0
.Ltmp365:
	strb.w	r1, [r0, #64]
.Ltmp366:
.LBB24_5:
	@DEBUG_VALUE: HAL_QSPI_Receive_IT:addr_reg <- $r12
	@DEBUG_VALUE: HAL_QSPI_Receive_IT:hqspi <- $r0
	.loc	7 0 5 is_stmt 0         @ ../Drivers/STM32F7xx_HAL_Driver/Src/stm32f7xx_hal_qspi.c:0:5
	mov.w	lr, #2
.Ltmp367:
.LBB24_6:
	@DEBUG_VALUE: HAL_QSPI_Receive_IT:addr_reg <- $r12
	.loc	7 1121 1 is_stmt 1      @ ../Drivers/STM32F7xx_HAL_Driver/Src/stm32f7xx_hal_qspi.c:1121:1
	uxtb.w	r0, lr
	pop	{r7, pc}
.Ltmp368:
.LBB24_7:
	@DEBUG_VALUE: HAL_QSPI_Receive_IT:addr_reg <- $r12
	@DEBUG_VALUE: HAL_QSPI_Receive_IT:pData <- $r1
	@DEBUG_VALUE: HAL_QSPI_Receive_IT:hqspi <- $r0
	.loc	7 1105 24               @ ../Drivers/STM32F7xx_HAL_Driver/Src/stm32f7xx_hal_qspi.c:1105:24
	ldr	r1, [r0, #68]
.Ltmp369:
	orr	r1, r1, #8
	str	r1, [r0, #68]
.Ltmp370:
	@DEBUG_VALUE: HAL_QSPI_Receive_IT:status <- 1
	.loc	7 1109 7                @ ../Drivers/STM32F7xx_HAL_Driver/Src/stm32f7xx_hal_qspi.c:1109:7
	strb.w	lr, [r0, #64]
	mov.w	lr, #1
	b	.LBB24_6
.Ltmp371:
.Lfunc_end24:
	.size	HAL_QSPI_Receive_IT, .Lfunc_end24-HAL_QSPI_Receive_IT
	.cfi_endproc
	.cantunwind
	.fnend
                                        @ -- End function
	.section	.text.HAL_QSPI_Transmit_DMA,"ax",%progbits
	.hidden	HAL_QSPI_Transmit_DMA   @ -- Begin function HAL_QSPI_Transmit_DMA
	.globl	HAL_QSPI_Transmit_DMA
	.p2align	2
	.type	HAL_QSPI_Transmit_DMA,%function
	.code	16                      @ @HAL_QSPI_Transmit_DMA
	.thumb_func
HAL_QSPI_Transmit_DMA:
.Lfunc_begin25:
	.loc	7 1135 0                @ ../Drivers/STM32F7xx_HAL_Driver/Src/stm32f7xx_hal_qspi.c:1135:0
	.fnstart
	.cfi_startproc
@ %bb.0:
	.save	{r4, r5, r7, lr}
	push	{r4, r5, r7, lr}
	.cfi_def_cfa_offset 16
	.cfi_offset lr, -4
	.cfi_offset r7, -8
	.cfi_offset r5, -12
	.cfi_offset r4, -16
	@DEBUG_VALUE: HAL_QSPI_Transmit_DMA:hqspi <- $r0
.Ltmp372:
	.loc	7 1138 25 prologue_end  @ ../Drivers/STM32F7xx_HAL_Driver/Src/stm32f7xx_hal_qspi.c:1138:25
	ldr	r2, [r0]
	mov	r4, r0
.Ltmp373:
	@DEBUG_VALUE: HAL_QSPI_Transmit_DMA:status <- 0
	@DEBUG_VALUE: HAL_QSPI_Transmit_DMA:hqspi <- $r4
	ldr	r0, [r2, #16]
.Ltmp374:
	.loc	7 1141 3                @ ../Drivers/STM32F7xx_HAL_Driver/Src/stm32f7xx_hal_qspi.c:1141:3
	ldrb.w	r3, [r4, #64]
.Ltmp375:
	.loc	7 1141 3 is_stmt 0      @ ../Drivers/STM32F7xx_HAL_Driver/Src/stm32f7xx_hal_qspi.c:1141:3
	cmp	r3, #1
	beq	.LBB25_9
.Ltmp376:
@ %bb.1:
	@DEBUG_VALUE: HAL_QSPI_Transmit_DMA:hqspi <- $r4
	.loc	7 0 3                   @ ../Drivers/STM32F7xx_HAL_Driver/Src/stm32f7xx_hal_qspi.c:0:3
	movs	r3, #1
.Ltmp377:
	.loc	7 1141 3                @ ../Drivers/STM32F7xx_HAL_Driver/Src/stm32f7xx_hal_qspi.c:1141:3
	strb.w	r3, [r4, #64]
.Ltmp378:
	.loc	7 1143 13 is_stmt 1     @ ../Drivers/STM32F7xx_HAL_Driver/Src/stm32f7xx_hal_qspi.c:1143:13
	ldrb.w	r3, [r4, #65]
.Ltmp379:
	.loc	7 1143 6 is_stmt 0      @ ../Drivers/STM32F7xx_HAL_Driver/Src/stm32f7xx_hal_qspi.c:1143:6
	cmp	r3, #1
	bne	.LBB25_8
.Ltmp380:
@ %bb.2:
	@DEBUG_VALUE: HAL_QSPI_Transmit_DMA:hqspi <- $r4
	.loc	7 0 6                   @ ../Drivers/STM32F7xx_HAL_Driver/Src/stm32f7xx_hal_qspi.c:0:6
	movs	r3, #0
.Ltmp381:
	.loc	7 1148 8 is_stmt 1      @ ../Drivers/STM32F7xx_HAL_Driver/Src/stm32f7xx_hal_qspi.c:1148:8
	cmp	r1, #0
	.loc	7 1146 22               @ ../Drivers/STM32F7xx_HAL_Driver/Src/stm32f7xx_hal_qspi.c:1146:22
	str	r3, [r4, #68]
	.loc	7 1148 8                @ ../Drivers/STM32F7xx_HAL_Driver/Src/stm32f7xx_hal_qspi.c:1148:8
	beq	.LBB25_11
.Ltmp382:
@ %bb.3:
	@DEBUG_VALUE: HAL_QSPI_Transmit_DMA:hqspi <- $r4
	.loc	7 0 8 is_stmt 0         @ ../Drivers/STM32F7xx_HAL_Driver/Src/stm32f7xx_hal_qspi.c:0:8
	adds	r3, r0, #1
.Ltmp383:
	@DEBUG_VALUE: HAL_QSPI_Transmit_DMA:data_size <- $r3
	.loc	7 1151 18 is_stmt 1     @ ../Drivers/STM32F7xx_HAL_Driver/Src/stm32f7xx_hal_qspi.c:1151:18
	ldr	r0, [r4, #60]
	.loc	7 1151 29 is_stmt 0     @ ../Drivers/STM32F7xx_HAL_Driver/Src/stm32f7xx_hal_qspi.c:1151:29
	ldr	r5, [r0, #20]
.Ltmp384:
	.loc	7 1151 11               @ ../Drivers/STM32F7xx_HAL_Driver/Src/stm32f7xx_hal_qspi.c:1151:11
	cbz	r5, .LBB25_15
.Ltmp385:
@ %bb.4:
	@DEBUG_VALUE: HAL_QSPI_Transmit_DMA:data_size <- $r3
	@DEBUG_VALUE: HAL_QSPI_Transmit_DMA:hqspi <- $r4
	cmp.w	r5, #2048
	beq	.LBB25_12
.Ltmp386:
@ %bb.5:
	@DEBUG_VALUE: HAL_QSPI_Transmit_DMA:data_size <- $r3
	@DEBUG_VALUE: HAL_QSPI_Transmit_DMA:hqspi <- $r4
	cmp.w	r5, #4096
	bne	.LBB25_16
.Ltmp387:
@ %bb.6:
	@DEBUG_VALUE: HAL_QSPI_Transmit_DMA:data_size <- $r3
	@DEBUG_VALUE: HAL_QSPI_Transmit_DMA:hqspi <- $r4
	.loc	7 1174 36 is_stmt 1     @ ../Drivers/STM32F7xx_HAL_Driver/Src/stm32f7xx_hal_qspi.c:1174:36
	lsls	r5, r3, #30
.Ltmp388:
	.loc	7 1174 13 is_stmt 0     @ ../Drivers/STM32F7xx_HAL_Driver/Src/stm32f7xx_hal_qspi.c:1174:13
	itt	eq
	ldrbeq	r5, [r4, #8]
	lslseq.w	r5, r5, #30
	bne	.LBB25_13
.Ltmp389:
@ %bb.7:
	@DEBUG_VALUE: HAL_QSPI_Transmit_DMA:data_size <- $r3
	@DEBUG_VALUE: HAL_QSPI_Transmit_DMA:hqspi <- $r4
	.loc	7 1186 43 is_stmt 1     @ ../Drivers/STM32F7xx_HAL_Driver/Src/stm32f7xx_hal_qspi.c:1186:43
	lsrs	r3, r3, #2
.Ltmp390:
	.loc	7 0 43 is_stmt 0        @ ../Drivers/STM32F7xx_HAL_Driver/Src/stm32f7xx_hal_qspi.c:0:43
	b	.LBB25_15
.Ltmp391:
.LBB25_8:
	@DEBUG_VALUE: HAL_QSPI_Transmit_DMA:hqspi <- $r4
	@DEBUG_VALUE: HAL_QSPI_Transmit_DMA:status <- 2
	.loc	7 1251 5 is_stmt 1      @ ../Drivers/STM32F7xx_HAL_Driver/Src/stm32f7xx_hal_qspi.c:1251:5
	movs	r0, #0
	strb.w	r0, [r4, #64]
.Ltmp392:
.LBB25_9:
	@DEBUG_VALUE: HAL_QSPI_Transmit_DMA:hqspi <- $r4
	.loc	7 0 5 is_stmt 0         @ ../Drivers/STM32F7xx_HAL_Driver/Src/stm32f7xx_hal_qspi.c:0:5
	movs	r5, #2
.Ltmp393:
.LBB25_10:
	@DEBUG_VALUE: HAL_QSPI_Transmit_DMA:hqspi <- $r4
	.loc	7 1255 1 is_stmt 1      @ ../Drivers/STM32F7xx_HAL_Driver/Src/stm32f7xx_hal_qspi.c:1255:1
	uxtb	r0, r5
	pop	{r4, r5, r7, pc}
.Ltmp394:
.LBB25_11:
	@DEBUG_VALUE: HAL_QSPI_Transmit_DMA:hqspi <- $r4
	.loc	7 1238 24               @ ../Drivers/STM32F7xx_HAL_Driver/Src/stm32f7xx_hal_qspi.c:1238:24
	ldr	r0, [r4, #68]
	movs	r5, #1
	orr	r0, r0, #8
	str	r0, [r4, #68]
.Ltmp395:
	@DEBUG_VALUE: HAL_QSPI_Transmit_DMA:status <- 1
	.loc	7 1243 7                @ ../Drivers/STM32F7xx_HAL_Driver/Src/stm32f7xx_hal_qspi.c:1243:7
	strb.w	r3, [r4, #64]
	b	.LBB25_10
.Ltmp396:
.LBB25_12:
	@DEBUG_VALUE: HAL_QSPI_Transmit_DMA:data_size <- $r3
	@DEBUG_VALUE: HAL_QSPI_Transmit_DMA:hqspi <- $r4
	.loc	7 1157 36               @ ../Drivers/STM32F7xx_HAL_Driver/Src/stm32f7xx_hal_qspi.c:1157:36
	lsls	r5, r3, #31
.Ltmp397:
	.loc	7 1157 13 is_stmt 0     @ ../Drivers/STM32F7xx_HAL_Driver/Src/stm32f7xx_hal_qspi.c:1157:13
	itt	eq
	ldrbeq	r5, [r4, #8]
	lslseq.w	r5, r5, #31
	beq	.LBB25_14
.Ltmp398:
.LBB25_13:
	@DEBUG_VALUE: HAL_QSPI_Transmit_DMA:data_size <- $r3
	@DEBUG_VALUE: HAL_QSPI_Transmit_DMA:hqspi <- $r4
	.loc	7 0 13                  @ ../Drivers/STM32F7xx_HAL_Driver/Src/stm32f7xx_hal_qspi.c:0:13
	ldr	r0, [r4, #68]
	movs	r5, #1
	orr	r0, r0, #8
	str	r0, [r4, #68]
	movs	r0, #0
	@DEBUG_VALUE: HAL_QSPI_Transmit_DMA:status <- 1
	strb.w	r0, [r4, #64]
	b	.LBB25_10
.Ltmp399:
.LBB25_14:
	@DEBUG_VALUE: HAL_QSPI_Transmit_DMA:data_size <- $r3
	@DEBUG_VALUE: HAL_QSPI_Transmit_DMA:hqspi <- $r4
	.loc	7 1169 43 is_stmt 1     @ ../Drivers/STM32F7xx_HAL_Driver/Src/stm32f7xx_hal_qspi.c:1169:43
	lsrs	r3, r3, #1
.Ltmp400:
.LBB25_15:
	@DEBUG_VALUE: HAL_QSPI_Transmit_DMA:hqspi <- $r4
	.loc	7 0 43 is_stmt 0        @ ../Drivers/STM32F7xx_HAL_Driver/Src/stm32f7xx_hal_qspi.c:0:43
	str	r3, [r4, #44]
.Ltmp401:
.LBB25_16:
	@DEBUG_VALUE: HAL_QSPI_Transmit_DMA:hqspi <- $r4
	.loc	7 1194 20 is_stmt 1     @ ../Drivers/STM32F7xx_HAL_Driver/Src/stm32f7xx_hal_qspi.c:1194:20
	movs	r3, #18
	.loc	7 1207 37               @ ../Drivers/STM32F7xx_HAL_Driver/Src/stm32f7xx_hal_qspi.c:1207:37
	ldr	r5, __arm_cp.25_1
	.loc	7 1194 20               @ ../Drivers/STM32F7xx_HAL_Driver/Src/stm32f7xx_hal_qspi.c:1194:20
	strb.w	r3, [r4, #65]
	.loc	7 1197 7                @ ../Drivers/STM32F7xx_HAL_Driver/Src/stm32f7xx_hal_qspi.c:1197:7
	movs	r3, #3
	str	r3, [r2, #12]
	.loc	7 1201 25               @ ../Drivers/STM32F7xx_HAL_Driver/Src/stm32f7xx_hal_qspi.c:1201:25
	str	r1, [r4, #36]
	.loc	7 1200 34               @ ../Drivers/STM32F7xx_HAL_Driver/Src/stm32f7xx_hal_qspi.c:1200:34
	ldr	r3, [r4, #44]
	.loc	7 1200 25 is_stmt 0     @ ../Drivers/STM32F7xx_HAL_Driver/Src/stm32f7xx_hal_qspi.c:1200:25
	str	r3, [r4, #40]
	.loc	7 1204 7 is_stmt 1      @ ../Drivers/STM32F7xx_HAL_Driver/Src/stm32f7xx_hal_qspi.c:1204:7
	ldr	r3, [r2, #20]
	bic	r3, r3, #201326592
	str	r3, [r2, #20]
	.loc	7 1210 41               @ ../Drivers/STM32F7xx_HAL_Driver/Src/stm32f7xx_hal_qspi.c:1210:41
	ldr	r3, __arm_cp.25_0
	.loc	7 1224 82               @ ../Drivers/STM32F7xx_HAL_Driver/Src/stm32f7xx_hal_qspi.c:1224:82
	adds	r2, #32
	.loc	7 1207 37               @ ../Drivers/STM32F7xx_HAL_Driver/Src/stm32f7xx_hal_qspi.c:1207:37
	strd	r5, r3, [r0, #60]
	.loc	7 1213 38               @ ../Drivers/STM32F7xx_HAL_Driver/Src/stm32f7xx_hal_qspi.c:1213:38
	ldr	r3, __arm_cp.25_2
	movs	r5, #0
	strd	r3, r5, [r0, #76]
	movs	r3, #64
	.loc	7 1219 35               @ ../Drivers/STM32F7xx_HAL_Driver/Src/stm32f7xx_hal_qspi.c:1219:35
	str	r3, [r0, #8]
	.loc	7 1220 7                @ ../Drivers/STM32F7xx_HAL_Driver/Src/stm32f7xx_hal_qspi.c:1220:7
	movs	r3, #1
	ldr.w	r12, [r0]
	ldr.w	lr, [r12]
	bfi	lr, r3, #6, #2
	str.w	lr, [r12]
	.loc	7 1224 93               @ ../Drivers/STM32F7xx_HAL_Driver/Src/stm32f7xx_hal_qspi.c:1224:93
	ldr	r3, [r4, #40]
	.loc	7 1224 7 is_stmt 0      @ ../Drivers/STM32F7xx_HAL_Driver/Src/stm32f7xx_hal_qspi.c:1224:7
	bl	HAL_DMA_Start_IT
.Ltmp402:
	.loc	7 1227 7 is_stmt 1      @ ../Drivers/STM32F7xx_HAL_Driver/Src/stm32f7xx_hal_qspi.c:1227:7
	strb.w	r5, [r4, #64]
.Ltmp403:
	.loc	7 1230 7                @ ../Drivers/STM32F7xx_HAL_Driver/Src/stm32f7xx_hal_qspi.c:1230:7
	ldr	r0, [r4]
	ldr	r1, [r0]
	orr	r1, r1, #65536
	str	r1, [r0]
	.loc	7 1233 7                @ ../Drivers/STM32F7xx_HAL_Driver/Src/stm32f7xx_hal_qspi.c:1233:7
	ldr	r1, [r0]
	orr	r1, r1, #4
	str	r1, [r0]
	b	.LBB25_10
.Ltmp404:
	.p2align	2
@ %bb.17:
	.loc	7 0 7 is_stmt 0         @ ../Drivers/STM32F7xx_HAL_Driver/Src/stm32f7xx_hal_qspi.c:0:7
__arm_cp.25_0:
	.long	QSPI_DMATxHalfCplt
.Lcpi_end4:
	.size	__arm_cp.25_0, .Lcpi_end4-__arm_cp.25_0
__arm_cp.25_1:
	.long	QSPI_DMATxCplt
.Lcpi_end5:
	.size	__arm_cp.25_1, .Lcpi_end5-__arm_cp.25_1
__arm_cp.25_2:
	.long	QSPI_DMAError
.Lcpi_end6:
	.size	__arm_cp.25_2, .Lcpi_end6-__arm_cp.25_2
.Lfunc_end25:
	.size	HAL_QSPI_Transmit_DMA, .Lfunc_end25-HAL_QSPI_Transmit_DMA
	.cfi_endproc
	.cantunwind
	.fnend
                                        @ -- End function
	.section	.text.QSPI_DMATxCplt,"ax",%progbits
	.p2align	1               @ -- Begin function QSPI_DMATxCplt
	.type	QSPI_DMATxCplt,%function
	.code	16                      @ @QSPI_DMATxCplt
	.thumb_func
QSPI_DMATxCplt:
.Lfunc_begin26:
	.loc	7 2056 0 is_stmt 1      @ ../Drivers/STM32F7xx_HAL_Driver/Src/stm32f7xx_hal_qspi.c:2056:0
	.fnstart
	.cfi_startproc
@ %bb.0:
	@DEBUG_VALUE: QSPI_DMATxCplt:hdma <- $r0
	@DEBUG_VALUE: QSPI_DMATxCplt:hdma <- $r0
	.loc	7 2057 83 prologue_end  @ ../Drivers/STM32F7xx_HAL_Driver/Src/stm32f7xx_hal_qspi.c:2057:83
	ldr	r0, [r0, #56]
.Ltmp405:
	@DEBUG_VALUE: QSPI_DMATxCplt:hqspi <- $r0
	.loc	7 0 83 is_stmt 0        @ ../Drivers/STM32F7xx_HAL_Driver/Src/stm32f7xx_hal_qspi.c:0:83
	movs	r1, #0
	.loc	7 2058 22 is_stmt 1     @ ../Drivers/STM32F7xx_HAL_Driver/Src/stm32f7xx_hal_qspi.c:2058:22
	str	r1, [r0, #44]
	.loc	7 2061 3                @ ../Drivers/STM32F7xx_HAL_Driver/Src/stm32f7xx_hal_qspi.c:2061:3
	ldr	r0, [r0]
.Ltmp406:
	ldr	r1, [r0]
	orr	r1, r1, #131072
	str	r1, [r0]
	.loc	7 2062 1                @ ../Drivers/STM32F7xx_HAL_Driver/Src/stm32f7xx_hal_qspi.c:2062:1
	bx	lr
.Ltmp407:
.Lfunc_end26:
	.size	QSPI_DMATxCplt, .Lfunc_end26-QSPI_DMATxCplt
	.cfi_endproc
	.cantunwind
	.fnend
                                        @ -- End function
	.section	.text.QSPI_DMATxHalfCplt,"ax",%progbits
	.p2align	1               @ -- Begin function QSPI_DMATxHalfCplt
	.type	QSPI_DMATxHalfCplt,%function
	.code	16                      @ @QSPI_DMATxHalfCplt
	.thumb_func
QSPI_DMATxHalfCplt:
.Lfunc_begin27:
	.loc	7 2082 0                @ ../Drivers/STM32F7xx_HAL_Driver/Src/stm32f7xx_hal_qspi.c:2082:0
	.fnstart
	.cfi_startproc
@ %bb.0:
	@DEBUG_VALUE: QSPI_DMATxHalfCplt:hdma <- $r0
	@DEBUG_VALUE: QSPI_DMATxHalfCplt:hdma <- $r0
	.loc	7 2083 80 prologue_end  @ ../Drivers/STM32F7xx_HAL_Driver/Src/stm32f7xx_hal_qspi.c:2083:80
	ldr	r0, [r0, #56]
.Ltmp408:
	@DEBUG_VALUE: QSPI_DMATxHalfCplt:hqspi <- $r0
	.loc	7 2085 3                @ ../Drivers/STM32F7xx_HAL_Driver/Src/stm32f7xx_hal_qspi.c:2085:3
	b	HAL_QSPI_TxHalfCpltCallback
.Ltmp409:
.Lfunc_end27:
	.size	QSPI_DMATxHalfCplt, .Lfunc_end27-QSPI_DMATxHalfCplt
	.cfi_endproc
	.cantunwind
	.fnend
                                        @ -- End function
	.section	.text.QSPI_DMAError,"ax",%progbits
	.p2align	1               @ -- Begin function QSPI_DMAError
	.type	QSPI_DMAError,%function
	.code	16                      @ @QSPI_DMAError
	.thumb_func
QSPI_DMAError:
.Lfunc_begin28:
	.loc	7 2094 0                @ ../Drivers/STM32F7xx_HAL_Driver/Src/stm32f7xx_hal_qspi.c:2094:0
	.fnstart
	.cfi_startproc
@ %bb.0:
	.save	{r4, lr}
	push	{r4, lr}
	.cfi_def_cfa_offset 8
	.cfi_offset lr, -4
	.cfi_offset r4, -8
	@DEBUG_VALUE: QSPI_DMAError:hdma <- $r0
	@DEBUG_VALUE: QSPI_DMAError:hdma <- $r0
.Ltmp410:
	.loc	7 2095 83 prologue_end  @ ../Drivers/STM32F7xx_HAL_Driver/Src/stm32f7xx_hal_qspi.c:2095:83
	ldr	r4, [r0, #56]
.Ltmp411:
	@DEBUG_VALUE: QSPI_DMAError:hqspi <- $r4
	.loc	7 2098 6                @ ../Drivers/STM32F7xx_HAL_Driver/Src/stm32f7xx_hal_qspi.c:2098:6
	bl	HAL_DMA_GetError
.Ltmp412:
	.loc	7 2098 6 is_stmt 0      @ ../Drivers/STM32F7xx_HAL_Driver/Src/stm32f7xx_hal_qspi.c:2098:6
	cmp	r0, #2
	.loc	7 2110 1 is_stmt 1      @ ../Drivers/STM32F7xx_HAL_Driver/Src/stm32f7xx_hal_qspi.c:2110:1
	it	eq
	popeq	{r4, pc}
.Ltmp413:
	.loc	7 0 1 is_stmt 0         @ ../Drivers/STM32F7xx_HAL_Driver/Src/stm32f7xx_hal_qspi.c:0:1
	movs	r0, #0
.Ltmp414:
	.loc	7 2100 24 is_stmt 1     @ ../Drivers/STM32F7xx_HAL_Driver/Src/stm32f7xx_hal_qspi.c:2100:24
	str	r0, [r4, #56]
	.loc	7 2101 24               @ ../Drivers/STM32F7xx_HAL_Driver/Src/stm32f7xx_hal_qspi.c:2101:24
	str	r0, [r4, #44]
	.loc	7 2102 24               @ ../Drivers/STM32F7xx_HAL_Driver/Src/stm32f7xx_hal_qspi.c:2102:24
	ldr	r0, [r4, #68]
	orr	r0, r0, #4
	str	r0, [r4, #68]
	.loc	7 2105 5                @ ../Drivers/STM32F7xx_HAL_Driver/Src/stm32f7xx_hal_qspi.c:2105:5
	ldr	r0, [r4]
	ldr	r1, [r0]
	bic	r1, r1, #4
	str	r1, [r0]
	.loc	7 2108 5                @ ../Drivers/STM32F7xx_HAL_Driver/Src/stm32f7xx_hal_qspi.c:2108:5
	mov	r0, r4
	bl	HAL_QSPI_Abort_IT
.Ltmp415:
	.loc	7 2110 1                @ ../Drivers/STM32F7xx_HAL_Driver/Src/stm32f7xx_hal_qspi.c:2110:1
	pop	{r4, pc}
.Ltmp416:
.Lfunc_end28:
	.size	QSPI_DMAError, .Lfunc_end28-QSPI_DMAError
	.cfi_endproc
	.cantunwind
	.fnend
                                        @ -- End function
	.section	.text.HAL_QSPI_Receive_DMA,"ax",%progbits
	.hidden	HAL_QSPI_Receive_DMA    @ -- Begin function HAL_QSPI_Receive_DMA
	.globl	HAL_QSPI_Receive_DMA
	.p2align	2
	.type	HAL_QSPI_Receive_DMA,%function
	.code	16                      @ @HAL_QSPI_Receive_DMA
	.thumb_func
HAL_QSPI_Receive_DMA:
.Lfunc_begin29:
	.loc	7 1269 0                @ ../Drivers/STM32F7xx_HAL_Driver/Src/stm32f7xx_hal_qspi.c:1269:0
	.fnstart
	.cfi_startproc
@ %bb.0:
	.save	{r4, r5, r6, r7, lr}
	.pad	#4
	push	{r3, r4, r5, r6, r7, lr}
	.cfi_def_cfa_offset 24
	.cfi_offset lr, -4
	.cfi_offset r7, -8
	.cfi_offset r6, -12
	.cfi_offset r5, -16
	.cfi_offset r4, -20
	@DEBUG_VALUE: HAL_QSPI_Receive_DMA:hqspi <- $r0
	mov	r2, r1
.Ltmp417:
	.loc	7 1272 23 prologue_end  @ ../Drivers/STM32F7xx_HAL_Driver/Src/stm32f7xx_hal_qspi.c:1272:23
	ldr	r1, [r0]
	mov	r4, r0
.Ltmp418:
	@DEBUG_VALUE: HAL_QSPI_Receive_DMA:status <- 0
	@DEBUG_VALUE: HAL_QSPI_Receive_DMA:hqspi <- $r4
	ldr	r7, [r1, #24]
.Ltmp419:
	@DEBUG_VALUE: HAL_QSPI_Receive_DMA:addr_reg <- $r7
	.loc	7 1273 25               @ ../Drivers/STM32F7xx_HAL_Driver/Src/stm32f7xx_hal_qspi.c:1273:25
	ldr	r0, [r1, #16]
.Ltmp420:
	.loc	7 1276 3                @ ../Drivers/STM32F7xx_HAL_Driver/Src/stm32f7xx_hal_qspi.c:1276:3
	ldrb.w	r3, [r4, #64]
.Ltmp421:
	.loc	7 1276 3 is_stmt 0      @ ../Drivers/STM32F7xx_HAL_Driver/Src/stm32f7xx_hal_qspi.c:1276:3
	cmp	r3, #1
	beq	.LBB29_9
.Ltmp422:
@ %bb.1:
	@DEBUG_VALUE: HAL_QSPI_Receive_DMA:addr_reg <- $r7
	@DEBUG_VALUE: HAL_QSPI_Receive_DMA:hqspi <- $r4
	.loc	7 0 3                   @ ../Drivers/STM32F7xx_HAL_Driver/Src/stm32f7xx_hal_qspi.c:0:3
	movs	r3, #1
.Ltmp423:
	.loc	7 1276 3                @ ../Drivers/STM32F7xx_HAL_Driver/Src/stm32f7xx_hal_qspi.c:1276:3
	strb.w	r3, [r4, #64]
.Ltmp424:
	.loc	7 1278 13 is_stmt 1     @ ../Drivers/STM32F7xx_HAL_Driver/Src/stm32f7xx_hal_qspi.c:1278:13
	ldrb.w	r3, [r4, #65]
.Ltmp425:
	.loc	7 1278 6 is_stmt 0      @ ../Drivers/STM32F7xx_HAL_Driver/Src/stm32f7xx_hal_qspi.c:1278:6
	cmp	r3, #1
	bne	.LBB29_8
.Ltmp426:
@ %bb.2:
	@DEBUG_VALUE: HAL_QSPI_Receive_DMA:addr_reg <- $r7
	@DEBUG_VALUE: HAL_QSPI_Receive_DMA:hqspi <- $r4
	.loc	7 0 6                   @ ../Drivers/STM32F7xx_HAL_Driver/Src/stm32f7xx_hal_qspi.c:0:6
	movs	r3, #0
.Ltmp427:
	.loc	7 1282 8 is_stmt 1      @ ../Drivers/STM32F7xx_HAL_Driver/Src/stm32f7xx_hal_qspi.c:1282:8
	cmp	r2, #0
	.loc	7 1280 22               @ ../Drivers/STM32F7xx_HAL_Driver/Src/stm32f7xx_hal_qspi.c:1280:22
	str	r3, [r4, #68]
	.loc	7 1282 8                @ ../Drivers/STM32F7xx_HAL_Driver/Src/stm32f7xx_hal_qspi.c:1282:8
	beq	.LBB29_11
.Ltmp428:
@ %bb.3:
	@DEBUG_VALUE: HAL_QSPI_Receive_DMA:addr_reg <- $r7
	@DEBUG_VALUE: HAL_QSPI_Receive_DMA:hqspi <- $r4
	.loc	7 0 8 is_stmt 0         @ ../Drivers/STM32F7xx_HAL_Driver/Src/stm32f7xx_hal_qspi.c:0:8
	adds	r3, r0, #1
.Ltmp429:
	@DEBUG_VALUE: HAL_QSPI_Receive_DMA:data_size <- $r3
	.loc	7 1285 18 is_stmt 1     @ ../Drivers/STM32F7xx_HAL_Driver/Src/stm32f7xx_hal_qspi.c:1285:18
	ldr	r0, [r4, #60]
	.loc	7 1285 29 is_stmt 0     @ ../Drivers/STM32F7xx_HAL_Driver/Src/stm32f7xx_hal_qspi.c:1285:29
	ldr	r6, [r0, #20]
.Ltmp430:
	.loc	7 1285 11               @ ../Drivers/STM32F7xx_HAL_Driver/Src/stm32f7xx_hal_qspi.c:1285:11
	cbz	r6, .LBB29_15
.Ltmp431:
@ %bb.4:
	@DEBUG_VALUE: HAL_QSPI_Receive_DMA:data_size <- $r3
	@DEBUG_VALUE: HAL_QSPI_Receive_DMA:addr_reg <- $r7
	@DEBUG_VALUE: HAL_QSPI_Receive_DMA:hqspi <- $r4
	cmp.w	r6, #2048
	beq	.LBB29_12
.Ltmp432:
@ %bb.5:
	@DEBUG_VALUE: HAL_QSPI_Receive_DMA:data_size <- $r3
	@DEBUG_VALUE: HAL_QSPI_Receive_DMA:addr_reg <- $r7
	@DEBUG_VALUE: HAL_QSPI_Receive_DMA:hqspi <- $r4
	cmp.w	r6, #4096
	bne	.LBB29_16
.Ltmp433:
@ %bb.6:
	@DEBUG_VALUE: HAL_QSPI_Receive_DMA:data_size <- $r3
	@DEBUG_VALUE: HAL_QSPI_Receive_DMA:addr_reg <- $r7
	@DEBUG_VALUE: HAL_QSPI_Receive_DMA:hqspi <- $r4
	.loc	7 1308 36 is_stmt 1     @ ../Drivers/STM32F7xx_HAL_Driver/Src/stm32f7xx_hal_qspi.c:1308:36
	lsls	r6, r3, #30
.Ltmp434:
	.loc	7 1308 13 is_stmt 0     @ ../Drivers/STM32F7xx_HAL_Driver/Src/stm32f7xx_hal_qspi.c:1308:13
	itt	eq
	ldrbeq	r6, [r4, #8]
	lslseq.w	r6, r6, #30
	bne	.LBB29_13
.Ltmp435:
@ %bb.7:
	@DEBUG_VALUE: HAL_QSPI_Receive_DMA:data_size <- $r3
	@DEBUG_VALUE: HAL_QSPI_Receive_DMA:addr_reg <- $r7
	@DEBUG_VALUE: HAL_QSPI_Receive_DMA:hqspi <- $r4
	.loc	7 1320 43 is_stmt 1     @ ../Drivers/STM32F7xx_HAL_Driver/Src/stm32f7xx_hal_qspi.c:1320:43
	lsrs	r3, r3, #2
.Ltmp436:
	.loc	7 0 43 is_stmt 0        @ ../Drivers/STM32F7xx_HAL_Driver/Src/stm32f7xx_hal_qspi.c:0:43
	b	.LBB29_15
.Ltmp437:
.LBB29_8:
	@DEBUG_VALUE: HAL_QSPI_Receive_DMA:addr_reg <- $r7
	@DEBUG_VALUE: HAL_QSPI_Receive_DMA:hqspi <- $r4
	@DEBUG_VALUE: HAL_QSPI_Receive_DMA:status <- 2
	.loc	7 1387 5 is_stmt 1      @ ../Drivers/STM32F7xx_HAL_Driver/Src/stm32f7xx_hal_qspi.c:1387:5
	movs	r0, #0
	strb.w	r0, [r4, #64]
.Ltmp438:
.LBB29_9:
	@DEBUG_VALUE: HAL_QSPI_Receive_DMA:addr_reg <- $r7
	@DEBUG_VALUE: HAL_QSPI_Receive_DMA:hqspi <- $r4
	.loc	7 0 5 is_stmt 0         @ ../Drivers/STM32F7xx_HAL_Driver/Src/stm32f7xx_hal_qspi.c:0:5
	movs	r6, #2
.Ltmp439:
.LBB29_10:
	@DEBUG_VALUE: HAL_QSPI_Receive_DMA:addr_reg <- $r7
	@DEBUG_VALUE: HAL_QSPI_Receive_DMA:hqspi <- $r4
	.loc	7 1391 1 is_stmt 1      @ ../Drivers/STM32F7xx_HAL_Driver/Src/stm32f7xx_hal_qspi.c:1391:1
	uxtb	r0, r6
	add	sp, #4
	pop	{r4, r5, r6, r7, pc}
.Ltmp440:
.LBB29_11:
	@DEBUG_VALUE: HAL_QSPI_Receive_DMA:addr_reg <- $r7
	@DEBUG_VALUE: HAL_QSPI_Receive_DMA:hqspi <- $r4
	.loc	7 1375 24               @ ../Drivers/STM32F7xx_HAL_Driver/Src/stm32f7xx_hal_qspi.c:1375:24
	ldr	r0, [r4, #68]
	movs	r6, #1
	orr	r0, r0, #8
	str	r0, [r4, #68]
.Ltmp441:
	@DEBUG_VALUE: HAL_QSPI_Receive_DMA:status <- 1
	.loc	7 1379 7                @ ../Drivers/STM32F7xx_HAL_Driver/Src/stm32f7xx_hal_qspi.c:1379:7
	strb.w	r3, [r4, #64]
	b	.LBB29_10
.Ltmp442:
.LBB29_12:
	@DEBUG_VALUE: HAL_QSPI_Receive_DMA:data_size <- $r3
	@DEBUG_VALUE: HAL_QSPI_Receive_DMA:addr_reg <- $r7
	@DEBUG_VALUE: HAL_QSPI_Receive_DMA:hqspi <- $r4
	.loc	7 1291 36               @ ../Drivers/STM32F7xx_HAL_Driver/Src/stm32f7xx_hal_qspi.c:1291:36
	lsls	r6, r3, #31
.Ltmp443:
	.loc	7 1291 13 is_stmt 0     @ ../Drivers/STM32F7xx_HAL_Driver/Src/stm32f7xx_hal_qspi.c:1291:13
	itt	eq
	ldrbeq	r6, [r4, #8]
	lslseq.w	r6, r6, #31
	beq	.LBB29_14
.Ltmp444:
.LBB29_13:
	@DEBUG_VALUE: HAL_QSPI_Receive_DMA:data_size <- $r3
	@DEBUG_VALUE: HAL_QSPI_Receive_DMA:addr_reg <- $r7
	@DEBUG_VALUE: HAL_QSPI_Receive_DMA:hqspi <- $r4
	.loc	7 0 13                  @ ../Drivers/STM32F7xx_HAL_Driver/Src/stm32f7xx_hal_qspi.c:0:13
	ldr	r0, [r4, #68]
	movs	r6, #1
	orr	r0, r0, #8
	str	r0, [r4, #68]
	movs	r0, #0
	@DEBUG_VALUE: HAL_QSPI_Receive_DMA:status <- 1
	strb.w	r0, [r4, #64]
	b	.LBB29_10
.Ltmp445:
.LBB29_14:
	@DEBUG_VALUE: HAL_QSPI_Receive_DMA:data_size <- $r3
	@DEBUG_VALUE: HAL_QSPI_Receive_DMA:addr_reg <- $r7
	@DEBUG_VALUE: HAL_QSPI_Receive_DMA:hqspi <- $r4
	.loc	7 1303 43 is_stmt 1     @ ../Drivers/STM32F7xx_HAL_Driver/Src/stm32f7xx_hal_qspi.c:1303:43
	lsrs	r3, r3, #1
.Ltmp446:
.LBB29_15:
	@DEBUG_VALUE: HAL_QSPI_Receive_DMA:addr_reg <- $r7
	@DEBUG_VALUE: HAL_QSPI_Receive_DMA:hqspi <- $r4
	.loc	7 0 43 is_stmt 0        @ ../Drivers/STM32F7xx_HAL_Driver/Src/stm32f7xx_hal_qspi.c:0:43
	str	r3, [r4, #56]
.Ltmp447:
.LBB29_16:
	@DEBUG_VALUE: HAL_QSPI_Receive_DMA:addr_reg <- $r7
	@DEBUG_VALUE: HAL_QSPI_Receive_DMA:hqspi <- $r4
	.loc	7 1328 22 is_stmt 1     @ ../Drivers/STM32F7xx_HAL_Driver/Src/stm32f7xx_hal_qspi.c:1328:22
	movs	r3, #34
	.loc	7 1338 39               @ ../Drivers/STM32F7xx_HAL_Driver/Src/stm32f7xx_hal_qspi.c:1338:39
	ldr	r6, __arm_cp.29_1
	.loc	7 1328 22               @ ../Drivers/STM32F7xx_HAL_Driver/Src/stm32f7xx_hal_qspi.c:1328:22
	strb.w	r3, [r4, #65]
	.loc	7 1331 9                @ ../Drivers/STM32F7xx_HAL_Driver/Src/stm32f7xx_hal_qspi.c:1331:9
	movs	r3, #3
	str	r3, [r1, #12]
	.loc	7 1335 27               @ ../Drivers/STM32F7xx_HAL_Driver/Src/stm32f7xx_hal_qspi.c:1335:27
	str	r2, [r4, #48]
	.loc	7 1355 67               @ ../Drivers/STM32F7xx_HAL_Driver/Src/stm32f7xx_hal_qspi.c:1355:67
	adds	r1, #32
	.loc	7 1334 36               @ ../Drivers/STM32F7xx_HAL_Driver/Src/stm32f7xx_hal_qspi.c:1334:36
	ldr	r3, [r4, #56]
	.loc	7 1334 27 is_stmt 0     @ ../Drivers/STM32F7xx_HAL_Driver/Src/stm32f7xx_hal_qspi.c:1334:27
	str	r3, [r4, #52]
	.loc	7 1341 43 is_stmt 1     @ ../Drivers/STM32F7xx_HAL_Driver/Src/stm32f7xx_hal_qspi.c:1341:43
	ldr	r3, __arm_cp.29_0
	.loc	7 1338 39               @ ../Drivers/STM32F7xx_HAL_Driver/Src/stm32f7xx_hal_qspi.c:1338:39
	strd	r6, r3, [r0, #60]
	.loc	7 1344 40               @ ../Drivers/STM32F7xx_HAL_Driver/Src/stm32f7xx_hal_qspi.c:1344:40
	ldr	r3, __arm_cp.29_2
	movs	r6, #0
	strd	r3, r6, [r0, #76]
	.loc	7 1350 37               @ ../Drivers/STM32F7xx_HAL_Driver/Src/stm32f7xx_hal_qspi.c:1350:37
	str	r6, [r0, #8]
	.loc	7 1351 9                @ ../Drivers/STM32F7xx_HAL_Driver/Src/stm32f7xx_hal_qspi.c:1351:9
	ldr	r3, [r0]
	ldr	r5, [r3]
	bic	r5, r5, #192
	str	r5, [r3]
	.loc	7 1355 95               @ ../Drivers/STM32F7xx_HAL_Driver/Src/stm32f7xx_hal_qspi.c:1355:95
	ldr	r3, [r4, #52]
	.loc	7 1355 9 is_stmt 0      @ ../Drivers/STM32F7xx_HAL_Driver/Src/stm32f7xx_hal_qspi.c:1355:9
	bl	HAL_DMA_Start_IT
	.loc	7 1358 9 is_stmt 1      @ ../Drivers/STM32F7xx_HAL_Driver/Src/stm32f7xx_hal_qspi.c:1358:9
	ldr	r0, [r4]
	movs	r2, #1
	ldr	r1, [r0, #20]
	bfi	r1, r2, #26, #2
	str	r1, [r0, #20]
	.loc	7 1361 9                @ ../Drivers/STM32F7xx_HAL_Driver/Src/stm32f7xx_hal_qspi.c:1361:9
	str	r7, [r0, #24]
.Ltmp448:
	.loc	7 1364 9                @ ../Drivers/STM32F7xx_HAL_Driver/Src/stm32f7xx_hal_qspi.c:1364:9
	strb.w	r6, [r4, #64]
.Ltmp449:
	.loc	7 1367 9                @ ../Drivers/STM32F7xx_HAL_Driver/Src/stm32f7xx_hal_qspi.c:1367:9
	ldr	r1, [r0]
	orr	r1, r1, #65536
	str	r1, [r0]
	.loc	7 1370 9                @ ../Drivers/STM32F7xx_HAL_Driver/Src/stm32f7xx_hal_qspi.c:1370:9
	ldr	r1, [r0]
	orr	r1, r1, #4
	str	r1, [r0]
	b	.LBB29_10
.Ltmp450:
	.p2align	2
@ %bb.17:
	.loc	7 0 9 is_stmt 0         @ ../Drivers/STM32F7xx_HAL_Driver/Src/stm32f7xx_hal_qspi.c:0:9
__arm_cp.29_0:
	.long	QSPI_DMARxHalfCplt
.Lcpi_end7:
	.size	__arm_cp.29_0, .Lcpi_end7-__arm_cp.29_0
__arm_cp.29_1:
	.long	QSPI_DMARxCplt
.Lcpi_end8:
	.size	__arm_cp.29_1, .Lcpi_end8-__arm_cp.29_1
__arm_cp.29_2:
	.long	QSPI_DMAError
.Lcpi_end9:
	.size	__arm_cp.29_2, .Lcpi_end9-__arm_cp.29_2
.Lfunc_end29:
	.size	HAL_QSPI_Receive_DMA, .Lfunc_end29-HAL_QSPI_Receive_DMA
	.cfi_endproc
	.cantunwind
	.fnend
                                        @ -- End function
	.section	.text.QSPI_DMARxCplt,"ax",%progbits
	.p2align	1               @ -- Begin function QSPI_DMARxCplt
	.type	QSPI_DMARxCplt,%function
	.code	16                      @ @QSPI_DMARxCplt
	.thumb_func
QSPI_DMARxCplt:
.Lfunc_begin30:
	.loc	7 2042 0 is_stmt 1      @ ../Drivers/STM32F7xx_HAL_Driver/Src/stm32f7xx_hal_qspi.c:2042:0
	.fnstart
	.cfi_startproc
@ %bb.0:
	@DEBUG_VALUE: QSPI_DMARxCplt:hdma <- $r0
	@DEBUG_VALUE: QSPI_DMARxCplt:hdma <- $r0
	.loc	7 2043 83 prologue_end  @ ../Drivers/STM32F7xx_HAL_Driver/Src/stm32f7xx_hal_qspi.c:2043:83
	ldr	r0, [r0, #56]
.Ltmp451:
	@DEBUG_VALUE: QSPI_DMARxCplt:hqspi <- $r0
	.loc	7 0 83 is_stmt 0        @ ../Drivers/STM32F7xx_HAL_Driver/Src/stm32f7xx_hal_qspi.c:0:83
	movs	r1, #0
	.loc	7 2044 22 is_stmt 1     @ ../Drivers/STM32F7xx_HAL_Driver/Src/stm32f7xx_hal_qspi.c:2044:22
	str	r1, [r0, #56]
	.loc	7 2047 3                @ ../Drivers/STM32F7xx_HAL_Driver/Src/stm32f7xx_hal_qspi.c:2047:3
	ldr	r0, [r0]
.Ltmp452:
	ldr	r1, [r0]
	orr	r1, r1, #131072
	str	r1, [r0]
	.loc	7 2048 1                @ ../Drivers/STM32F7xx_HAL_Driver/Src/stm32f7xx_hal_qspi.c:2048:1
	bx	lr
.Ltmp453:
.Lfunc_end30:
	.size	QSPI_DMARxCplt, .Lfunc_end30-QSPI_DMARxCplt
	.cfi_endproc
	.cantunwind
	.fnend
                                        @ -- End function
	.section	.text.QSPI_DMARxHalfCplt,"ax",%progbits
	.p2align	1               @ -- Begin function QSPI_DMARxHalfCplt
	.type	QSPI_DMARxHalfCplt,%function
	.code	16                      @ @QSPI_DMARxHalfCplt
	.thumb_func
QSPI_DMARxHalfCplt:
.Lfunc_begin31:
	.loc	7 2070 0                @ ../Drivers/STM32F7xx_HAL_Driver/Src/stm32f7xx_hal_qspi.c:2070:0
	.fnstart
	.cfi_startproc
@ %bb.0:
	@DEBUG_VALUE: QSPI_DMARxHalfCplt:hdma <- $r0
	@DEBUG_VALUE: QSPI_DMARxHalfCplt:hdma <- $r0
	.loc	7 2071 80 prologue_end  @ ../Drivers/STM32F7xx_HAL_Driver/Src/stm32f7xx_hal_qspi.c:2071:80
	ldr	r0, [r0, #56]
.Ltmp454:
	@DEBUG_VALUE: QSPI_DMARxHalfCplt:hqspi <- $r0
	.loc	7 2073 3                @ ../Drivers/STM32F7xx_HAL_Driver/Src/stm32f7xx_hal_qspi.c:2073:3
	b	HAL_QSPI_RxHalfCpltCallback
.Ltmp455:
.Lfunc_end31:
	.size	QSPI_DMARxHalfCplt, .Lfunc_end31-QSPI_DMARxHalfCplt
	.cfi_endproc
	.cantunwind
	.fnend
                                        @ -- End function
	.section	.text.HAL_QSPI_AutoPolling,"ax",%progbits
	.hidden	HAL_QSPI_AutoPolling    @ -- Begin function HAL_QSPI_AutoPolling
	.globl	HAL_QSPI_AutoPolling
	.p2align	1
	.type	HAL_QSPI_AutoPolling,%function
	.code	16                      @ @HAL_QSPI_AutoPolling
	.thumb_func
HAL_QSPI_AutoPolling:
.Lfunc_begin32:
	.loc	7 1403 0                @ ../Drivers/STM32F7xx_HAL_Driver/Src/stm32f7xx_hal_qspi.c:1403:0
	.fnstart
	.cfi_startproc
@ %bb.0:
	.save	{r4, r5, r6, r7, r8, lr}
	.pad	#8
	push.w	{r2, r3, r4, r5, r6, r7, r8, lr}
	.cfi_def_cfa_offset 32
	.cfi_offset lr, -4
	.cfi_offset r8, -8
	.cfi_offset r7, -12
	.cfi_offset r6, -16
	.cfi_offset r5, -20
	.cfi_offset r4, -24
	@DEBUG_VALUE: HAL_QSPI_AutoPolling:hqspi <- $r0
	@DEBUG_VALUE: HAL_QSPI_AutoPolling:cmd <- $r1
	@DEBUG_VALUE: HAL_QSPI_AutoPolling:cfg <- $r2
	@DEBUG_VALUE: HAL_QSPI_AutoPolling:Timeout <- $r3
	mov	r5, r3
	mov	r7, r2
	mov	r8, r1
	mov	r4, r0
.Ltmp456:
	@DEBUG_VALUE: HAL_QSPI_AutoPolling:status <- 1
	@DEBUG_VALUE: HAL_QSPI_AutoPolling:Timeout <- $r5
	@DEBUG_VALUE: HAL_QSPI_AutoPolling:cfg <- $r7
	@DEBUG_VALUE: HAL_QSPI_AutoPolling:cmd <- $r8
	@DEBUG_VALUE: HAL_QSPI_AutoPolling:hqspi <- $r4
	.loc	7 1405 24 prologue_end  @ ../Drivers/STM32F7xx_HAL_Driver/Src/stm32f7xx_hal_qspi.c:1405:24
	bl	HAL_GetTick
	mov	r6, r0
.Ltmp457:
	@DEBUG_VALUE: HAL_QSPI_AutoPolling:tickstart <- $r6
	.loc	7 1438 3                @ ../Drivers/STM32F7xx_HAL_Driver/Src/stm32f7xx_hal_qspi.c:1438:3
	ldrb.w	r0, [r4, #64]
.Ltmp458:
	.loc	7 1438 3 is_stmt 0      @ ../Drivers/STM32F7xx_HAL_Driver/Src/stm32f7xx_hal_qspi.c:1438:3
	cmp	r0, #1
	bne	.LBB32_2
.Ltmp459:
@ %bb.1:
	@DEBUG_VALUE: HAL_QSPI_AutoPolling:tickstart <- $r6
	@DEBUG_VALUE: HAL_QSPI_AutoPolling:hqspi <- $r4
	@DEBUG_VALUE: HAL_QSPI_AutoPolling:cmd <- $r8
	@DEBUG_VALUE: HAL_QSPI_AutoPolling:cfg <- $r7
	@DEBUG_VALUE: HAL_QSPI_AutoPolling:Timeout <- $r5
	.loc	7 0 3                   @ ../Drivers/STM32F7xx_HAL_Driver/Src/stm32f7xx_hal_qspi.c:0:3
	movs	r0, #2
	b	.LBB32_8
.Ltmp460:
.LBB32_2:
	@DEBUG_VALUE: HAL_QSPI_AutoPolling:tickstart <- $r6
	@DEBUG_VALUE: HAL_QSPI_AutoPolling:hqspi <- $r4
	@DEBUG_VALUE: HAL_QSPI_AutoPolling:cmd <- $r8
	@DEBUG_VALUE: HAL_QSPI_AutoPolling:cfg <- $r7
	@DEBUG_VALUE: HAL_QSPI_AutoPolling:Timeout <- $r5
	movs	r0, #1
.Ltmp461:
	.loc	7 1438 3                @ ../Drivers/STM32F7xx_HAL_Driver/Src/stm32f7xx_hal_qspi.c:1438:3
	strb.w	r0, [r4, #64]
.Ltmp462:
	.loc	7 1440 13 is_stmt 1     @ ../Drivers/STM32F7xx_HAL_Driver/Src/stm32f7xx_hal_qspi.c:1440:13
	ldrb.w	r0, [r4, #65]
.Ltmp463:
	.loc	7 1440 6 is_stmt 0      @ ../Drivers/STM32F7xx_HAL_Driver/Src/stm32f7xx_hal_qspi.c:1440:6
	cmp	r0, #1
	bne	.LBB32_6
.Ltmp464:
@ %bb.3:
	@DEBUG_VALUE: HAL_QSPI_AutoPolling:tickstart <- $r6
	@DEBUG_VALUE: HAL_QSPI_AutoPolling:hqspi <- $r4
	@DEBUG_VALUE: HAL_QSPI_AutoPolling:cmd <- $r8
	@DEBUG_VALUE: HAL_QSPI_AutoPolling:cfg <- $r7
	@DEBUG_VALUE: HAL_QSPI_AutoPolling:Timeout <- $r5
	.loc	7 0 6                   @ ../Drivers/STM32F7xx_HAL_Driver/Src/stm32f7xx_hal_qspi.c:0:6
	movs	r0, #0
.Ltmp465:
	.loc	7 1449 14 is_stmt 1     @ ../Drivers/STM32F7xx_HAL_Driver/Src/stm32f7xx_hal_qspi.c:1449:14
	movs	r1, #32
	movs	r2, #0
	mov	r3, r6
	.loc	7 1443 22               @ ../Drivers/STM32F7xx_HAL_Driver/Src/stm32f7xx_hal_qspi.c:1443:22
	str	r0, [r4, #68]
	.loc	7 1446 18               @ ../Drivers/STM32F7xx_HAL_Driver/Src/stm32f7xx_hal_qspi.c:1446:18
	movs	r0, #66
	strb.w	r0, [r4, #65]
	.loc	7 1449 14               @ ../Drivers/STM32F7xx_HAL_Driver/Src/stm32f7xx_hal_qspi.c:1449:14
	mov	r0, r4
	str	r5, [sp]
	bl	QSPI_WaitFlagStateUntilTimeout
	.loc	7 1451 9                @ ../Drivers/STM32F7xx_HAL_Driver/Src/stm32f7xx_hal_qspi.c:1451:9
	cbnz	r0, .LBB32_7
.Ltmp466:
@ %bb.4:
	@DEBUG_VALUE: HAL_QSPI_AutoPolling:tickstart <- $r6
	@DEBUG_VALUE: HAL_QSPI_AutoPolling:hqspi <- $r4
	@DEBUG_VALUE: HAL_QSPI_AutoPolling:cmd <- $r8
	@DEBUG_VALUE: HAL_QSPI_AutoPolling:cfg <- $r7
	@DEBUG_VALUE: HAL_QSPI_AutoPolling:Timeout <- $r5
	.loc	7 1454 7                @ ../Drivers/STM32F7xx_HAL_Driver/Src/stm32f7xx_hal_qspi.c:1454:7
	ldr	r0, [r4]
	ldr	r1, [r7]
	str	r1, [r0, #40]
	.loc	7 1457 7                @ ../Drivers/STM32F7xx_HAL_Driver/Src/stm32f7xx_hal_qspi.c:1457:7
	ldr	r1, [r7, #4]
	str	r1, [r0, #36]
	.loc	7 1460 7                @ ../Drivers/STM32F7xx_HAL_Driver/Src/stm32f7xx_hal_qspi.c:1460:7
	ldr	r1, [r7, #8]
	str	r1, [r0, #44]
	.loc	7 1464 7                @ ../Drivers/STM32F7xx_HAL_Driver/Src/stm32f7xx_hal_qspi.c:1464:7
	ldr	r1, [r0]
	ldr	r2, [r7, #16]
	bic	r1, r1, #12582912
	orrs	r1, r2
	.loc	7 1469 7                @ ../Drivers/STM32F7xx_HAL_Driver/Src/stm32f7xx_hal_qspi.c:1469:7
	mov.w	r2, #134217728
	.loc	7 1464 7                @ ../Drivers/STM32F7xx_HAL_Driver/Src/stm32f7xx_hal_qspi.c:1464:7
	orr	r1, r1, #4194304
	str	r1, [r0]
	.loc	7 1469 7                @ ../Drivers/STM32F7xx_HAL_Driver/Src/stm32f7xx_hal_qspi.c:1469:7
	mov	r1, r8
	.loc	7 1468 26               @ ../Drivers/STM32F7xx_HAL_Driver/Src/stm32f7xx_hal_qspi.c:1468:26
	ldr	r0, [r7, #12]
	.loc	7 1468 19 is_stmt 0     @ ../Drivers/STM32F7xx_HAL_Driver/Src/stm32f7xx_hal_qspi.c:1468:19
	str.w	r0, [r8, #40]
	.loc	7 1469 7 is_stmt 1      @ ../Drivers/STM32F7xx_HAL_Driver/Src/stm32f7xx_hal_qspi.c:1469:7
	mov	r0, r4
	bl	QSPI_Config
	.loc	7 1472 16               @ ../Drivers/STM32F7xx_HAL_Driver/Src/stm32f7xx_hal_qspi.c:1472:16
	mov	r0, r4
	movs	r1, #8
	movs	r2, #1
	mov	r3, r6
	str	r5, [sp]
	movs	r5, #8
.Ltmp467:
	.loc	7 0 16 is_stmt 0        @ ../Drivers/STM32F7xx_HAL_Driver/Src/stm32f7xx_hal_qspi.c:0:16
	movs	r7, #1
.Ltmp468:
	.loc	7 1472 16               @ ../Drivers/STM32F7xx_HAL_Driver/Src/stm32f7xx_hal_qspi.c:1472:16
	bl	QSPI_WaitFlagStateUntilTimeout
	.loc	7 1474 11 is_stmt 1     @ ../Drivers/STM32F7xx_HAL_Driver/Src/stm32f7xx_hal_qspi.c:1474:11
	cbnz	r0, .LBB32_7
.Ltmp469:
@ %bb.5:
	@DEBUG_VALUE: HAL_QSPI_AutoPolling:tickstart <- $r6
	@DEBUG_VALUE: HAL_QSPI_AutoPolling:hqspi <- $r4
	@DEBUG_VALUE: HAL_QSPI_AutoPolling:cmd <- $r8
	.loc	7 1476 9                @ ../Drivers/STM32F7xx_HAL_Driver/Src/stm32f7xx_hal_qspi.c:1476:9
	ldr	r0, [r4]
	str	r5, [r0, #12]
	movs	r0, #0
	.loc	7 1479 22               @ ../Drivers/STM32F7xx_HAL_Driver/Src/stm32f7xx_hal_qspi.c:1479:22
	strb.w	r7, [r4, #65]
	b	.LBB32_7
.Ltmp470:
.LBB32_6:
	@DEBUG_VALUE: HAL_QSPI_AutoPolling:tickstart <- $r6
	@DEBUG_VALUE: HAL_QSPI_AutoPolling:hqspi <- $r4
	@DEBUG_VALUE: HAL_QSPI_AutoPolling:cmd <- $r8
	@DEBUG_VALUE: HAL_QSPI_AutoPolling:cfg <- $r7
	@DEBUG_VALUE: HAL_QSPI_AutoPolling:Timeout <- $r5
	.loc	7 0 22 is_stmt 0        @ ../Drivers/STM32F7xx_HAL_Driver/Src/stm32f7xx_hal_qspi.c:0:22
	movs	r0, #2
.Ltmp471:
.LBB32_7:
	@DEBUG_VALUE: HAL_QSPI_AutoPolling:tickstart <- $r6
	@DEBUG_VALUE: HAL_QSPI_AutoPolling:hqspi <- $r4
	@DEBUG_VALUE: HAL_QSPI_AutoPolling:cmd <- $r8
	.loc	7 1488 3 is_stmt 1      @ ../Drivers/STM32F7xx_HAL_Driver/Src/stm32f7xx_hal_qspi.c:1488:3
	movs	r1, #0
	strb.w	r1, [r4, #64]
.Ltmp472:
.LBB32_8:
	@DEBUG_VALUE: HAL_QSPI_AutoPolling:tickstart <- $r6
	@DEBUG_VALUE: HAL_QSPI_AutoPolling:hqspi <- $r4
	@DEBUG_VALUE: HAL_QSPI_AutoPolling:cmd <- $r8
	.loc	7 1492 1                @ ../Drivers/STM32F7xx_HAL_Driver/Src/stm32f7xx_hal_qspi.c:1492:1
	add	sp, #8
	pop.w	{r4, r5, r6, r7, r8, pc}
.Ltmp473:
.Lfunc_end32:
	.size	HAL_QSPI_AutoPolling, .Lfunc_end32-HAL_QSPI_AutoPolling
	.cfi_endproc
	.cantunwind
	.fnend
                                        @ -- End function
	.section	.text.HAL_QSPI_AutoPolling_IT,"ax",%progbits
	.hidden	HAL_QSPI_AutoPolling_IT @ -- Begin function HAL_QSPI_AutoPolling_IT
	.globl	HAL_QSPI_AutoPolling_IT
	.p2align	1
	.type	HAL_QSPI_AutoPolling_IT,%function
	.code	16                      @ @HAL_QSPI_AutoPolling_IT
	.thumb_func
HAL_QSPI_AutoPolling_IT:
.Lfunc_begin33:
	.loc	7 1503 0                @ ../Drivers/STM32F7xx_HAL_Driver/Src/stm32f7xx_hal_qspi.c:1503:0
	.fnstart
	.cfi_startproc
@ %bb.0:
	.save	{r4, r5, r6, r7, lr}
	.pad	#4
	push	{r3, r4, r5, r6, r7, lr}
	.cfi_def_cfa_offset 24
	.cfi_offset lr, -4
	.cfi_offset r7, -8
	.cfi_offset r6, -12
	.cfi_offset r5, -16
	.cfi_offset r4, -20
	@DEBUG_VALUE: HAL_QSPI_AutoPolling_IT:hqspi <- $r0
	@DEBUG_VALUE: HAL_QSPI_AutoPolling_IT:cmd <- $r1
	@DEBUG_VALUE: HAL_QSPI_AutoPolling_IT:cfg <- $r2
	mov	r7, r2
	mov	r6, r1
	mov	r4, r0
.Ltmp474:
	@DEBUG_VALUE: HAL_QSPI_AutoPolling_IT:status <- 1
	@DEBUG_VALUE: HAL_QSPI_AutoPolling_IT:cfg <- $r7
	@DEBUG_VALUE: HAL_QSPI_AutoPolling_IT:cmd <- $r6
	@DEBUG_VALUE: HAL_QSPI_AutoPolling_IT:hqspi <- $r4
	.loc	7 1505 24 prologue_end  @ ../Drivers/STM32F7xx_HAL_Driver/Src/stm32f7xx_hal_qspi.c:1505:24
	bl	HAL_GetTick
	mov	r3, r0
.Ltmp475:
	@DEBUG_VALUE: HAL_QSPI_AutoPolling_IT:tickstart <- $r3
	.loc	7 1539 3                @ ../Drivers/STM32F7xx_HAL_Driver/Src/stm32f7xx_hal_qspi.c:1539:3
	ldrb.w	r0, [r4, #64]
.Ltmp476:
	.loc	7 1539 3 is_stmt 0      @ ../Drivers/STM32F7xx_HAL_Driver/Src/stm32f7xx_hal_qspi.c:1539:3
	cmp	r0, #1
	beq	.LBB33_5
.Ltmp477:
@ %bb.1:
	@DEBUG_VALUE: HAL_QSPI_AutoPolling_IT:tickstart <- $r3
	@DEBUG_VALUE: HAL_QSPI_AutoPolling_IT:hqspi <- $r4
	@DEBUG_VALUE: HAL_QSPI_AutoPolling_IT:cmd <- $r6
	@DEBUG_VALUE: HAL_QSPI_AutoPolling_IT:cfg <- $r7
	.loc	7 0 3                   @ ../Drivers/STM32F7xx_HAL_Driver/Src/stm32f7xx_hal_qspi.c:0:3
	movs	r0, #1
.Ltmp478:
	.loc	7 1539 3                @ ../Drivers/STM32F7xx_HAL_Driver/Src/stm32f7xx_hal_qspi.c:1539:3
	strb.w	r0, [r4, #64]
.Ltmp479:
	.loc	7 1541 13 is_stmt 1     @ ../Drivers/STM32F7xx_HAL_Driver/Src/stm32f7xx_hal_qspi.c:1541:13
	ldrb.w	r0, [r4, #65]
.Ltmp480:
	.loc	7 1541 6 is_stmt 0      @ ../Drivers/STM32F7xx_HAL_Driver/Src/stm32f7xx_hal_qspi.c:1541:6
	cmp	r0, #1
	bne	.LBB33_4
.Ltmp481:
@ %bb.2:
	@DEBUG_VALUE: HAL_QSPI_AutoPolling_IT:tickstart <- $r3
	@DEBUG_VALUE: HAL_QSPI_AutoPolling_IT:hqspi <- $r4
	@DEBUG_VALUE: HAL_QSPI_AutoPolling_IT:cmd <- $r6
	@DEBUG_VALUE: HAL_QSPI_AutoPolling_IT:cfg <- $r7
	.loc	7 0 6                   @ ../Drivers/STM32F7xx_HAL_Driver/Src/stm32f7xx_hal_qspi.c:0:6
	movs	r5, #0
.Ltmp482:
	.loc	7 1546 18 is_stmt 1     @ ../Drivers/STM32F7xx_HAL_Driver/Src/stm32f7xx_hal_qspi.c:1546:18
	movs	r0, #66
	.loc	7 1549 14               @ ../Drivers/STM32F7xx_HAL_Driver/Src/stm32f7xx_hal_qspi.c:1549:14
	movs	r1, #32
	movs	r2, #0
	.loc	7 1543 22               @ ../Drivers/STM32F7xx_HAL_Driver/Src/stm32f7xx_hal_qspi.c:1543:22
	str	r5, [r4, #68]
	.loc	7 1546 18               @ ../Drivers/STM32F7xx_HAL_Driver/Src/stm32f7xx_hal_qspi.c:1546:18
	strb.w	r0, [r4, #65]
	.loc	7 1549 93               @ ../Drivers/STM32F7xx_HAL_Driver/Src/stm32f7xx_hal_qspi.c:1549:93
	ldr	r0, [r4, #72]
	.loc	7 1549 14 is_stmt 0     @ ../Drivers/STM32F7xx_HAL_Driver/Src/stm32f7xx_hal_qspi.c:1549:14
	str	r0, [sp]
	mov	r0, r4
	bl	QSPI_WaitFlagStateUntilTimeout
.Ltmp483:
	.loc	7 1551 9 is_stmt 1      @ ../Drivers/STM32F7xx_HAL_Driver/Src/stm32f7xx_hal_qspi.c:1551:9
	cbz	r0, .LBB33_7
.Ltmp484:
@ %bb.3:
	@DEBUG_VALUE: HAL_QSPI_AutoPolling_IT:hqspi <- $r4
	@DEBUG_VALUE: HAL_QSPI_AutoPolling_IT:cmd <- $r6
	@DEBUG_VALUE: HAL_QSPI_AutoPolling_IT:cfg <- $r7
	.loc	7 1583 7                @ ../Drivers/STM32F7xx_HAL_Driver/Src/stm32f7xx_hal_qspi.c:1583:7
	strb.w	r5, [r4, #64]
	mov	r5, r0
	b	.LBB33_6
.Ltmp485:
.LBB33_4:
	@DEBUG_VALUE: HAL_QSPI_AutoPolling_IT:tickstart <- $r3
	@DEBUG_VALUE: HAL_QSPI_AutoPolling_IT:hqspi <- $r4
	@DEBUG_VALUE: HAL_QSPI_AutoPolling_IT:cmd <- $r6
	@DEBUG_VALUE: HAL_QSPI_AutoPolling_IT:cfg <- $r7
	@DEBUG_VALUE: HAL_QSPI_AutoPolling_IT:status <- 2
	.loc	7 1591 5                @ ../Drivers/STM32F7xx_HAL_Driver/Src/stm32f7xx_hal_qspi.c:1591:5
	movs	r0, #0
	strb.w	r0, [r4, #64]
.Ltmp486:
.LBB33_5:
	@DEBUG_VALUE: HAL_QSPI_AutoPolling_IT:tickstart <- $r3
	@DEBUG_VALUE: HAL_QSPI_AutoPolling_IT:hqspi <- $r4
	@DEBUG_VALUE: HAL_QSPI_AutoPolling_IT:cmd <- $r6
	@DEBUG_VALUE: HAL_QSPI_AutoPolling_IT:cfg <- $r7
	.loc	7 0 5 is_stmt 0         @ ../Drivers/STM32F7xx_HAL_Driver/Src/stm32f7xx_hal_qspi.c:0:5
	movs	r5, #2
.Ltmp487:
.LBB33_6:
	@DEBUG_VALUE: HAL_QSPI_AutoPolling_IT:hqspi <- $r4
	@DEBUG_VALUE: HAL_QSPI_AutoPolling_IT:cmd <- $r6
	@DEBUG_VALUE: HAL_QSPI_AutoPolling_IT:cfg <- $r7
	.loc	7 1596 1 is_stmt 1      @ ../Drivers/STM32F7xx_HAL_Driver/Src/stm32f7xx_hal_qspi.c:1596:1
	mov	r0, r5
	add	sp, #4
	pop	{r4, r5, r6, r7, pc}
.Ltmp488:
.LBB33_7:
	@DEBUG_VALUE: HAL_QSPI_AutoPolling_IT:hqspi <- $r4
	@DEBUG_VALUE: HAL_QSPI_AutoPolling_IT:cmd <- $r6
	@DEBUG_VALUE: HAL_QSPI_AutoPolling_IT:cfg <- $r7
	.loc	7 1554 7                @ ../Drivers/STM32F7xx_HAL_Driver/Src/stm32f7xx_hal_qspi.c:1554:7
	ldr	r0, [r4]
	ldr	r1, [r7]
	str	r1, [r0, #40]
	.loc	7 1557 7                @ ../Drivers/STM32F7xx_HAL_Driver/Src/stm32f7xx_hal_qspi.c:1557:7
	ldr	r1, [r7, #4]
	str	r1, [r0, #36]
	.loc	7 1560 7                @ ../Drivers/STM32F7xx_HAL_Driver/Src/stm32f7xx_hal_qspi.c:1560:7
	ldr	r1, [r7, #8]
	str	r1, [r0, #44]
	.loc	7 1563 7                @ ../Drivers/STM32F7xx_HAL_Driver/Src/stm32f7xx_hal_qspi.c:1563:7
	ldr	r1, [r0]
	ldrd	r2, r3, [r7, #16]
	bic	r1, r1, #12582912
	orrs	r1, r2
	.loc	7 1571 7                @ ../Drivers/STM32F7xx_HAL_Driver/Src/stm32f7xx_hal_qspi.c:1571:7
	mov.w	r2, #134217728
	.loc	7 1563 7                @ ../Drivers/STM32F7xx_HAL_Driver/Src/stm32f7xx_hal_qspi.c:1563:7
	orrs	r1, r3
	str	r1, [r0]
	.loc	7 1567 7                @ ../Drivers/STM32F7xx_HAL_Driver/Src/stm32f7xx_hal_qspi.c:1567:7
	movs	r1, #9
	str	r1, [r0, #12]
	.loc	7 1571 7                @ ../Drivers/STM32F7xx_HAL_Driver/Src/stm32f7xx_hal_qspi.c:1571:7
	mov	r1, r6
	.loc	7 1570 26               @ ../Drivers/STM32F7xx_HAL_Driver/Src/stm32f7xx_hal_qspi.c:1570:26
	ldr	r0, [r7, #12]
	.loc	7 1570 19 is_stmt 0     @ ../Drivers/STM32F7xx_HAL_Driver/Src/stm32f7xx_hal_qspi.c:1570:19
	str	r0, [r6, #40]
	.loc	7 1571 7 is_stmt 1      @ ../Drivers/STM32F7xx_HAL_Driver/Src/stm32f7xx_hal_qspi.c:1571:7
	mov	r0, r4
	bl	QSPI_Config
.Ltmp489:
	.loc	7 1574 7                @ ../Drivers/STM32F7xx_HAL_Driver/Src/stm32f7xx_hal_qspi.c:1574:7
	strb.w	r5, [r4, #64]
.Ltmp490:
	.loc	7 1577 7                @ ../Drivers/STM32F7xx_HAL_Driver/Src/stm32f7xx_hal_qspi.c:1577:7
	ldr	r0, [r4]
	ldr	r1, [r0]
	orr	r1, r1, #589824
	str	r1, [r0]
	b	.LBB33_6
.Ltmp491:
.Lfunc_end33:
	.size	HAL_QSPI_AutoPolling_IT, .Lfunc_end33-HAL_QSPI_AutoPolling_IT
	.cfi_endproc
	.cantunwind
	.fnend
                                        @ -- End function
	.section	.text.HAL_QSPI_MemoryMapped,"ax",%progbits
	.hidden	HAL_QSPI_MemoryMapped   @ -- Begin function HAL_QSPI_MemoryMapped
	.globl	HAL_QSPI_MemoryMapped
	.p2align	1
	.type	HAL_QSPI_MemoryMapped,%function
	.code	16                      @ @HAL_QSPI_MemoryMapped
	.thumb_func
HAL_QSPI_MemoryMapped:
.Lfunc_begin34:
	.loc	7 1607 0                @ ../Drivers/STM32F7xx_HAL_Driver/Src/stm32f7xx_hal_qspi.c:1607:0
	.fnstart
	.cfi_startproc
@ %bb.0:
	.save	{r4, r5, r6, lr}
	.pad	#8
	push	{r2, r3, r4, r5, r6, lr}
	.cfi_def_cfa_offset 24
	.cfi_offset lr, -4
	.cfi_offset r6, -8
	.cfi_offset r5, -12
	.cfi_offset r4, -16
	@DEBUG_VALUE: HAL_QSPI_MemoryMapped:hqspi <- $r0
	@DEBUG_VALUE: HAL_QSPI_MemoryMapped:cmd <- $r1
	@DEBUG_VALUE: HAL_QSPI_MemoryMapped:cfg <- $r2
	mov	r6, r2
	mov	r5, r1
	mov	r4, r0
.Ltmp492:
	@DEBUG_VALUE: HAL_QSPI_MemoryMapped:status <- 1
	@DEBUG_VALUE: HAL_QSPI_MemoryMapped:cfg <- $r6
	@DEBUG_VALUE: HAL_QSPI_MemoryMapped:cmd <- $r5
	@DEBUG_VALUE: HAL_QSPI_MemoryMapped:hqspi <- $r4
	.loc	7 1609 24 prologue_end  @ ../Drivers/STM32F7xx_HAL_Driver/Src/stm32f7xx_hal_qspi.c:1609:24
	bl	HAL_GetTick
	mov	r3, r0
.Ltmp493:
	@DEBUG_VALUE: HAL_QSPI_MemoryMapped:tickstart <- $r3
	.loc	7 1640 3                @ ../Drivers/STM32F7xx_HAL_Driver/Src/stm32f7xx_hal_qspi.c:1640:3
	ldrb.w	r0, [r4, #64]
.Ltmp494:
	.loc	7 1640 3 is_stmt 0      @ ../Drivers/STM32F7xx_HAL_Driver/Src/stm32f7xx_hal_qspi.c:1640:3
	cmp	r0, #1
	bne	.LBB34_2
.Ltmp495:
@ %bb.1:
	@DEBUG_VALUE: HAL_QSPI_MemoryMapped:tickstart <- $r3
	@DEBUG_VALUE: HAL_QSPI_MemoryMapped:hqspi <- $r4
	@DEBUG_VALUE: HAL_QSPI_MemoryMapped:cmd <- $r5
	@DEBUG_VALUE: HAL_QSPI_MemoryMapped:cfg <- $r6
	.loc	7 0 3                   @ ../Drivers/STM32F7xx_HAL_Driver/Src/stm32f7xx_hal_qspi.c:0:3
	movs	r0, #2
	b	.LBB34_9
.Ltmp496:
.LBB34_2:
	@DEBUG_VALUE: HAL_QSPI_MemoryMapped:tickstart <- $r3
	@DEBUG_VALUE: HAL_QSPI_MemoryMapped:hqspi <- $r4
	@DEBUG_VALUE: HAL_QSPI_MemoryMapped:cmd <- $r5
	@DEBUG_VALUE: HAL_QSPI_MemoryMapped:cfg <- $r6
	movs	r0, #1
.Ltmp497:
	.loc	7 1640 3                @ ../Drivers/STM32F7xx_HAL_Driver/Src/stm32f7xx_hal_qspi.c:1640:3
	strb.w	r0, [r4, #64]
.Ltmp498:
	.loc	7 1642 13 is_stmt 1     @ ../Drivers/STM32F7xx_HAL_Driver/Src/stm32f7xx_hal_qspi.c:1642:13
	ldrb.w	r0, [r4, #65]
.Ltmp499:
	.loc	7 1642 6 is_stmt 0      @ ../Drivers/STM32F7xx_HAL_Driver/Src/stm32f7xx_hal_qspi.c:1642:6
	cmp	r0, #1
	bne	.LBB34_7
.Ltmp500:
@ %bb.3:
	@DEBUG_VALUE: HAL_QSPI_MemoryMapped:tickstart <- $r3
	@DEBUG_VALUE: HAL_QSPI_MemoryMapped:hqspi <- $r4
	@DEBUG_VALUE: HAL_QSPI_MemoryMapped:cmd <- $r5
	@DEBUG_VALUE: HAL_QSPI_MemoryMapped:cfg <- $r6
	.loc	7 0 6                   @ ../Drivers/STM32F7xx_HAL_Driver/Src/stm32f7xx_hal_qspi.c:0:6
	movs	r0, #0
.Ltmp501:
	.loc	7 1650 14 is_stmt 1     @ ../Drivers/STM32F7xx_HAL_Driver/Src/stm32f7xx_hal_qspi.c:1650:14
	movs	r1, #32
	movs	r2, #0
	.loc	7 1644 22               @ ../Drivers/STM32F7xx_HAL_Driver/Src/stm32f7xx_hal_qspi.c:1644:22
	str	r0, [r4, #68]
	.loc	7 1647 18               @ ../Drivers/STM32F7xx_HAL_Driver/Src/stm32f7xx_hal_qspi.c:1647:18
	movs	r0, #130
	strb.w	r0, [r4, #65]
	.loc	7 1650 93               @ ../Drivers/STM32F7xx_HAL_Driver/Src/stm32f7xx_hal_qspi.c:1650:93
	ldr	r0, [r4, #72]
	.loc	7 1650 14 is_stmt 0     @ ../Drivers/STM32F7xx_HAL_Driver/Src/stm32f7xx_hal_qspi.c:1650:14
	str	r0, [sp]
	mov	r0, r4
	bl	QSPI_WaitFlagStateUntilTimeout
.Ltmp502:
	.loc	7 1652 9 is_stmt 1      @ ../Drivers/STM32F7xx_HAL_Driver/Src/stm32f7xx_hal_qspi.c:1652:9
	cbnz	r0, .LBB34_8
.Ltmp503:
@ %bb.4:
	@DEBUG_VALUE: HAL_QSPI_MemoryMapped:hqspi <- $r4
	@DEBUG_VALUE: HAL_QSPI_MemoryMapped:cmd <- $r5
	@DEBUG_VALUE: HAL_QSPI_MemoryMapped:cfg <- $r6
	.loc	7 1655 5                @ ../Drivers/STM32F7xx_HAL_Driver/Src/stm32f7xx_hal_qspi.c:1655:5
	ldr	r0, [r4]
	ldr	r1, [r0]
	ldr	r2, [r6, #4]
	bic	r1, r1, #8
	.loc	7 1657 9                @ ../Drivers/STM32F7xx_HAL_Driver/Src/stm32f7xx_hal_qspi.c:1657:9
	cmp	r2, #8
	.loc	7 1655 5                @ ../Drivers/STM32F7xx_HAL_Driver/Src/stm32f7xx_hal_qspi.c:1655:5
	orr.w	r1, r1, r2
	str	r1, [r0]
	.loc	7 1657 9                @ ../Drivers/STM32F7xx_HAL_Driver/Src/stm32f7xx_hal_qspi.c:1657:9
	bne	.LBB34_6
.Ltmp504:
@ %bb.5:
	@DEBUG_VALUE: HAL_QSPI_MemoryMapped:hqspi <- $r4
	@DEBUG_VALUE: HAL_QSPI_MemoryMapped:cmd <- $r5
	@DEBUG_VALUE: HAL_QSPI_MemoryMapped:cfg <- $r6
	.loc	7 1662 9                @ ../Drivers/STM32F7xx_HAL_Driver/Src/stm32f7xx_hal_qspi.c:1662:9
	ldr	r1, [r6]
	str	r1, [r0, #48]
	.loc	7 1665 9                @ ../Drivers/STM32F7xx_HAL_Driver/Src/stm32f7xx_hal_qspi.c:1665:9
	movs	r1, #16
	str	r1, [r0, #12]
	.loc	7 1668 9                @ ../Drivers/STM32F7xx_HAL_Driver/Src/stm32f7xx_hal_qspi.c:1668:9
	ldr	r1, [r0]
	orr	r1, r1, #1048576
	str	r1, [r0]
.Ltmp505:
.LBB34_6:
	@DEBUG_VALUE: HAL_QSPI_MemoryMapped:hqspi <- $r4
	@DEBUG_VALUE: HAL_QSPI_MemoryMapped:cmd <- $r5
	@DEBUG_VALUE: HAL_QSPI_MemoryMapped:cfg <- $r6
	.loc	7 1672 7                @ ../Drivers/STM32F7xx_HAL_Driver/Src/stm32f7xx_hal_qspi.c:1672:7
	mov	r0, r4
	mov	r1, r5
	mov.w	r2, #201326592
	bl	QSPI_Config
	movs	r0, #0
	b	.LBB34_8
.Ltmp506:
.LBB34_7:
	@DEBUG_VALUE: HAL_QSPI_MemoryMapped:tickstart <- $r3
	@DEBUG_VALUE: HAL_QSPI_MemoryMapped:hqspi <- $r4
	@DEBUG_VALUE: HAL_QSPI_MemoryMapped:cmd <- $r5
	@DEBUG_VALUE: HAL_QSPI_MemoryMapped:cfg <- $r6
	.loc	7 0 7 is_stmt 0         @ ../Drivers/STM32F7xx_HAL_Driver/Src/stm32f7xx_hal_qspi.c:0:7
	movs	r0, #2
.Ltmp507:
.LBB34_8:
	@DEBUG_VALUE: HAL_QSPI_MemoryMapped:hqspi <- $r4
	@DEBUG_VALUE: HAL_QSPI_MemoryMapped:cmd <- $r5
	@DEBUG_VALUE: HAL_QSPI_MemoryMapped:cfg <- $r6
	.loc	7 1681 3 is_stmt 1      @ ../Drivers/STM32F7xx_HAL_Driver/Src/stm32f7xx_hal_qspi.c:1681:3
	movs	r1, #0
	strb.w	r1, [r4, #64]
.Ltmp508:
.LBB34_9:
	@DEBUG_VALUE: HAL_QSPI_MemoryMapped:hqspi <- $r4
	@DEBUG_VALUE: HAL_QSPI_MemoryMapped:cmd <- $r5
	@DEBUG_VALUE: HAL_QSPI_MemoryMapped:cfg <- $r6
	.loc	7 1685 1                @ ../Drivers/STM32F7xx_HAL_Driver/Src/stm32f7xx_hal_qspi.c:1685:1
	add	sp, #8
	pop	{r4, r5, r6, pc}
.Ltmp509:
.Lfunc_end34:
	.size	HAL_QSPI_MemoryMapped, .Lfunc_end34-HAL_QSPI_MemoryMapped
	.cfi_endproc
	.cantunwind
	.fnend
                                        @ -- End function
	.section	.text.HAL_QSPI_RxHalfCpltCallback,"ax",%progbits
	.hidden	HAL_QSPI_RxHalfCpltCallback @ -- Begin function HAL_QSPI_RxHalfCpltCallback
	.weak	HAL_QSPI_RxHalfCpltCallback
	.p2align	1
	.type	HAL_QSPI_RxHalfCpltCallback,%function
	.code	16                      @ @HAL_QSPI_RxHalfCpltCallback
	.thumb_func
HAL_QSPI_RxHalfCpltCallback:
.Lfunc_begin35:
	.loc	7 1768 0                @ ../Drivers/STM32F7xx_HAL_Driver/Src/stm32f7xx_hal_qspi.c:1768:0
	.fnstart
	.cfi_startproc
@ %bb.0:
	@DEBUG_VALUE: HAL_QSPI_RxHalfCpltCallback:hqspi <- $r0
	.loc	7 1775 1 prologue_end   @ ../Drivers/STM32F7xx_HAL_Driver/Src/stm32f7xx_hal_qspi.c:1775:1
	bx	lr
.Ltmp510:
.Lfunc_end35:
	.size	HAL_QSPI_RxHalfCpltCallback, .Lfunc_end35-HAL_QSPI_RxHalfCpltCallback
	.cfi_endproc
	.cantunwind
	.fnend
                                        @ -- End function
	.section	.text.HAL_QSPI_TxHalfCpltCallback,"ax",%progbits
	.hidden	HAL_QSPI_TxHalfCpltCallback @ -- Begin function HAL_QSPI_TxHalfCpltCallback
	.weak	HAL_QSPI_TxHalfCpltCallback
	.p2align	1
	.type	HAL_QSPI_TxHalfCpltCallback,%function
	.code	16                      @ @HAL_QSPI_TxHalfCpltCallback
	.thumb_func
HAL_QSPI_TxHalfCpltCallback:
.Lfunc_begin36:
	.loc	7 1783 0                @ ../Drivers/STM32F7xx_HAL_Driver/Src/stm32f7xx_hal_qspi.c:1783:0
	.fnstart
	.cfi_startproc
@ %bb.0:
	@DEBUG_VALUE: HAL_QSPI_TxHalfCpltCallback:hqspi <- $r0
	.loc	7 1790 1 prologue_end   @ ../Drivers/STM32F7xx_HAL_Driver/Src/stm32f7xx_hal_qspi.c:1790:1
	bx	lr
.Ltmp511:
.Lfunc_end36:
	.size	HAL_QSPI_TxHalfCpltCallback, .Lfunc_end36-HAL_QSPI_TxHalfCpltCallback
	.cfi_endproc
	.cantunwind
	.fnend
                                        @ -- End function
	.section	.text.HAL_QSPI_GetState,"ax",%progbits
	.hidden	HAL_QSPI_GetState       @ -- Begin function HAL_QSPI_GetState
	.globl	HAL_QSPI_GetState
	.p2align	1
	.type	HAL_QSPI_GetState,%function
	.code	16                      @ @HAL_QSPI_GetState
	.thumb_func
HAL_QSPI_GetState:
.Lfunc_begin37:
	.loc	7 1864 0                @ ../Drivers/STM32F7xx_HAL_Driver/Src/stm32f7xx_hal_qspi.c:1864:0
	.fnstart
	.cfi_startproc
@ %bb.0:
	@DEBUG_VALUE: HAL_QSPI_GetState:hqspi <- $r0
	@DEBUG_VALUE: HAL_QSPI_GetState:hqspi <- $r0
	.loc	7 1866 3 prologue_end   @ ../Drivers/STM32F7xx_HAL_Driver/Src/stm32f7xx_hal_qspi.c:1866:3
	ldrb.w	r0, [r0, #65]
	bx	lr
.Ltmp512:
.Lfunc_end37:
	.size	HAL_QSPI_GetState, .Lfunc_end37-HAL_QSPI_GetState
	.cfi_endproc
	.cantunwind
	.fnend
                                        @ -- End function
	.section	.text.HAL_QSPI_GetError,"ax",%progbits
	.hidden	HAL_QSPI_GetError       @ -- Begin function HAL_QSPI_GetError
	.globl	HAL_QSPI_GetError
	.p2align	1
	.type	HAL_QSPI_GetError,%function
	.code	16                      @ @HAL_QSPI_GetError
	.thumb_func
HAL_QSPI_GetError:
.Lfunc_begin38:
	.loc	7 1875 0                @ ../Drivers/STM32F7xx_HAL_Driver/Src/stm32f7xx_hal_qspi.c:1875:0
	.fnstart
	.cfi_startproc
@ %bb.0:
	@DEBUG_VALUE: HAL_QSPI_GetError:hqspi <- $r0
	@DEBUG_VALUE: HAL_QSPI_GetError:hqspi <- $r0
	.loc	7 1876 17 prologue_end  @ ../Drivers/STM32F7xx_HAL_Driver/Src/stm32f7xx_hal_qspi.c:1876:17
	ldr	r0, [r0, #68]
.Ltmp513:
	.loc	7 1876 3 is_stmt 0      @ ../Drivers/STM32F7xx_HAL_Driver/Src/stm32f7xx_hal_qspi.c:1876:3
	bx	lr
.Ltmp514:
.Lfunc_end38:
	.size	HAL_QSPI_GetError, .Lfunc_end38-HAL_QSPI_GetError
	.cfi_endproc
	.cantunwind
	.fnend
                                        @ -- End function
	.section	.text.HAL_QSPI_SetFifoThreshold,"ax",%progbits
	.hidden	HAL_QSPI_SetFifoThreshold @ -- Begin function HAL_QSPI_SetFifoThreshold
	.globl	HAL_QSPI_SetFifoThreshold
	.p2align	1
	.type	HAL_QSPI_SetFifoThreshold,%function
	.code	16                      @ @HAL_QSPI_SetFifoThreshold
	.thumb_func
HAL_QSPI_SetFifoThreshold:
.Lfunc_begin39:
	.loc	7 1994 0 is_stmt 1      @ ../Drivers/STM32F7xx_HAL_Driver/Src/stm32f7xx_hal_qspi.c:1994:0
	.fnstart
	.cfi_startproc
@ %bb.0:
	@DEBUG_VALUE: HAL_QSPI_SetFifoThreshold:hqspi <- $r0
	@DEBUG_VALUE: HAL_QSPI_SetFifoThreshold:hqspi <- $r0
	@DEBUG_VALUE: HAL_QSPI_SetFifoThreshold:Threshold <- $r1
	@DEBUG_VALUE: HAL_QSPI_SetFifoThreshold:Threshold <- $r1
	@DEBUG_VALUE: HAL_QSPI_SetFifoThreshold:status <- 0
	.loc	7 1998 3 prologue_end   @ ../Drivers/STM32F7xx_HAL_Driver/Src/stm32f7xx_hal_qspi.c:1998:3
	ldrb.w	r2, [r0, #64]
.Ltmp515:
	.loc	7 1998 3 is_stmt 0      @ ../Drivers/STM32F7xx_HAL_Driver/Src/stm32f7xx_hal_qspi.c:1998:3
	cmp	r2, #1
	bne	.LBB39_2
.Ltmp516:
@ %bb.1:
	@DEBUG_VALUE: HAL_QSPI_SetFifoThreshold:Threshold <- $r1
	@DEBUG_VALUE: HAL_QSPI_SetFifoThreshold:hqspi <- $r0
	.loc	7 0 3                   @ ../Drivers/STM32F7xx_HAL_Driver/Src/stm32f7xx_hal_qspi.c:0:3
	movs	r1, #2
.Ltmp517:
	b	.LBB39_6
.LBB39_2:
.Ltmp518:
	@DEBUG_VALUE: HAL_QSPI_SetFifoThreshold:Threshold <- $r1
	@DEBUG_VALUE: HAL_QSPI_SetFifoThreshold:hqspi <- $r0
	movs	r2, #1
.Ltmp519:
	.loc	7 1998 3                @ ../Drivers/STM32F7xx_HAL_Driver/Src/stm32f7xx_hal_qspi.c:1998:3
	strb.w	r2, [r0, #64]
.Ltmp520:
	.loc	7 2000 13 is_stmt 1     @ ../Drivers/STM32F7xx_HAL_Driver/Src/stm32f7xx_hal_qspi.c:2000:13
	ldrb.w	r2, [r0, #65]
.Ltmp521:
	.loc	7 2000 6 is_stmt 0      @ ../Drivers/STM32F7xx_HAL_Driver/Src/stm32f7xx_hal_qspi.c:2000:6
	cmp	r2, #1
	bne	.LBB39_4
.Ltmp522:
@ %bb.3:
	@DEBUG_VALUE: HAL_QSPI_SetFifoThreshold:Threshold <- $r1
	@DEBUG_VALUE: HAL_QSPI_SetFifoThreshold:hqspi <- $r0
	.loc	7 2003 31 is_stmt 1     @ ../Drivers/STM32F7xx_HAL_Driver/Src/stm32f7xx_hal_qspi.c:2003:31
	str	r1, [r0, #8]
	.loc	7 2006 5                @ ../Drivers/STM32F7xx_HAL_Driver/Src/stm32f7xx_hal_qspi.c:2006:5
	mvn	r2, #255
	add.w	r1, r2, r1, lsl #8
.Ltmp523:
	ldr	r2, [r0]
	ldr	r3, [r2]
	bic	r3, r3, #7936
	orrs	r1, r3
	str	r1, [r2]
	movs	r1, #0
	b	.LBB39_5
.Ltmp524:
.LBB39_4:
	@DEBUG_VALUE: HAL_QSPI_SetFifoThreshold:Threshold <- $r1
	@DEBUG_VALUE: HAL_QSPI_SetFifoThreshold:hqspi <- $r0
	.loc	7 0 5 is_stmt 0         @ ../Drivers/STM32F7xx_HAL_Driver/Src/stm32f7xx_hal_qspi.c:0:5
	movs	r1, #2
.Ltmp525:
.LBB39_5:
	@DEBUG_VALUE: HAL_QSPI_SetFifoThreshold:hqspi <- $r0
	.loc	7 2015 3 is_stmt 1      @ ../Drivers/STM32F7xx_HAL_Driver/Src/stm32f7xx_hal_qspi.c:2015:3
	movs	r2, #0
	strb.w	r2, [r0, #64]
.Ltmp526:
.LBB39_6:
	@DEBUG_VALUE: HAL_QSPI_SetFifoThreshold:hqspi <- $r0
	.loc	7 2019 1                @ ../Drivers/STM32F7xx_HAL_Driver/Src/stm32f7xx_hal_qspi.c:2019:1
	uxtb	r0, r1
	bx	lr
.Ltmp527:
.Lfunc_end39:
	.size	HAL_QSPI_SetFifoThreshold, .Lfunc_end39-HAL_QSPI_SetFifoThreshold
	.cfi_endproc
	.cantunwind
	.fnend
                                        @ -- End function
	.section	.text.HAL_QSPI_GetFifoThreshold,"ax",%progbits
	.hidden	HAL_QSPI_GetFifoThreshold @ -- Begin function HAL_QSPI_GetFifoThreshold
	.globl	HAL_QSPI_GetFifoThreshold
	.p2align	1
	.type	HAL_QSPI_GetFifoThreshold,%function
	.code	16                      @ @HAL_QSPI_GetFifoThreshold
	.thumb_func
HAL_QSPI_GetFifoThreshold:
.Lfunc_begin40:
	.loc	7 2026 0                @ ../Drivers/STM32F7xx_HAL_Driver/Src/stm32f7xx_hal_qspi.c:2026:0
	.fnstart
	.cfi_startproc
@ %bb.0:
	@DEBUG_VALUE: HAL_QSPI_GetFifoThreshold:hqspi <- $r0
	@DEBUG_VALUE: HAL_QSPI_GetFifoThreshold:hqspi <- $r0
	.loc	7 2027 12 prologue_end  @ ../Drivers/STM32F7xx_HAL_Driver/Src/stm32f7xx_hal_qspi.c:2027:12
	ldr	r0, [r0]
.Ltmp528:
	ldr	r0, [r0]
	.loc	7 2027 61 is_stmt 0     @ ../Drivers/STM32F7xx_HAL_Driver/Src/stm32f7xx_hal_qspi.c:2027:61
	ubfx	r0, r0, #8, #5
	.loc	7 2027 87               @ ../Drivers/STM32F7xx_HAL_Driver/Src/stm32f7xx_hal_qspi.c:2027:87
	adds	r0, #1
	.loc	7 2027 3                @ ../Drivers/STM32F7xx_HAL_Driver/Src/stm32f7xx_hal_qspi.c:2027:3
	bx	lr
.Ltmp529:
.Lfunc_end40:
	.size	HAL_QSPI_GetFifoThreshold, .Lfunc_end40-HAL_QSPI_GetFifoThreshold
	.cfi_endproc
	.cantunwind
	.fnend
                                        @ -- End function
	.section	".note.GNU-stack","",%progbits
	.eabi_attribute	30, 4	@ Tag_ABI_optimization_goals
	.ARM_attribute	16, 1	@ Tag_AV_eba