	.text
	.syntax unified
	.eabi_attribute	67, "2.09"	@ Tag_conformance
	.cpu	cortex-m7
	.eabi_attribute	6, 13	@ Tag_CPU_arch
	.eabi_attribute	7, 77	@ Tag_CPU_arch_profile
	.eabi_attribute	8, 0	@ Tag_ARM_ISA_use
	.eabi_attribute	9, 2	@ Tag_THUMB_ISA_use
	.fpu	fpv5-sp-d16
	.eabi_attribute	27, 1	@ Tag_ABI_HardFP_use
	.eabi_attribute	36, 1	@ Tag_FP_HP_extension
	.eabi_attribute	34, 1	@ Tag_CPU_unaligned_access
	.eabi_attribute	17, 1	@ Tag_ABI_PCS_GOT_use
	.eabi_attribute	20, 2	@ Tag_ABI_FP_denormal
	.eabi_attribute	21, 0	@ Tag_ABI_FP_exceptions
	.eabi_attribute	23, 1	@ Tag_ABI_FP_number_model
	.eabi_attribute	24, 1	@ Tag_ABI_align_needed
	.eabi_attribute	25, 1	@ Tag_ABI_align_preserved
	.eabi_attribute	28, 1	@ Tag_ABI_VFP_args
	.eabi_attribute	38, 1	@ Tag_ABI_FP_16bit_format
	.eabi_attribute	18, 2	@ Tag_ABI_PCS_wchar_t
	.eabi_attribute	26, 1	@ Tag_ABI_enum_size
	.eabi_attribute	14, 0	@ Tag_ABI_PCS_R9_use
	.file	"stm32f7xx_hal_ltdc.c"
	.file	1 "../Drivers/STM32F7xx_HAL_Driver/Inc" "stm32f7xx_hal_def.h"
	.file	2 "../Drivers/STM32F7xx_HAL_Driver/Inc" "stm32f7xx_hal_ltdc.h"
	.file	3 "../Drivers/CMSIS/Device/ST/STM32F7xx/Include" "stm32f7xx.h"
	.file	4 "C:\\Keil\\ARM\\ARMCLANG\\Bin\\..\\include" "stdint.h"
	.file	5 "../Drivers/CMSIS/Device/ST/STM32F7xx/Include" "stm32f746xx.h"
	.section	.text.HAL_LTDC_Init,"ax",%progbits
	.hidden	HAL_LTDC_Init           @ -- Begin function HAL_LTDC_Init
	.globl	HAL_LTDC_Init
	.p2align	2
	.type	HAL_LTDC_Init,%function
	.code	16                      @ @HAL_LTDC_Init
	.thumb_func
HAL_LTDC_Init:
.Lfunc_begin0:
	.file	6 "../Drivers/STM32F7xx_HAL_Driver/Src" "stm32f7xx_hal_ltdc.c"
	.loc	6 160 0                 @ ../Drivers/STM32F7xx_HAL_Driver/Src/stm32f7xx_hal_ltdc.c:160:0
	.fnstart
	.cfi_sections .debug_frame
	.cfi_startproc
@ %bb.0:
	.save	{r4, r5, r7, lr}
	push	{r4, r5, r7, lr}
	.cfi_def_cfa_offset 16
	.cfi_offset lr, -4
	.cfi_offset r7, -8
	.cfi_offset r5, -12
	.cfi_offset r4, -16
	@DEBUG_VALUE: HAL_LTDC_Init:hltdc <- $r0
	mov	r4, r0
.Ltmp0:
	@DEBUG_VALUE: HAL_LTDC_Init:tmp1 <- 0
	@DEBUG_VALUE: HAL_LTDC_Init:tmp <- 0
	@DEBUG_VALUE: HAL_LTDC_Init:hltdc <- $r4
	.loc	6 164 6 prologue_end    @ ../Drivers/STM32F7xx_HAL_Driver/Src/stm32f7xx_hal_ltdc.c:164:6
	cmp	r0, #0
	beq	.LBB0_4
.Ltmp1:
@ %bb.1:
	@DEBUG_VALUE: HAL_LTDC_Init:hltdc <- $r4
	.loc	6 184 13                @ ../Drivers/STM32F7xx_HAL_Driver/Src/stm32f7xx_hal_ltdc.c:184:13
	ldrb.w	r0, [r4, #161]
.Ltmp2:
	.loc	6 184 6 is_stmt 0       @ ../Drivers/STM32F7xx_HAL_Driver/Src/stm32f7xx_hal_ltdc.c:184:6
	cbnz	r0, .LBB0_3
.Ltmp3:
@ %bb.2:
	@DEBUG_VALUE: HAL_LTDC_Init:hltdc <- $r4
	.loc	6 187 17 is_stmt 1      @ ../Drivers/STM32F7xx_HAL_Driver/Src/stm32f7xx_hal_ltdc.c:187:17
	movs	r0, #0
	strb.w	r0, [r4, #160]
	.loc	6 189 5                 @ ../Drivers/STM32F7xx_HAL_Driver/Src/stm32f7xx_hal_ltdc.c:189:5
	mov	r0, r4
	bl	HAL_LTDC_MspInit
.Ltmp4:
.LBB0_3:
	@DEBUG_VALUE: HAL_LTDC_Init:hltdc <- $r4
	.loc	6 0 5 is_stmt 0         @ ../Drivers/STM32F7xx_HAL_Driver/Src/stm32f7xx_hal_ltdc.c:0:5
	movs	r0, #2
	ldr	r5, __arm_cp.0_0
	.loc	6 193 16 is_stmt 1      @ ../Drivers/STM32F7xx_HAL_Driver/Src/stm32f7xx_hal_ltdc.c:193:16
	strb.w	r0, [r4, #161]
	.loc	6 196 10                @ ../Drivers/STM32F7xx_HAL_Driver/Src/stm32f7xx_hal_ltdc.c:196:10
	ldr	r0, [r4]
	.loc	6 196 24 is_stmt 0      @ ../Drivers/STM32F7xx_HAL_Driver/Src/stm32f7xx_hal_ltdc.c:196:24
	ldr	r1, [r0, #24]
	bic	r1, r1, #-268435456
	str	r1, [r0, #24]
	.loc	6 197 51 is_stmt 1      @ ../Drivers/STM32F7xx_HAL_Driver/Src/stm32f7xx_hal_ltdc.c:197:51
	ldrd	r12, r2, [r4, #4]
	.loc	6 198 15                @ ../Drivers/STM32F7xx_HAL_Driver/Src/stm32f7xx_hal_ltdc.c:198:15
	ldrd	r3, r1, [r4, #12]
	.loc	6 197 62                @ ../Drivers/STM32F7xx_HAL_Driver/Src/stm32f7xx_hal_ltdc.c:197:62
	orr.w	r2, r2, r12
	.loc	6 197 87 is_stmt 0      @ ../Drivers/STM32F7xx_HAL_Driver/Src/stm32f7xx_hal_ltdc.c:197:87
	orrs	r2, r3
	.loc	6 198 26 is_stmt 1      @ ../Drivers/STM32F7xx_HAL_Driver/Src/stm32f7xx_hal_ltdc.c:198:26
	orrs	r1, r2
	.loc	6 197 24                @ ../Drivers/STM32F7xx_HAL_Driver/Src/stm32f7xx_hal_ltdc.c:197:24
	ldr	r2, [r0, #24]
	orrs	r1, r2
	str	r1, [r0, #24]
	.loc	6 201 25                @ ../Drivers/STM32F7xx_HAL_Driver/Src/stm32f7xx_hal_ltdc.c:201:25
	ldr	r2, [r0, #8]
	ands	r2, r5
	str	r2, [r0, #8]
	.loc	6 202 22                @ ../Drivers/STM32F7xx_HAL_Driver/Src/stm32f7xx_hal_ltdc.c:202:22
	ldrd	r2, r3, [r4, #20]
	.loc	6 203 25                @ ../Drivers/STM32F7xx_HAL_Driver/Src/stm32f7xx_hal_ltdc.c:203:25
	ldr	r1, [r0, #8]
	.loc	6 203 33 is_stmt 0      @ ../Drivers/STM32F7xx_HAL_Driver/Src/stm32f7xx_hal_ltdc.c:203:33
	orr.w	r2, r3, r2, lsl #16
	.loc	6 203 25                @ ../Drivers/STM32F7xx_HAL_Driver/Src/stm32f7xx_hal_ltdc.c:203:25
	orrs	r1, r2
	str	r1, [r0, #8]
	.loc	6 206 25 is_stmt 1      @ ../Drivers/STM32F7xx_HAL_Driver/Src/stm32f7xx_hal_ltdc.c:206:25
	ldr	r1, [r0, #12]
	ands	r1, r5
	str	r1, [r0, #12]
	.loc	6 207 22                @ ../Drivers/STM32F7xx_HAL_Driver/Src/stm32f7xx_hal_ltdc.c:207:22
	ldrd	r1, r2, [r4, #28]
	.loc	6 208 25                @ ../Drivers/STM32F7xx_HAL_Driver/Src/stm32f7xx_hal_ltdc.c:208:25
	ldr	r3, [r0, #12]
	.loc	6 208 33 is_stmt 0      @ ../Drivers/STM32F7xx_HAL_Driver/Src/stm32f7xx_hal_ltdc.c:208:33
	orr.w	r1, r2, r1, lsl #16
	.loc	6 208 25                @ ../Drivers/STM32F7xx_HAL_Driver/Src/stm32f7xx_hal_ltdc.c:208:25
	orrs	r1, r3
	str	r1, [r0, #12]
	.loc	6 211 25 is_stmt 1      @ ../Drivers/STM32F7xx_HAL_Driver/Src/stm32f7xx_hal_ltdc.c:211:25
	ldr	r1, [r0, #16]
	ands	r1, r5
	str	r1, [r0, #16]
	.loc	6 212 22                @ ../Drivers/STM32F7xx_HAL_Driver/Src/stm32f7xx_hal_ltdc.c:212:22
	ldrd	r1, r2, [r4, #36]
	.loc	6 213 25                @ ../Drivers/STM32F7xx_HAL_Driver/Src/stm32f7xx_hal_ltdc.c:213:25
	ldr	r3, [r0, #16]
	.loc	6 213 33 is_stmt 0      @ ../Drivers/STM32F7xx_HAL_Driver/Src/stm32f7xx_hal_ltdc.c:213:33
	orr.w	r1, r2, r1, lsl #16
	.loc	6 213 25                @ ../Drivers/STM32F7xx_HAL_Driver/Src/stm32f7xx_hal_ltdc.c:213:25
	orrs	r1, r3
	str	r1, [r0, #16]
	.loc	6 216 25 is_stmt 1      @ ../Drivers/STM32F7xx_HAL_Driver/Src/stm32f7xx_hal_ltdc.c:216:25
	ldr	r1, [r0, #20]
	ands	r1, r5
	str	r1, [r0, #20]
	.loc	6 217 22                @ ../Drivers/STM32F7xx_HAL_Driver/Src/stm32f7xx_hal_ltdc.c:217:22
	ldrd	r1, r2, [r4, #44]
	.loc	6 218 25                @ ../Drivers/STM32F7xx_HAL_Driver/Src/stm32f7xx_hal_ltdc.c:218:25
	ldr	r3, [r0, #20]
	.loc	6 218 33 is_stmt 0      @ ../Drivers/STM32F7xx_HAL_Driver/Src/stm32f7xx_hal_ltdc.c:218:33
	orr.w	r1, r2, r1, lsl #16
	.loc	6 218 25                @ ../Drivers/STM32F7xx_HAL_Driver/Src/stm32f7xx_hal_ltdc.c:218:25
	orrs	r1, r3
	str	r1, [r0, #20]
	.loc	6 222 11 is_stmt 1      @ ../Drivers/STM32F7xx_HAL_Driver/Src/stm32f7xx_hal_ltdc.c:222:11
	ldrb.w	r2, [r4, #54]
	.loc	6 221 10                @ ../Drivers/STM32F7xx_HAL_Driver/Src/stm32f7xx_hal_ltdc.c:221:10
	ldrb.w	r1, [r4, #53]
	.loc	6 223 25                @ ../Drivers/STM32F7xx_HAL_Driver/Src/stm32f7xx_hal_ltdc.c:223:25
	ldr	r3, [r0, #44]
	and	r3, r3, #-16777216
	.loc	6 222 49                @ ../Drivers/STM32F7xx_HAL_Driver/Src/stm32f7xx_hal_ltdc.c:222:49
	lsls	r2, r2, #16
.Ltmp5:
	@DEBUG_VALUE: HAL_LTDC_Init:tmp1 <- $r2
	.loc	6 223 25                @ ../Drivers/STM32F7xx_HAL_Driver/Src/stm32f7xx_hal_ltdc.c:223:25
	str	r3, [r0, #44]
	.loc	6 224 34                @ ../Drivers/STM32F7xx_HAL_Driver/Src/stm32f7xx_hal_ltdc.c:224:34
	orr.w	r1, r2, r1, lsl #8
	.loc	6 224 42 is_stmt 0      @ ../Drivers/STM32F7xx_HAL_Driver/Src/stm32f7xx_hal_ltdc.c:224:42
	ldrb.w	r2, [r4, #52]
.Ltmp6:
	.loc	6 224 40                @ ../Drivers/STM32F7xx_HAL_Driver/Src/stm32f7xx_hal_ltdc.c:224:40
	orrs	r1, r2
	.loc	6 224 25                @ ../Drivers/STM32F7xx_HAL_Driver/Src/stm32f7xx_hal_ltdc.c:224:25
	ldr	r2, [r0, #44]
	orrs	r1, r2
	str	r1, [r0, #44]
	.loc	6 227 3 is_stmt 1       @ ../Drivers/STM32F7xx_HAL_Driver/Src/stm32f7xx_hal_ltdc.c:227:3
	ldr	r1, [r0, #52]
	orr	r1, r1, #4
	str	r1, [r0, #52]
	.loc	6 230 3                 @ ../Drivers/STM32F7xx_HAL_Driver/Src/stm32f7xx_hal_ltdc.c:230:3
	ldr	r1, [r0, #52]
	orr	r1, r1, #2
	str	r1, [r0, #52]
	.loc	6 233 3                 @ ../Drivers/STM32F7xx_HAL_Driver/Src/stm32f7xx_hal_ltdc.c:233:3
	ldr	r1, [r0, #24]
	orr	r1, r1, #1
	str	r1, [r0, #24]
	movs	r0, #0
	movs	r1, #1
	.loc	6 236 20                @ ../Drivers/STM32F7xx_HAL_Driver/Src/stm32f7xx_hal_ltdc.c:236:20
	str.w	r0, [r4, #164]
	.loc	6 239 16                @ ../Drivers/STM32F7xx_HAL_Driver/Src/stm32f7xx_hal_ltdc.c:239:16
	strb.w	r1, [r4, #161]
	.loc	6 242 1                 @ ../Drivers/STM32F7xx_HAL_Driver/Src/stm32f7xx_hal_ltdc.c:242:1
	pop	{r4, r5, r7, pc}
.Ltmp7:
.LBB0_4:
	@DEBUG_VALUE: HAL_LTDC_Init:hltdc <- $r4
	.loc	6 0 1 is_stmt 0         @ ../Drivers/STM32F7xx_HAL_Driver/Src/stm32f7xx_hal_ltdc.c:0:1
	movs	r0, #1
	.loc	6 242 1                 @ ../Drivers/STM32F7xx_HAL_Driver/Src/stm32f7xx_hal_ltdc.c:242:1
	pop	{r4, r5, r7, pc}
.Ltmp8:
	.p2align	2
@ %bb.5:
	.loc	6 0 1                   @ ../Drivers/STM32F7xx_HAL_Driver/Src/stm32f7xx_hal_ltdc.c:0:1
__arm_cp.0_0:
	.long	4026595328              @ 0xf000f800
.Lcpi_end0:
	.size	__arm_cp.0_0, .Lcpi_end0-__arm_cp.0_0
.Lfunc_end0:
	.size	HAL_LTDC_Init, .Lfunc_end0-HAL_LTDC_Init
	.cfi_endproc
	.cantunwind
	.fnend
                                        @ -- End function
	.section	.text.HAL_LTDC_MspInit,"ax",%progbits
	.hidden	HAL_LTDC_MspInit        @ -- Begin function HAL_LTDC_MspInit
	.weak	HAL_LTDC_MspInit
	.p2align	1
	.type	HAL_LTDC_MspInit,%function
	.code	16                      @ @HAL_LTDC_MspInit
	.thumb_func
HAL_LTDC_MspInit:
.Lfunc_begin1:
	.loc	6 276 0 is_stmt 1       @ ../Drivers/STM32F7xx_HAL_Driver/Src/stm32f7xx_hal_ltdc.c:276:0
	.fnstart
	.cfi_startproc
@ %bb.0:
	@DEBUG_VALUE: HAL_LTDC_MspInit:hltdc <- $r0
	.loc	6 283 1 prologue_end    @ ../Drivers/STM32F7xx_HAL_Driver/Src/stm32f7xx_hal_ltdc.c:283:1
	bx	lr
.Ltmp9:
.Lfunc_end1:
	.size	HAL_LTDC_MspInit, .Lfunc_end1-HAL_LTDC_MspInit
	.cfi_endproc
	.cantunwind
	.fnend
                                        @ -- End function
	.section	.text.HAL_LTDC_DeInit,"ax",%progbits
	.hidden	HAL_LTDC_DeInit         @ -- Begin function HAL_LTDC_DeInit
	.globl	HAL_LTDC_DeInit
	.p2align	1
	.type	HAL_LTDC_DeInit,%function
	.code	16                      @ @HAL_LTDC_DeInit
	.thumb_func
HAL_LTDC_DeInit:
.Lfunc_begin2:
	.loc	6 253 0                 @ ../Drivers/STM32F7xx_HAL_Driver/Src/stm32f7xx_hal_ltdc.c:253:0
	.fnstart
	.cfi_startproc
@ %bb.0:
	.save	{r4, lr}
	push	{r4, lr}
	.cfi_def_cfa_offset 8
	.cfi_offset lr, -4
	.cfi_offset r4, -8
	@DEBUG_VALUE: HAL_LTDC_DeInit:hltdc <- $r0
	mov	r4, r0
.Ltmp10:
	@DEBUG_VALUE: HAL_LTDC_DeInit:hltdc <- $r4
	.loc	6 255 3 prologue_end    @ ../Drivers/STM32F7xx_HAL_Driver/Src/stm32f7xx_hal_ltdc.c:255:3
	bl	HAL_LTDC_MspDeInit
	movs	r0, #0
	.loc	6 258 20                @ ../Drivers/STM32F7xx_HAL_Driver/Src/stm32f7xx_hal_ltdc.c:258:20
	str.w	r0, [r4, #164]
.Ltmp11:
	.loc	6 264 3                 @ ../Drivers/STM32F7xx_HAL_Driver/Src/stm32f7xx_hal_ltdc.c:264:3
	strb.w	r0, [r4, #160]
.Ltmp12:
	.loc	6 261 16                @ ../Drivers/STM32F7xx_HAL_Driver/Src/stm32f7xx_hal_ltdc.c:261:16
	strb.w	r0, [r4, #161]
	.loc	6 266 3                 @ ../Drivers/STM32F7xx_HAL_Driver/Src/stm32f7xx_hal_ltdc.c:266:3
	movs	r0, #0
	pop	{r4, pc}
.Ltmp13:
.Lfunc_end2:
	.size	HAL_LTDC_DeInit, .Lfunc_end2-HAL_LTDC_DeInit
	.cfi_endproc
	.cantunwind
	.fnend
                                        @ -- End function
	.section	.text.HAL_LTDC_MspDeInit,"ax",%progbits
	.hidden	HAL_LTDC_MspDeInit      @ -- Begin function HAL_LTDC_MspDeInit
	.weak	HAL_LTDC_MspDeInit
	.p2align	1
	.type	HAL_LTDC_MspDeInit,%function
	.code	16                      @ @HAL_LTDC_MspDeInit
	.thumb_func
HAL_LTDC_MspDeInit:
.Lfunc_begin3:
	.loc	6 292 0                 @ ../Drivers/STM32F7xx_HAL_Driver/Src/stm32f7xx_hal_ltdc.c:292:0
	.fnstart
	.cfi_startproc
@ %bb.0:
	@DEBUG_VALUE: HAL_LTDC_MspDeInit:hltdc <- $r0
	.loc	6 299 1 prologue_end    @ ../Drivers/STM32F7xx_HAL_Driver/Src/stm32f7xx_hal_ltdc.c:299:1
	bx	lr
.Ltmp14:
.Lfunc_end3:
	.size	HAL_LTDC_MspDeInit, .Lfunc_end3-HAL_LTDC_MspDeInit
	.cfi_endproc
	.cantunwind
	.fnend
                                        @ -- End function
	.section	.text.HAL_LTDC_IRQHandler,"ax",%progbits
	.hidden	HAL_LTDC_IRQHandler     @ -- Begin function HAL_LTDC_IRQHandler
	.globl	HAL_LTDC_IRQHandler
	.p2align	1
	.type	HAL_LTDC_IRQHandler,%function
	.code	16                      @ @HAL_LTDC_IRQHandler
	.thumb_func
HAL_LTDC_IRQHandler:
.Lfunc_begin4:
	.loc	6 325 0                 @ ../Drivers/STM32F7xx_HAL_Driver/Src/stm32f7xx_hal_ltdc.c:325:0
	.fnstart
	.cfi_startproc
@ %bb.0:
	.save	{r4, lr}
	push	{r4, lr}
	.cfi_def_cfa_offset 8
	.cfi_offset lr, -4
	.cfi_offset r4, -8
	@DEBUG_VALUE: HAL_LTDC_IRQHandler:hltdc <- $r0
	mov	r4, r0
.Ltmp15:
	@DEBUG_VALUE: HAL_LTDC_IRQHandler:hltdc <- $r4
	.loc	6 327 6 prologue_end    @ ../Drivers/STM32F7xx_HAL_Driver/Src/stm32f7xx_hal_ltdc.c:327:6
	ldr	r0, [r0]
	ldr	r1, [r0, #56]
.Ltmp16:
	.loc	6 327 6 is_stmt 0       @ ../Drivers/STM32F7xx_HAL_Driver/Src/stm32f7xx_hal_ltdc.c:327:6
	tst.w	r1, #4
.Ltmp17:
	.loc	6 329 8 is_stmt 1       @ ../Drivers/STM32F7xx_HAL_Driver/Src/stm32f7xx_hal_ltdc.c:329:8
	itt	ne
	ldrne	r1, [r0, #56]
.Ltmp18:
	.loc	6 329 8 is_stmt 0       @ ../Drivers/STM32F7xx_HAL_Driver/Src/stm32f7xx_hal_ltdc.c:329:8
	tstne.w	r1, #4
	bne	.LBB4_4
.Ltmp19:
.LBB4_1:
	@DEBUG_VALUE: HAL_LTDC_IRQHandler:hltdc <- $r4
	.loc	6 351 6 is_stmt 1       @ ../Drivers/STM32F7xx_HAL_Driver/Src/stm32f7xx_hal_ltdc.c:351:6
	ldr	r1, [r0, #56]
.Ltmp20:
	.loc	6 351 6 is_stmt 0       @ ../Drivers/STM32F7xx_HAL_Driver/Src/stm32f7xx_hal_ltdc.c:351:6
	tst.w	r1, #2
.Ltmp21:
	.loc	6 353 8 is_stmt 1       @ ../Drivers/STM32F7xx_HAL_Driver/Src/stm32f7xx_hal_ltdc.c:353:8
	itt	ne
	ldrne	r1, [r0, #56]
.Ltmp22:
	.loc	6 353 8 is_stmt 0       @ ../Drivers/STM32F7xx_HAL_Driver/Src/stm32f7xx_hal_ltdc.c:353:8
	tstne.w	r1, #2
	bne	.LBB4_5
.Ltmp23:
.LBB4_2:
	@DEBUG_VALUE: HAL_LTDC_IRQHandler:hltdc <- $r4
	.loc	6 375 6 is_stmt 1       @ ../Drivers/STM32F7xx_HAL_Driver/Src/stm32f7xx_hal_ltdc.c:375:6
	ldr	r1, [r0, #56]
.Ltmp24:
	.loc	6 375 6 is_stmt 0       @ ../Drivers/STM32F7xx_HAL_Driver/Src/stm32f7xx_hal_ltdc.c:375:6
	tst.w	r1, #1
.Ltmp25:
	.loc	6 377 8 is_stmt 1       @ ../Drivers/STM32F7xx_HAL_Driver/Src/stm32f7xx_hal_ltdc.c:377:8
	itt	ne
	ldrne	r1, [r0, #56]
.Ltmp26:
	.loc	6 377 8 is_stmt 0       @ ../Drivers/STM32F7xx_HAL_Driver/Src/stm32f7xx_hal_ltdc.c:377:8
	tstne.w	r1, #1
	bne	.LBB4_6
.Ltmp27:
.LBB4_3:
	@DEBUG_VALUE: HAL_LTDC_IRQHandler:hltdc <- $r4
	.loc	6 396 6 is_stmt 1       @ ../Drivers/STM32F7xx_HAL_Driver/Src/stm32f7xx_hal_ltdc.c:396:6
	ldr	r1, [r0, #56]
.Ltmp28:
	.loc	6 396 6 is_stmt 0       @ ../Drivers/STM32F7xx_HAL_Driver/Src/stm32f7xx_hal_ltdc.c:396:6
	tst.w	r1, #8
.Ltmp29:
	.loc	6 398 8 is_stmt 1       @ ../Drivers/STM32F7xx_HAL_Driver/Src/stm32f7xx_hal_ltdc.c:398:8
	itte	ne
	ldrne	r1, [r0, #56]
.Ltmp30:
	.loc	6 398 8 is_stmt 0       @ ../Drivers/STM32F7xx_HAL_Driver/Src/stm32f7xx_hal_ltdc.c:398:8
	tstne.w	r1, #8
.Ltmp31:
	.loc	6 416 1 is_stmt 1       @ ../Drivers/STM32F7xx_HAL_Driver/Src/stm32f7xx_hal_ltdc.c:416:1
	popeq	{r4, pc}
.Ltmp32:
	.loc	6 401 7                 @ ../Drivers/STM32F7xx_HAL_Driver/Src/stm32f7xx_hal_ltdc.c:401:7
	ldr	r1, [r0, #52]
	bic	r1, r1, #8
	str	r1, [r0, #52]
	.loc	6 404 7                 @ ../Drivers/STM32F7xx_HAL_Driver/Src/stm32f7xx_hal_ltdc.c:404:7
	movs	r1, #8
	str	r1, [r0, #60]
.Ltmp33:
	.loc	6 410 7                 @ ../Drivers/STM32F7xx_HAL_Driver/Src/stm32f7xx_hal_ltdc.c:410:7
	movs	r0, #0
	strb.w	r0, [r4, #160]
.Ltmp34:
	.loc	6 407 20                @ ../Drivers/STM32F7xx_HAL_Driver/Src/stm32f7xx_hal_ltdc.c:407:20
	movs	r0, #1
	strb.w	r0, [r4, #161]
	.loc	6 413 7                 @ ../Drivers/STM32F7xx_HAL_Driver/Src/stm32f7xx_hal_ltdc.c:413:7
	mov	r0, r4
	pop.w	{r4, lr}
	b	HAL_LTDC_ReloadEventCallback
.Ltmp35:
.LBB4_4:
	@DEBUG_VALUE: HAL_LTDC_IRQHandler:hltdc <- $r4
	.loc	6 332 7                 @ ../Drivers/STM32F7xx_HAL_Driver/Src/stm32f7xx_hal_ltdc.c:332:7
	ldr	r1, [r0, #52]
	bic	r1, r1, #4
	str	r1, [r0, #52]
	movs	r1, #4
	.loc	6 335 7                 @ ../Drivers/STM32F7xx_HAL_Driver/Src/stm32f7xx_hal_ltdc.c:335:7
	str	r1, [r0, #60]
	.loc	6 338 24                @ ../Drivers/STM32F7xx_HAL_Driver/Src/stm32f7xx_hal_ltdc.c:338:24
	ldr.w	r0, [r4, #164]
	orr	r0, r0, #1
	str.w	r0, [r4, #164]
.Ltmp36:
	.loc	6 344 7                 @ ../Drivers/STM32F7xx_HAL_Driver/Src/stm32f7xx_hal_ltdc.c:344:7
	movs	r0, #0
	strb.w	r0, [r4, #160]
.Ltmp37:
	.loc	6 347 7                 @ ../Drivers/STM32F7xx_HAL_Driver/Src/stm32f7xx_hal_ltdc.c:347:7
	mov	r0, r4
	.loc	6 341 20                @ ../Drivers/STM32F7xx_HAL_Driver/Src/stm32f7xx_hal_ltdc.c:341:20
	strb.w	r1, [r4, #161]
	.loc	6 347 7                 @ ../Drivers/STM32F7xx_HAL_Driver/Src/stm32f7xx_hal_ltdc.c:347:7
	bl	HAL_LTDC_ErrorCallback
.Ltmp38:
	.loc	6 351 6                 @ ../Drivers/STM32F7xx_HAL_Driver/Src/stm32f7xx_hal_ltdc.c:351:6
	ldr	r0, [r4]
	b	.LBB4_1
.Ltmp39:
.LBB4_5:
	@DEBUG_VALUE: HAL_LTDC_IRQHandler:hltdc <- $r4
	.loc	6 356 7                 @ ../Drivers/STM32F7xx_HAL_Driver/Src/stm32f7xx_hal_ltdc.c:356:7
	ldr	r1, [r0, #52]
	bic	r1, r1, #2
	str	r1, [r0, #52]
	.loc	6 359 7                 @ ../Drivers/STM32F7xx_HAL_Driver/Src/stm32f7xx_hal_ltdc.c:359:7
	movs	r1, #2
	str	r1, [r0, #60]
	.loc	6 362 24                @ ../Drivers/STM32F7xx_HAL_Driver/Src/stm32f7xx_hal_ltdc.c:362:24
	ldr.w	r0, [r4, #164]
	orr	r0, r0, #2
	str.w	r0, [r4, #164]
.Ltmp40:
	.loc	6 368 7                 @ ../Drivers/STM32F7xx_HAL_Driver/Src/stm32f7xx_hal_ltdc.c:368:7
	movs	r0, #0
	strb.w	r0, [r4, #160]
.Ltmp41:
	.loc	6 365 20                @ ../Drivers/STM32F7xx_HAL_Driver/Src/stm32f7xx_hal_ltdc.c:365:20
	movs	r0, #4
	strb.w	r0, [r4, #161]
	.loc	6 371 7                 @ ../Drivers/STM32F7xx_HAL_Driver/Src/stm32f7xx_hal_ltdc.c:371:7
	mov	r0, r4
	bl	HAL_LTDC_ErrorCallback
.Ltmp42:
	.loc	6 375 6                 @ ../Drivers/STM32F7xx_HAL_Driver/Src/stm32f7xx_hal_ltdc.c:375:6
	ldr	r0, [r4]
	b	.LBB4_2
.Ltmp43:
.LBB4_6:
	@DEBUG_VALUE: HAL_LTDC_IRQHandler:hltdc <- $r4
	.loc	6 380 7                 @ ../Drivers/STM32F7xx_HAL_Driver/Src/stm32f7xx_hal_ltdc.c:380:7
	ldr	r1, [r0, #52]
	bic	r1, r1, #1
	str	r1, [r0, #52]
	movs	r1, #1
	.loc	6 383 7                 @ ../Drivers/STM32F7xx_HAL_Driver/Src/stm32f7xx_hal_ltdc.c:383:7
	str	r1, [r0, #60]
.Ltmp44:
	.loc	6 389 7                 @ ../Drivers/STM32F7xx_HAL_Driver/Src/stm32f7xx_hal_ltdc.c:389:7
	movs	r0, #0
	strb.w	r0, [r4, #160]
.Ltmp45:
	.loc	6 392 7                 @ ../Drivers/STM32F7xx_HAL_Driver/Src/stm32f7xx_hal_ltdc.c:392:7
	mov	r0, r4
	.loc	6 386 20                @ ../Drivers/STM32F7xx_HAL_Driver/Src/stm32f7xx_hal_ltdc.c:386:20
	strb.w	r1, [r4, #161]
	.loc	6 392 7                 @ ../Drivers/STM32F7xx_HAL_Driver/Src/stm32f7xx_hal_ltdc.c:392:7
	bl	HAL_LTDC_LineEventCallback
.Ltmp46:
	.loc	6 396 6                 @ ../Drivers/STM32F7xx_HAL_Driver/Src/stm32f7xx_hal_ltdc.c:396:6
	ldr	r0, [r4]
	b	.LBB4_3
.Ltmp47:
.Lfunc_end4:
	.size	HAL_LTDC_IRQHandler, .Lfunc_end4-HAL_LTDC_IRQHandler
	.cfi_endproc
	.cantunwind
	.fnend
                                        @ -- End function
	.section	.text.HAL_LTDC_ErrorCallback,"ax",%progbits
	.hidden	HAL_LTDC_ErrorCallback  @ -- Begin function HAL_LTDC_ErrorCallback
	.weak	HAL_LTDC_ErrorCallback
	.p2align	1
	.type	HAL_LTDC_ErrorCallback,%function
	.code	16                      @ @HAL_LTDC_ErrorCallback
	.thumb_func
HAL_LTDC_ErrorCallback:
.Lfunc_begin5:
	.loc	6 425 0                 @ ../Drivers/STM32F7xx_HAL_Driver/Src/stm32f7xx_hal_ltdc.c:425:0
	.fnstart
	.cfi_startproc
@ %bb.0:
	@DEBUG_VALUE: HAL_LTDC_ErrorCallback:hltdc <- $r0
	.loc	6 432 1 prologue_end    @ ../Drivers/STM32F7xx_HAL_Driver/Src/stm32f7xx_hal_ltdc.c:432:1
	bx	lr
.Ltmp48:
.Lfunc_end5:
	.size	HAL_LTDC_ErrorCallback, .Lfunc_end5-HAL_LTDC_ErrorCallback
	.cfi_endproc
	.cantunwind
	.fnend
                                        @ -- End function
	.section	.text.HAL_LTDC_LineEventCallback,"ax",%progbits
	.hidden	HAL_LTDC_LineEventCallback @ -- Begin function HAL_LTDC_LineEventCallback
	.weak	HAL_LTDC_LineEventCallback
	.p2align	1
	.type	HAL_LTDC_LineEventCallback,%function
	.code	16                      @ @HAL_LTDC_LineEventCallback
	.thumb_func
HAL_LTDC_LineEventCallback:
.Lfunc_begin6:
	.loc	6 441 0                 @ ../Drivers/STM32F7xx_HAL_Driver/Src/stm32f7xx_hal_ltdc.c:441:0
	.fnstart
	.cfi_startproc
@ %bb.0:
	@DEBUG_VALUE: HAL_LTDC_LineEventCallback:hltdc <- $r0
	.loc	6 448 1 prologue_end    @ ../Drivers/STM32F7xx_HAL_Driver/Src/stm32f7xx_hal_ltdc.c:448:1
	bx	lr
.Ltmp49:
.Lfunc_end6:
	.size	HAL_LTDC_LineEventCallback, .Lfunc_end6-HAL_LTDC_LineEventCallback
	.cfi_endproc
	.cantunwind
	.fnend
                                        @ -- End function
	.section	.text.HAL_LTDC_ReloadEventCallback,"ax",%progbits
	.hidden	HAL_LTDC_ReloadEventCallback @ -- Begin function HAL_LTDC_ReloadEventCallback
	.weak	HAL_LTDC_ReloadEventCallback
	.p2align	1
	.type	HAL_LTDC_ReloadEventCallback,%function
	.code	16                      @ @HAL_LTDC_ReloadEventCallback
	.thumb_func
HAL_LTDC_ReloadEventCallback:
.Lfunc_begin7:
	.loc	6 457 0                 @ ../Drivers/STM32F7xx_HAL_Driver/Src/stm32f7xx_hal_ltdc.c:457:0
	.fnstart
	.cfi_startproc
@ %bb.0:
	@DEBUG_VALUE: HAL_LTDC_ReloadEventCallback:hltdc <- $r0
	.loc	6 464 1 prologue_end    @ ../Drivers/STM32F7xx_HAL_Driver/Src/stm32f7xx_hal_ltdc.c:464:1
	bx	lr
.Ltmp50:
.Lfunc_end7:
	.size	HAL_LTDC_ReloadEventCallback, .Lfunc_end7-HAL_LTDC_ReloadEventCallback
	.cfi_endproc
	.cantunwind
	.fnend
                                        @ -- End function
	.section	.text.HAL_LTDC_ConfigLayer,"ax",%progbits
	.hidden	HAL_LTDC_ConfigLayer    @ -- Begin function HAL_LTDC_ConfigLayer
	.globl	HAL_LTDC_ConfigLayer
	.p2align	1
	.type	HAL_LTDC_ConfigLayer,%function
	.code	16                      @ @HAL_LTDC_ConfigLayer
	.thumb_func
HAL_LTDC_ConfigLayer:
.Lfunc_begin8:
	.loc	6 507 0                 @ ../Drivers/STM32F7xx_HAL_Driver/Src/stm32f7xx_hal_ltdc.c:507:0
	.fnstart
	.cfi_startproc
@ %bb.0:
	.save	{r4, r5, r6, r7, lr}
	.pad	#4
	push	{r3, r4, r5, r6, r7, lr}
	.cfi_def_cfa_offset 24
	.cfi_offset lr, -4
	.cfi_offset r7, -8
	.cfi_offset r6, -12
	.cfi_offset r5, -16
	.cfi_offset r4, -20
	@DEBUG_VALUE: HAL_LTDC_ConfigLayer:hltdc <- $r0
	@DEBUG_VALUE: HAL_LTDC_ConfigLayer:pLayerCfg <- $r1
	@DEBUG_VALUE: HAL_LTDC_ConfigLayer:LayerIdx <- $r2
	mov	r6, r1
.Ltmp51:
	.loc	6 509 3 prologue_end    @ ../Drivers/STM32F7xx_HAL_Driver/Src/stm32f7xx_hal_ltdc.c:509:3
	ldrb.w	r1, [r0, #160]
.Ltmp52:
	.loc	6 0 3 is_stmt 0         @ ../Drivers/STM32F7xx_HAL_Driver/Src/stm32f7xx_hal_ltdc.c:0:3
	mov	r4, r0
.Ltmp53:
	@DEBUG_VALUE: HAL_LTDC_ConfigLayer:LayerIdx <- $r5
	@DEBUG_VALUE: HAL_LTDC_ConfigLayer:pLayerCfg <- $r6
	@DEBUG_VALUE: HAL_LTDC_ConfigLayer:hltdc <- $r4
	mov	r5, r2
.Ltmp54:
	movs	r0, #2
.Ltmp55:
	.loc	6 509 3                 @ ../Drivers/STM32F7xx_HAL_Driver/Src/stm32f7xx_hal_ltdc.c:509:3
	cmp	r1, #1
	beq	.LBB8_2
.Ltmp56:
@ %bb.1:
	@DEBUG_VALUE: HAL_LTDC_ConfigLayer:hltdc <- $r4
	@DEBUG_VALUE: HAL_LTDC_ConfigLayer:pLayerCfg <- $r6
	.loc	6 512 16 is_stmt 1      @ ../Drivers/STM32F7xx_HAL_Driver/Src/stm32f7xx_hal_ltdc.c:512:16
	strb.w	r0, [r4, #161]
	movs	r0, #52
	movs	r7, #1
	.loc	6 528 31                @ ../Drivers/STM32F7xx_HAL_Driver/Src/stm32f7xx_hal_ltdc.c:528:31
	mov	r1, r6
	movs	r2, #52
	.loc	6 528 3 is_stmt 0       @ ../Drivers/STM32F7xx_HAL_Driver/Src/stm32f7xx_hal_ltdc.c:528:3
	mla	r0, r5, r0, r4
.Ltmp57:
	.loc	6 509 3 is_stmt 1       @ ../Drivers/STM32F7xx_HAL_Driver/Src/stm32f7xx_hal_ltdc.c:509:3
	strb.w	r7, [r4, #160]
.Ltmp58:
	.loc	6 528 3                 @ ../Drivers/STM32F7xx_HAL_Driver/Src/stm32f7xx_hal_ltdc.c:528:3
	adds	r0, #56
	.loc	6 528 31 is_stmt 0      @ ../Drivers/STM32F7xx_HAL_Driver/Src/stm32f7xx_hal_ltdc.c:528:31
	bl	__aeabi_memcpy
	.loc	6 531 3 is_stmt 1       @ ../Drivers/STM32F7xx_HAL_Driver/Src/stm32f7xx_hal_ltdc.c:531:3
	mov	r0, r4
	mov	r1, r6
	mov	r2, r5
	bl	LTDC_SetConfig
	.loc	6 534 10                @ ../Drivers/STM32F7xx_HAL_Driver/Src/stm32f7xx_hal_ltdc.c:534:10
	ldr	r0, [r4]
	.loc	6 534 25 is_stmt 0      @ ../Drivers/STM32F7xx_HAL_Driver/Src/stm32f7xx_hal_ltdc.c:534:25
	str	r7, [r0, #36]
	movs	r0, #0
.Ltmp59:
	.loc	6 540 3 is_stmt 1       @ ../Drivers/STM32F7xx_HAL_Driver/Src/stm32f7xx_hal_ltdc.c:540:3
	strb.w	r0, [r4, #160]
.Ltmp60:
	.loc	6 537 17                @ ../Drivers/STM32F7xx_HAL_Driver/Src/stm32f7xx_hal_ltdc.c:537:17
	strb.w	r7, [r4, #161]
.Ltmp61:
.LBB8_2:
	@DEBUG_VALUE: HAL_LTDC_ConfigLayer:hltdc <- $r4
	@DEBUG_VALUE: HAL_LTDC_ConfigLayer:pLayerCfg <- $r6
	.loc	6 543 1                 @ ../Drivers/STM32F7xx_HAL_Driver/Src/stm32f7xx_hal_ltdc.c:543:1
	uxtb	r0, r0
	add	sp, #4
	pop	{r4, r5, r6, r7, pc}
.Ltmp62:
.Lfunc_end8:
	.size	HAL_LTDC_ConfigLayer, .Lfunc_end8-HAL_LTDC_ConfigLayer
	.cfi_endproc
	.cantunwind
	.fnend
                                        @ -- End function
	.section	.text.LTDC_SetConfig,"ax",%progbits
	.p2align	2               @ -- Begin function LTDC_SetConfig
	.type	LTDC_SetConfig,%function
	.code	16                      @ @LTDC_SetConfig
	.thumb_func
LTDC_SetConfig:
.Lfunc_begin9:
	.loc	6 1828 0                @ ../Drivers/STM32F7xx_HAL_Driver/Src/stm32f7xx_hal_ltdc.c:1828:0
	.fnstart
	.cfi_startproc
@ %bb.0:
	.save	{r4, r5, r6, lr}
	push	{r4, r5, r6, lr}
	.cfi_def_cfa_offset 16
	.cfi_offset lr, -4
	.cfi_offset r6, -8
	.cfi_offset r5, -12
	.cfi_offset r4, -16
	@DEBUG_VALUE: LTDC_SetConfig:hltdc <- $r0
	@DEBUG_VALUE: LTDC_SetConfig:hltdc <- $r0
	@DEBUG_VALUE: LTDC_SetConfig:pLayerCfg <- $r1
	@DEBUG_VALUE: LTDC_SetConfig:pLayerCfg <- $r1
	@DEBUG_VALUE: LTDC_SetConfig:LayerIdx <- $r2
	@DEBUG_VALUE: LTDC_SetConfig:LayerIdx <- $r2
.Ltmp63:
	@DEBUG_VALUE: LTDC_SetConfig:tmp <- 0
	@DEBUG_VALUE: LTDC_SetConfig:tmp1 <- 0
	@DEBUG_VALUE: LTDC_SetConfig:tmp2 <- 0
	.loc	6 1834 42 prologue_end  @ ../Drivers/STM32F7xx_HAL_Driver/Src/stm32f7xx_hal_ltdc.c:1834:42
	ldr	r0, [r0]
.Ltmp64:
	.loc	6 1834 22 is_stmt 0     @ ../Drivers/STM32F7xx_HAL_Driver/Src/stm32f7xx_hal_ltdc.c:1834:22
	ldr.w	r12, [r1, #4]
	.loc	6 1835 3 is_stmt 1      @ ../Drivers/STM32F7xx_HAL_Driver/Src/stm32f7xx_hal_ltdc.c:1835:3
	add.w	r3, r0, r2, lsl #7
	.loc	6 1834 52               @ ../Drivers/STM32F7xx_HAL_Driver/Src/stm32f7xx_hal_ltdc.c:1834:52
	ldr.w	lr, [r0, #12]
	.loc	6 1835 38               @ ../Drivers/STM32F7xx_HAL_Driver/Src/stm32f7xx_hal_ltdc.c:1835:38
	ldr.w	r2, [r3, #136]
.Ltmp65:
	and	r2, r2, #61440
	str.w	r2, [r3, #136]
	.loc	6 1834 83               @ ../Drivers/STM32F7xx_HAL_Driver/Src/stm32f7xx_hal_ltdc.c:1834:83
	ldr	r2, __arm_cp.9_0
	and.w	r2, r2, lr
	.loc	6 1836 53               @ ../Drivers/STM32F7xx_HAL_Driver/Src/stm32f7xx_hal_ltdc.c:1836:53
	ldr.w	lr, [r1]
	.loc	6 1836 83 is_stmt 0     @ ../Drivers/STM32F7xx_HAL_Driver/Src/stm32f7xx_hal_ltdc.c:1836:83
	ldr	r4, [r0, #12]
	.loc	6 1834 83 is_stmt 1     @ ../Drivers/STM32F7xx_HAL_Driver/Src/stm32f7xx_hal_ltdc.c:1834:83
	add.w	r2, r2, r12, lsl #16
.Ltmp66:
	@DEBUG_VALUE: LTDC_SetConfig:tmp <- $r2
	.loc	6 1836 106              @ ../Drivers/STM32F7xx_HAL_Driver/Src/stm32f7xx_hal_ltdc.c:1836:106
	ubfx	r4, r4, #16, #12
	.loc	6 1836 62 is_stmt 0     @ ../Drivers/STM32F7xx_HAL_Driver/Src/stm32f7xx_hal_ltdc.c:1836:62
	add	r4, lr
	.loc	6 1836 113              @ ../Drivers/STM32F7xx_HAL_Driver/Src/stm32f7xx_hal_ltdc.c:1836:113
	adds	r4, #1
	.loc	6 1836 118              @ ../Drivers/STM32F7xx_HAL_Driver/Src/stm32f7xx_hal_ltdc.c:1836:118
	orrs	r2, r4
.Ltmp67:
	.loc	6 1836 38               @ ../Drivers/STM32F7xx_HAL_Driver/Src/stm32f7xx_hal_ltdc.c:1836:38
	str.w	r2, [r3, #136]
	.loc	6 1839 22 is_stmt 1     @ ../Drivers/STM32F7xx_HAL_Driver/Src/stm32f7xx_hal_ltdc.c:1839:22
	ldr	r2, [r1, #12]
	.loc	6 1839 51 is_stmt 0     @ ../Drivers/STM32F7xx_HAL_Driver/Src/stm32f7xx_hal_ltdc.c:1839:51
	ldr	r4, [r0, #12]
	.loc	6 1840 38 is_stmt 1     @ ../Drivers/STM32F7xx_HAL_Driver/Src/stm32f7xx_hal_ltdc.c:1840:38
	ldr.w	r5, [r3, #140]
	and	r5, r5, #61440
	.loc	6 1839 56               @ ../Drivers/STM32F7xx_HAL_Driver/Src/stm32f7xx_hal_ltdc.c:1839:56
	bfc	r4, #11, #21
	.loc	6 1840 38               @ ../Drivers/STM32F7xx_HAL_Driver/Src/stm32f7xx_hal_ltdc.c:1840:38
	str.w	r5, [r3, #140]
	.loc	6 1839 31               @ ../Drivers/STM32F7xx_HAL_Driver/Src/stm32f7xx_hal_ltdc.c:1839:31
	add	r2, r4
	.loc	6 1841 54               @ ../Drivers/STM32F7xx_HAL_Driver/Src/stm32f7xx_hal_ltdc.c:1841:54
	ldr	r4, [r1, #8]
	.loc	6 1841 83 is_stmt 0     @ ../Drivers/STM32F7xx_HAL_Driver/Src/stm32f7xx_hal_ltdc.c:1841:83
	ldr	r0, [r0, #12]
	.loc	6 1841 88               @ ../Drivers/STM32F7xx_HAL_Driver/Src/stm32f7xx_hal_ltdc.c:1841:88
	bfc	r0, #11, #21
	.loc	6 1841 63               @ ../Drivers/STM32F7xx_HAL_Driver/Src/stm32f7xx_hal_ltdc.c:1841:63
	add	r0, r4
	.loc	6 1841 106              @ ../Drivers/STM32F7xx_HAL_Driver/Src/stm32f7xx_hal_ltdc.c:1841:106
	adds	r0, #1
	.loc	6 1841 111              @ ../Drivers/STM32F7xx_HAL_Driver/Src/stm32f7xx_hal_ltdc.c:1841:111
	orr.w	r0, r0, r2, lsl #16
	.loc	6 1841 39               @ ../Drivers/STM32F7xx_HAL_Driver/Src/stm32f7xx_hal_ltdc.c:1841:39
	str.w	r0, [r3, #140]
	.loc	6 1844 37 is_stmt 1     @ ../Drivers/STM32F7xx_HAL_Driver/Src/stm32f7xx_hal_ltdc.c:1844:37
	ldr.w	r0, [r3, #148]
	bic	r0, r0, #7
	str.w	r0, [r3, #148]
	.loc	6 1845 51               @ ../Drivers/STM32F7xx_HAL_Driver/Src/stm32f7xx_hal_ltdc.c:1845:51
	ldr	r0, [r1, #16]
	.loc	6 1845 37 is_stmt 0     @ ../Drivers/STM32F7xx_HAL_Driver/Src/stm32f7xx_hal_ltdc.c:1845:37
	str.w	r0, [r3, #148]
	.loc	6 1866 6 is_stmt 1      @ ../Drivers/STM32F7xx_HAL_Driver/Src/stm32f7xx_hal_ltdc.c:1866:6
	cmp	r0, #7
	.loc	6 1849 11               @ ../Drivers/STM32F7xx_HAL_Driver/Src/stm32f7xx_hal_ltdc.c:1849:11
	ldrb.w	r5, [r1, #50]
	.loc	6 1848 10               @ ../Drivers/STM32F7xx_HAL_Driver/Src/stm32f7xx_hal_ltdc.c:1848:10
	ldrb.w	r4, [r1, #49]
	.loc	6 1850 22               @ ../Drivers/STM32F7xx_HAL_Driver/Src/stm32f7xx_hal_ltdc.c:1850:22
	ldr	r2, [r1, #24]
	.loc	6 1851 37               @ ../Drivers/STM32F7xx_HAL_Driver/Src/stm32f7xx_hal_ltdc.c:1851:37
	ldr.w	r6, [r3, #156]
	mov.w	r6, #0
	str.w	r6, [r3, #156]
	.loc	6 1849 48               @ ../Drivers/STM32F7xx_HAL_Driver/Src/stm32f7xx_hal_ltdc.c:1849:48
	lsl.w	r5, r5, #16
.Ltmp68:
	@DEBUG_VALUE: LTDC_SetConfig:tmp1 <- $r5
	.loc	6 1852 66               @ ../Drivers/STM32F7xx_HAL_Driver/Src/stm32f7xx_hal_ltdc.c:1852:66
	orr.w	r4, r5, r4, lsl #8
	.loc	6 1852 72 is_stmt 0     @ ../Drivers/STM32F7xx_HAL_Driver/Src/stm32f7xx_hal_ltdc.c:1852:72
	orr.w	r2, r4, r2, lsl #24
	.loc	6 1852 40               @ ../Drivers/STM32F7xx_HAL_Driver/Src/stm32f7xx_hal_ltdc.c:1852:40
	ldrb.w	r4, [r1, #48]
	.loc	6 1852 79               @ ../Drivers/STM32F7xx_HAL_Driver/Src/stm32f7xx_hal_ltdc.c:1852:79
	orr.w	r2, r2, r4
	.loc	6 1859 37 is_stmt 1     @ ../Drivers/STM32F7xx_HAL_Driver/Src/stm32f7xx_hal_ltdc.c:1859:37
	movw	r4, #1799
	.loc	6 1852 37               @ ../Drivers/STM32F7xx_HAL_Driver/Src/stm32f7xx_hal_ltdc.c:1852:37
	str.w	r2, [r3, #156]
	.loc	6 1855 37               @ ../Drivers/STM32F7xx_HAL_Driver/Src/stm32f7xx_hal_ltdc.c:1855:37
	ldr.w	r2, [r3, #152]
	bic	r2, r2, #255
	str.w	r2, [r3, #152]
	.loc	6 1856 51               @ ../Drivers/STM32F7xx_HAL_Driver/Src/stm32f7xx_hal_ltdc.c:1856:51
	ldr	r2, [r1, #20]
	.loc	6 1856 37 is_stmt 0     @ ../Drivers/STM32F7xx_HAL_Driver/Src/stm32f7xx_hal_ltdc.c:1856:37
	str.w	r2, [r3, #152]
	.loc	6 1859 37 is_stmt 1     @ ../Drivers/STM32F7xx_HAL_Driver/Src/stm32f7xx_hal_ltdc.c:1859:37
	ldr.w	r2, [r3, #160]
	bic.w	r2, r2, r4
	str.w	r2, [r3, #160]
	.loc	6 1860 51               @ ../Drivers/STM32F7xx_HAL_Driver/Src/stm32f7xx_hal_ltdc.c:1860:51
	ldrd	r2, r4, [r1, #28]
	.loc	6 1860 67 is_stmt 0     @ ../Drivers/STM32F7xx_HAL_Driver/Src/stm32f7xx_hal_ltdc.c:1860:67
	orr.w	r2, r2, r4
	.loc	6 1860 37               @ ../Drivers/STM32F7xx_HAL_Driver/Src/stm32f7xx_hal_ltdc.c:1860:37
	str.w	r2, [r3, #160]
	.loc	6 1863 38 is_stmt 1     @ ../Drivers/STM32F7xx_HAL_Driver/Src/stm32f7xx_hal_ltdc.c:1863:38
	ldr.w	r2, [r3, #172]
	str.w	r6, [r3, #172]
	.loc	6 1888 105              @ ../Drivers/STM32F7xx_HAL_Driver/Src/stm32f7xx_hal_ltdc.c:1888:105
	sub.w	r6, r12, lr
	.loc	6 1864 52               @ ../Drivers/STM32F7xx_HAL_Driver/Src/stm32f7xx_hal_ltdc.c:1864:52
	ldr	r2, [r1, #36]
	.loc	6 1864 38 is_stmt 0     @ ../Drivers/STM32F7xx_HAL_Driver/Src/stm32f7xx_hal_ltdc.c:1864:38
	str.w	r2, [r3, #172]
	.loc	6 1835 3 is_stmt 1      @ ../Drivers/STM32F7xx_HAL_Driver/Src/stm32f7xx_hal_ltdc.c:1835:3
	add.w	r3, r3, #132
	.loc	6 1866 6                @ ../Drivers/STM32F7xx_HAL_Driver/Src/stm32f7xx_hal_ltdc.c:1866:6
	itte	ls
	ldrls	r2, __arm_cp.9_1
	ldrls.w	r0, [r2, r0, lsl #2]
	movhi	r0, #1
.Ltmp69:
	@DEBUG_VALUE: LTDC_SetConfig:tmp <- $r0
	.loc	6 1887 39               @ ../Drivers/STM32F7xx_HAL_Driver/Src/stm32f7xx_hal_ltdc.c:1887:39
	ldr	r2, [r3, #44]
	and	r2, r2, #-536813568
	str	r2, [r3, #44]
	.loc	6 1888 55               @ ../Drivers/STM32F7xx_HAL_Driver/Src/stm32f7xx_hal_ltdc.c:1888:55
	ldr	r2, [r1, #40]
	.loc	6 1888 73 is_stmt 0     @ ../Drivers/STM32F7xx_HAL_Driver/Src/stm32f7xx_hal_ltdc.c:1888:73
	muls	r2, r0, r2
	.loc	6 1888 128              @ ../Drivers/STM32F7xx_HAL_Driver/Src/stm32f7xx_hal_ltdc.c:1888:128
	muls	r0, r6, r0
.Ltmp70:
	.loc	6 1888 136              @ ../Drivers/STM32F7xx_HAL_Driver/Src/stm32f7xx_hal_ltdc.c:1888:136
	adds	r0, #3
	.loc	6 1888 80               @ ../Drivers/STM32F7xx_HAL_Driver/Src/stm32f7xx_hal_ltdc.c:1888:80
	orr.w	r0, r0, r2, lsl #16
	.loc	6 1891 40 is_stmt 1     @ ../Drivers/STM32F7xx_HAL_Driver/Src/stm32f7xx_hal_ltdc.c:1891:40
	movw	r2, #2047
	.loc	6 1888 39               @ ../Drivers/STM32F7xx_HAL_Driver/Src/stm32f7xx_hal_ltdc.c:1888:39
	str	r0, [r3, #44]
	.loc	6 1891 40               @ ../Drivers/STM32F7xx_HAL_Driver/Src/stm32f7xx_hal_ltdc.c:1891:40
	ldr	r0, [r3, #48]
	bics	r0, r2
	str	r0, [r3, #48]
	.loc	6 1892 54               @ ../Drivers/STM32F7xx_HAL_Driver/Src/stm32f7xx_hal_ltdc.c:1892:54
	ldr	r0, [r1, #44]
	.loc	6 1892 40 is_stmt 0     @ ../Drivers/STM32F7xx_HAL_Driver/Src/stm32f7xx_hal_ltdc.c:1892:40
	str	r0, [r3, #48]
	.loc	6 1895 35 is_stmt 1     @ ../Drivers/STM32F7xx_HAL_Driver/Src/stm32f7xx_hal_ltdc.c:1895:35
	ldr	r0, [r3]
	orr	r0, r0, #1
	str	r0, [r3]
	.loc	6 1896 1                @ ../Drivers/STM32F7xx_HAL_Driver/Src/stm32f7xx_hal_ltdc.c:1896:1
	pop	{r4, r5, r6, pc}
.Ltmp71:
	.p2align	2
@ %bb.1:
	.loc	6 0 1 is_stmt 0         @ ../Drivers/STM32F7xx_HAL_Driver/Src/stm32f7xx_hal_ltdc.c:0:1
__arm_cp.9_0:
	.long	268369920               @ 0xfff0000
.Lcpi_end1:
	.size	__arm_cp.9_0, .Lcpi_end1-__arm_cp.9_0
__arm_cp.9_1:
	.long	.Lswitch.table.HAL_LTDC_SetPitch_NoReload
.Lcpi_end2:
	.size	__arm_cp.9_1, .Lcpi_end2-__arm_cp.9_1
.Lfunc_end9:
	.size	LTDC_SetConfig, .Lfunc_end9-LTDC_SetConfig
	.cfi_endproc
	.cantunwind
	.fnend
                                        @ -- End function
	.section	.text.HAL_LTDC_ConfigColorKeying,"ax",%progbits
	.hidden	HAL_LTDC_ConfigColorKeying @ -- Begin function HAL_LTDC_ConfigColorKeying
	.globl	HAL_LTDC_ConfigColorKeying
	.p2align	1
	.type	HAL_LTDC_ConfigColorKeying,%function
	.code	16                      @ @HAL_LTDC_ConfigColorKeying
	.thumb_func
HAL_LTDC_ConfigColorKeying:
.Lfunc_begin10:
	.loc	6 556 0 is_stmt 1       @ ../Drivers/STM32F7xx_HAL_Driver/Src/stm32f7xx_hal_ltdc.c:556:0
	.fnstart
	.cfi_startproc
@ %bb.0:
	@DEBUG_VALUE: HAL_LTDC_ConfigColorKeying:hltdc <- $r0
	@DEBUG_VALUE: HAL_LTDC_ConfigColorKeying:hltdc <- $r0
	@DEBUG_VALUE: HAL_LTDC_ConfigColorKeying:RGBValue <- $r1
	@DEBUG_VALUE: HAL_LTDC_ConfigColorKeying:RGBValue <- $r1
	@DEBUG_VALUE: HAL_LTDC_ConfigColorKeying:LayerIdx <- $r2
	@DEBUG_VALUE: HAL_LTDC_ConfigColorKeying:LayerIdx <- $r2
	.loc	6 558 3 prologue_end    @ ../Drivers/STM32F7xx_HAL_Driver/Src/stm32f7xx_hal_ltdc.c:558:3
	ldrb.w	r12, [r0, #160]
	movs	r3, #2
.Ltmp72:
	.loc	6 558 3 is_stmt 0       @ ../Drivers/STM32F7xx_HAL_Driver/Src/stm32f7xx_hal_ltdc.c:558:3
	cmp.w	r12, #1
	beq	.LBB10_2
.Ltmp73:
@ %bb.1:
	@DEBUG_VALUE: HAL_LTDC_ConfigColorKeying:LayerIdx <- $r2
	@DEBUG_VALUE: HAL_LTDC_ConfigColorKeying:RGBValue <- $r1
	@DEBUG_VALUE: HAL_LTDC_ConfigColorKeying:hltdc <- $r0
	.loc	6 561 16 is_stmt 1      @ ../Drivers/STM32F7xx_HAL_Driver/Src/stm32f7xx_hal_ltdc.c:561:16
	strb.w	r3, [r0, #161]
	.loc	6 567 3                 @ ../Drivers/STM32F7xx_HAL_Driver/Src/stm32f7xx_hal_ltdc.c:567:3
	ldr.w	r12, [r0]
	add.w	r2, r12, r2, lsl #7
.Ltmp74:
	.loc	6 567 37 is_stmt 0      @ ../Drivers/STM32F7xx_HAL_Driver/Src/stm32f7xx_hal_ltdc.c:567:37
	ldr.w	r3, [r2, #144]
	and	r3, r3, #-16777216
	str.w	r3, [r2, #144]
	.loc	6 568 38 is_stmt 1      @ ../Drivers/STM32F7xx_HAL_Driver/Src/stm32f7xx_hal_ltdc.c:568:38
	str.w	r1, [r2, #144]
	movs	r1, #1
.Ltmp75:
	.loc	6 0 38 is_stmt 0        @ ../Drivers/STM32F7xx_HAL_Driver/Src/stm32f7xx_hal_ltdc.c:0:38
	movs	r3, #0
	.loc	6 571 25 is_stmt 1      @ ../Drivers/STM32F7xx_HAL_Driver/Src/stm32f7xx_hal_ltdc.c:571:25
	str.w	r1, [r12, #36]
.Ltmp76:
	.loc	6 577 3                 @ ../Drivers/STM32F7xx_HAL_Driver/Src/stm32f7xx_hal_ltdc.c:577:3
	strb.w	r3, [r0, #160]
.Ltmp77:
	.loc	6 574 16                @ ../Drivers/STM32F7xx_HAL_Driver/Src/stm32f7xx_hal_ltdc.c:574:16
	strb.w	r1, [r0, #161]
.LBB10_2:
	@DEBUG_VALUE: HAL_LTDC_ConfigColorKeying:hltdc <- $r0
	.loc	6 580 1                 @ ../Drivers/STM32F7xx_HAL_Driver/Src/stm32f7xx_hal_ltdc.c:580:1
	uxtb	r0, r3
	bx	lr
.Ltmp78:
.Lfunc_end10:
	.size	HAL_LTDC_ConfigColorKeying, .Lfunc_end10-HAL_LTDC_ConfigColorKeying
	.cfi_endproc
	.cantunwind
	.fnend
                                        @ -- End function
	.section	.text.HAL_LTDC_ConfigCLUT,"ax",%progbits
	.hidden	HAL_LTDC_ConfigCLUT     @ -- Begin function HAL_LTDC_ConfigCLUT
	.globl	HAL_LTDC_ConfigCLUT
	.p2align	1
	.type	HAL_LTDC_ConfigCLUT,%function
	.code	16                      @ @HAL_LTDC_ConfigCLUT
	.thumb_func
HAL_LTDC_ConfigCLUT:
.Lfunc_begin11:
	.loc	6 594 0                 @ ../Drivers/STM32F7xx_HAL_Driver/Src/stm32f7xx_hal_ltdc.c:594:0
	.fnstart
	.cfi_startproc
@ %bb.0:
	.save	{r4, r5, r6, r7, lr}
	push	{r4, r5, r6, r7, lr}
	.cfi_def_cfa_offset 20
	.cfi_offset lr, -4
	.cfi_offset r7, -8
	.cfi_offset r6, -12
	.cfi_offset r5, -16
	.cfi_offset r4, -20
	@DEBUG_VALUE: HAL_LTDC_ConfigCLUT:hltdc <- $r0
	@DEBUG_VALUE: HAL_LTDC_ConfigCLUT:hltdc <- $r0
	@DEBUG_VALUE: HAL_LTDC_ConfigCLUT:pCLUT <- $r1
	@DEBUG_VALUE: HAL_LTDC_ConfigCLUT:pCLUT <- $r1
	@DEBUG_VALUE: HAL_LTDC_ConfigCLUT:CLUTSize <- $r2
	@DEBUG_VALUE: HAL_LTDC_ConfigCLUT:CLUTSize <- $r2
	@DEBUG_VALUE: HAL_LTDC_ConfigCLUT:LayerIdx <- $r3
	@DEBUG_VALUE: HAL_LTDC_ConfigCLUT:LayerIdx <- $r3
.Ltmp79:
	@DEBUG_VALUE: HAL_LTDC_ConfigCLUT:tmp <- 0
	@DEBUG_VALUE: HAL_LTDC_ConfigCLUT:counter <- 0
	@DEBUG_VALUE: HAL_LTDC_ConfigCLUT:pcounter <- 0
	.loc	6 600 3 prologue_end    @ ../Drivers/STM32F7xx_HAL_Driver/Src/stm32f7xx_hal_ltdc.c:600:3
	ldrb.w	r12, [r0, #160]
	movs	r4, #2
.Ltmp80:
	.loc	6 600 3 is_stmt 0       @ ../Drivers/STM32F7xx_HAL_Driver/Src/stm32f7xx_hal_ltdc.c:600:3
	cmp.w	r12, #1
	beq	.LBB11_5
.Ltmp81:
@ %bb.1:
	@DEBUG_VALUE: HAL_LTDC_ConfigCLUT:LayerIdx <- $r3
	@DEBUG_VALUE: HAL_LTDC_ConfigCLUT:CLUTSize <- $r2
	@DEBUG_VALUE: HAL_LTDC_ConfigCLUT:pCLUT <- $r1
	@DEBUG_VALUE: HAL_LTDC_ConfigCLUT:hltdc <- $r0
	.loc	6 603 16 is_stmt 1      @ ../Drivers/STM32F7xx_HAL_Driver/Src/stm32f7xx_hal_ltdc.c:603:16
	strb.w	r4, [r0, #161]
.Ltmp82:
	.loc	6 600 3                 @ ../Drivers/STM32F7xx_HAL_Driver/Src/stm32f7xx_hal_ltdc.c:600:3
	movs	r4, #1
	strb.w	r4, [r0, #160]
	@DEBUG_VALUE: HAL_LTDC_ConfigCLUT:counter <- 0
	movs	r4, #52
	mla	r4, r3, r4, r0
	add.w	r12, r4, #72
	movs	r4, #132
	add.w	lr, r4, r3, lsl #7
	movs	r4, #0
	movs	r3, #0
.Ltmp83:
	.loc	6 0 3 is_stmt 0         @ ../Drivers/STM32F7xx_HAL_Driver/Src/stm32f7xx_hal_ltdc.c:0:3
	b	.LBB11_3
.Ltmp84:
.LBB11_2:                               @   in Loop: Header=BB11_3 Depth=1
	@DEBUG_VALUE: HAL_LTDC_ConfigCLUT:CLUTSize <- $r2
	@DEBUG_VALUE: HAL_LTDC_ConfigCLUT:pCLUT <- $r1
	@DEBUG_VALUE: HAL_LTDC_ConfigCLUT:hltdc <- $r0
	@DEBUG_VALUE: HAL_LTDC_ConfigCLUT:pCLUT <- $r1
	.loc	6 610 34 is_stmt 1      @ ../Drivers/STM32F7xx_HAL_Driver/Src/stm32f7xx_hal_ltdc.c:610:34
	ldr.w	r5, [r12]
.Ltmp85:
	.loc	6 608 3                 @ ../Drivers/STM32F7xx_HAL_Driver/Src/stm32f7xx_hal_ltdc.c:608:3
	subs	r2, #1
.Ltmp86:
	.loc	6 610 8                 @ ../Drivers/STM32F7xx_HAL_Driver/Src/stm32f7xx_hal_ltdc.c:610:8
	cmp	r5, #6
.Ltmp87:
	.loc	6 608 3                 @ ../Drivers/STM32F7xx_HAL_Driver/Src/stm32f7xx_hal_ltdc.c:608:3
	add.w	r5, r4, #16777216
.Ltmp88:
	.loc	6 610 8                 @ ../Drivers/STM32F7xx_HAL_Driver/Src/stm32f7xx_hal_ltdc.c:610:8
	it	eq
	moveq	r4, r3
	ldm	r1!, {r6}
.Ltmp89:
	@DEBUG_VALUE: HAL_LTDC_ConfigCLUT:pcounter <- $r1
	@DEBUG_VALUE: HAL_LTDC_ConfigCLUT:pCLUT <- $r1
	.loc	6 608 3                 @ ../Drivers/STM32F7xx_HAL_Driver/Src/stm32f7xx_hal_ltdc.c:608:3
	add.w	r3, r3, #285212672
	uxtb	r7, r6
	orrs	r4, r7
	and	r7, r6, #65280
	and	r6, r6, #16711680
	orrs	r4, r7
	orrs	r4, r6
.Ltmp90:
	@DEBUG_VALUE: HAL_LTDC_ConfigCLUT:tmp <- $r4
	.loc	6 622 5                 @ ../Drivers/STM32F7xx_HAL_Driver/Src/stm32f7xx_hal_ltdc.c:622:5
	ldr	r6, [r0]
	add	r6, lr
	.loc	6 622 42 is_stmt 0      @ ../Drivers/STM32F7xx_HAL_Driver/Src/stm32f7xx_hal_ltdc.c:622:42
	str	r4, [r6, #64]
	mov	r4, r5
.Ltmp91:
.LBB11_3:                               @ =>This Inner Loop Header: Depth=1
	@DEBUG_VALUE: HAL_LTDC_ConfigCLUT:CLUTSize <- $r2
	@DEBUG_VALUE: HAL_LTDC_ConfigCLUT:pCLUT <- $r1
	@DEBUG_VALUE: HAL_LTDC_ConfigCLUT:hltdc <- $r0
	.loc	6 608 3 is_stmt 1       @ ../Drivers/STM32F7xx_HAL_Driver/Src/stm32f7xx_hal_ltdc.c:608:3
	cmp	r2, #0
	bne	.LBB11_2
.Ltmp92:
@ %bb.4:
	@DEBUG_VALUE: HAL_LTDC_ConfigCLUT:CLUTSize <- $r2
	@DEBUG_VALUE: HAL_LTDC_ConfigCLUT:pCLUT <- $r1
	@DEBUG_VALUE: HAL_LTDC_ConfigCLUT:hltdc <- $r0
	.loc	6 0 3 is_stmt 0         @ ../Drivers/STM32F7xx_HAL_Driver/Src/stm32f7xx_hal_ltdc.c:0:3
	movs	r4, #0
	.loc	6 626 16 is_stmt 1      @ ../Drivers/STM32F7xx_HAL_Driver/Src/stm32f7xx_hal_ltdc.c:626:16
	movs	r1, #1
.Ltmp93:
	.loc	6 629 3                 @ ../Drivers/STM32F7xx_HAL_Driver/Src/stm32f7xx_hal_ltdc.c:629:3
	strb.w	r4, [r0, #160]
.Ltmp94:
	.loc	6 626 16                @ ../Drivers/STM32F7xx_HAL_Driver/Src/stm32f7xx_hal_ltdc.c:626:16
	strb.w	r1, [r0, #161]
.Ltmp95:
.LBB11_5:
	@DEBUG_VALUE: HAL_LTDC_ConfigCLUT:CLUTSize <- $r2
	@DEBUG_VALUE: HAL_LTDC_ConfigCLUT:hltdc <- $r0
	.loc	6 632 1                 @ ../Drivers/STM32F7xx_HAL_Driver/Src/stm32f7xx_hal_ltdc.c:632:1
	uxtb	r0, r4
	pop	{r4, r5, r6, r7, pc}
.Ltmp96:
.Lfunc_end11:
	.size	HAL_LTDC_ConfigCLUT, .Lfunc_end11-HAL_LTDC_ConfigCLUT
	.cfi_endproc
	.cantunwind
	.fnend
                                        @ -- End function
	.section	.text.HAL_LTDC_EnableColorKeying,"ax",%progbits
	.hidden	HAL_LTDC_EnableColorKeying @ -- Begin function HAL_LTDC_EnableColorKeying
	.globl	HAL_LTDC_EnableColorKeying
	.p2align	1
	.type	HAL_LTDC_EnableColorKeying,%function
	.code	16                      @ @HAL_LTDC_EnableColorKeying
	.thumb_func
HAL_LTDC_EnableColorKeying:
.Lfunc_begin12:
	.loc	6 644 0                 @ ../Drivers/STM32F7xx_HAL_Driver/Src/stm32f7xx_hal_ltdc.c:644:0
	.fnstart
	.cfi_startproc
@ %bb.0:
	@DEBUG_VALUE: HAL_LTDC_EnableColorKeying:hltdc <- $r0
	@DEBUG_VALUE: HAL_LTDC_EnableColorKeying:hltdc <- $r0
	@DEBUG_VALUE: HAL_LTDC_EnableColorKeying:LayerIdx <- $r1
	@DEBUG_VALUE: HAL_LTDC_EnableColorKeying:LayerIdx <- $r1
	.loc	6 646 3 prologue_end    @ ../Drivers/STM32F7xx_HAL_Driver/Src/stm32f7xx_hal_ltdc.c:646:3
	ldrb.w	r3, [r0, #160]
	movs	r2, #2
.Ltmp97:
	.loc	6 646 3 is_stmt 0       @ ../Drivers/STM32F7xx_HAL_Driver/Src/stm32f7xx_hal_ltdc.c:646:3
	cmp	r3, #1
	beq	.LBB12_2
.Ltmp98:
@ %bb.1:
	@DEBUG_VALUE: HAL_LTDC_EnableColorKeying:LayerIdx <- $r1
	@DEBUG_VALUE: HAL_LTDC_EnableColorKeying:hltdc <- $r0
	.loc	6 649 16 is_stmt 1      @ ../Drivers/STM32F7xx_HAL_Driver/Src/stm32f7xx_hal_ltdc.c:649:16
	strb.w	r2, [r0, #161]
	.loc	6 655 3                 @ ../Drivers/STM32F7xx_HAL_Driver/Src/stm32f7xx_hal_ltdc.c:655:3
	ldr	r2, [r0]
	add.w	r1, r2, r1, lsl #7
.Ltmp99:
	.loc	6 655 35 is_stmt 0      @ ../Drivers/STM32F7xx_HAL_Driver/Src/stm32f7xx_hal_ltdc.c:655:35
	ldr.w	r3, [r1, #132]
	orr	r3, r3, #2
	str.w	r3, [r1, #132]
	movs	r1, #1
	.loc	6 658 25 is_stmt 1      @ ../Drivers/STM32F7xx_HAL_Driver/Src/stm32f7xx_hal_ltdc.c:658:25
	str	r1, [r2, #36]
	movs	r2, #0
.Ltmp100:
	.loc	6 664 3                 @ ../Drivers/STM32F7xx_HAL_Driver/Src/stm32f7xx_hal_ltdc.c:664:3
	strb.w	r2, [r0, #160]
.Ltmp101:
	.loc	6 661 16                @ ../Drivers/STM32F7xx_HAL_Driver/Src/stm32f7xx_hal_ltdc.c:661:16
	strb.w	r1, [r0, #161]
.LBB12_2:
	@DEBUG_VALUE: HAL_LTDC_EnableColorKeying:hltdc <- $r0
	.loc	6 667 1                 @ ../Drivers/STM32F7xx_HAL_Driver/Src/stm32f7xx_hal_ltdc.c:667:1
	uxtb	r0, r2
	bx	lr
.Ltmp102:
.Lfunc_end12:
	.size	HAL_LTDC_EnableColorKeying, .Lfunc_end12-HAL_LTDC_EnableColorKeying
	.cfi_endproc
	.cantunwind
	.fnend
                                        @ -- End function
	.section	.text.HAL_LTDC_DisableColorKeying,"ax",%progbits
	.hidden	HAL_LTDC_DisableColorKeying @ -- Begin function HAL_LTDC_DisableColorKeying
	.globl	HAL_LTDC_DisableColorKeying
	.p2align	1
	.type	HAL_LTDC_DisableColorKeying,%function
	.code	16                      @ @HAL_LTDC_DisableColorKeying
	.thumb_func
HAL_LTDC_DisableColorKeying:
.Lfunc_begin13:
	.loc	6 679 0                 @ ../Drivers/STM32F7xx_HAL_Driver/Src/stm32f7xx_hal_ltdc.c:679:0
	.fnstart
	.cfi_startproc
@ %bb.0:
	@DEBUG_VALUE: HAL_LTDC_DisableColorKeying:hltdc <- $r0
	@DEBUG_VALUE: HAL_LTDC_DisableColorKeying:hltdc <- $r0
	@DEBUG_VALUE: HAL_LTDC_DisableColorKeying:LayerIdx <- $r1
	@DEBUG_VALUE: HAL_LTDC_DisableColorKeying:LayerIdx <- $r1
	.loc	6 681 3 prologue_end    @ ../Drivers/STM32F7xx_HAL_Driver/Src/stm32f7xx_hal_ltdc.c:681:3
	ldrb.w	r3, [r0, #160]
	movs	r2, #2
.Ltmp103:
	.loc	6 681 3 is_stmt 0       @ ../Drivers/STM32F7xx_HAL_Driver/Src/stm32f7xx_hal_ltdc.c:681:3
	cmp	r3, #1
	beq	.LBB13_2
.Ltmp104:
@ %bb.1:
	@DEBUG_VALUE: HAL_LTDC_DisableColorKeying:LayerIdx <- $r1
	@DEBUG_VALUE: HAL_LTDC_DisableColorKeying:hltdc <- $r0
	.loc	6 684 16 is_stmt 1      @ ../Drivers/STM32F7xx_HAL_Driver/Src/stm32f7xx_hal_ltdc.c:684:16
	strb.w	r2, [r0, #161]
	.loc	6 690 3                 @ ../Drivers/STM32F7xx_HAL_Driver/Src/stm32f7xx_hal_ltdc.c:690:3
	ldr	r2, [r0]
	add.w	r1, r2, r1, lsl #7
.Ltmp105:
	.loc	6 690 35 is_stmt 0      @ ../Drivers/STM32F7xx_HAL_Driver/Src/stm32f7xx_hal_ltdc.c:690:35
	ldr.w	r3, [r1, #132]
	bic	r3, r3, #2
	str.w	r3, [r1, #132]
	movs	r1, #1
	.loc	6 693 25 is_stmt 1      @ ../Drivers/STM32F7xx_HAL_Driver/Src/stm32f7xx_hal_ltdc.c:693:25
	str	r1, [r2, #36]
	movs	r2, #0
.Ltmp106:
	.loc	6 699 3                 @ ../Drivers/STM32F7xx_HAL_Driver/Src/stm32f7xx_hal_ltdc.c:699:3
	strb.w	r2, [r0, #160]
.Ltmp107:
	.loc	6 696 16                @ ../Drivers/STM32F7xx_HAL_Driver/Src/stm32f7xx_hal_ltdc.c:696:16
	strb.w	r1, [r0, #161]
.LBB13_2:
	@DEBUG_VALUE: HAL_LTDC_DisableColorKeying:hltdc <- $r0
	.loc	6 702 1                 @ ../Drivers/STM32F7xx_HAL_Driver/Src/stm32f7xx_hal_ltdc.c:702:1
	uxtb	r0, r2
	bx	lr
.Ltmp108:
.Lfunc_end13:
	.size	HAL_LTDC_DisableColorKeying, .Lfunc_end13-HAL_LTDC_DisableColorKeying
	.cfi_endproc
	.cantunwind
	.fnend
                                        @ -- End function
	.section	.text.HAL_LTDC_EnableCLUT,"ax",%progbits
	.hidden	HAL_LTDC_EnableCLUT     @ -- Begin function HAL_LTDC_EnableCLUT
	.globl	HAL_LTDC_EnableCLUT
	.p2align	1
	.type	HAL_LTDC_EnableCLUT,%function
	.code	16                      @ @HAL_LTDC_EnableCLUT
	.thumb_func
HAL_LTDC_EnableCLUT:
.Lfunc_begin14:
	.loc	6 714 0                 @ ../Drivers/STM32F7xx_HAL_Driver/Src/stm32f7xx_hal_ltdc.c:714:0
	.fnstart
	.cfi_startproc
@ %bb.0:
	@DEBUG_VALUE: HAL_LTDC_EnableCLUT:hltdc <- $r0
	@DEBUG_VALUE: HAL_LTDC_EnableCLUT:hltdc <- $r0
	@DEBUG_VALUE: HAL_LTDC_EnableCLUT:LayerIdx <- $r1
	@DEBUG_VALUE: HAL_LTDC_EnableCLUT:LayerIdx <- $r1
	.loc	6 717 3 prologue_end    @ ../Drivers/STM32F7xx_HAL_Driver/Src/stm32f7xx_hal_ltdc.c:717:3
	ldrb.w	r3, [r0, #160]
	movs	r2, #2
.Ltmp109:
	.loc	6 717 3 is_stmt 0       @ ../Drivers/STM32F7xx_HAL_Driver/Src/stm32f7xx_hal_ltdc.c:717:3
	cmp	r3, #1
	beq	.LBB14_2
.Ltmp110:
@ %bb.1:
	@DEBUG_VALUE: HAL_LTDC_EnableCLUT:LayerIdx <- $r1
	@DEBUG_VALUE: HAL_LTDC_EnableCLUT:hltdc <- $r0
	.loc	6 720 16 is_stmt 1      @ ../Drivers/STM32F7xx_HAL_Driver/Src/stm32f7xx_hal_ltdc.c:720:16
	strb.w	r2, [r0, #161]
	.loc	6 726 3                 @ ../Drivers/STM32F7xx_HAL_Driver/Src/stm32f7xx_hal_ltdc.c:726:3
	ldr	r2, [r0]
	add.w	r1, r2, r1, lsl #7
.Ltmp111:
	.loc	6 726 35 is_stmt 0      @ ../Drivers/STM32F7xx_HAL_Driver/Src/stm32f7xx_hal_ltdc.c:726:35
	ldr.w	r3, [r1, #132]
	orr	r3, r3, #16
	str.w	r3, [r1, #132]
	movs	r1, #1
	.loc	6 729 25 is_stmt 1      @ ../Drivers/STM32F7xx_HAL_Driver/Src/stm32f7xx_hal_ltdc.c:729:25
	str	r1, [r2, #36]
	movs	r2, #0
.Ltmp112:
	.loc	6 735 3                 @ ../Drivers/STM32F7xx_HAL_Driver/Src/stm32f7xx_hal_ltdc.c:735:3
	strb.w	r2, [r0, #160]
.Ltmp113:
	.loc	6 732 16                @ ../Drivers/STM32F7xx_HAL_Driver/Src/stm32f7xx_hal_ltdc.c:732:16
	strb.w	r1, [r0, #161]
.LBB14_2:
	@DEBUG_VALUE: HAL_LTDC_EnableCLUT:hltdc <- $r0
	.loc	6 738 1                 @ ../Drivers/STM32F7xx_HAL_Driver/Src/stm32f7xx_hal_ltdc.c:738:1
	uxtb	r0, r2
	bx	lr
.Ltmp114:
.Lfunc_end14:
	.size	HAL_LTDC_EnableCLUT, .Lfunc_end14-HAL_LTDC_EnableCLUT
	.cfi_endproc
	.cantunwind
	.fnend
                                        @ -- End function
	.section	.text.HAL_LTDC_DisableCLUT,"ax",%progbits
	.hidden	HAL_LTDC_DisableCLUT    @ -- Begin function HAL_LTDC_DisableCLUT
	.globl	HAL_LTDC_DisableCLUT
	.p2align	1
	.type	HAL_LTDC_DisableCLUT,%function
	.code	16                      @ @HAL_LTDC_DisableCLUT
	.thumb_func
HAL_LTDC_DisableCLUT:
.Lfunc_begin15:
	.loc	6 750 0                 @ ../Drivers/STM32F7xx_HAL_Driver/Src/stm32f7xx_hal_ltdc.c:750:0
	.fnstart
	.cfi_startproc
@ %bb.0:
	@DEBUG_VALUE: HAL_LTDC_DisableCLUT:hltdc <- $r0
	@DEBUG_VALUE: HAL_LTDC_DisableCLUT:hltdc <- $r0
	@DEBUG_VALUE: HAL_LTDC_DisableCLUT:LayerIdx <- $r1
	@DEBUG_VALUE: HAL_LTDC_DisableCLUT:LayerIdx <- $r1
	.loc	6 753 3 prologue_end    @ ../Drivers/STM32F7xx_HAL_Driver/Src/stm32f7xx_hal_ltdc.c:753:3
	ldrb.w	r3, [r0, #160]
	movs	r2, #2
.Ltmp115:
	.loc	6 753 3 is_stmt 0       @ ../Drivers/STM32F7xx_HAL_Driver/Src/stm32f7xx_hal_ltdc.c:753:3
	cmp	r3, #1
	beq	.LBB15_2
.Ltmp116:
@ %bb.1:
	@DEBUG_VALUE: HAL_LTDC_DisableCLUT:LayerIdx <- $r1
	@DEBUG_VALUE: HAL_LTDC_DisableCLUT:hltdc <- $r0
	.loc	6 756 16 is_stmt 1      @ ../Drivers/STM32F7xx_HAL_Driver/Src/stm32f7xx_hal_ltdc.c:756:16
	strb.w	r2, [r0, #161]
	.loc	6 762 3                 @ ../Drivers/STM32F7xx_HAL_Driver/Src/stm32f7xx_hal_ltdc.c:762:3
	ldr	r2, [r0]
	add.w	r1, r2, r1, lsl #7
.Ltmp117:
	.loc	6 762 35 is_stmt 0      @ ../Drivers/STM32F7xx_HAL_Driver/Src/stm32f7xx_hal_ltdc.c:762:35
	ldr.w	r3, [r1, #132]
	bic	r3, r3, #16
	str.w	r3, [r1, #132]
	movs	r1, #1
	.loc	6 765 25 is_stmt 1      @ ../Drivers/STM32F7xx_HAL_Driver/Src/stm32f7xx_hal_ltdc.c:765:25
	str	r1, [r2, #36]
	movs	r2, #0
.Ltmp118:
	.loc	6 771 3                 @ ../Drivers/STM32F7xx_HAL_Driver/Src/stm32f7xx_hal_ltdc.c:771:3
	strb.w	r2, [r0, #160]
.Ltmp119:
	.loc	6 768 16                @ ../Drivers/STM32F7xx_HAL_Driver/Src/stm32f7xx_hal_ltdc.c:768:16
	strb.w	r1, [r0, #161]
.LBB15_2:
	@DEBUG_VALUE: HAL_LTDC_DisableCLUT:hltdc <- $r0
	.loc	6 774 1                 @ ../Drivers/STM32F7xx_HAL_Driver/Src/stm32f7xx_hal_ltdc.c:774:1
	uxtb	r0, r2
	bx	lr
.Ltmp120:
.Lfunc_end15:
	.size	HAL_LTDC_DisableCLUT, .Lfunc_end15-HAL_LTDC_DisableCLUT
	.cfi_endproc
	.cantunwind
	.fnend
                                        @ -- End function
	.section	.text.HAL_LTDC_EnableDither,"ax",%progbits
	.hidden	HAL_LTDC_EnableDither   @ -- Begin function HAL_LTDC_EnableDither
	.globl	HAL_LTDC_EnableDither
	.p2align	2
	.type	HAL_LTDC_EnableDither,%function
	.code	16                      @ @HAL_LTDC_EnableDither
	.thumb_func
HAL_LTDC_EnableDither:
.Lfunc_begin16:
	.loc	6 784 0                 @ ../Drivers/STM32F7xx_HAL_Driver/Src/stm32f7xx_hal_ltdc.c:784:0
	.fnstart
	.cfi_startproc
@ %bb.0:
	@DEBUG_VALUE: HAL_LTDC_EnableDither:hltdc <- $r0
	@DEBUG_VALUE: HAL_LTDC_EnableDither:hltdc <- $r0
	.loc	6 786 3 prologue_end    @ ../Drivers/STM32F7xx_HAL_Driver/Src/stm32f7xx_hal_ltdc.c:786:3
	ldrb.w	r2, [r0, #160]
	movs	r1, #2
.Ltmp121:
	.loc	6 786 3 is_stmt 0       @ ../Drivers/STM32F7xx_HAL_Driver/Src/stm32f7xx_hal_ltdc.c:786:3
	cmp	r2, #1
	beq	.LBB16_2
.Ltmp122:
@ %bb.1:
	@DEBUG_VALUE: HAL_LTDC_EnableDither:hltdc <- $r0
	.loc	6 789 16 is_stmt 1      @ ../Drivers/STM32F7xx_HAL_Driver/Src/stm32f7xx_hal_ltdc.c:789:16
	strb.w	r1, [r0, #161]
	ldr	r1, __arm_cp.16_0
	.loc	6 792 13                @ ../Drivers/STM32F7xx_HAL_Driver/Src/stm32f7xx_hal_ltdc.c:792:13
	ldr	r2, [r1]
	orr	r2, r2, #65536
	str	r2, [r1]
	movs	r1, #0
	.loc	6 795 16                @ ../Drivers/STM32F7xx_HAL_Driver/Src/stm32f7xx_hal_ltdc.c:795:16
	movs	r2, #1
.Ltmp123:
	.loc	6 798 3                 @ ../Drivers/STM32F7xx_HAL_Driver/Src/stm32f7xx_hal_ltdc.c:798:3
	strb.w	r1, [r0, #160]
.Ltmp124:
	.loc	6 795 16                @ ../Drivers/STM32F7xx_HAL_Driver/Src/stm32f7xx_hal_ltdc.c:795:16
	strb.w	r2, [r0, #161]
.LBB16_2:
	@DEBUG_VALUE: HAL_LTDC_EnableDither:hltdc <- $r0
	.loc	6 801 1                 @ ../Drivers/STM32F7xx_HAL_Driver/Src/stm32f7xx_hal_ltdc.c:801:1
	uxtb	r0, r1
	bx	lr
.Ltmp125:
	.p2align	2
@ %bb.3:
	.loc	6 0 1 is_stmt 0         @ ../Drivers/STM32F7xx_HAL_Driver/Src/stm32f7xx_hal_ltdc.c:0:1
__arm_cp.16_0:
	.long	1073834008              @ 0x40016818
.Lcpi_end3:
	.size	__arm_cp.16_0, .Lcpi_end3-__arm_cp.16_0
.Lfunc_end16:
	.size	HAL_LTDC_EnableDither, .Lfunc_end16-HAL_LTDC_EnableDither
	.cfi_endproc
	.cantunwind
	.fnend
                                        @ -- End function
	.section	.text.HAL_LTDC_DisableDither,"ax",%progbits
	.hidden	HAL_LTDC_DisableDither  @ -- Begin function HAL_LTDC_DisableDither
	.globl	HAL_LTDC_DisableDither
	.p2align	2
	.type	HAL_LTDC_DisableDither,%function
	.code	16                      @ @HAL_LTDC_DisableDither
	.thumb_func
HAL_LTDC_DisableDither:
.Lfunc_begin17:
	.loc	6 811 0 is_stmt 1       @ ../Drivers/STM32F7xx_HAL_Driver/Src/stm32f7xx_hal_ltdc.c:811:0
	.fnstart
	.cfi_startproc
@ %bb.0:
	@DEBUG_VALUE: HAL_LTDC_DisableDither:hltdc <- $r0
	@DEBUG_VALUE: HAL_LTDC_DisableDither:hltdc <- $r0
	.loc	6 813 3 prologue_end    @ ../Drivers/STM32F7xx_HAL_Driver/Src/stm32f7xx_hal_ltdc.c:813:3
	ldrb.w	r2, [r0, #160]
	movs	r1, #2
.Ltmp126:
	.loc	6 813 3 is_stmt 0       @ ../Drivers/STM32F7xx_HAL_Driver/Src/stm32f7xx_hal_ltdc.c:813:3
	cmp	r2, #1
	beq	.LBB17_2
.Ltmp127:
@ %bb.1:
	@DEBUG_VALUE: HAL_LTDC_DisableDither:hltdc <- $r0
	.loc	6 816 16 is_stmt 1      @ ../Drivers/STM32F7xx_HAL_Driver/Src/stm32f7xx_hal_ltdc.c:816:16
	strb.w	r1, [r0, #161]
	ldr	r1, __arm_cp.17_0
	.loc	6 819 13                @ ../Drivers/STM32F7xx_HAL_Driver/Src/stm32f7xx_hal_ltdc.c:819:13
	ldr	r2, [r1]
	bic	r2, r2, #65536
	str	r2, [r1]
	movs	r1, #0
	.loc	6 822 16                @ ../Drivers/STM32F7xx_HAL_Driver/Src/stm32f7xx_hal_ltdc.c:822:16
	movs	r2, #1
.Ltmp128:
	.loc	6 825 3                 @ ../Drivers/STM32F7xx_HAL_Driver/Src/stm32f7xx_hal_ltdc.c:825:3
	strb.w	r1, [r0, #160]
.Ltmp129:
	.loc	6 822 16                @ ../Drivers/STM32F7xx_HAL_Driver/Src/stm32f7xx_hal_ltdc.c:822:16
	strb.w	r2, [r0, #161]
.LBB17_2:
	@DEBUG_VALUE: HAL_LTDC_DisableDither:hltdc <- $r0
	.loc	6 828 1                 @ ../Drivers/STM32F7xx_HAL_Driver/Src/stm32f7xx_hal_ltdc.c:828:1
	uxtb	r0, r1
	bx	lr
.Ltmp130:
	.p2align	2
@ %bb.3:
	.loc	6 0 1 is_stmt 0         @ ../Drivers/STM32F7xx_HAL_Driver/Src/stm32f7xx_hal_ltdc.c:0:1
__arm_cp.17_0:
	.long	1073834008              @ 0x40016818
.Lcpi_end4:
	.size	__arm_cp.17_0, .Lcpi_end4-__arm_cp.17_0
.Lfunc_end17:
	.size	HAL_LTDC_DisableDither, .Lfunc_end17-HAL_LTDC_DisableDither
	.cfi_endproc
	.cantunwind
	.fnend
                                        @ -- End function
	.section	.text.HAL_LTDC_SetWindowSize,"ax",%progbits
	.hidden	HAL_LTDC_SetWindowSize  @ -- Begin function HAL_LTDC_SetWindowSize
	.globl	HAL_LTDC_SetWindowSize
	.p2align	1
	.type	HAL_LTDC_SetWindowSize,%function
	.code	16                      @ @HAL_LTDC_SetWindowSize
	.thumb_func
HAL_LTDC_SetWindowSize:
.Lfunc_begin18:
	.loc	6 842 0 is_stmt 1       @ ../Drivers/STM32F7xx_HAL_Driver/Src/stm32f7xx_hal_ltdc.c:842:0
	.fnstart
	.cfi_startproc
@ %bb.0:
	.save	{r4, r5, r6, r7, lr}
	.pad	#4
	push	{r3, r4, r5, r6, r7, lr}
	.cfi_def_cfa_offset 24
	.cfi_offset lr, -4
	.cfi_offset r7, -8
	.cfi_offset r6, -12
	.cfi_offset r5, -16
	.cfi_offset r4, -20
	@DEBUG_VALUE: HAL_LTDC_SetWindowSize:hltdc <- $r0
	@DEBUG_VALUE: HAL_LTDC_SetWindowSize:XSize <- $r1
	@DEBUG_VALUE: HAL_LTDC_SetWindowSize:YSize <- $r2
	@DEBUG_VALUE: HAL_LTDC_SetWindowSize:LayerIdx <- $r3
	mov	r5, r0
	@DEBUG_VALUE: HAL_LTDC_SetWindowSize:LayerIdx <- $r3
	@DEBUG_VALUE: HAL_LTDC_SetWindowSize:YSize <- $r2
	@DEBUG_VALUE: HAL_LTDC_SetWindowSize:XSize <- $r1
.Ltmp131:
	@DEBUG_VALUE: HAL_LTDC_SetWindowSize:hltdc <- $r5
	.loc	6 846 3 prologue_end    @ ../Drivers/STM32F7xx_HAL_Driver/Src/stm32f7xx_hal_ltdc.c:846:3
	ldrb.w	r0, [r0, #160]
	movs	r6, #2
.Ltmp132:
	.loc	6 846 3 is_stmt 0       @ ../Drivers/STM32F7xx_HAL_Driver/Src/stm32f7xx_hal_ltdc.c:846:3
	cmp	r0, #1
	beq	.LBB18_2
.Ltmp133:
@ %bb.1:
	@DEBUG_VALUE: HAL_LTDC_SetWindowSize:hltdc <- $r5
	@DEBUG_VALUE: HAL_LTDC_SetWindowSize:LayerIdx <- $r3
	@DEBUG_VALUE: HAL_LTDC_SetWindowSize:YSize <- $r2
	@DEBUG_VALUE: HAL_LTDC_SetWindowSize:XSize <- $r1
	.loc	6 0 3                   @ ../Drivers/STM32F7xx_HAL_Driver/Src/stm32f7xx_hal_ltdc.c:0:3
	movs	r0, #52
	.loc	6 849 16 is_stmt 1      @ ../Drivers/STM32F7xx_HAL_Driver/Src/stm32f7xx_hal_ltdc.c:849:16
	strb.w	r6, [r5, #161]
	movs	r7, #1
	movs	r6, #0
.Ltmp134:
	@DEBUG_VALUE: HAL_LTDC_SetWindowSize:pLayerCfg <- $r4
	.loc	6 852 16                @ ../Drivers/STM32F7xx_HAL_Driver/Src/stm32f7xx_hal_ltdc.c:852:16
	mla	r4, r3, r0, r5
.Ltmp135:
	.loc	6 846 3                 @ ../Drivers/STM32F7xx_HAL_Driver/Src/stm32f7xx_hal_ltdc.c:846:3
	strb.w	r7, [r5, #160]
.Ltmp136:
	.loc	6 878 3                 @ ../Drivers/STM32F7xx_HAL_Driver/Src/stm32f7xx_hal_ltdc.c:878:3
	mov	r0, r5
	.loc	6 864 23                @ ../Drivers/STM32F7xx_HAL_Driver/Src/stm32f7xx_hal_ltdc.c:864:23
	str	r6, [r4, #56]!
	.loc	6 865 23                @ ../Drivers/STM32F7xx_HAL_Driver/Src/stm32f7xx_hal_ltdc.c:865:23
	strd	r1, r6, [r4, #4]
	.loc	6 869 23                @ ../Drivers/STM32F7xx_HAL_Driver/Src/stm32f7xx_hal_ltdc.c:869:23
	str	r2, [r4, #12]
	.loc	6 872 25                @ ../Drivers/STM32F7xx_HAL_Driver/Src/stm32f7xx_hal_ltdc.c:872:25
	strd	r1, r2, [r4, #40]
	.loc	6 878 3                 @ ../Drivers/STM32F7xx_HAL_Driver/Src/stm32f7xx_hal_ltdc.c:878:3
	mov	r1, r4
.Ltmp137:
	mov	r2, r3
.Ltmp138:
	bl	LTDC_SetConfig
.Ltmp139:
	.loc	6 881 10                @ ../Drivers/STM32F7xx_HAL_Driver/Src/stm32f7xx_hal_ltdc.c:881:10
	ldr	r0, [r5]
	.loc	6 881 25 is_stmt 0      @ ../Drivers/STM32F7xx_HAL_Driver/Src/stm32f7xx_hal_ltdc.c:881:25
	str	r7, [r0, #36]
.Ltmp140:
	.loc	6 887 3 is_stmt 1       @ ../Drivers/STM32F7xx_HAL_Driver/Src/stm32f7xx_hal_ltdc.c:887:3
	strb.w	r6, [r5, #160]
.Ltmp141:
	.loc	6 884 16                @ ../Drivers/STM32F7xx_HAL_Driver/Src/stm32f7xx_hal_ltdc.c:884:16
	strb.w	r7, [r5, #161]
.Ltmp142:
.LBB18_2:
	@DEBUG_VALUE: HAL_LTDC_SetWindowSize:hltdc <- $r5
	.loc	6 890 1                 @ ../Drivers/STM32F7xx_HAL_Driver/Src/stm32f7xx_hal_ltdc.c:890:1
	uxtb	r0, r6
	add	sp, #4
	pop	{r4, r5, r6, r7, pc}
.Ltmp143:
.Lfunc_end18:
	.size	HAL_LTDC_SetWindowSize, .Lfunc_end18-HAL_LTDC_SetWindowSize
	.cfi_endproc
	.cantunwind
	.fnend
                                        @ -- End function
	.section	.text.HAL_LTDC_SetWindowPosition,"ax",%progbits
	.hidden	HAL_LTDC_SetWindowPosition @ -- Begin function HAL_LTDC_SetWindowPosition
	.globl	HAL_LTDC_SetWindowPosition
	.p2align	1
	.type	HAL_LTDC_SetWindowPosition,%function
	.code	16                      @ @HAL_LTDC_SetWindowPosition
	.thumb_func
HAL_LTDC_SetWindowPosition:
.Lfunc_begin19:
	.loc	6 904 0                 @ ../Drivers/STM32F7xx_HAL_Driver/Src/stm32f7xx_hal_ltdc.c:904:0
	.fnstart
	.cfi_startproc
@ %bb.0:
	.save	{r4, r5, r6, r7, lr}
	.pad	#4
	push	{r3, r4, r5, r6, r7, lr}
	.cfi_def_cfa_offset 24
	.cfi_offset lr, -4
	.cfi_offset r7, -8
	.cfi_offset r6, -12
	.cfi_offset r5, -16
	.cfi_offset r4, -20
	@DEBUG_VALUE: HAL_LTDC_SetWindowPosition:hltdc <- $r0
	@DEBUG_VALUE: HAL_LTDC_SetWindowPosition:X0 <- $r1
	@DEBUG_VALUE: HAL_LTDC_SetWindowPosition:Y0 <- $r2
	@DEBUG_VALUE: HAL_LTDC_SetWindowPosition:LayerIdx <- $r3
.Ltmp144:
	.loc	6 908 3 prologue_end    @ ../Drivers/STM32F7xx_HAL_Driver/Src/stm32f7xx_hal_ltdc.c:908:3
	ldrb.w	r4, [r0, #160]
	mov	r5, r0
	@DEBUG_VALUE: HAL_LTDC_SetWindowPosition:LayerIdx <- $r3
	@DEBUG_VALUE: HAL_LTDC_SetWindowPosition:Y0 <- $r2
	@DEBUG_VALUE: HAL_LTDC_SetWindowPosition:X0 <- $r1
.Ltmp145:
	@DEBUG_VALUE: HAL_LTDC_SetWindowPosition:hltdc <- $r5
	.loc	6 0 3 is_stmt 0         @ ../Drivers/STM32F7xx_HAL_Driver/Src/stm32f7xx_hal_ltdc.c:0:3
	movs	r0, #2
.Ltmp146:
	.loc	6 908 3                 @ ../Drivers/STM32F7xx_HAL_Driver/Src/stm32f7xx_hal_ltdc.c:908:3
	cmp	r4, #1
	beq	.LBB19_2
.Ltmp147:
@ %bb.1:
	@DEBUG_VALUE: HAL_LTDC_SetWindowPosition:hltdc <- $r5
	@DEBUG_VALUE: HAL_LTDC_SetWindowPosition:LayerIdx <- $r3
	@DEBUG_VALUE: HAL_LTDC_SetWindowPosition:Y0 <- $r2
	@DEBUG_VALUE: HAL_LTDC_SetWindowPosition:X0 <- $r1
	.loc	6 911 16 is_stmt 1      @ ../Drivers/STM32F7xx_HAL_Driver/Src/stm32f7xx_hal_ltdc.c:911:16
	strb.w	r0, [r5, #161]
	movs	r0, #52
	movs	r7, #1
	.loc	6 914 16                @ ../Drivers/STM32F7xx_HAL_Driver/Src/stm32f7xx_hal_ltdc.c:914:16
	mla	r4, r3, r0, r5
.Ltmp148:
	.loc	6 908 3                 @ ../Drivers/STM32F7xx_HAL_Driver/Src/stm32f7xx_hal_ltdc.c:908:3
	strb.w	r7, [r5, #160]
.Ltmp149:
	.loc	6 924 23                @ ../Drivers/STM32F7xx_HAL_Driver/Src/stm32f7xx_hal_ltdc.c:924:23
	str	r1, [r4, #56]!
.Ltmp150:
	@DEBUG_VALUE: HAL_LTDC_SetWindowPosition:pLayerCfg <- $r4
	.loc	6 925 41                @ ../Drivers/STM32F7xx_HAL_Driver/Src/stm32f7xx_hal_ltdc.c:925:41
	ldrd	r0, r6, [r4, #40]
	.loc	6 925 28 is_stmt 0      @ ../Drivers/STM32F7xx_HAL_Driver/Src/stm32f7xx_hal_ltdc.c:925:28
	add	r0, r1
	.loc	6 929 28 is_stmt 1      @ ../Drivers/STM32F7xx_HAL_Driver/Src/stm32f7xx_hal_ltdc.c:929:28
	adds	r1, r6, r2
.Ltmp151:
	.loc	6 925 23                @ ../Drivers/STM32F7xx_HAL_Driver/Src/stm32f7xx_hal_ltdc.c:925:23
	strd	r0, r2, [r4, #4]
	.loc	6 929 23                @ ../Drivers/STM32F7xx_HAL_Driver/Src/stm32f7xx_hal_ltdc.c:929:23
	str	r1, [r4, #12]
	.loc	6 932 3                 @ ../Drivers/STM32F7xx_HAL_Driver/Src/stm32f7xx_hal_ltdc.c:932:3
	mov	r0, r5
	mov	r1, r4
	mov	r2, r3
.Ltmp152:
	bl	LTDC_SetConfig
.Ltmp153:
	.loc	6 935 10                @ ../Drivers/STM32F7xx_HAL_Driver/Src/stm32f7xx_hal_ltdc.c:935:10
	ldr	r0, [r5]
	.loc	6 935 25 is_stmt 0      @ ../Drivers/STM32F7xx_HAL_Driver/Src/stm32f7xx_hal_ltdc.c:935:25
	str	r7, [r0, #36]
	movs	r0, #0
.Ltmp154:
	.loc	6 941 3 is_stmt 1       @ ../Drivers/STM32F7xx_HAL_Driver/Src/stm32f7xx_hal_ltdc.c:941:3
	strb.w	r0, [r5, #160]
.Ltmp155:
	.loc	6 938 16                @ ../Drivers/STM32F7xx_HAL_Driver/Src/stm32f7xx_hal_ltdc.c:938:16
	strb.w	r7, [r5, #161]
.Ltmp156:
.LBB19_2:
	@DEBUG_VALUE: HAL_LTDC_SetWindowPosition:hltdc <- $r5
	.loc	6 944 1                 @ ../Drivers/STM32F7xx_HAL_Driver/Src/stm32f7xx_hal_ltdc.c:944:1
	uxtb	r0, r0
	add	sp, #4
	pop	{r4, r5, r6, r7, pc}
.Ltmp157:
.Lfunc_end19:
	.size	HAL_LTDC_SetWindowPosition, .Lfunc_end19-HAL_LTDC_SetWindowPosition
	.cfi_endproc
	.cantunwind
	.fnend
                                        @ -- End function
	.section	.text.HAL_LTDC_SetPixelFormat,"ax",%progbits
	.hidden	HAL_LTDC_SetPixelFormat @ -- Begin function HAL_LTDC_SetPixelFormat
	.globl	HAL_LTDC_SetPixelFormat
	.p2align	1
	.type	HAL_LTDC_SetPixelFormat,%function
	.code	16                      @ @HAL_LTDC_SetPixelFormat
	.thumb_func
HAL_LTDC_SetPixelFormat:
.Lfunc_begin20:
	.loc	6 957 0                 @ ../Drivers/STM32F7xx_HAL_Driver/Src/stm32f7xx_hal_ltdc.c:957:0
	.fnstart
	.cfi_startproc
@ %bb.0:
	.save	{r4, r5, r7, lr}
	push	{r4, r5, r7, lr}
	.cfi_def_cfa_offset 16
	.cfi_offset lr, -4
	.cfi_offset r7, -8
	.cfi_offset r5, -12
	.cfi_offset r4, -16
	@DEBUG_VALUE: HAL_LTDC_SetPixelFormat:hltdc <- $r0
	@DEBUG_VALUE: HAL_LTDC_SetPixelFormat:Pixelformat <- $r1
	@DEBUG_VALUE: HAL_LTDC_SetPixelFormat:LayerIdx <- $r2
.Ltmp158:
	.loc	6 961 3 prologue_end    @ ../Drivers/STM32F7xx_HAL_Driver/Src/stm32f7xx_hal_ltdc.c:961:3
	ldrb.w	r3, [r0, #160]
	mov	r4, r0
	@DEBUG_VALUE: HAL_LTDC_SetPixelFormat:LayerIdx <- $r2
	@DEBUG_VALUE: HAL_LTDC_SetPixelFormat:Pixelformat <- $r1
.Ltmp159:
	@DEBUG_VALUE: HAL_LTDC_SetPixelFormat:hltdc <- $r4
	.loc	6 0 3 is_stmt 0         @ ../Drivers/STM32F7xx_HAL_Driver/Src/stm32f7xx_hal_ltdc.c:0:3
	movs	r0, #2
.Ltmp160:
	.loc	6 961 3                 @ ../Drivers/STM32F7xx_HAL_Driver/Src/stm32f7xx_hal_ltdc.c:961:3
	cmp	r3, #1
	beq	.LBB20_2
.Ltmp161:
@ %bb.1:
	@DEBUG_VALUE: HAL_LTDC_SetPixelFormat:hltdc <- $r4
	@DEBUG_VALUE: HAL_LTDC_SetPixelFormat:LayerIdx <- $r2
	@DEBUG_VALUE: HAL_LTDC_SetPixelFormat:Pixelformat <- $r1
	.loc	6 964 16 is_stmt 1      @ ../Drivers/STM32F7xx_HAL_Driver/Src/stm32f7xx_hal_ltdc.c:964:16
	strb.w	r0, [r4, #161]
	movs	r0, #52
	movs	r5, #1
	.loc	6 971 16                @ ../Drivers/STM32F7xx_HAL_Driver/Src/stm32f7xx_hal_ltdc.c:971:16
	mla	r0, r2, r0, r4
.Ltmp162:
	.loc	6 961 3                 @ ../Drivers/STM32F7xx_HAL_Driver/Src/stm32f7xx_hal_ltdc.c:961:3
	strb.w	r5, [r4, #160]
.Ltmp163:
	.loc	6 974 26                @ ../Drivers/STM32F7xx_HAL_Driver/Src/stm32f7xx_hal_ltdc.c:974:26
	str	r1, [r0, #72]
	.loc	6 971 16                @ ../Drivers/STM32F7xx_HAL_Driver/Src/stm32f7xx_hal_ltdc.c:971:16
	add.w	r1, r0, #56
.Ltmp164:
	@DEBUG_VALUE: HAL_LTDC_SetPixelFormat:pLayerCfg <- $r1
	.loc	6 977 3                 @ ../Drivers/STM32F7xx_HAL_Driver/Src/stm32f7xx_hal_ltdc.c:977:3
	mov	r0, r4
	bl	LTDC_SetConfig
.Ltmp165:
	.loc	6 980 10                @ ../Drivers/STM32F7xx_HAL_Driver/Src/stm32f7xx_hal_ltdc.c:980:10
	ldr	r0, [r4]
	.loc	6 980 25 is_stmt 0      @ ../Drivers/STM32F7xx_HAL_Driver/Src/stm32f7xx_hal_ltdc.c:980:25
	str	r5, [r0, #36]
	movs	r0, #0
.Ltmp166:
	.loc	6 986 3 is_stmt 1       @ ../Drivers/STM32F7xx_HAL_Driver/Src/stm32f7xx_hal_ltdc.c:986:3
	strb.w	r0, [r4, #160]
.Ltmp167:
	.loc	6 983 16                @ ../Drivers/STM32F7xx_HAL_Driver/Src/stm32f7xx_hal_ltdc.c:983:16
	strb.w	r5, [r4, #161]
.Ltmp168:
.LBB20_2:
	@DEBUG_VALUE: HAL_LTDC_SetPixelFormat:hltdc <- $r4
	.loc	6 989 1                 @ ../Drivers/STM32F7xx_HAL_Driver/Src/stm32f7xx_hal_ltdc.c:989:1
	uxtb	r0, r0
	pop	{r4, r5, r7, pc}
.Ltmp169:
.Lfunc_end20:
	.size	HAL_LTDC_SetPixelFormat, .Lfunc_end20-HAL_LTDC_SetPixelFormat
	.cfi_endproc
	.cantunwind
	.fnend
                                        @ -- End function
	.section	.text.HAL_LTDC_SetAlpha,"ax",%progbits
	.hidden	HAL_LTDC_SetAlpha       @ -- Begin function HAL_LTDC_SetAlpha
	.globl	HAL_LTDC_SetAlpha
	.p2align	1
	.type	HAL_LTDC_SetAlpha,%function
	.code	16                      @ @HAL_LTDC_SetAlpha
	.thumb_func
HAL_LTDC_SetAlpha:
.Lfunc_begin21:
	.loc	6 1002 0                @ ../Drivers/STM32F7xx_HAL_Driver/Src/stm32f7xx_hal_ltdc.c:1002:0
	.fnstart
	.cfi_startproc
@ %bb.0:
	.save	{r4, r5, r7, lr}
	push	{r4, r5, r7, lr}
	.cfi_def_cfa_offset 16
	.cfi_offset lr, -4
	.cfi_offset r7, -8
	.cfi_offset r5, -12
	.cfi_offset r4, -16
	@DEBUG_VALUE: HAL_LTDC_SetAlpha:hltdc <- $r0
	@DEBUG_VALUE: HAL_LTDC_SetAlpha:Alpha <- $r1
	@DEBUG_VALUE: HAL_LTDC_SetAlpha:LayerIdx <- $r2
.Ltmp170:
	.loc	6 1006 3 prologue_end   @ ../Drivers/STM32F7xx_HAL_Driver/Src/stm32f7xx_hal_ltdc.c:1006:3
	ldrb.w	r3, [r0, #160]
	mov	r4, r0
	@DEBUG_VALUE: HAL_LTDC_SetAlpha:LayerIdx <- $r2
	@DEBUG_VALUE: HAL_LTDC_SetAlpha:Alpha <- $r1
.Ltmp171:
	@DEBUG_VALUE: HAL_LTDC_SetAlpha:hltdc <- $r4
	.loc	6 0 3 is_stmt 0         @ ../Drivers/STM32F7xx_HAL_Driver/Src/stm32f7xx_hal_ltdc.c:0:3
	movs	r0, #2
.Ltmp172:
	.loc	6 1006 3                @ ../Drivers/STM32F7xx_HAL_Driver/Src/stm32f7xx_hal_ltdc.c:1006:3
	cmp	r3, #1
	beq	.LBB21_2
.Ltmp173:
@ %bb.1:
	@DEBUG_VALUE: HAL_LTDC_SetAlpha:hltdc <- $r4
	@DEBUG_VALUE: HAL_LTDC_SetAlpha:LayerIdx <- $r2
	@DEBUG_VALUE: HAL_LTDC_SetAlpha:Alpha <- $r1
	.loc	6 1009 16 is_stmt 1     @ ../Drivers/STM32F7xx_HAL_Driver/Src/stm32f7xx_hal_ltdc.c:1009:16
	strb.w	r0, [r4, #161]
	movs	r0, #52
	movs	r5, #1
	.loc	6 1016 16               @ ../Drivers/STM32F7xx_HAL_Driver/Src/stm32f7xx_hal_ltdc.c:1016:16
	mla	r0, r2, r0, r4
.Ltmp174:
	.loc	6 1006 3                @ ../Drivers/STM32F7xx_HAL_Driver/Src/stm32f7xx_hal_ltdc.c:1006:3
	strb.w	r5, [r4, #160]
.Ltmp175:
	.loc	6 1019 20               @ ../Drivers/STM32F7xx_HAL_Driver/Src/stm32f7xx_hal_ltdc.c:1019:20
	str	r1, [r0, #76]
	.loc	6 1016 16               @ ../Drivers/STM32F7xx_HAL_Driver/Src/stm32f7xx_hal_ltdc.c:1016:16
	add.w	r1, r0, #56
.Ltmp176:
	@DEBUG_VALUE: HAL_LTDC_SetAlpha:pLayerCfg <- $r1
	.loc	6 1022 3                @ ../Drivers/STM32F7xx_HAL_Driver/Src/stm32f7xx_hal_ltdc.c:1022:3
	mov	r0, r4
	bl	LTDC_SetConfig
.Ltmp177:
	.loc	6 1025 10               @ ../Drivers/STM32F7xx_HAL_Driver/Src/stm32f7xx_hal_ltdc.c:1025:10
	ldr	r0, [r4]
	.loc	6 1025 25 is_stmt 0     @ ../Drivers/STM32F7xx_HAL_Driver/Src/stm32f7xx_hal_ltdc.c:1025:25
	str	r5, [r0, #36]
	movs	r0, #0
.Ltmp178:
	.loc	6 1031 3 is_stmt 1      @ ../Drivers/STM32F7xx_HAL_Driver/Src/stm32f7xx_hal_ltdc.c:1031:3
	strb.w	r0, [r4, #160]
.Ltmp179:
	.loc	6 1028 16               @ ../Drivers/STM32F7xx_HAL_Driver/Src/stm32f7xx_hal_ltdc.c:1028:16
	strb.w	r5, [r4, #161]
.Ltmp180:
.LBB21_2:
	@DEBUG_VALUE: HAL_LTDC_SetAlpha:hltdc <- $r4
	.loc	6 1034 1                @ ../Drivers/STM32F7xx_HAL_Driver/Src/stm32f7xx_hal_ltdc.c:1034:1
	uxtb	r0, r0
	pop	{r4, r5, r7, pc}
.Ltmp181:
.Lfunc_end21:
	.size	HAL_LTDC_SetAlpha, .Lfunc_end21-HAL_LTDC_SetAlpha
	.cfi_endproc
	.cantunwind
	.fnend
                                        @ -- End function
	.section	.text.HAL_LTDC_SetAddress,"ax",%progbits
	.hidden	HAL_LTDC_SetAddress     @ -- Begin function HAL_LTDC_SetAddress
	.globl	HAL_LTDC_SetAddress
	.p2align	1
	.type	HAL_LTDC_SetAddress,%function
	.code	16                      @ @HAL_LTDC_SetAddress
	.thumb_func
HAL_LTDC_SetAddress:
.Lfunc_begin22:
	.loc	6 1046 0                @ ../Drivers/STM32F7xx_HAL_Driver/Src/stm32f7xx_hal_ltdc.c:1046:0
	.fnstart
	.cfi_startproc
@ %bb.0:
	.save	{r4, r5, r7, lr}
	push	{r4, r5, r7, lr}
	.cfi_def_cfa_offset 16
	.cfi_offset lr, -4
	.cfi_offset r7, -8
	.cfi_offset r5, -12
	.cfi_offset r4, -16
	@DEBUG_VALUE: HAL_LTDC_SetAddress:hltdc <- $r0
	@DEBUG_VALUE: HAL_LTDC_SetAddress:Address <- $r1
	@DEBUG_VALUE: HAL_LTDC_SetAddress:LayerIdx <- $r2
.Ltmp182:
	.loc	6 1050 3 prologue_end   @ ../Drivers/STM32F7xx_HAL_Driver/Src/stm32f7xx_hal_ltdc.c:1050:3
	ldrb.w	r3, [r0, #160]
	mov	r4, r0
	@DEBUG_VALUE: HAL_LTDC_SetAddress:LayerIdx <- $r2
	@DEBUG_VALUE: HAL_LTDC_SetAddress:Address <- $r1
.Ltmp183:
	@DEBUG_VALUE: HAL_LTDC_SetAddress:hltdc <- $r4
	.loc	6 0 3 is_stmt 0         @ ../Drivers/STM32F7xx_HAL_Driver/Src/stm32f7xx_hal_ltdc.c:0:3
	movs	r0, #2
.Ltmp184:
	.loc	6 1050 3                @ ../Drivers/STM32F7xx_HAL_Driver/Src/stm32f7xx_hal_ltdc.c:1050:3
	cmp	r3, #1
	beq	.LBB22_2
.Ltmp185:
@ %bb.1:
	@DEBUG_VALUE: HAL_LTDC_SetAddress:hltdc <- $r4
	@DEBUG_VALUE: HAL_LTDC_SetAddress:LayerIdx <- $r2
	@DEBUG_VALUE: HAL_LTDC_SetAddress:Address <- $r1
	.loc	6 1053 16 is_stmt 1     @ ../Drivers/STM32F7xx_HAL_Driver/Src/stm32f7xx_hal_ltdc.c:1053:16
	strb.w	r0, [r4, #161]
	movs	r0, #52
	movs	r5, #1
	.loc	6 1059 16               @ ../Drivers/STM32F7xx_HAL_Driver/Src/stm32f7xx_hal_ltdc.c:1059:16
	mla	r0, r2, r0, r4
.Ltmp186:
	.loc	6 1050 3                @ ../Drivers/STM32F7xx_HAL_Driver/Src/stm32f7xx_hal_ltdc.c:1050:3
	strb.w	r5, [r4, #160]
.Ltmp187:
	.loc	6 1062 28               @ ../Drivers/STM32F7xx_HAL_Driver/Src/stm32f7xx_hal_ltdc.c:1062:28
	str	r1, [r0, #92]
	.loc	6 1059 16               @ ../Drivers/STM32F7xx_HAL_Driver/Src/stm32f7xx_hal_ltdc.c:1059:16
	add.w	r1, r0, #56
.Ltmp188:
	@DEBUG_VALUE: HAL_LTDC_SetAddress:pLayerCfg <- $r1
	.loc	6 1065 3                @ ../Drivers/STM32F7xx_HAL_Driver/Src/stm32f7xx_hal_ltdc.c:1065:3
	mov	r0, r4
	bl	LTDC_SetConfig
.Ltmp189:
	.loc	6 1068 10               @ ../Drivers/STM32F7xx_HAL_Driver/Src/stm32f7xx_hal_ltdc.c:1068:10
	ldr	r0, [r4]
	.loc	6 1068 25 is_stmt 0     @ ../Drivers/STM32F7xx_HAL_Driver/Src/stm32f7xx_hal_ltdc.c:1068:25
	str	r5, [r0, #36]
	movs	r0, #0
.Ltmp190:
	.loc	6 1074 3 is_stmt 1      @ ../Drivers/STM32F7xx_HAL_Driver/Src/stm32f7xx_hal_ltdc.c:1074:3
	strb.w	r0, [r4, #160]
.Ltmp191:
	.loc	6 1071 16               @ ../Drivers/STM32F7xx_HAL_Driver/Src/stm32f7xx_hal_ltdc.c:1071:16
	strb.w	r5, [r4, #161]
.Ltmp192:
.LBB22_2:
	@DEBUG_VALUE: HAL_LTDC_SetAddress:hltdc <- $r4
	.loc	6 1077 1                @ ../Drivers/STM32F7xx_HAL_Driver/Src/stm32f7xx_hal_ltdc.c:1077:1
	uxtb	r0, r0
	pop	{r4, r5, r7, pc}
.Ltmp193:
.Lfunc_end22:
	.size	HAL_LTDC_SetAddress, .Lfunc_end22-HAL_LTDC_SetAddress
	.cfi_endproc
	.cantunwind
	.fnend
                                        @ -- End function
	.section	.text.HAL_LTDC_SetPitch,"ax",%progbits
	.hidden	HAL_LTDC_SetPitch       @ -- Begin function HAL_LTDC_SetPitch
	.globl	HAL_LTDC_SetPitch
	.p2align	2
	.type	HAL_LTDC_SetPitch,%function
	.code	16                      @ @HAL_LTDC_SetPitch
	.thumb_func
HAL_LTDC_SetPitch:
.Lfunc_begin23:
	.loc	6 1093 0                @ ../Drivers/STM32F7xx_HAL_Driver/Src/stm32f7xx_hal_ltdc.c:1093:0
	.fnstart
	.cfi_startproc
@ %bb.0:
	@DEBUG_VALUE: HAL_LTDC_SetPitch:hltdc <- $r0
	@DEBUG_VALUE: HAL_LTDC_SetPitch:hltdc <- $r0
	@DEBUG_VALUE: HAL_LTDC_SetPitch:LinePitchInPixels <- $r1
	@DEBUG_VALUE: HAL_LTDC_SetPitch:LinePitchInPixels <- $r1
	@DEBUG_VALUE: HAL_LTDC_SetPitch:LayerIdx <- $r2
	@DEBUG_VALUE: HAL_LTDC_SetPitch:LayerIdx <- $r2
	@DEBUG_VALUE: HAL_LTDC_SetPitch:tmp <- 0
	@DEBUG_VALUE: HAL_LTDC_SetPitch:pitchUpdate <- 0
	@DEBUG_VALUE: HAL_LTDC_SetPitch:pixelFormat <- 0
	.loc	6 1099 3 prologue_end   @ ../Drivers/STM32F7xx_HAL_Driver/Src/stm32f7xx_hal_ltdc.c:1099:3
	ldrb.w	r12, [r0, #160]
	movs	r3, #2
.Ltmp194:
	.loc	6 1099 3 is_stmt 0      @ ../Drivers/STM32F7xx_HAL_Driver/Src/stm32f7xx_hal_ltdc.c:1099:3
	cmp.w	r12, #1
	beq	.LBB23_2
.Ltmp195:
@ %bb.1:
	@DEBUG_VALUE: HAL_LTDC_SetPitch:LayerIdx <- $r2
	@DEBUG_VALUE: HAL_LTDC_SetPitch:LinePitchInPixels <- $r1
	@DEBUG_VALUE: HAL_LTDC_SetPitch:hltdc <- $r0
	.loc	6 0 3                   @ ../Drivers/STM32F7xx_HAL_Driver/Src/stm32f7xx_hal_ltdc.c:0:3
	.save	{r4, lr}
	push	{r4, lr}
	.cfi_def_cfa_offset 8
	.cfi_offset lr, -4
	.cfi_offset r4, -8
	.loc	6 1102 16 is_stmt 1     @ ../Drivers/STM32F7xx_HAL_Driver/Src/stm32f7xx_hal_ltdc.c:1102:16
	strb.w	r3, [r0, #161]
	.loc	6 1108 43               @ ../Drivers/STM32F7xx_HAL_Driver/Src/stm32f7xx_hal_ltdc.c:1108:43
	movs	r3, #52
	mov.w	r12, #1
	mov.w	lr, #1
.Ltmp196:
	.loc	6 1099 3                @ ../Drivers/STM32F7xx_HAL_Driver/Src/stm32f7xx_hal_ltdc.c:1099:3
	strb.w	r12, [r0, #160]
.Ltmp197:
	.loc	6 1108 43               @ ../Drivers/STM32F7xx_HAL_Driver/Src/stm32f7xx_hal_ltdc.c:1108:43
	mla	r3, r2, r3, r0
	ldr	r4, [r3, #72]
.Ltmp198:
	@DEBUG_VALUE: HAL_LTDC_SetPitch:pixelFormat <- $r4
	.loc	6 1110 6                @ ../Drivers/STM32F7xx_HAL_Driver/Src/stm32f7xx_hal_ltdc.c:1110:6
	cmp	r4, #7
	itt	ls
	ldrls	r3, __arm_cp.23_0
	ldrls.w	lr, [r3, r4, lsl #2]
.Ltmp199:
	@DEBUG_VALUE: HAL_LTDC_SetPitch:tmp <- $lr
	.loc	6 1133 3                @ ../Drivers/STM32F7xx_HAL_Driver/Src/stm32f7xx_hal_ltdc.c:1133:3
	ldr	r3, [r0]
	.loc	6 1130 44               @ ../Drivers/STM32F7xx_HAL_Driver/Src/stm32f7xx_hal_ltdc.c:1130:44
	mul	r1, r1, lr
.Ltmp200:
	.loc	6 1133 3                @ ../Drivers/STM32F7xx_HAL_Driver/Src/stm32f7xx_hal_ltdc.c:1133:3
	add.w	r2, r3, r2, lsl #7
.Ltmp201:
	.loc	6 1133 38 is_stmt 0     @ ../Drivers/STM32F7xx_HAL_Driver/Src/stm32f7xx_hal_ltdc.c:1133:38
	ldr.w	r3, [r2, #176]
	bfc	r3, #16, #13
	str.w	r3, [r2, #176]
	ldr	r3, __arm_cp.23_1
	.loc	6 1136 14 is_stmt 1     @ ../Drivers/STM32F7xx_HAL_Driver/Src/stm32f7xx_hal_ltdc.c:1136:14
	ldr	r4, [r3]
.Ltmp202:
	orr	r4, r4, #1
	str	r4, [r3]
	.loc	6 1139 38               @ ../Drivers/STM32F7xx_HAL_Driver/Src/stm32f7xx_hal_ltdc.c:1139:38
	ldr.w	r4, [r2, #176]
	orr.w	r1, r4, r1, lsl #16
	str.w	r1, [r2, #176]
	.loc	6 1142 14               @ ../Drivers/STM32F7xx_HAL_Driver/Src/stm32f7xx_hal_ltdc.c:1142:14
	ldr	r1, [r3]
	orr	r1, r1, #1
	str	r1, [r3]
	movs	r3, #0
.Ltmp203:
	.loc	6 1148 3                @ ../Drivers/STM32F7xx_HAL_Driver/Src/stm32f7xx_hal_ltdc.c:1148:3
	strb.w	r3, [r0, #160]
.Ltmp204:
	.loc	6 1145 16               @ ../Drivers/STM32F7xx_HAL_Driver/Src/stm32f7xx_hal_ltdc.c:1145:16
	strb.w	r12, [r0, #161]
	pop.w	{r4, lr}
.Ltmp205:
.LBB23_2:
	@DEBUG_VALUE: HAL_LTDC_SetPitch:hltdc <- $r0
	.loc	6 1151 1                @ ../Drivers/STM32F7xx_HAL_Driver/Src/stm32f7xx_hal_ltdc.c:1151:1
	uxtb	r0, r3
	bx	lr
.Ltmp206:
	.p2align	2
@ %bb.3:
	.loc	6 0 1 is_stmt 0         @ ../Drivers/STM32F7xx_HAL_Driver/Src/stm32f7xx_hal_ltdc.c:0:1
__arm_cp.23_0:
	.long	.Lswitch.table.HAL_LTDC_SetPitch_NoReload
.Lcpi_end5:
	.size	__arm_cp.23_0, .Lcpi_end5-__arm_cp.23_0
__arm_cp.23_1:
	.long	1073834020              @ 0x40016824
.Lcpi_end6:
	.size	__arm_cp.23_1, .Lcpi_end6-__arm_cp.23_1
.Lfunc_end23:
	.size	HAL_LTDC_SetPitch, .Lfunc_end23-HAL_LTDC_SetPitch
	.cfi_endproc
	.cantunwind
	.fnend
                                        @ -- End function
	.section	.text.HAL_LTDC_ProgramLineEvent,"ax",%progbits
	.hidden	HAL_LTDC_ProgramLineEvent @ -- Begin function HAL_LTDC_ProgramLineEvent
	.globl	HAL_LTDC_ProgramLineEvent
	.p2align	2
	.type	HAL_LTDC_ProgramLineEvent,%function
	.code	16                      @ @HAL_LTDC_ProgramLineEvent
	.thumb_func
HAL_LTDC_ProgramLineEvent:
.Lfunc_begin24:
	.loc	6 1161 0 is_stmt 1      @ ../Drivers/STM32F7xx_HAL_Driver/Src/stm32f7xx_hal_ltdc.c:1161:0
	.fnstart
	.cfi_startproc
@ %bb.0:
	@DEBUG_VALUE: HAL_LTDC_ProgramLineEvent:hltdc <- $r0
	@DEBUG_VALUE: HAL_LTDC_ProgramLineEvent:hltdc <- $r0
	@DEBUG_VALUE: HAL_LTDC_ProgramLineEvent:Line <- $r1
	@DEBUG_VALUE: HAL_LTDC_ProgramLineEvent:Line <- $r1
	.loc	6 1163 3 prologue_end   @ ../Drivers/STM32F7xx_HAL_Driver/Src/stm32f7xx_hal_ltdc.c:1163:3
	ldrb.w	r3, [r0, #160]
	movs	r2, #2
.Ltmp207:
	.loc	6 1163 3 is_stmt 0      @ ../Drivers/STM32F7xx_HAL_Driver/Src/stm32f7xx_hal_ltdc.c:1163:3
	cmp	r3, #1
	beq	.LBB24_2
.Ltmp208:
@ %bb.1:
	@DEBUG_VALUE: HAL_LTDC_ProgramLineEvent:Line <- $r1
	@DEBUG_VALUE: HAL_LTDC_ProgramLineEvent:hltdc <- $r0
	.loc	6 1166 16 is_stmt 1     @ ../Drivers/STM32F7xx_HAL_Driver/Src/stm32f7xx_hal_ltdc.c:1166:16
	strb.w	r2, [r0, #161]
	.loc	6 1172 3                @ ../Drivers/STM32F7xx_HAL_Driver/Src/stm32f7xx_hal_ltdc.c:1172:3
	ldr	r2, [r0]
	ldr	r3, [r2, #52]
	orr	r3, r3, #1
	str	r3, [r2, #52]
	.loc	6 1175 15               @ ../Drivers/STM32F7xx_HAL_Driver/Src/stm32f7xx_hal_ltdc.c:1175:15
	ldr	r2, __arm_cp.24_0
	str	r1, [r2]
	movs	r2, #0
	movs	r1, #1
.Ltmp209:
	.loc	6 1181 3                @ ../Drivers/STM32F7xx_HAL_Driver/Src/stm32f7xx_hal_ltdc.c:1181:3
	strb.w	r2, [r0, #160]
.Ltmp210:
	.loc	6 1178 16               @ ../Drivers/STM32F7xx_HAL_Driver/Src/stm32f7xx_hal_ltdc.c:1178:16
	strb.w	r1, [r0, #161]
.LBB24_2:
	@DEBUG_VALUE: HAL_LTDC_ProgramLineEvent:hltdc <- $r0
	.loc	6 1184 1                @ ../Drivers/STM32F7xx_HAL_Driver/Src/stm32f7xx_hal_ltdc.c:1184:1
	uxtb	r0, r2
	bx	lr
.Ltmp211:
	.p2align	2
@ %bb.3:
	.loc	6 0 1 is_stmt 0         @ ../Drivers/STM32F7xx_HAL_Driver/Src/stm32f7xx_hal_ltdc.c:0:1
__arm_cp.24_0:
	.long	1073834048              @ 0x40016840
.Lcpi_end7:
	.size	__arm_cp.24_0, .Lcpi_end7-__arm_cp.24_0
.Lfunc_end24:
	.size	HAL_LTDC_ProgramLineEvent, .Lfunc_end24-HAL_LTDC_ProgramLineEvent
	.cfi_endproc
	.cantunwind
	.fnend
                                        @ -- End function
	.section	.text.HAL_LTDC_Reload,"ax",%progbits
	.hidden	HAL_LTDC_Reload         @ -- Begin function HAL_LTDC_Reload
	.globl	HAL_LTDC_Reload
	.p2align	1
	.type	HAL_LTDC_Reload,%function
	.code	16                      @ @HAL_LTDC_Reload
	.thumb_func
HAL_LTDC_Reload:
.Lfunc_begin25:
	.loc	6 1196 0 is_stmt 1      @ ../Drivers/STM32F7xx_HAL_Driver/Src/stm32f7xx_hal_ltdc.c:1196:0
	.fnstart
	.cfi_startproc
@ %bb.0:
	@DEBUG_VALUE: HAL_LTDC_Reload:hltdc <- $r0
	@DEBUG_VALUE: HAL_LTDC_Reload:hltdc <- $r0
	@DEBUG_VALUE: HAL_LTDC_Reload:ReloadType <- $r1
	@DEBUG_VALUE: HAL_LTDC_Reload:ReloadType <- $r1
	.loc	6 1200 3 prologue_end   @ ../Drivers/STM32F7xx_HAL_Driver/Src/stm32f7xx_hal_ltdc.c:1200:3
	ldrb.w	r3, [r0, #160]
	movs	r2, #2
.Ltmp212:
	.loc	6 1200 3 is_stmt 0      @ ../Drivers/STM32F7xx_HAL_Driver/Src/stm32f7xx_hal_ltdc.c:1200:3
	cmp	r3, #1
	beq	.LBB25_2
.Ltmp213:
@ %bb.1:
	@DEBUG_VALUE: HAL_LTDC_Reload:ReloadType <- $r1
	@DEBUG_VALUE: HAL_LTDC_Reload:hltdc <- $r0
	.loc	6 1203 16 is_stmt 1     @ ../Drivers/STM32F7xx_HAL_Driver/Src/stm32f7xx_hal_ltdc.c:1203:16
	strb.w	r2, [r0, #161]
	.loc	6 1206 3                @ ../Drivers/STM32F7xx_HAL_Driver/Src/stm32f7xx_hal_ltdc.c:1206:3
	ldr	r2, [r0]
	ldr	r3, [r2, #52]
	orr	r3, r3, #8
	str	r3, [r2, #52]
	.loc	6 1209 25               @ ../Drivers/STM32F7xx_HAL_Driver/Src/stm32f7xx_hal_ltdc.c:1209:25
	str	r1, [r2, #36]
	movs	r2, #0
	.loc	6 1212 16               @ ../Drivers/STM32F7xx_HAL_Driver/Src/stm32f7xx_hal_ltdc.c:1212:16
	movs	r1, #1
.Ltmp214:
	.loc	6 1215 3                @ ../Drivers/STM32F7xx_HAL_Driver/Src/stm32f7xx_hal_ltdc.c:1215:3
	strb.w	r2, [r0, #160]
.Ltmp215:
	.loc	6 1212 16               @ ../Drivers/STM32F7xx_HAL_Driver/Src/stm32f7xx_hal_ltdc.c:1212:16
	strb.w	r1, [r0, #161]
.LBB25_2:
	@DEBUG_VALUE: HAL_LTDC_Reload:hltdc <- $r0
	.loc	6 1218 1                @ ../Drivers/STM32F7xx_HAL_Driver/Src/stm32f7xx_hal_ltdc.c:1218:1
	uxtb	r0, r2
	bx	lr
.Ltmp216:
.Lfunc_end25:
	.size	HAL_LTDC_Reload, .Lfunc_end25-HAL_LTDC_Reload
	.cfi_endproc
	.cantunwind
	.fnend
                                        @ -- End function
	.section	.text.HAL_LTDC_ConfigLayer_NoReload,"ax",%progbits
	.hidden	HAL_LTDC_ConfigLayer_NoReload @ -- Begin function HAL_LTDC_ConfigLayer_NoReload
	.globl	HAL_LTDC_ConfigLayer_NoReload
	.p2align	1
	.type	HAL_LTDC_ConfigLayer_NoReload,%function
	.code	16                      @ @HAL_LTDC_ConfigLayer_NoReload
	.thumb_func
HAL_LTDC_ConfigLayer_NoReload:
.Lfunc_begin26:
	.loc	6 1234 0                @ ../Drivers/STM32F7xx_HAL_Driver/Src/stm32f7xx_hal_ltdc.c:1234:0
	.fnstart
	.cfi_startproc
@ %bb.0:
	.save	{r4, r5, r6, r7, lr}
	.pad	#4
	push	{r3, r4, r5, r6, r7, lr}
	.cfi_def_cfa_offset 24
	.cfi_offset lr, -4
	.cfi_offset r7, -8
	.cfi_offset r6, -12
	.cfi_offset r5, -16
	.cfi_offset r4, -20
	@DEBUG_VALUE: HAL_LTDC_ConfigLayer_NoReload:hltdc <- $r0
	@DEBUG_VALUE: HAL_LTDC_ConfigLayer_NoReload:pLayerCfg <- $r1
	@DEBUG_VALUE: HAL_LTDC_ConfigLayer_NoReload:LayerIdx <- $r2
	mov	r6, r1
.Ltmp217:
	.loc	6 1236 3 prologue_end   @ ../Drivers/STM32F7xx_HAL_Driver/Src/stm32f7xx_hal_ltdc.c:1236:3
	ldrb.w	r1, [r0, #160]
.Ltmp218:
	.loc	6 0 3 is_stmt 0         @ ../Drivers/STM32F7xx_HAL_Driver/Src/stm32f7xx_hal_ltdc.c:0:3
	mov	r4, r0
.Ltmp219:
	@DEBUG_VALUE: HAL_LTDC_ConfigLayer_NoReload:LayerIdx <- $r5
	@DEBUG_VALUE: HAL_LTDC_ConfigLayer_NoReload:pLayerCfg <- $r6
	@DEBUG_VALUE: HAL_LTDC_ConfigLayer_NoReload:hltdc <- $r4
	mov	r5, r2
.Ltmp220:
	movs	r0, #2
.Ltmp221:
	.loc	6 1236 3                @ ../Drivers/STM32F7xx_HAL_Driver/Src/stm32f7xx_hal_ltdc.c:1236:3
	cmp	r1, #1
	beq	.LBB26_2
.Ltmp222:
@ %bb.1:
	@DEBUG_VALUE: HAL_LTDC_ConfigLayer_NoReload:hltdc <- $r4
	@DEBUG_VALUE: HAL_LTDC_ConfigLayer_NoReload:pLayerCfg <- $r6
	.loc	6 1239 16 is_stmt 1     @ ../Drivers/STM32F7xx_HAL_Driver/Src/stm32f7xx_hal_ltdc.c:1239:16
	strb.w	r0, [r4, #161]
	movs	r0, #52
.Ltmp223:
	.loc	6 1236 3                @ ../Drivers/STM32F7xx_HAL_Driver/Src/stm32f7xx_hal_ltdc.c:1236:3
	movs	r7, #1
.Ltmp224:
	.loc	6 1255 31               @ ../Drivers/STM32F7xx_HAL_Driver/Src/stm32f7xx_hal_ltdc.c:1255:31
	mov	r1, r6
	movs	r2, #52
	.loc	6 1255 3 is_stmt 0      @ ../Drivers/STM32F7xx_HAL_Driver/Src/stm32f7xx_hal_ltdc.c:1255:3
	mla	r0, r5, r0, r4
.Ltmp225:
	.loc	6 1236 3 is_stmt 1      @ ../Drivers/STM32F7xx_HAL_Driver/Src/stm32f7xx_hal_ltdc.c:1236:3
	strb.w	r7, [r4, #160]
.Ltmp226:
	.loc	6 1255 3                @ ../Drivers/STM32F7xx_HAL_Driver/Src/stm32f7xx_hal_ltdc.c:1255:3
	adds	r0, #56
	.loc	6 1255 31 is_stmt 0     @ ../Drivers/STM32F7xx_HAL_Driver/Src/stm32f7xx_hal_ltdc.c:1255:31
	bl	__aeabi_memcpy
	.loc	6 1258 3 is_stmt 1      @ ../Drivers/STM32F7xx_HAL_Driver/Src/stm32f7xx_hal_ltdc.c:1258:3
	mov	r0, r4
	mov	r1, r6
	mov	r2, r5
	bl	LTDC_SetConfig
	movs	r0, #0
.Ltmp227:
	.loc	6 1266 3                @ ../Drivers/STM32F7xx_HAL_Driver/Src/stm32f7xx_hal_ltdc.c:1266:3
	strb.w	r0, [r4, #160]
.Ltmp228:
	.loc	6 1263 17               @ ../Drivers/STM32F7xx_HAL_Driver/Src/stm32f7xx_hal_ltdc.c:1263:17
	strb.w	r7, [r4, #161]
.Ltmp229:
.LBB26_2:
	@DEBUG_VALUE: HAL_LTDC_ConfigLayer_NoReload:hltdc <- $r4
	@DEBUG_VALUE: HAL_LTDC_ConfigLayer_NoReload:pLayerCfg <- $r6
	.loc	6 1269 1                @ ../Drivers/STM32F7xx_HAL_Driver/Src/stm32f7xx_hal_ltdc.c:1269:1
	uxtb	r0, r0
	add	sp, #4
	pop	{r4, r5, r6, r7, pc}
.Ltmp230:
.Lfunc_end26:
	.size	HAL_LTDC_ConfigLayer_NoReload, .Lfunc_end26-HAL_LTDC_ConfigLayer_NoReload
	.cfi_endproc
	.cantunwind
	.fnend
                                        @ -- End function
	.section	.text.HAL_LTDC_SetWindowSize_NoReload,"ax",%progbits
	.hidden	HAL_LTDC_SetWindowSize_NoReload @ -- Begin function HAL_LTDC_SetWindowSize_NoReload
	.globl	HAL_LTDC_SetWindowSize_NoReload
	.p2align	1
	.type	HAL_LTDC_SetWindowSize_NoReload,%function
	.code	16                      @ @HAL_LTDC_SetWindowSize_NoReload
	.thumb_func
HAL_LTDC_SetWindowSize_NoReload:
.Lfunc_begin27:
	.loc	6 1284 0                @ ../Drivers/STM32F7xx_HAL_Driver/Src/stm32f7xx_hal_ltdc.c:1284:0
	.fnstart
	.cfi_startproc
@ %bb.0:
	.save	{r4, r5, r6, r7, lr}
	.pad	#4
	push	{r3, r4, r5, r6, r7, lr}
	.cfi_def_cfa_offset 24
	.cfi_offset lr, -4
	.cfi_offset r7, -8
	.cfi_offset r6, -12
	.cfi_offset r5, -16
	.cfi_offset r4, -20
	@DEBUG_VALUE: HAL_LTDC_SetWindowSize_NoReload:hltdc <- $r0
	@DEBUG_VALUE: HAL_LTDC_SetWindowSize_NoReload:XSize <- $r1
	@DEBUG_VALUE: HAL_LTDC_SetWindowSize_NoReload:YSize <- $r2
	@DEBUG_VALUE: HAL_LTDC_SetWindowSize_NoReload:LayerIdx <- $r3
	mov	r5, r0
	@DEBUG_VALUE: HAL_LTDC_SetWindowSize_NoReload:LayerIdx <- $r3
	@DEBUG_VALUE: HAL_LTDC_SetWindowSize_NoReload:YSize <- $r2
	@DEBUG_VALUE: HAL_LTDC_SetWindowSize_NoReload:XSize <- $r1
.Ltmp231:
	@DEBUG_VALUE: HAL_LTDC_SetWindowSize_NoReload:hltdc <- $r5
	.loc	6 1288 3 prologue_end   @ ../Drivers/STM32F7xx_HAL_Driver/Src/stm32f7xx_hal_ltdc.c:1288:3
	ldrb.w	r0, [r0, #160]
	movs	r6, #2
.Ltmp232:
	.loc	6 1288 3 is_stmt 0      @ ../Drivers/STM32F7xx_HAL_Driver/Src/stm32f7xx_hal_ltdc.c:1288:3
	cmp	r0, #1
	beq	.LBB27_2
.Ltmp233:
@ %bb.1:
	@DEBUG_VALUE: HAL_LTDC_SetWindowSize_NoReload:hltdc <- $r5
	@DEBUG_VALUE: HAL_LTDC_SetWindowSize_NoReload:LayerIdx <- $r3
	@DEBUG_VALUE: HAL_LTDC_SetWindowSize_NoReload:YSize <- $r2
	@DEBUG_VALUE: HAL_LTDC_SetWindowSize_NoReload:XSize <- $r1
	.loc	6 0 3                   @ ../Drivers/STM32F7xx_HAL_Driver/Src/stm32f7xx_hal_ltdc.c:0:3
	movs	r0, #52
	.loc	6 1291 16 is_stmt 1     @ ../Drivers/STM32F7xx_HAL_Driver/Src/stm32f7xx_hal_ltdc.c:1291:16
	strb.w	r6, [r5, #161]
.Ltmp234:
	.loc	6 1288 3                @ ../Drivers/STM32F7xx_HAL_Driver/Src/stm32f7xx_hal_ltdc.c:1288:3
	movs	r7, #1
	movs	r6, #0
.Ltmp235:
	@DEBUG_VALUE: HAL_LTDC_SetWindowSize_NoReload:pLayerCfg <- $r4
	.loc	6 1294 16               @ ../Drivers/STM32F7xx_HAL_Driver/Src/stm32f7xx_hal_ltdc.c:1294:16
	mla	r4, r3, r0, r5
.Ltmp236:
	.loc	6 1288 3                @ ../Drivers/STM32F7xx_HAL_Driver/Src/stm32f7xx_hal_ltdc.c:1288:3
	strb.w	r7, [r5, #160]
.Ltmp237:
	.loc	6 1320 3                @ ../Drivers/STM32F7xx_HAL_Driver/Src/stm32f7xx_hal_ltdc.c:1320:3
	mov	r0, r5
	.loc	6 1306 23               @ ../Drivers/STM32F7xx_HAL_Driver/Src/stm32f7xx_hal_ltdc.c:1306:23
	str	r6, [r4, #56]!
	.loc	6 1307 23               @ ../Drivers/STM32F7xx_HAL_Driver/Src/stm32f7xx_hal_ltdc.c:1307:23
	strd	r1, r6, [r4, #4]
	.loc	6 1311 23               @ ../Drivers/STM32F7xx_HAL_Driver/Src/stm32f7xx_hal_ltdc.c:1311:23
	str	r2, [r4, #12]
	.loc	6 1314 25               @ ../Drivers/STM32F7xx_HAL_Driver/Src/stm32f7xx_hal_ltdc.c:1314:25
	strd	r1, r2, [r4, #40]
	.loc	6 1320 3                @ ../Drivers/STM32F7xx_HAL_Driver/Src/stm32f7xx_hal_ltdc.c:1320:3
	mov	r1, r4
.Ltmp238:
	mov	r2, r3
.Ltmp239:
	bl	LTDC_SetConfig
.Ltmp240:
	.loc	6 1328 3                @ ../Drivers/STM32F7xx_HAL_Driver/Src/stm32f7xx_hal_ltdc.c:1328:3
	strb.w	r6, [r5, #160]
.Ltmp241:
	.loc	6 1325 16               @ ../Drivers/STM32F7xx_HAL_Driver/Src/stm32f7xx_hal_ltdc.c:1325:16
	strb.w	r7, [r5, #161]
.Ltmp242:
.LBB27_2:
	@DEBUG_VALUE: HAL_LTDC_SetWindowSize_NoReload:hltdc <- $r5
	.loc	6 1331 1                @ ../Drivers/STM32F7xx_HAL_Driver/Src/stm32f7xx_hal_ltdc.c:1331:1
	uxtb	r0, r6
	add	sp, #4
	pop	{r4, r5, r6, r7, pc}
.Ltmp243:
.Lfunc_end27:
	.size	HAL_LTDC_SetWindowSize_NoReload, .Lfunc_end27-HAL_LTDC_SetWindowSize_NoReload
	.cfi_endproc
	.cantunwind
	.fnend
                                        @ -- End function
	.section	.text.HAL_LTDC_SetWindowPosition_NoReload,"ax",%progbits
	.hidden	HAL_LTDC_SetWindowPosition_NoReload @ -- Begin function HAL_LTDC_SetWindowPosition_NoReload
	.globl	HAL_LTDC_SetWindowPosition_NoReload
	.p2align	1
	.type	HAL_LTDC_SetWindowPosition_NoReload,%function
	.code	16                      @ @HAL_LTDC_SetWindowPosition_NoReload
	.thumb_func
HAL_LTDC_SetWindowPosition_NoReload:
.Lfunc_begin28:
	.loc	6 1346 0                @ ../Drivers/STM32F7xx_HAL_Driver/Src/stm32f7xx_hal_ltdc.c:1346:0
	.fnstart
	.cfi_startproc
@ %bb.0:
	.save	{r4, r5, r6, r7, lr}
	.pad	#4
	push	{r3, r4, r5, r6, r7, lr}
	.cfi_def_cfa_offset 24
	.cfi_offset lr, -4
	.cfi_offset r7, -8
	.cfi_offset r6, -12
	.cfi_offset r5, -16
	.cfi_offset r4, -20
	@DEBUG_VALUE: HAL_LTDC_SetWindowPosition_NoReload:hltdc <- $r0
	@DEBUG_VALUE: HAL_LTDC_SetWindowPosition_NoReload:X0 <- $r1
	@DEBUG_VALUE: HAL_LTDC_SetWindowPosition_NoReload:Y0 <- $r2
	@DEBUG_VALUE: HAL_LTDC_SetWindowPosition_NoReload:LayerIdx <- $r3
.Ltmp244:
	.loc	6 1350 3 prologue_end   @ ../Drivers/STM32F7xx_HAL_Driver/Src/stm32f7xx_hal_ltdc.c:1350:3
	ldrb.w	r4, [r0, #160]
	mov	r5, r0
	@DEBUG_VALUE: HAL_LTDC_SetWindowPosition_NoReload:LayerIdx <- $r3
	@DEBUG_VALUE: HAL_LTDC_SetWindowPosition_NoReload:Y0 <- $r2
	@DEBUG_VALUE: HAL_LTDC_SetWindowPosition_NoReload:X0 <- $r1
.Ltmp245:
	@DEBUG_VALUE: HAL_LTDC_SetWindowPosition_NoReload:hltdc <- $r5
	.loc	6 0 3 is_stmt 0         @ ../Drivers/STM32F7xx_HAL_Driver/Src/stm32f7xx_hal_ltdc.c:0:3
	movs	r0, #2
.Ltmp246:
	.loc	6 1350 3                @ ../Drivers/STM32F7xx_HAL_Driver/Src/stm32f7xx_hal_ltdc.c:1350:3
	cmp	r4, #1
	beq	.LBB28_2
.Ltmp247:
@ %bb.1:
	@DEBUG_VALUE: HAL_LTDC_SetWindowPosition_NoReload:hltdc <- $r5
	@DEBUG_VALUE: HAL_LTDC_SetWindowPosition_NoReload:LayerIdx <- $r3
	@DEBUG_VALUE: HAL_LTDC_SetWindowPosition_NoReload:Y0 <- $r2
	@DEBUG_VALUE: HAL_LTDC_SetWindowPosition_NoReload:X0 <- $r1
	.loc	6 1353 16 is_stmt 1     @ ../Drivers/STM32F7xx_HAL_Driver/Src/stm32f7xx_hal_ltdc.c:1353:16
	strb.w	r0, [r5, #161]
	movs	r0, #52
.Ltmp248:
	.loc	6 1350 3                @ ../Drivers/STM32F7xx_HAL_Driver/Src/stm32f7xx_hal_ltdc.c:1350:3
	movs	r7, #1
.Ltmp249:
	.loc	6 1356 16               @ ../Drivers/STM32F7xx_HAL_Driver/Src/stm32f7xx_hal_ltdc.c:1356:16
	mla	r4, r3, r0, r5
.Ltmp250:
	.loc	6 1350 3                @ ../Drivers/STM32F7xx_HAL_Driver/Src/stm32f7xx_hal_ltdc.c:1350:3
	strb.w	r7, [r5, #160]
.Ltmp251:
	.loc	6 1366 23               @ ../Drivers/STM32F7xx_HAL_Driver/Src/stm32f7xx_hal_ltdc.c:1366:23
	str	r1, [r4, #56]!
.Ltmp252:
	@DEBUG_VALUE: HAL_LTDC_SetWindowPosition_NoReload:pLayerCfg <- $r4
	.loc	6 1367 41               @ ../Drivers/STM32F7xx_HAL_Driver/Src/stm32f7xx_hal_ltdc.c:1367:41
	ldrd	r0, r6, [r4, #40]
	.loc	6 1367 28 is_stmt 0     @ ../Drivers/STM32F7xx_HAL_Driver/Src/stm32f7xx_hal_ltdc.c:1367:28
	add	r0, r1
	.loc	6 1371 28 is_stmt 1     @ ../Drivers/STM32F7xx_HAL_Driver/Src/stm32f7xx_hal_ltdc.c:1371:28
	adds	r1, r6, r2
.Ltmp253:
	.loc	6 1367 23               @ ../Drivers/STM32F7xx_HAL_Driver/Src/stm32f7xx_hal_ltdc.c:1367:23
	strd	r0, r2, [r4, #4]
	.loc	6 1371 23               @ ../Drivers/STM32F7xx_HAL_Driver/Src/stm32f7xx_hal_ltdc.c:1371:23
	str	r1, [r4, #12]
	.loc	6 1374 3                @ ../Drivers/STM32F7xx_HAL_Driver/Src/stm32f7xx_hal_ltdc.c:1374:3
	mov	r0, r5
	mov	r1, r4
	mov	r2, r3
.Ltmp254:
	bl	LTDC_SetConfig
.Ltmp255:
	.loc	6 0 3 is_stmt 0         @ ../Drivers/STM32F7xx_HAL_Driver/Src/stm32f7xx_hal_ltdc.c:0:3
	movs	r0, #0
.Ltmp256:
	.loc	6 1382 3 is_stmt 1      @ ../Drivers/STM32F7xx_HAL_Driver/Src/stm32f7xx_hal_ltdc.c:1382:3
	strb.w	r0, [r5, #160]
.Ltmp257:
	.loc	6 1379 16               @ ../Drivers/STM32F7xx_HAL_Driver/Src/stm32f7xx_hal_ltdc.c:1379:16
	strb.w	r7, [r5, #161]
.Ltmp258:
.LBB28_2:
	@DEBUG_VALUE: HAL_LTDC_SetWindowPosition_NoReload:hltdc <- $r5
	.loc	6 1385 1                @ ../Drivers/STM32F7xx_HAL_Driver/Src/stm32f7xx_hal_ltdc.c:1385:1
	uxtb	r0, r0
	add	sp, #4
	pop	{r4, r5, r6, r7, pc}
.Ltmp259:
.Lfunc_end28:
	.size	HAL_LTDC_SetWindowPosition_NoReload, .Lfunc_end28-HAL_LTDC_SetWindowPosition_NoReload
	.cfi_endproc
	.cantunwind
	.fnend
                                        @ -- End function
	.section	.text.HAL_LTDC_SetPixelFormat_NoReload,"ax",%progbits
	.hidden	HAL_LTDC_SetPixelFormat_NoReload @ -- Begin function HAL_LTDC_SetPixelFormat_NoReload
	.globl	HAL_LTDC_SetPixelFormat_NoReload
	.p2align	1
	.type	HAL_LTDC_SetPixelFormat_NoReload,%function
	.code	16                      @ @HAL_LTDC_SetPixelFormat_NoReload
	.thumb_func
HAL_LTDC_SetPixelFormat_NoReload:
.Lfunc_begin29:
	.loc	6 1399 0                @ ../Drivers/STM32F7xx_HAL_Driver/Src/stm32f7xx_hal_ltdc.c:1399:0
	.fnstart
	.cfi_startproc
@ %bb.0:
	.save	{r4, r5, r7, lr}
	push	{r4, r5, r7, lr}
	.cfi_def_cfa_offset 16
	.cfi_offset lr, -4
	.cfi_offset r7, -8
	.cfi_offset r5, -12
	.cfi_offset r4, -16
	@DEBUG_VALUE: HAL_LTDC_SetPixelFormat_NoReload:hltdc <- $r0
	@DEBUG_VALUE: HAL_LTDC_SetPixelFormat_NoReload:Pixelformat <- $r1
	@DEBUG_VALUE: HAL_LTDC_SetPixelFormat_NoReload:LayerIdx <- $r2
.Ltmp260:
	.loc	6 1403 3 prologue_end   @ ../Drivers/STM32F7xx_HAL_Driver/Src/stm32f7xx_hal_ltdc.c:1403:3
	ldrb.w	r3, [r0, #160]
	mov	r4, r0
	@DEBUG_VALUE: HAL_LTDC_SetPixelFormat_NoReload:LayerIdx <- $r2
	@DEBUG_VALUE: HAL_LTDC_SetPixelFormat_NoReload:Pixelformat <- $r1
.Ltmp261:
	@DEBUG_VALUE: HAL_LTDC_SetPixelFormat_NoReload:hltdc <- $r4
	.loc	6 0 3 is_stmt 0         @ ../Drivers/STM32F7xx_HAL_Driver/Src/stm32f7xx_hal_ltdc.c:0:3
	movs	r0, #2
.Ltmp262:
	.loc	6 1403 3                @ ../Drivers/STM32F7xx_HAL_Driver/Src/stm32f7xx_hal_ltdc.c:1403:3
	cmp	r3, #1
	beq	.LBB29_2
.Ltmp263:
@ %bb.1:
	@DEBUG_VALUE: HAL_LTDC_SetPixelFormat_NoReload:hltdc <- $r4
	@DEBUG_VALUE: HAL_LTDC_SetPixelFormat_NoReload:LayerIdx <- $r2
	@DEBUG_VALUE: HAL_LTDC_SetPixelFormat_NoReload:Pixelformat <- $r1
	.loc	6 1406 16 is_stmt 1     @ ../Drivers/STM32F7xx_HAL_Driver/Src/stm32f7xx_hal_ltdc.c:1406:16
	strb.w	r0, [r4, #161]
	movs	r0, #52
.Ltmp264:
	.loc	6 1403 3                @ ../Drivers/STM32F7xx_HAL_Driver/Src/stm32f7xx_hal_ltdc.c:1403:3
	movs	r5, #1
.Ltmp265:
	.loc	6 1413 16               @ ../Drivers/STM32F7xx_HAL_Driver/Src/stm32f7xx_hal_ltdc.c:1413:16
	mla	r0, r2, r0, r4
.Ltmp266:
	.loc	6 1403 3                @ ../Drivers/STM32F7xx_HAL_Driver/Src/stm32f7xx_hal_ltdc.c:1403:3
	strb.w	r5, [r4, #160]
.Ltmp267:
	.loc	6 1416 26               @ ../Drivers/STM32F7xx_HAL_Driver/Src/stm32f7xx_hal_ltdc.c:1416:26
	str	r1, [r0, #72]
	.loc	6 1413 16               @ ../Drivers/STM32F7xx_HAL_Driver/Src/stm32f7xx_hal_ltdc.c:1413:16
	add.w	r1, r0, #56
.Ltmp268:
	@DEBUG_VALUE: HAL_LTDC_SetPixelFormat_NoReload:pLayerCfg <- $r1
	.loc	6 1419 3                @ ../Drivers/STM32F7xx_HAL_Driver/Src/stm32f7xx_hal_ltdc.c:1419:3
	mov	r0, r4
	bl	LTDC_SetConfig
.Ltmp269:
	.loc	6 0 3 is_stmt 0         @ ../Drivers/STM32F7xx_HAL_Driver/Src/stm32f7xx_hal_ltdc.c:0:3
	movs	r0, #0
.Ltmp270:
	.loc	6 1427 3 is_stmt 1      @ ../Drivers/STM32F7xx_HAL_Driver/Src/stm32f7xx_hal_ltdc.c:1427:3
	strb.w	r0, [r4, #160]
.Ltmp271:
	.loc	6 1424 16               @ ../Drivers/STM32F7xx_HAL_Driver/Src/stm32f7xx_hal_ltdc.c:1424:16
	strb.w	r5, [r4, #161]
.Ltmp272:
.LBB29_2:
	@DEBUG_VALUE: HAL_LTDC_SetPixelFormat_NoReload:hltdc <- $r4
	.loc	6 1430 1                @ ../Drivers/STM32F7xx_HAL_Driver/Src/stm32f7xx_hal_ltdc.c:1430:1
	uxtb	r0, r0
	pop	{r4, r5, r7, pc}
.Ltmp273:
.Lfunc_end29:
	.size	HAL_LTDC_SetPixelFormat_NoReload, .Lfunc_end29-HAL_LTDC_SetPixelFormat_NoReload
	.cfi_endproc
	.cantunwind
	.fnend
                                        @ -- End function
	.section	.text.HAL_LTDC_SetAlpha_NoReload,"ax",%progbits
	.hidden	HAL_LTDC_SetAlpha_NoReload @ -- Begin function HAL_LTDC_SetAlpha_NoReload
	.globl	HAL_LTDC_SetAlpha_NoReload
	.p2align	1
	.type	HAL_LTDC_SetAlpha_NoReload,%function
	.code	16                      @ @HAL_LTDC_SetAlpha_NoReload
	.thumb_func
HAL_LTDC_SetAlpha_NoReload:
.Lfunc_begin30:
	.loc	6 1444 0                @ ../Drivers/STM32F7xx_HAL_Driver/Src/stm32f7xx_hal_ltdc.c:1444:0
	.fnstart
	.cfi_startproc
@ %bb.0:
	.save	{r4, r5, r7, lr}
	push	{r4, r5, r7, lr}
	.cfi_def_cfa_offset 16
	.cfi_offset lr, -4
	.cfi_offset r7, -8
	.cfi_offset r5, -12
	.cfi_offset r4, -16
	@DEBUG_VALUE: HAL_LTDC_SetAlpha_NoReload:hltdc <- $r0
	@DEBUG_VALUE: HAL_LTDC_SetAlpha_NoReload:Alpha <- $r1
	@DEBUG_VALUE: HAL_LTDC_SetAlpha_NoReload:LayerIdx <- $r2
.Ltmp274:
	.loc	6 1448 3 prologue_end   @ ../Drivers/STM32F7xx_HAL_Driver/Src/stm32f7xx_hal_ltdc.c:1448:3
	ldrb.w	r3, [r0, #160]
	mov	r4, r0
	@DEBUG_VALUE: HAL_LTDC_SetAlpha_NoReload:LayerIdx <- $r2
	@DEBUG_VALUE: HAL_LTDC_SetAlpha_NoReload:Alpha <- $r1
.Ltmp275:
	@DEBUG_VALUE: HAL_LTDC_SetAlpha_NoReload:hltdc <- $r4
	.loc	6 0 3 is_stmt 0         @ ../Drivers/STM32F7xx_HAL_Driver/Src/stm32f7xx_hal_ltdc.c:0:3
	movs	r0, #2
.Ltmp276:
	.loc	6 1448 3                @ ../Drivers/STM32F7xx_HAL_Driver/Src/stm32f7xx_hal_ltdc.c:1448:3
	cmp	r3, #1
	beq	.LBB30_2
.Ltmp277:
@ %bb.1:
	@DEBUG_VALUE: HAL_LTDC_SetAlpha_NoReload:hltdc <- $r4
	@DEBUG_VALUE: HAL_LTDC_SetAlpha_NoReload:LayerIdx <- $r2
	@DEBUG_VALUE: HAL_LTDC_SetAlpha_NoReload:Alpha <- $r1
	.loc	6 1451 16 is_stmt 1     @ ../Drivers/STM32F7xx_HAL_Driver/Src/stm32f7xx_hal_ltdc.c:1451:16
	strb.w	r0, [r4, #161]
	movs	r0, #52
.Ltmp278:
	.loc	6 1448 3                @ ../Drivers/STM32F7xx_HAL_Driver/Src/stm32f7xx_hal_ltdc.c:1448:3
	movs	r5, #1
.Ltmp279:
	.loc	6 1458 16               @ ../Drivers/STM32F7xx_HAL_Driver/Src/stm32f7xx_hal_ltdc.c:1458:16
	mla	r0, r2, r0, r4
.Ltmp280:
	.loc	6 1448 3                @ ../Drivers/STM32F7xx_HAL_Driver/Src/stm32f7xx_hal_ltdc.c:1448:3
	strb.w	r5, [r4, #160]
.Ltmp281:
	.loc	6 1461 20               @ ../Drivers/STM32F7xx_HAL_Driver/Src/stm32f7xx_hal_ltdc.c:1461:20
	str	r1, [r0, #76]
	.loc	6 1458 16               @ ../Drivers/STM32F7xx_HAL_Driver/Src/stm32f7xx_hal_ltdc.c:1458:16
	add.w	r1, r0, #56
.Ltmp282:
	@DEBUG_VALUE: HAL_LTDC_SetAlpha_NoReload:pLayerCfg <- $r1
	.loc	6 1464 3                @ ../Drivers/STM32F7xx_HAL_Driver/Src/stm32f7xx_hal_ltdc.c:1464:3
	mov	r0, r4
	bl	LTDC_SetConfig
.Ltmp283:
	.loc	6 0 3 is_stmt 0         @ ../Drivers/STM32F7xx_HAL_Driver/Src/stm32f7xx_hal_ltdc.c:0:3
	movs	r0, #0
.Ltmp284:
	.loc	6 1472 3 is_stmt 1      @ ../Drivers/STM32F7xx_HAL_Driver/Src/stm32f7xx_hal_ltdc.c:1472:3
	strb.w	r0, [r4, #160]
.Ltmp285:
	.loc	6 1469 16               @ ../Drivers/STM32F7xx_HAL_Driver/Src/stm32f7xx_hal_ltdc.c:1469:16
	strb.w	r5, [r4, #161]
.Ltmp286:
.LBB30_2:
	@DEBUG_VALUE: HAL_LTDC_SetAlpha_NoReload:hltdc <- $r4
	.loc	6 1475 1                @ ../Drivers/STM32F7xx_HAL_Driver/Src/stm32f7xx_hal_ltdc.c:1475:1
	uxtb	r0, r0
	pop	{r4, r5, r7, pc}
.Ltmp287:
.Lfunc_end30:
	.size	HAL_LTDC_SetAlpha_NoReload, .Lfunc_end30-HAL_LTDC_SetAlpha_NoReload
	.cfi_endproc
	.cantunwind
	.fnend
                                        @ -- End function
	.section	.text.HAL_LTDC_SetAddress_NoReload,"ax",%progbits
	.hidden	HAL_LTDC_SetAddress_NoReload @ -- Begin function HAL_LTDC_SetAddress_NoReload
	.globl	HAL_LTDC_SetAddress_NoReload
	.p2align	1
	.type	HAL_LTDC_SetAddress_NoReload,%function
	.code	16                      @ @HAL_LTDC_SetAddress_NoReload
	.thumb_func
HAL_LTDC_SetAddress_NoReload:
.Lfunc_begin31:
	.loc	6 1489 0                @ ../Drivers/STM32F7xx_HAL_Driver/Src/stm32f7xx_hal_ltdc.c:1489:0
	.fnstart
	.cfi_startproc
@ %bb.0:
	.save	{r4, r5, r7, lr}
	push	{r4, r5, r7, lr}
	.cfi_def_cfa_offset 16
	.cfi_offset lr, -4
	.cfi_offset r7, -8
	.cfi_offset r5, -12
	.cfi_offset r4, -16
	@DEBUG_VALUE: HAL_LTDC_SetAddress_NoReload:hltdc <- $r0
	@DEBUG_VALUE: HAL_LTDC_SetAddress_NoReload:Address <- $r1
	@DEBUG_VALUE: HAL_LTDC_SetAddress_NoReload:LayerIdx <- $r2
.Ltmp288:
	.loc	6 1493 3 prologue_end   @ ../Drivers/STM32F7xx_HAL_Driver/Src/stm32f7xx_hal_ltdc.c:1493:3
	ldrb.w	r3, [r0, #160]
	mov	r4, r0
	@DEBUG_VALUE: HAL_LTDC_SetAddress_NoReload:LayerIdx <- $r2
	@DEBUG_VALUE: HAL_LTDC_SetAddress_NoReload:Address <- $r1
.Ltmp289:
	@DEBUG_VALUE: HAL_LTDC_SetAddress_NoReload:hltdc <- $r4
	.loc	6 0 3 is_stmt 0         @ ../Drivers/STM32F7xx_HAL_Driver/Src/stm32f7xx_hal_ltdc.c:0:3
	movs	r0, #2
.Ltmp290:
	.loc	6 1493 3                @ ../Drivers/STM32F7xx_HAL_Driver/Src/stm32f7xx_hal_ltdc.c:1493:3
	cmp	r3, #1
	beq	.LBB31_2
.Ltmp291:
@ %bb.1:
	@DEBUG_VALUE: HAL_LTDC_SetAddress_NoReload:hltdc <- $r4
	@DEBUG_VALUE: HAL_LTDC_SetAddress_NoReload:LayerIdx <- $r2
	@DEBUG_VALUE: HAL_LTDC_SetAddress_NoReload:Address <- $r1
	.loc	6 1496 16 is_stmt 1     @ ../Drivers/STM32F7xx_HAL_Driver/Src/stm32f7xx_hal_ltdc.c:1496:16
	strb.w	r0, [r4, #161]
	movs	r0, #52
.Ltmp292:
	.loc	6 1493 3                @ ../Drivers/STM32F7xx_HAL_Driver/Src/stm32f7xx_hal_ltdc.c:1493:3
	movs	r5, #1
.Ltmp293:
	.loc	6 1502 16               @ ../Drivers/STM32F7xx_HAL_Driver/Src/stm32f7xx_hal_ltdc.c:1502:16
	mla	r0, r2, r0, r4
.Ltmp294:
	.loc	6 1493 3                @ ../Drivers/STM32F7xx_HAL_Driver/Src/stm32f7xx_hal_ltdc.c:1493:3
	strb.w	r5, [r4, #160]
.Ltmp295:
	.loc	6 1505 28               @ ../Drivers/STM32F7xx_HAL_Driver/Src/stm32f7xx_hal_ltdc.c:1505:28
	str	r1, [r0, #92]
	.loc	6 1502 16               @ ../Drivers/STM32F7xx_HAL_Driver/Src/stm32f7xx_hal_ltdc.c:1502:16
	add.w	r1, r0, #56
.Ltmp296:
	@DEBUG_VALUE: HAL_LTDC_SetAddress_NoReload:pLayerCfg <- $r1
	.loc	6 1508 3                @ ../Drivers/STM32F7xx_HAL_Driver/Src/stm32f7xx_hal_ltdc.c:1508:3
	mov	r0, r4
	bl	LTDC_SetConfig
.Ltmp297:
	.loc	6 0 3 is_stmt 0         @ ../Drivers/STM32F7xx_HAL_Driver/Src/stm32f7xx_hal_ltdc.c:0:3
	movs	r0, #0
.Ltmp298:
	.loc	6 1516 3 is_stmt 1      @ ../Drivers/STM32F7xx_HAL_Driver/Src/stm32f7xx_hal_ltdc.c:1516:3
	strb.w	r0, [r4, #160]
.Ltmp299:
	.loc	6 1513 16               @ ../Drivers/STM32F7xx_HAL_Driver/Src/stm32f7xx_hal_ltdc.c:1513:16
	strb.w	r5, [r4, #161]
.Ltmp300:
.LBB31_2:
	@DEBUG_VALUE: HAL_LTDC_SetAddress_NoReload:hltdc <- $r4
	.loc	6 1519 1                @ ../Drivers/STM32F7xx_HAL_Driver/Src/stm32f7xx_hal_ltdc.c:1519:1
	uxtb	r0, r0
	pop	{r4, r5, r7, pc}
.Ltmp301:
.Lfunc_end31:
	.size	HAL_LTDC_SetAddress_NoReload, .Lfunc_end31-HAL_LTDC_SetAddress_NoReload
	.cfi_endproc
	.cantunwind
	.fnend
                                        @ -- End function
	.section	.text.HAL_LTDC_SetPitch_NoReload,"ax",%progbits
	.hidden	HAL_LTDC_SetPitch_NoReload @ -- Begin function HAL_LTDC_SetPitch_NoReload
	.globl	HAL_LTDC_SetPitch_NoReload
	.p2align	2
	.type	HAL_LTDC_SetPitch_NoReload,%function
	.code	16                      @ @HAL_LTDC_SetPitch_NoReload
	.thumb_func
HAL_LTDC_SetPitch_NoReload:
.Lfunc_begin32:
	.loc	6 1536 0                @ ../Drivers/STM32F7xx_HAL_Driver/Src/stm32f7xx_hal_ltdc.c:1536:0
	.fnstart
	.cfi_startproc
@ %bb.0:
	@DEBUG_VALUE: HAL_LTDC_SetPitch_NoReload:hltdc <- $r0
	@DEBUG_VALUE: HAL_LTDC_SetPitch_NoReload:hltdc <- $r0
	@DEBUG_VALUE: HAL_LTDC_SetPitch_NoReload:LinePitchInPixels <- $r1
	@DEBUG_VALUE: HAL_LTDC_SetPitch_NoReload:LinePitchInPixels <- $r1
	@DEBUG_VALUE: HAL_LTDC_SetPitch_NoReload:LayerIdx <- $r2
	@DEBUG_VALUE: HAL_LTDC_SetPitch_NoReload:LayerIdx <- $r2
	@DEBUG_VALUE: HAL_LTDC_SetPitch_NoReload:tmp <- 0
	@DEBUG_VALUE: HAL_LTDC_SetPitch_NoReload:pitchUpdate <- 0
	@DEBUG_VALUE: HAL_LTDC_SetPitch_NoReload:pixelFormat <- 0
	.loc	6 1542 3 prologue_end   @ ../Drivers/STM32F7xx_HAL_Driver/Src/stm32f7xx_hal_ltdc.c:1542:3
	ldrb.w	r12, [r0, #160]
	movs	r3, #2
.Ltmp302:
	.loc	6 1542 3 is_stmt 0      @ ../Drivers/STM32F7xx_HAL_Driver/Src/stm32f7xx_hal_ltdc.c:1542:3
	cmp.w	r12, #1
	beq	.LBB32_2
.Ltmp303:
@ %bb.1:
	@DEBUG_VALUE: HAL_LTDC_SetPitch_NoReload:LayerIdx <- $r2
	@DEBUG_VALUE: HAL_LTDC_SetPitch_NoReload:LinePitchInPixels <- $r1
	@DEBUG_VALUE: HAL_LTDC_SetPitch_NoReload:hltdc <- $r0
	.loc	6 0 3                   @ ../Drivers/STM32F7xx_HAL_Driver/Src/stm32f7xx_hal_ltdc.c:0:3
	.save	{r4, lr}
	push	{r4, lr}
	.cfi_def_cfa_offset 8
	.cfi_offset lr, -4
	.cfi_offset r4, -8
	.loc	6 1545 16 is_stmt 1     @ ../Drivers/STM32F7xx_HAL_Driver/Src/stm32f7xx_hal_ltdc.c:1545:16
	strb.w	r3, [r0, #161]
	.loc	6 1551 43               @ ../Drivers/STM32F7xx_HAL_Driver/Src/stm32f7xx_hal_ltdc.c:1551:43
	movs	r3, #52
	mov.w	r12, #1
	mov.w	lr, #1
.Ltmp304:
	.loc	6 1542 3                @ ../Drivers/STM32F7xx_HAL_Driver/Src/stm32f7xx_hal_ltdc.c:1542:3
	strb.w	r12, [r0, #160]
.Ltmp305:
	.loc	6 1551 43               @ ../Drivers/STM32F7xx_HAL_Driver/Src/stm32f7xx_hal_ltdc.c:1551:43
	mla	r3, r2, r3, r0
	ldr	r4, [r3, #72]
.Ltmp306:
	@DEBUG_VALUE: HAL_LTDC_SetPitch_NoReload:pixelFormat <- $r4
	.loc	6 1553 6                @ ../Drivers/STM32F7xx_HAL_Driver/Src/stm32f7xx_hal_ltdc.c:1553:6
	cmp	r4, #7
	itt	ls
	ldrls	r3, __arm_cp.32_0
	ldrls.w	lr, [r3, r4, lsl #2]
.Ltmp307:
	@DEBUG_VALUE: HAL_LTDC_SetPitch_NoReload:tmp <- $lr
	.loc	6 1576 3                @ ../Drivers/STM32F7xx_HAL_Driver/Src/stm32f7xx_hal_ltdc.c:1576:3
	ldr	r3, [r0]
	.loc	6 1573 44               @ ../Drivers/STM32F7xx_HAL_Driver/Src/stm32f7xx_hal_ltdc.c:1573:44
	mul	r1, r1, lr
.Ltmp308:
	.loc	6 1576 3                @ ../Drivers/STM32F7xx_HAL_Driver/Src/stm32f7xx_hal_ltdc.c:1576:3
	add.w	r2, r3, r2, lsl #7
.Ltmp309:
	.loc	6 1576 38 is_stmt 0     @ ../Drivers/STM32F7xx_HAL_Driver/Src/stm32f7xx_hal_ltdc.c:1576:38
	ldr.w	r3, [r2, #176]
	bfc	r3, #16, #13
	str.w	r3, [r2, #176]
	.loc	6 1579 38 is_stmt 1     @ ../Drivers/STM32F7xx_HAL_Driver/Src/stm32f7xx_hal_ltdc.c:1579:38
	ldr.w	r3, [r2, #176]
	orr.w	r1, r3, r1, lsl #16
	movs	r3, #0
	str.w	r1, [r2, #176]
.Ltmp310:
	.loc	6 1587 3                @ ../Drivers/STM32F7xx_HAL_Driver/Src/stm32f7xx_hal_ltdc.c:1587:3
	strb.w	r3, [r0, #160]
.Ltmp311:
	.loc	6 1584 16               @ ../Drivers/STM32F7xx_HAL_Driver/Src/stm32f7xx_hal_ltdc.c:1584:16
	strb.w	r12, [r0, #161]
	pop.w	{r4, lr}
.Ltmp312:
.LBB32_2:
	@DEBUG_VALUE: HAL_LTDC_SetPitch_NoReload:hltdc <- $r0
	.loc	6 1590 1                @ ../Drivers/STM32F7xx_HAL_Driver/Src/stm32f7xx_hal_ltdc.c:1590:1
	uxtb	r0, r3
	bx	lr
.Ltmp313:
	.p2align	2
@ %bb.3:
	.loc	6 0 1 is_stmt 0         @ ../Drivers/STM32F7xx_HAL_Driver/Src/stm32f7xx_hal_ltdc.c:0:1
__arm_cp.32_0:
	.long	.Lswitch.table.HAL_LTDC_SetPitch_NoReload
.Lcpi_end8:
	.size	__arm_cp.32_0, .Lcpi_end8-__arm_cp.32_0
.Lfunc_end32:
	.size	HAL_LTDC_SetPitch_NoReload, .Lfunc_end32-HAL_LTDC_SetPitch_NoReload
	.cfi_endproc
	.cantunwind
	.fnend
                                        @ -- End function
	.section	.text.HAL_LTDC_ConfigColorKeying_NoReload,"ax",%progbits
	.hidden	HAL_LTDC_ConfigColorKeying_NoReload @ -- Begin function HAL_LTDC_ConfigColorKeying_NoReload
	.globl	HAL_LTDC_ConfigColorKeying_NoReload
	.p2align	1
	.type	HAL_LTDC_ConfigColorKeying_NoReload,%function
	.code	16                      @ @HAL_LTDC_ConfigColorKeying_NoReload
	.thumb_func
HAL_LTDC_ConfigColorKeying_NoReload:
.Lfunc_begin33:
	.loc	6 1605 0 is_stmt 1      @ ../Drivers/STM32F7xx_HAL_Driver/Src/stm32f7xx_hal_ltdc.c:1605:0
	.fnstart
	.cfi_startproc
@ %bb.0:
	@DEBUG_VALUE: HAL_LTDC_ConfigColorKeying_NoReload:hltdc <- $r0
	@DEBUG_VALUE: HAL_LTDC_ConfigColorKeying_NoReload:hltdc <- $r0
	@DEBUG_VALUE: HAL_LTDC_ConfigColorKeying_NoReload:RGBValue <- $r1
	@DEBUG_VALUE: HAL_LTDC_ConfigColorKeying_NoReload:RGBValue <- $r1
	@DEBUG_VALUE: HAL_LTDC_ConfigColorKeying_NoReload:LayerIdx <- $r2
	@DEBUG_VALUE: HAL_LTDC_ConfigColorKeying_NoReload:LayerIdx <- $r2
	.loc	6 1607 3 prologue_end   @ ../Drivers/STM32F7xx_HAL_Driver/Src/stm32f7xx_hal_ltdc.c:1607:3
	ldrb.w	r12, [r0, #160]
	movs	r3, #2
.Ltmp314:
	.loc	6 1607 3 is_stmt 0      @ ../Drivers/STM32F7xx_HAL_Driver/Src/stm32f7xx_hal_ltdc.c:1607:3
	cmp.w	r12, #1
	beq	.LBB33_2
.Ltmp315:
@ %bb.1:
	@DEBUG_VALUE: HAL_LTDC_ConfigColorKeying_NoReload:LayerIdx <- $r2
	@DEBUG_VALUE: HAL_LTDC_ConfigColorKeying_NoReload:RGBValue <- $r1
	@DEBUG_VALUE: HAL_LTDC_ConfigColorKeying_NoReload:hltdc <- $r0
	.loc	6 1610 16 is_stmt 1     @ ../Drivers/STM32F7xx_HAL_Driver/Src/stm32f7xx_hal_ltdc.c:1610:16
	strb.w	r3, [r0, #161]
	.loc	6 1616 3                @ ../Drivers/STM32F7xx_HAL_Driver/Src/stm32f7xx_hal_ltdc.c:1616:3
	ldr	r3, [r0]
	add.w	r2, r3, r2, lsl #7
.Ltmp316:
	.loc	6 1616 37 is_stmt 0     @ ../Drivers/STM32F7xx_HAL_Driver/Src/stm32f7xx_hal_ltdc.c:1616:37
	ldr.w	r3, [r2, #144]
	and	r3, r3, #-16777216
	str.w	r3, [r2, #144]
	.loc	6 1617 38 is_stmt 1     @ ../Drivers/STM32F7xx_HAL_Driver/Src/stm32f7xx_hal_ltdc.c:1617:38
	str.w	r1, [r2, #144]
	movs	r3, #0
	.loc	6 1622 16               @ ../Drivers/STM32F7xx_HAL_Driver/Src/stm32f7xx_hal_ltdc.c:1622:16
	movs	r1, #1
.Ltmp317:
	.loc	6 1625 3                @ ../Drivers/STM32F7xx_HAL_Driver/Src/stm32f7xx_hal_ltdc.c:1625:3
	strb.w	r3, [r0, #160]
.Ltmp318:
	.loc	6 1622 16               @ ../Drivers/STM32F7xx_HAL_Driver/Src/stm32f7xx_hal_ltdc.c:1622:16
	strb.w	r1, [r0, #161]
.LBB33_2:
	@DEBUG_VALUE: HAL_LTDC_ConfigColorKeying_NoReload:hltdc <- $r0
	.loc	6 1628 1                @ ../Drivers/STM32F7xx_HAL_Driver/Src/stm32f7xx_hal_ltdc.c:1628:1
	uxtb	r0, r3
	bx	lr
.Ltmp319:
.Lfunc_end33:
	.size	HAL_LTDC_ConfigColorKeying_NoReload, .Lfunc_end33-HAL_LTDC_ConfigColorKeying_NoReload
	.cfi_endproc
	.cantunwind
	.fnend
                                        @ -- End function
	.section	.text.HAL_LTDC_EnableColorKeying_NoReload,"ax",%progbits
	.hidden	HAL_LTDC_EnableColorKeying_NoReload @ -- Begin function HAL_LTDC_EnableColorKeying_NoReload
	.globl	HAL_LTDC_EnableColorKeying_NoReload
	.p2align	1
	.type	HAL_LTDC_EnableColorKeying_NoReload,%function
	.code	16                      @ @HAL_LTDC_EnableColorKeying_NoReload
	.thumb_func
HAL_LTDC_EnableColorKeying_NoReload:
.Lfunc_begin34:
	.loc	6 1641 0                @ ../Drivers/STM32F7xx_HAL_Driver/Src/stm32f7xx_hal_ltdc.c:1641:0
	.fnstart
	.cfi_startproc
@ %bb.0:
	@DEBUG_VALUE: HAL_LTDC_EnableColorKeying_NoReload:hltdc <- $r0
	@DEBUG_VALUE: HAL_LTDC_EnableColorKeying_NoReload:hltdc <- $r0
	@DEBUG_VALUE: HAL_LTDC_EnableColorKeying_NoReload:LayerIdx <- $r1
	@DEBUG_VALUE: HAL_LTDC_EnableColorKeying_NoReload:LayerIdx <- $r1
	.loc	6 1643 3 prologue_end   @ ../Drivers/STM32F7xx_HAL_Driver/Src/stm32f7xx_hal_ltdc.c:1643:3
	ldrb.w	r3, [r0, #160]
	movs	r2, #2
.Ltmp320:
	.loc	6 1643 3 is_stmt 0      @ ../Drivers/STM32F7xx_HAL_Driver/Src/stm32f7xx_hal_ltdc.c:1643:3
	cmp	r3, #1
	beq	.LBB34_2
.Ltmp321:
@ %bb.1:
	@DEBUG_VALUE: HAL_LTDC_EnableColorKeying_NoReload:LayerIdx <- $r1
	@DEBUG_VALUE: HAL_LTDC_EnableColorKeying_NoReload:hltdc <- $r0
	.loc	6 1646 16 is_stmt 1     @ ../Drivers/STM32F7xx_HAL_Driver/Src/stm32f7xx_hal_ltdc.c:1646:16
	strb.w	r2, [r0, #161]
	.loc	6 1652 3                @ ../Drivers/STM32F7xx_HAL_Driver/Src/stm32f7xx_hal_ltdc.c:1652:3
	ldr	r2, [r0]
	add.w	r1, r2, r1, lsl #7
.Ltmp322:
	.loc	6 1652 35 is_stmt 0     @ ../Drivers/STM32F7xx_HAL_Driver/Src/stm32f7xx_hal_ltdc.c:1652:35
	ldr.w	r2, [r1, #132]
	orr	r2, r2, #2
	str.w	r2, [r1, #132]
	movs	r2, #0
	.loc	6 1657 16 is_stmt 1     @ ../Drivers/STM32F7xx_HAL_Driver/Src/stm32f7xx_hal_ltdc.c:1657:16
	movs	r1, #1
.Ltmp323:
	.loc	6 1660 3                @ ../Drivers/STM32F7xx_HAL_Driver/Src/stm32f7xx_hal_ltdc.c:1660:3
	strb.w	r2, [r0, #160]
.Ltmp324:
	.loc	6 1657 16               @ ../Drivers/STM32F7xx_HAL_Driver/Src/stm32f7xx_hal_ltdc.c:1657:16
	strb.w	r1, [r0, #161]
.LBB34_2:
	@DEBUG_VALUE: HAL_LTDC_EnableColorKeying_NoReload:hltdc <- $r0
	.loc	6 1663 1                @ ../Drivers/STM32F7xx_HAL_Driver/Src/stm32f7xx_hal_ltdc.c:1663:1
	uxtb	r0, r2
	bx	lr
.Ltmp325:
.Lfunc_end34:
	.size	HAL_LTDC_EnableColorKeying_NoReload, .Lfunc_end34-HAL_LTDC_EnableColorKeying_NoReload
	.cfi_endproc
	.cantunwind
	.fnend
                                        @ -- End function
	.section	.text.HAL_LTDC_DisableColorKeying_NoReload,"ax",%progbits
	.hidden	HAL_LTDC_DisableColorKeying_NoReload @ -- Begin function HAL_LTDC_DisableColorKeying_NoReload
	.globl	HAL_LTDC_DisableColorKeying_NoReload
	.p2align	1
	.type	HAL_LTDC_DisableColorKeying_NoReload,%function
	.code	16                      @ @HAL_LTDC_DisableColorKeying_NoReload
	.thumb_func
HAL_LTDC_DisableColorKeying_NoReload:
.Lfunc_begin35:
	.loc	6 1676 0                @ ../Drivers/STM32F7xx_HAL_Driver/Src/stm32f7xx_hal_ltdc.c:1676:0
	.fnstart
	.cfi_startproc
@ %bb.0:
	@DEBUG_VALUE: HAL_LTDC_DisableColorKeying_NoReload:hltdc <- $r0
	@DEBUG_VALUE: HAL_LTDC_DisableColorKeying_NoReload:hltdc <- $r0
	@DEBUG_VALUE: HAL_LTDC_DisableColorKeying_NoReload:LayerIdx <- $r1
	@DEBUG_VALUE: HAL_LTDC_DisableColorKeying_NoReload:LayerIdx <- $r1
	.loc	6 1678 3 prologue_end   @ ../Drivers/STM32F7xx_HAL_Driver/Src/stm32f7xx_hal_ltdc.c:1678:3
	ldrb.w	r3, [r0, #160]
	movs	r2, #2
.Ltmp326:
	.loc	6 1678 3 is_stmt 0      @ ../Drivers/STM32F7xx_HAL_Driver/Src/stm32f7xx_hal_ltdc.c:1678:3
	cmp	r3, #1
	beq	.LBB35_2
.Ltmp327:
@ %bb.1:
	@DEBUG_VALUE: HAL_LTDC_DisableColorKeying_NoReload:LayerIdx <- $r1
	@DEBUG_VALUE: HAL_LTDC_DisableColorKeying_NoReload:hltdc <- $r0
	.loc	6 1681 16 is_stmt 1     @ ../Drivers/STM32F7xx_HAL_Driver/Src/stm32f7xx_hal_ltdc.c:1681:16
	strb.w	r2, [r0, #161]
	.loc	6 1687 3                @ ../Drivers/STM32F7xx_HAL_Driver/Src/stm32f7xx_hal_ltdc.c:1687:3
	ldr	r2, [r0]
	add.w	r1, r2, r1, lsl #7
.Ltmp328:
	.loc	6 1687 35 is_stmt 0     @ ../Drivers/STM32F7xx_HAL_Driver/Src/stm32f7xx_hal_ltdc.c:1687:35
	ldr.w	r2, [r1, #132]
	bic	r2, r2, #2
	str.w	r2, [r1, #132]
	movs	r2, #0
	.loc	6 1692 16 is_stmt 1     @ ../Drivers/STM32F7xx_HAL_Driver/Src/stm32f7xx_hal_ltdc.c:1692:16
	movs	r1, #1
.Ltmp329:
	.loc	6 1695 3                @ ../Drivers/STM32F7xx_HAL_Driver/Src/stm32f7xx_hal_ltdc.c:1695:3
	strb.w	r2, [r0, #160]
.Ltmp330:
	.loc	6 1692 16               @ ../Drivers/STM32F7xx_HAL_Driver/Src/stm32f7xx_hal_ltdc.c:1692:16
	strb.w	r1, [r0, #161]
.LBB35_2:
	@DEBUG_VALUE: HAL_LTDC_DisableColorKeying_NoReload:hltdc <- $r0
	.loc	6 1698 1                @ ../Drivers/STM32F7xx_HAL_Driver/Src/stm32f7xx_hal_ltdc.c:1698:1
	uxtb	r0, r2
	bx	lr
.Ltmp331:
.Lfunc_end35:
	.size	HAL_LTDC_DisableColorKeying_NoReload, .Lfunc_end35-HAL_LTDC_DisableColorKeying_NoReload
	.cfi_endproc
	.cantunwind
	.fnend
                                        @ -- End function
	.section	.text.HAL_LTDC_EnableCLUT_NoReload,"ax",%progbits
	.hidden	HAL_LTDC_EnableCLUT_NoReload @ -- Begin function HAL_LTDC_EnableCLUT_NoReload
	.globl	HAL_LTDC_EnableCLUT_NoReload
	.p2align	1
	.type	HAL_LTDC_EnableCLUT_NoReload,%function
	.code	16                      @ @HAL_LTDC_EnableCLUT_NoReload
	.thumb_func
HAL_LTDC_EnableCLUT_NoReload:
.Lfunc_begin36:
	.loc	6 1711 0                @ ../Drivers/STM32F7xx_HAL_Driver/Src/stm32f7xx_hal_ltdc.c:1711:0
	.fnstart
	.cfi_startproc
@ %bb.0:
	@DEBUG_VALUE: HAL_LTDC_EnableCLUT_NoReload:hltdc <- $r0
	@DEBUG_VALUE: HAL_LTDC_EnableCLUT_NoReload:hltdc <- $r0
	@DEBUG_VALUE: HAL_LTDC_EnableCLUT_NoReload:LayerIdx <- $r1
	@DEBUG_VALUE: HAL_LTDC_EnableCLUT_NoReload:LayerIdx <- $r1
	.loc	6 1714 3 prologue_end   @ ../Drivers/STM32F7xx_HAL_Driver/Src/stm32f7xx_hal_ltdc.c:1714:3
	ldrb.w	r3, [r0, #160]
	movs	r2, #2
.Ltmp332:
	.loc	6 1714 3 is_stmt 0      @ ../Drivers/STM32F7xx_HAL_Driver/Src/stm32f7xx_hal_ltdc.c:1714:3
	cmp	r3, #1
	beq	.LBB36_2
.Ltmp333:
@ %bb.1:
	@DEBUG_VALUE: HAL_LTDC_EnableCLUT_NoReload:LayerIdx <- $r1
	@DEBUG_VALUE: HAL_LTDC_EnableCLUT_NoReload:hltdc <- $r0
	.loc	6 1717 16 is_stmt 1     @ ../Drivers/STM32F7xx_HAL_Driver/Src/stm32f7xx_hal_ltdc.c:1717:16
	strb.w	r2, [r0, #161]
	.loc	6 1723 3                @ ../Drivers/STM32F7xx_HAL_Driver/Src/stm32f7xx_hal_ltdc.c:1723:3
	ldr	r2, [r0]
	add.w	r1, r2, r1, lsl #7
.Ltmp334:
	.loc	6 1723 35 is_stmt 0     @ ../Drivers/STM32F7xx_HAL_Driver/Src/stm32f7xx_hal_ltdc.c:1723:35
	ldr.w	r2, [r1, #132]
	orr	r2, r2, #16
	str.w	r2, [r1, #132]
	movs	r2, #0
	.loc	6 1728 16 is_stmt 1     @ ../Drivers/STM32F7xx_HAL_Driver/Src/stm32f7xx_hal_ltdc.c:1728:16
	movs	r1, #1
.Ltmp335:
	.loc	6 1731 3                @ ../Drivers/STM32F7xx_HAL_Driver/Src/stm32f7xx_hal_ltdc.c:1731:3
	strb.w	r2, [r0, #160]
.Ltmp336:
	.loc	6 1728 16               @ ../Drivers/STM32F7xx_HAL_Driver/Src/stm32f7xx_hal_ltdc.c:1728:16
	strb.w	r1, [r0, #161]
.LBB36_2:
	@DEBUG_VALUE: HAL_LTDC_EnableCLUT_NoReload:hltdc <- $r0
	.loc	6 1734 1                @ ../Drivers/STM32F7xx_HAL_Driver/Src/stm32f7xx_hal_ltdc.c:1734:1
	uxtb	r0, r2
	bx	lr
.Ltmp337:
.Lfunc_end36:
	.size	HAL_LTDC_EnableCLUT_NoReload, .Lfunc_end36-HAL_LTDC_EnableCLUT_NoReload
	.cfi_endproc
	.cantunwind
	.fnend
                                        @ -- End function
	.section	.text.HAL_LTDC_DisableCLUT_NoReload,"ax",%progbits
	.hidden	HAL_LTDC_DisableCLUT_NoReload @ -- Begin function HAL_LTDC_DisableCLUT_NoReload
	.globl	HAL_LTDC_DisableCLUT_NoReload
	.p2align	1
	.type	HAL_LTDC_DisableCLUT_NoReload,%function
	.code	16                      @ @HAL_LTDC_DisableCLUT_NoReload
	.thumb_func
HAL_LTDC_DisableCLUT_NoReload:
.Lfunc_begin37:
	.loc	6 1747 0                @ ../Drivers/STM32F7xx_HAL_Driver/Src/stm32f7xx_hal_ltdc.c:1747:0
	.fnstart
	.cfi_startproc
@ %bb.0:
	@DEBUG_VALUE: HAL_LTDC_DisableCLUT_NoReload:hltdc <- $r0
	@DEBUG_VALUE: HAL_LTDC_DisableCLUT_NoReload:hltdc <- $r0
	@DEBUG_VALUE: HAL_LTDC_DisableCLUT_NoReload:LayerIdx <- $r1
	@DEBUG_VALUE: HAL_LTDC_DisableCLUT_NoReload:LayerIdx <- $r1
	.loc	6 1750 3 prologue_end   @ ../Drivers/STM32F7xx_HAL_Driver/Src/stm32f7xx_hal_ltdc.c:1750:3
	ldrb.w	r3, [r0, #160]
	movs	r2, #2
.Ltmp338:
	.loc	6 1750 3 is_stmt 0      @ ../Drivers/STM32F7xx_HAL_Driver/Src/stm32f7xx_hal_ltdc.c:1750:3
	cmp	r3, #1
	beq	.LBB37_2
.Ltmp339:
@ %bb.1:
	@DEBUG_VALUE: HAL_LTDC_DisableCLUT_NoReload:LayerIdx <- $r1
	@DEBUG_VALUE: HAL_LTDC_DisableCLUT_NoReload:hltdc <- $r0
	.loc	6 1753 16 is_stmt 1     @ ../Drivers/STM32F7xx_HAL_Driver/Src/stm32f7xx_hal_ltdc.c:1753:16
	strb.w	r2, [r0, #161]
	.loc	6 1759 3                @ ../Drivers/STM32F7xx_HAL_Driver/Src/stm32f7xx_hal_ltdc.c:1759:3
	ldr	r2, [r0]
	add.w	r1, r2, r1, lsl #7
.Ltmp340:
	.loc	6 1759 35 is_stmt 0     @ ../Drivers/STM32F7xx_HAL_Driver/Src/stm32f7xx_hal_ltdc.c:1759:35
	ldr.w	r2, [r1, #132]
	bic	r2, r2, #16
	str.w	r2, [r1, #132]
	movs	r2, #0
	.loc	6 1764 16 is_stmt 1     @ ../Drivers/STM32F7xx_HAL_Driver/Src/stm32f7xx_hal_ltdc.c:1764:16
	movs	r1, #1
.Ltmp341:
	.loc	6 1767 3                @ ../Drivers/STM32F7xx_HAL_Driver/Src/stm32f7xx_hal_ltdc.c:1767:3
	strb.w	r2, [r0, #160]
.Ltmp342:
	.loc	6 1764 16               @ ../Drivers/STM32F7xx_HAL_Driver/Src/stm32f7xx_hal_ltdc.c:1764:16
	strb.w	r1, [r0, #161]
.LBB37_2:
	@DEBUG_VALUE: HAL_LTDC_DisableCLUT_NoReload:hltdc <- $r0
	.loc	6 1770 1                @ ../Drivers/STM32F7xx_HAL_Driver/Src/stm32f7xx_hal_ltdc.c:1770:1
	uxtb	r0, r2
	bx	lr
.Ltmp343:
.Lfunc_end37:
	.size	HAL_LTDC_DisableCLUT_NoReload, .Lfunc_end37-HAL_LTDC_DisableCLUT_NoReload
	.cfi_endproc
	.cantunwind
	.fnend
                                        @ -- End function
	.section	.text.HAL_LTDC_GetState,"ax",%progbits
	.hidden	HAL_LTDC_GetState       @ -- Begin function HAL_LTDC_GetState
	.globl	HAL_LTDC_GetState
	.p2align	1
	.type	HAL_LTDC_GetState,%function
	.code	16                      @ @HAL_LTDC_GetState
	.thumb_func
HAL_LTDC_GetState:
.Lfunc_begin38:
	.loc	6 1799 0                @ ../Drivers/STM32F7xx_HAL_Driver/Src/stm32f7xx_hal_ltdc.c:1799:0
	.fnstart
	.cfi_startproc
@ %bb.0:
	@DEBUG_VALUE: HAL_LTDC_GetState:hltdc <- $r0
	@DEBUG_VALUE: HAL_LTDC_GetState:hltdc <- $r0
	.loc	6 1800 3 prologue_end   @ ../Drivers/STM32F7xx_HAL_Driver/Src/stm32f7xx_hal_ltdc.c:1800:3
	ldrb.w	r0, [r0, #161]
	bx	lr
.Ltmp344:
.Lfunc_end38:
	.size	HAL_LTDC_GetState, .Lfunc_end38-HAL_LTDC_GetState
	.cfi_endproc
	.cantunwind
	.fnend
                                        @ -- End function
	.section	.text.HAL_LTDC_GetError,"ax",%progbits
	.hidden	HAL_LTDC_GetError       @ -- Begin function HAL_LTDC_GetError
	.globl	HAL_LTDC_GetError
	.p2align	1
	.type	HAL_LTDC_GetError,%function
	.code	16                      @ @HAL_LTDC_GetError
	.thumb_func
HAL_LTDC_GetError:
.Lfunc_begin39:
	.loc	6 1810 0                @ ../Drivers/STM32F7xx_HAL_Driver/Src/stm32f7xx_hal_ltdc.c:1810:0
	.fnstart
	.cfi_startproc
@ %bb.0:
	@DEBUG_VALUE: HAL_LTDC_GetError:hltdc <- $r0
	@DEBUG_VALUE: HAL_LTDC_GetError:hltdc <- $r0
	.loc	6 1811 17 prologue_end  @ ../Drivers/STM32F7xx_HAL_Driver/Src/stm32f7xx_hal_ltdc.c:1811:17
	ldr.w	r0, [r0, #164]
.Ltmp345:
	.loc	6 1811 3 is_stmt 0      @ ../Drivers/STM32F7xx_HAL_Driver/Src/stm32f7xx_hal_ltdc.c:1811:3
	bx	lr
.Ltmp346:
.Lfunc_end39:
	.size	HAL_LTDC_GetError, .Lfunc_end39-HAL_LTDC_GetError
	.cfi_endproc
	.cantunwind
	.fnend
                                        @ -- End function
	.type	.Lswitch.table.HAL_LTDC_SetPitch_NoReload,%object @ @switch.table.HAL_LTDC_SetPitch_NoReload
	.section	.rodata.cst32,"aM",%progbits,32
	.p2align	4
.Lswitch.table.HAL_LTDC_SetPitch_NoReload:
	.long	4                       @ 0x4
	.long	3                       @ 0x3
	.long	2                       @ 0x2
	.long	2                       @ 0x2
	.long	2                       @ 0x2
	.long	1                       @ 0x1
	.long	1                       @ 0x1
	.long	2                       @ 0x2
	.size	.Lswitch.table.HAL_LTDC_SetPitch_NoReload, 32

	.section	".note.GNU-stack","",%progbits
	.eabi_attribute	30, 4	@ Tag_ABI_optimization_goals
	.ARM_attribute	16, 1	@ Tag_AV_eba