	.text
	.syntax unified
	.eabi_attribute	67, "2.09"	@ Tag_conformance
	.cpu	cortex-m7
	.eabi_attribute	6, 13	@ Tag_CPU_arch
	.eabi_attribute	7, 77	@ Tag_CPU_arch_profile
	.eabi_attribute	8, 0	@ Tag_ARM_ISA_use
	.eabi_attribute	9, 2	@ Tag_THUMB_ISA_use
	.fpu	fpv5-sp-d16
	.eabi_attribute	27, 1	@ Tag_ABI_HardFP_use
	.eabi_attribute	36, 1	@ Tag_FP_HP_extension
	.eabi_attribute	34, 1	@ Tag_CPU_unaligned_access
	.eabi_attribute	17, 1	@ Tag_ABI_PCS_GOT_use
	.eabi_attribute	20, 2	@ Tag_ABI_FP_denormal
	.eabi_attribute	21, 0	@ Tag_ABI_FP_exceptions
	.eabi_attribute	23, 1	@ Tag_ABI_FP_number_model
	.eabi_attribute	24, 1	@ Tag_ABI_align_needed
	.eabi_attribute	25, 1	@ Tag_ABI_align_preserved
	.eabi_attribute	28, 1	@ Tag_ABI_VFP_args
	.eabi_attribute	38, 1	@ Tag_ABI_FP_16bit_format
	.eabi_attribute	18, 2	@ Tag_ABI_PCS_wchar_t
	.eabi_attribute	26, 1	@ Tag_ABI_enum_size
	.eabi_attribute	14, 0	@ Tag_ABI_PCS_R9_use
	.file	"stm32746g_ts.c"
	.file	1 "C:\\Keil\\ARM\\ARMCLANG\\Bin\\..\\include" "stdint.h"
	.file	2 "../Drivers/BSP/STM32F746" "stm32746g_ts.c"
	.file	3 "../Drivers/BSP/STM32F746/../Components/ft5336/../Common" "ts.h"
	.file	4 "../Drivers/BSP/STM32F746" "stm32746g_ts.h"
	.section	.text.TOUCH_SCREEN_Init,"ax",%progbits
	.hidden	TOUCH_SCREEN_Init       @ -- Begin function TOUCH_SCREEN_Init
	.globl	TOUCH_SCREEN_Init
	.p2align	2
	.type	TOUCH_SCREEN_Init,%function
	.code	16                      @ @TOUCH_SCREEN_Init
	.thumb_func
TOUCH_SCREEN_Init:
.Lfunc_begin0:
	.loc	2 147 0                 @ ../Drivers/BSP/STM32F746/stm32746g_ts.c:147:0
	.fnstart
	.cfi_sections .debug_frame
	.cfi_startproc
@ %bb.0:
	.save	{r4, r5, r7, lr}
	push	{r4, r5, r7, lr}
	.cfi_def_cfa_offset 16
	.cfi_offset lr, -4
	.cfi_offset r7, -8
	.cfi_offset r5, -12
	.cfi_offset r4, -16
	@DEBUG_VALUE: TOUCH_SCREEN_Init:ts_SizeX <- $r0
	@DEBUG_VALUE: TOUCH_SCREEN_Init:ts_SizeX <- $r0
	@DEBUG_VALUE: TOUCH_SCREEN_Init:ts_SizeY <- $r1
	@DEBUG_VALUE: TOUCH_SCREEN_Init:ts_SizeY <- $r1
.Ltmp0:
	@DEBUG_VALUE: TOUCH_SCREEN_Init:status <- 0
	.loc	2 149 14 prologue_end   @ ../Drivers/BSP/STM32F746/stm32746g_ts.c:149:14
	ldr	r4, __arm_cp.0_0
	.loc	2 153 16                @ ../Drivers/BSP/STM32F746/stm32746g_ts.c:153:16
	ldr	r5, __arm_cp.0_1
	.loc	2 150 14                @ ../Drivers/BSP/STM32F746/stm32746g_ts.c:150:14
	strh	r1, [r4, #4]
	.loc	2 153 16                @ ../Drivers/BSP/STM32F746/stm32746g_ts.c:153:16
	ldr	r1, [r5]
.Ltmp1:
	.loc	2 149 14                @ ../Drivers/BSP/STM32F746/stm32746g_ts.c:149:14
	strh	r0, [r4, #2]
	.loc	2 153 2                 @ ../Drivers/BSP/STM32F746/stm32746g_ts.c:153:2
	movs	r0, #112
.Ltmp2:
	blx	r1
.Ltmp3:
	.loc	2 154 19                @ ../Drivers/BSP/STM32F746/stm32746g_ts.c:154:19
	ldr	r1, [r5, #4]
	.loc	2 154 5 is_stmt 0       @ ../Drivers/BSP/STM32F746/stm32746g_ts.c:154:5
	movs	r0, #112
	blx	r1
.Ltmp4:
	.loc	2 154 5                 @ ../Drivers/BSP/STM32F746/stm32746g_ts.c:154:5
	cmp	r0, #121
	bne	.LBB0_2
@ %bb.1:
.Ltmp5:
	.loc	2 162 13 is_stmt 1      @ ../Drivers/BSP/STM32F746/stm32746g_ts.c:162:13
	ldr	r1, [r5, #12]
	movw	r0, #257
	strh	r0, [r4]
	.loc	2 162 3 is_stmt 0       @ ../Drivers/BSP/STM32F746/stm32746g_ts.c:162:3
	movs	r0, #112
	blx	r1
	movs	r0, #0
	b	.LBB0_3
.Ltmp6:
.LBB0_2:
	.loc	2 0 3                   @ ../Drivers/BSP/STM32F746/stm32746g_ts.c:0:3
	movs	r0, #3
.LBB0_3:
	.loc	2 186 1 is_stmt 1       @ ../Drivers/BSP/STM32F746/stm32746g_ts.c:186:1
	uxtb	r0, r0
	pop	{r4, r5, r7, pc}
.Ltmp7:
	.p2align	2
@ %bb.4:
	.loc	2 0 1 is_stmt 0         @ ../Drivers/BSP/STM32F746/stm32746g_ts.c:0:1
__arm_cp.0_0:
	.long	.L_MergedGlobals
.Lcpi_end0:
	.size	__arm_cp.0_0, .Lcpi_end0-__arm_cp.0_0
__arm_cp.0_1:
	.long	ft5336_ts_drv
.Lcpi_end1:
	.size	__arm_cp.0_1, .Lcpi_end1-__arm_cp.0_1
.Lfunc_end0:
	.size	TOUCH_SCREEN_Init, .Lfunc_end0-TOUCH_SCREEN_Init
	.cfi_endproc
	.cantunwind
	.fnend
                                        @ -- End function
	.section	.text.BSP_TS_DeInit,"ax",%progbits
	.hidden	BSP_TS_DeInit           @ -- Begin function BSP_TS_DeInit
	.globl	BSP_TS_DeInit
	.p2align	1
	.type	BSP_TS_DeInit,%function
	.code	16                      @ @BSP_TS_DeInit
	.thumb_func
BSP_TS_DeInit:
.Lfunc_begin1:
	.loc	2 193 0 is_stmt 1       @ ../Drivers/BSP/STM32F746/stm32746g_ts.c:193:0
	.fnstart
	.cfi_startproc
@ %bb.0:
	.loc	2 195 3 prologue_end    @ ../Drivers/BSP/STM32F746/stm32746g_ts.c:195:3
	movs	r0, #0
	bx	lr
.Ltmp8:
.Lfunc_end1:
	.size	BSP_TS_DeInit, .Lfunc_end1-BSP_TS_DeInit
	.cfi_endproc
	.cantunwind
	.fnend
                                        @ -- End function
	.section	.text.BSP_TS_ITGetStatus,"ax",%progbits
	.hidden	BSP_TS_ITGetStatus      @ -- Begin function BSP_TS_ITGetStatus
	.globl	BSP_TS_ITGetStatus
	.p2align	2
	.type	BSP_TS_ITGetStatus,%function
	.code	16                      @ @BSP_TS_ITGetStatus
	.thumb_func
BSP_TS_ITGetStatus:
.Lfunc_begin2:
	.loc	2 205 0                 @ ../Drivers/BSP/STM32F746/stm32746g_ts.c:205:0
	.fnstart
	.cfi_startproc
@ %bb.0:
	.loc	2 207 21 prologue_end   @ ../Drivers/BSP/STM32F746/stm32746g_ts.c:207:21
	ldr	r0, __arm_cp.2_0
	ldr	r1, [r0, #32]
	ldr	r0, __arm_cp.2_1
	ldrb	r0, [r0]
	.loc	2 207 33 is_stmt 0      @ ../Drivers/BSP/STM32F746/stm32746g_ts.c:207:33
	cmp	r0, #0
	it	ne
	movne	r0, #112
	.loc	2 207 11                @ ../Drivers/BSP/STM32F746/stm32746g_ts.c:207:11
	bx	r1
.Ltmp9:
	.p2align	2
@ %bb.1:
	.loc	2 0 11                  @ ../Drivers/BSP/STM32F746/stm32746g_ts.c:0:11
__arm_cp.2_0:
	.long	ft5336_ts_drv
.Lcpi_end2:
	.size	__arm_cp.2_0, .Lcpi_end2-__arm_cp.2_0
__arm_cp.2_1:
	.long	.L_MergedGlobals
.Lcpi_end3:
	.size	__arm_cp.2_1, .Lcpi_end3-__arm_cp.2_1
.Lfunc_end2:
	.size	BSP_TS_ITGetStatus, .Lfunc_end2-BSP_TS_ITGetStatus
	.cfi_endproc
	.cantunwind
	.fnend
                                        @ -- End function
	.section	.text.BSP_TS_GetState,"ax",%progbits
	.hidden	BSP_TS_GetState         @ -- Begin function BSP_TS_GetState
	.globl	BSP_TS_GetState
	.p2align	2
	.type	BSP_TS_GetState,%function
	.code	16                      @ @BSP_TS_GetState
	.thumb_func
BSP_TS_GetState:
.Lfunc_begin3:
	.loc	2 216 0 is_stmt 1       @ ../Drivers/BSP/STM32F746/stm32746g_ts.c:216:0
	.fnstart
	.cfi_startproc
@ %bb.0:
	.save	{r4, r5, r6, r7, r8, r9, r10, r11, lr}
	push.w	{r4, r5, r6, r7, r8, r9, r10, r11, lr}
	.cfi_def_cfa_offset 36
	.cfi_offset lr, -4
	.cfi_offset r11, -8
	.cfi_offset r10, -12
	.cfi_offset r9, -16
	.cfi_offset r8, -20
	.cfi_offset r7, -24
	.cfi_offset r6, -28
	.cfi_offset r5, -32
	.cfi_offset r4, -36
	.pad	#60
	sub	sp, #60
	.cfi_def_cfa_offset 96
	@DEBUG_VALUE: BSP_TS_GetState:TS_State <- $r0
	mov	r10, r0
.Ltmp10:
	.loc	2 234 39 prologue_end   @ ../Drivers/BSP/STM32F746/stm32746g_ts.c:234:39
	ldr	r0, __arm_cp.3_0
.Ltmp11:
	.loc	2 0 39 is_stmt 0        @ ../Drivers/BSP/STM32F746/stm32746g_ts.c:0:39
	ldr.w	r9, __arm_cp.3_1
	movs	r5, #0
.Ltmp12:
	@DEBUG_VALUE: BSP_TS_GetState:weight <- 0
	@DEBUG_VALUE: BSP_TS_GetState:ts_status <- 0
	@DEBUG_VALUE: BSP_TS_GetState:TS_State <- $r10
	.loc	2 228 12 is_stmt 1      @ ../Drivers/BSP/STM32F746/stm32746g_ts.c:228:12
	str	r5, [sp, #16]
.Ltmp13:
	@DEBUG_VALUE: BSP_TS_GetState:area <- 0
	@DEBUG_VALUE: BSP_TS_GetState:event <- 0
	.loc	2 230 12                @ ../Drivers/BSP/STM32F746/stm32746g_ts.c:230:12
	strd	r5, r5, [sp, #8]
	.loc	2 234 39                @ ../Drivers/BSP/STM32F746/stm32746g_ts.c:234:39
	ldr	r1, [r0, #16]
	ldrb.w	r0, [r9]
	.loc	2 234 51 is_stmt 0      @ ../Drivers/BSP/STM32F746/stm32746g_ts.c:234:51
	cmp	r0, #0
	it	ne
	movne	r0, #112
	.loc	2 234 29                @ ../Drivers/BSP/STM32F746/stm32746g_ts.c:234:29
	blx	r1
	.loc	2 236 6 is_stmt 1       @ ../Drivers/BSP/STM32F746/stm32746g_ts.c:236:6
	cmp	r0, #0
	.loc	2 234 27                @ ../Drivers/BSP/STM32F746/stm32746g_ts.c:234:27
	strb.w	r0, [r10]
	.loc	2 236 6                 @ ../Drivers/BSP/STM32F746/stm32746g_ts.c:236:6
	beq	.LBB3_10
.Ltmp14:
@ %bb.1:
	@DEBUG_VALUE: BSP_TS_GetState:TS_State <- $r10
	.loc	2 0 6 is_stmt 0         @ ../Drivers/BSP/STM32F746/stm32746g_ts.c:0:6
	mov.w	r11, #0
	add.w	r4, sp, #30
	add.w	r8, sp, #20
	movs	r7, #0
	b	.LBB3_8
.Ltmp15:
.LBB3_2:                                @   in Loop: Header=BB3_8 Depth=1
	@DEBUG_VALUE: BSP_TS_GetState:index <- $r7
	@DEBUG_VALUE: BSP_TS_GetState:TS_State <- $r10
	.loc	2 241 17 is_stmt 1      @ ../Drivers/BSP/STM32F746/stm32746g_ts.c:241:17
	ldr	r0, __arm_cp.3_0
	.loc	2 241 56 is_stmt 0      @ ../Drivers/BSP/STM32F746/stm32746g_ts.c:241:56
	add.w	r1, r4, r11
	.loc	2 241 7                 @ ../Drivers/BSP/STM32F746/stm32746g_ts.c:241:7
	add.w	r2, r8, r11
	.loc	2 241 17                @ ../Drivers/BSP/STM32F746/stm32746g_ts.c:241:17
	ldr	r3, [r0, #20]
	ldrb.w	r0, [r9]
	.loc	2 241 23                @ ../Drivers/BSP/STM32F746/stm32746g_ts.c:241:23
	cmp	r0, #0
	it	ne
	movne	r0, #112
	.loc	2 241 7                 @ ../Drivers/BSP/STM32F746/stm32746g_ts.c:241:7
	blx	r3
	ldrb.w	r0, [r9, #1]
	.loc	2 243 10 is_stmt 1      @ ../Drivers/BSP/STM32F746/stm32746g_ts.c:243:10
	cbz	r0, .LBB3_4
.Ltmp16:
@ %bb.3:                                @   in Loop: Header=BB3_8 Depth=1
	@DEBUG_VALUE: BSP_TS_GetState:index <- $r7
	@DEBUG_VALUE: BSP_TS_GetState:TS_State <- $r10
	.loc	2 245 20                @ ../Drivers/BSP/STM32F746/stm32746g_ts.c:245:20
	ldrh.w	r2, [r4, r7, lsl #1]
	.loc	2 246 20                @ ../Drivers/BSP/STM32F746/stm32746g_ts.c:246:20
	ldrh.w	r6, [r8, r7, lsl #1]
	.loc	2 245 18                @ ../Drivers/BSP/STM32F746/stm32746g_ts.c:245:18
	add.w	r0, sp, #50
	strh.w	r2, [r0, r7, lsl #1]
	.loc	2 246 18                @ ../Drivers/BSP/STM32F746/stm32746g_ts.c:246:18
	add	r0, sp, #40
	strh.w	r6, [r0, r7, lsl #1]
	b	.LBB3_5
.Ltmp17:
.LBB3_4:                                @   in Loop: Header=BB3_8 Depth=1
	@DEBUG_VALUE: BSP_TS_GetState:index <- $r7
	@DEBUG_VALUE: BSP_TS_GetState:TS_State <- $r10
	.loc	2 266 16                @ ../Drivers/BSP/STM32F746/stm32746g_ts.c:266:16
	add	r0, sp, #40
	ldrh.w	r6, [r0, r7, lsl #1]
	.loc	2 265 16                @ ../Drivers/BSP/STM32F746/stm32746g_ts.c:265:16
	add.w	r0, sp, #50
	ldrh.w	r2, [r0, r7, lsl #1]
.Ltmp18:
.LBB3_5:                                @   in Loop: Header=BB3_8 Depth=1
	@DEBUG_VALUE: BSP_TS_GetState:index <- $r7
	@DEBUG_VALUE: BSP_TS_GetState:TS_State <- $r10
	.loc	2 265 27 is_stmt 0      @ ../Drivers/BSP/STM32F746/stm32746g_ts.c:265:27
	add.w	r0, r9, r7, lsl #2
	ldr	r3, [r0, #8]
	.loc	2 266 27 is_stmt 1      @ ../Drivers/BSP/STM32F746/stm32746g_ts.c:266:27
	ldr	r1, [r0, #28]
	.loc	2 265 73                @ ../Drivers/BSP/STM32F746/stm32746g_ts.c:265:73
	subs	r4, r3, r2
	.loc	2 265 16 is_stmt 0      @ ../Drivers/BSP/STM32F746/stm32746g_ts.c:265:16
	it	lo
	sublo	r4, r2, r3
	.loc	2 266 73 is_stmt 1      @ ../Drivers/BSP/STM32F746/stm32746g_ts.c:266:73
	subs	r5, r1, r6
	.loc	2 266 16 is_stmt 0      @ ../Drivers/BSP/STM32F746/stm32746g_ts.c:266:16
	it	lo
	sublo	r5, r6, r1
.Ltmp19:
	.loc	2 268 21 is_stmt 1      @ ../Drivers/BSP/STM32F746/stm32746g_ts.c:268:21
	uxth	r5, r5
	.loc	2 268 19 is_stmt 0      @ ../Drivers/BSP/STM32F746/stm32746g_ts.c:268:19
	uxtah	r5, r5, r4
.Ltmp20:
	.loc	2 268 11                @ ../Drivers/BSP/STM32F746/stm32746g_ts.c:268:11
	cmp	r5, #6
.Ltmp21:
	.loc	2 270 19 is_stmt 1      @ ../Drivers/BSP/STM32F746/stm32746g_ts.c:270:19
	itttt	hs
	strhs	r2, [r0, #8]
	.loc	2 271 19                @ ../Drivers/BSP/STM32F746/stm32746g_ts.c:271:19
	strhs	r6, [r0, #28]
	movhs	r1, r6
	movhs	r3, r2
	ldrb.w	r0, [r9]
.Ltmp22:
	.loc	2 274 10                @ ../Drivers/BSP/STM32F746/stm32746g_ts.c:274:10
	cbnz	r0, .LBB3_7
.Ltmp23:
@ %bb.6:                                @   in Loop: Header=BB3_8 Depth=1
	@DEBUG_VALUE: BSP_TS_GetState:index <- $r7
	@DEBUG_VALUE: BSP_TS_GetState:TS_State <- $r10
	.loc	2 283 36                @ ../Drivers/BSP/STM32F746/stm32746g_ts.c:283:36
	ldrh.w	r2, [r9, #4]
	.loc	2 283 48 is_stmt 0      @ ../Drivers/BSP/STM32F746/stm32746g_ts.c:283:48
	muls	r1, r2, r1
	.loc	2 283 61                @ ../Drivers/BSP/STM32F746/stm32746g_ts.c:283:61
	lsrs	r6, r1, #12
	.loc	2 282 36 is_stmt 1      @ ../Drivers/BSP/STM32F746/stm32746g_ts.c:282:36
	ldrh.w	r1, [r9, #2]
	.loc	2 282 48 is_stmt 0      @ ../Drivers/BSP/STM32F746/stm32746g_ts.c:282:48
	muls	r1, r3, r1
	.loc	2 282 61                @ ../Drivers/BSP/STM32F746/stm32746g_ts.c:282:61
	lsrs	r2, r1, #12
.Ltmp24:
.LBB3_7:                                @   in Loop: Header=BB3_8 Depth=1
	@DEBUG_VALUE: BSP_TS_GetState:index <- $r7
	@DEBUG_VALUE: BSP_TS_GetState:TS_State <- $r10
	.loc	2 282 33                @ ../Drivers/BSP/STM32F746/stm32746g_ts.c:282:33
	add.w	r1, r10, r7, lsl #1
.Ltmp25:
	.loc	2 289 30 is_stmt 1      @ ../Drivers/BSP/STM32F746/stm32746g_ts.c:289:30
	cmp	r0, #0
	.loc	2 289 7 is_stmt 0       @ ../Drivers/BSP/STM32F746/stm32746g_ts.c:289:7
	add	r3, sp, #12
.Ltmp26:
	.loc	2 283 33 is_stmt 1      @ ../Drivers/BSP/STM32F746/stm32746g_ts.c:283:33
	strh	r6, [r1, #12]
	.loc	2 282 33                @ ../Drivers/BSP/STM32F746/stm32746g_ts.c:282:33
	strh	r2, [r1, #2]
.Ltmp27:
	@DEBUG_VALUE: BSP_TS_GetState:event <- [DW_OP_plus_uconst 8] [$sp+0]
	.loc	2 289 7                 @ ../Drivers/BSP/STM32F746/stm32746g_ts.c:289:7
	add	r1, sp, #8
	add	r2, sp, #16
	str	r1, [sp]
	.loc	2 289 30 is_stmt 0      @ ../Drivers/BSP/STM32F746/stm32746g_ts.c:289:30
	it	ne
	movne	r0, #112
.Ltmp28:
	@DEBUG_VALUE: BSP_TS_GetState:area <- [DW_OP_plus_uconst 12] [$sp+0]
	@DEBUG_VALUE: BSP_TS_GetState:weight <- [DW_OP_plus_uconst 16] [$sp+0]
	.loc	2 289 7                 @ ../Drivers/BSP/STM32F746/stm32746g_ts.c:289:7
	mov	r1, r7
	bl	ft5336_TS_GetTouchInfo
	.loc	2 292 38 is_stmt 1      @ ../Drivers/BSP/STM32F746/stm32746g_ts.c:292:38
	ldr	r1, [sp, #16]
.Ltmp29:
	@DEBUG_VALUE: BSP_TS_GetState:weight <- $r1
	.loc	2 292 36 is_stmt 0      @ ../Drivers/BSP/STM32F746/stm32746g_ts.c:292:36
	add.w	r0, r10, r7
	add.w	r4, sp, #30
.Ltmp30:
	.loc	2 238 5 is_stmt 1       @ ../Drivers/BSP/STM32F746/stm32746g_ts.c:238:5
	add.w	r11, r11, #2
	.loc	2 238 56 is_stmt 0      @ ../Drivers/BSP/STM32F746/stm32746g_ts.c:238:56
	adds	r7, #1
.Ltmp31:
	@DEBUG_VALUE: BSP_TS_GetState:index <- $r7
	.loc	2 292 36 is_stmt 1      @ ../Drivers/BSP/STM32F746/stm32746g_ts.c:292:36
	strb	r1, [r0, #22]
	.loc	2 293 38                @ ../Drivers/BSP/STM32F746/stm32746g_ts.c:293:38
	ldr	r1, [sp, #12]
.Ltmp32:
	@DEBUG_VALUE: BSP_TS_GetState:area <- $r1
	.loc	2 293 36 is_stmt 0      @ ../Drivers/BSP/STM32F746/stm32746g_ts.c:293:36
	strb.w	r1, [r0, #32]
	.loc	2 296 14 is_stmt 1      @ ../Drivers/BSP/STM32F746/stm32746g_ts.c:296:14
	ldr	r1, [sp, #8]
.Ltmp33:
	@DEBUG_VALUE: BSP_TS_GetState:event <- $r1
	.loc	2 296 7 is_stmt 0       @ ../Drivers/BSP/STM32F746/stm32746g_ts.c:296:7
	cmp	r1, #3
	itttt	ls
	lslls	r1, r1, #3
.Ltmp34:
	ldrls	r2, __arm_cp.3_2
	lsrls.w	r1, r2, r1
	strbls	r1, [r0, #27]
.Ltmp35:
	.loc	2 238 36 is_stmt 1      @ ../Drivers/BSP/STM32F746/stm32746g_ts.c:238:36
	ldrb.w	r0, [r10]
.Ltmp36:
.LBB3_8:                                @ =>This Inner Loop Header: Depth=1
	@DEBUG_VALUE: BSP_TS_GetState:TS_State <- $r10
	@DEBUG_VALUE: BSP_TS_GetState:index <- $r7
	.loc	2 238 26 is_stmt 0      @ ../Drivers/BSP/STM32F746/stm32746g_ts.c:238:26
	uxtb	r0, r0
.Ltmp37:
	.loc	2 238 5                 @ ../Drivers/BSP/STM32F746/stm32746g_ts.c:238:5
	cmp	r7, r0
	blo	.LBB3_2
.Ltmp38:
@ %bb.9:
	@DEBUG_VALUE: BSP_TS_GetState:index <- $r7
	@DEBUG_VALUE: BSP_TS_GetState:TS_State <- $r10
	.loc	2 321 17 is_stmt 1      @ ../Drivers/BSP/STM32F746/stm32746g_ts.c:321:17
	mov	r0, r10
	bl	BSP_TS_Get_GestureId
	mov	r5, r0
.Ltmp39:
.LBB3_10:
	@DEBUG_VALUE: BSP_TS_GetState:TS_State <- $r10
	.loc	2 326 3                 @ ../Drivers/BSP/STM32F746/stm32746g_ts.c:326:3
	mov	r0, r5
	add	sp, #60
	pop.w	{r4, r5, r6, r7, r8, r9, r10, r11, pc}
.Ltmp40:
	.p2align	2
@ %bb.11:
	.loc	2 0 3 is_stmt 0         @ ../Drivers/BSP/STM32F746/stm32746g_ts.c:0:3
__arm_cp.3_0:
	.long	ft5336_ts_drv
.Lcpi_end4:
	.size	__arm_cp.3_0, .Lcpi_end4-__arm_cp.3_0
__arm_cp.3_1:
	.long	.L_MergedGlobals
.Lcpi_end5:
	.size	__arm_cp.3_1, .Lcpi_end5-__arm_cp.3_1
__arm_cp.3_2:
	.long	197121                  @ 0x30201
.Lcpi_end6:
	.size	__arm_cp.3_2, .Lcpi_end6-__arm_cp.3_2
.Lfunc_end3:
	.size	BSP_TS_GetState, .Lfunc_end3-BSP_TS_GetState
	.cfi_endproc
	.cantunwind
	.fnend
                                        @ -- End function
	.section	.text.BSP_TS_Get_GestureId,"ax",%progbits
	.hidden	BSP_TS_Get_GestureId    @ -- Begin function BSP_TS_Get_GestureId
	.globl	BSP_TS_Get_GestureId
	.p2align	2
	.type	BSP_TS_Get_GestureId,%function
	.code	16                      @ @BSP_TS_Get_GestureId
	.thumb_func
BSP_TS_Get_GestureId:
.Lfunc_begin4:
	.loc	2 336 0 is_stmt 1       @ ../Drivers/BSP/STM32F746/stm32746g_ts.c:336:0
	.fnstart
	.cfi_startproc
@ %bb.0:
	.save	{r4, r5, r7, lr}
	.pad	#8
	push	{r2, r3, r4, r5, r7, lr}
	.cfi_def_cfa_offset 24
	.cfi_offset lr, -4
	.cfi_offset r7, -8
	.cfi_offset r5, -12
	.cfi_offset r4, -16
	@DEBUG_VALUE: BSP_TS_Get_GestureId:TS_State <- $r0
	mov	r4, r0
	ldr	r0, __arm_cp.4_0
.Ltmp41:
	movs	r5, #0
.Ltmp42:
	@DEBUG_VALUE: BSP_TS_Get_GestureId:gestureId <- 0
	@DEBUG_VALUE: BSP_TS_Get_GestureId:TS_State <- $r4
	add.w	r1, sp, #7
.Ltmp43:
	@DEBUG_VALUE: BSP_TS_Get_GestureId:gestureId <- [DW_OP_plus_uconst 7, DW_OP_deref] [$sp+0]
	@DEBUG_VALUE: BSP_TS_Get_GestureId:gestureId <- [DW_OP_plus_uconst 7] [$sp+0]
	.loc	2 337 11 prologue_end   @ ../Drivers/BSP/STM32F746/stm32746g_ts.c:337:11
	strb.w	r5, [sp, #7]
.Ltmp44:
	@DEBUG_VALUE: BSP_TS_Get_GestureId:ts_status <- 0
	.loc	2 0 11 is_stmt 0        @ ../Drivers/BSP/STM32F746/stm32746g_ts.c:0:11
	ldrb	r0, [r0]
	.loc	2 341 26 is_stmt 1      @ ../Drivers/BSP/STM32F746/stm32746g_ts.c:341:26
	cmp	r0, #0
	it	ne
	movne	r0, #112
	.loc	2 341 3 is_stmt 0       @ ../Drivers/BSP/STM32F746/stm32746g_ts.c:341:3
	bl	ft5336_TS_GetGestureID
	.loc	2 344 10 is_stmt 1      @ ../Drivers/BSP/STM32F746/stm32746g_ts.c:344:10
	ldrb.w	r0, [sp, #7]
	.loc	2 344 3 is_stmt 0       @ ../Drivers/BSP/STM32F746/stm32746g_ts.c:344:3
	cbz	r0, .LBB4_13
.Ltmp45:
@ %bb.1:
	@DEBUG_VALUE: BSP_TS_Get_GestureId:gestureId <- [DW_OP_plus_uconst 7, DW_OP_deref] [$sp+0]
	@DEBUG_VALUE: BSP_TS_Get_GestureId:TS_State <- $r4
	cmp	r0, #73
	beq	.LBB4_8
.Ltmp46:
@ %bb.2:
	@DEBUG_VALUE: BSP_TS_Get_GestureId:gestureId <- [DW_OP_plus_uconst 7, DW_OP_deref] [$sp+0]
	@DEBUG_VALUE: BSP_TS_Get_GestureId:TS_State <- $r4
	cmp	r0, #20
	beq	.LBB4_9
.Ltmp47:
@ %bb.3:
	@DEBUG_VALUE: BSP_TS_Get_GestureId:gestureId <- [DW_OP_plus_uconst 7, DW_OP_deref] [$sp+0]
	@DEBUG_VALUE: BSP_TS_Get_GestureId:TS_State <- $r4
	cmp	r0, #24
	beq	.LBB4_10
.Ltmp48:
@ %bb.4:
	@DEBUG_VALUE: BSP_TS_Get_GestureId:gestureId <- [DW_OP_plus_uconst 7, DW_OP_deref] [$sp+0]
	@DEBUG_VALUE: BSP_TS_Get_GestureId:TS_State <- $r4
	cmp	r0, #28
	beq	.LBB4_11
.Ltmp49:
@ %bb.5:
	@DEBUG_VALUE: BSP_TS_Get_GestureId:gestureId <- [DW_OP_plus_uconst 7, DW_OP_deref] [$sp+0]
	@DEBUG_VALUE: BSP_TS_Get_GestureId:TS_State <- $r4
	cmp	r0, #64
	beq	.LBB4_12
.Ltmp50:
@ %bb.6:
	@DEBUG_VALUE: BSP_TS_Get_GestureId:gestureId <- [DW_OP_plus_uconst 7, DW_OP_deref] [$sp+0]
	@DEBUG_VALUE: BSP_TS_Get_GestureId:TS_State <- $r4
	cmp	r0, #16
	bne	.LBB4_15
.Ltmp51:
@ %bb.7:
	@DEBUG_VALUE: BSP_TS_Get_GestureId:gestureId <- [DW_OP_plus_uconst 7, DW_OP_deref] [$sp+0]
	@DEBUG_VALUE: BSP_TS_Get_GestureId:TS_State <- $r4
	.loc	2 0 3                   @ ../Drivers/BSP/STM32F746/stm32746g_ts.c:0:3
	movs	r5, #1
	b	.LBB4_13
.Ltmp52:
.LBB4_8:
	@DEBUG_VALUE: BSP_TS_Get_GestureId:gestureId <- [DW_OP_plus_uconst 7, DW_OP_deref] [$sp+0]
	@DEBUG_VALUE: BSP_TS_Get_GestureId:TS_State <- $r4
	movs	r5, #6
	b	.LBB4_13
.Ltmp53:
.LBB4_9:
	@DEBUG_VALUE: BSP_TS_Get_GestureId:gestureId <- [DW_OP_plus_uconst 7, DW_OP_deref] [$sp+0]
	@DEBUG_VALUE: BSP_TS_Get_GestureId:TS_State <- $r4
	movs	r5, #2
	b	.LBB4_13
.Ltmp54:
.LBB4_10:
	@DEBUG_VALUE: BSP_TS_Get_GestureId:gestureId <- [DW_OP_plus_uconst 7, DW_OP_deref] [$sp+0]
	@DEBUG_VALUE: BSP_TS_Get_GestureId:TS_State <- $r4
	movs	r5, #3
	b	.LBB4_13
.Ltmp55:
.LBB4_11:
	@DEBUG_VALUE: BSP_TS_Get_GestureId:gestureId <- [DW_OP_plus_uconst 7, DW_OP_deref] [$sp+0]
	@DEBUG_VALUE: BSP_TS_Get_GestureId:TS_State <- $r4
	movs	r5, #4
	b	.LBB4_13
.Ltmp56:
.LBB4_12:
	@DEBUG_VALUE: BSP_TS_Get_GestureId:gestureId <- [DW_OP_plus_uconst 7, DW_OP_deref] [$sp+0]
	@DEBUG_VALUE: BSP_TS_Get_GestureId:TS_State <- $r4
	movs	r5, #5
.Ltmp57:
.LBB4_13:
	@DEBUG_VALUE: BSP_TS_Get_GestureId:gestureId <- [DW_OP_plus_uconst 7, DW_OP_deref] [$sp+0]
	@DEBUG_VALUE: BSP_TS_Get_GestureId:TS_State <- $r4
	movs	r0, #0
	str	r5, [r4, #40]
.Ltmp58:
.LBB4_14:
	@DEBUG_VALUE: BSP_TS_Get_GestureId:gestureId <- [DW_OP_plus_uconst 7, DW_OP_deref] [$sp+0]
	@DEBUG_VALUE: BSP_TS_Get_GestureId:TS_State <- $r4
	.loc	2 372 3 is_stmt 1       @ ../Drivers/BSP/STM32F746/stm32746g_ts.c:372:3
	add	sp, #8
.Ltmp59:
	pop	{r4, r5, r7, pc}
.Ltmp60:
.LBB4_15:
	@DEBUG_VALUE: BSP_TS_Get_GestureId:gestureId <- [DW_OP_plus_uconst 7, DW_OP_deref] [$sp+0]
	@DEBUG_VALUE: BSP_TS_Get_GestureId:TS_State <- $r4
	.loc	2 0 3 is_stmt 0         @ ../Drivers/BSP/STM32F746/stm32746g_ts.c:0:3
	movs	r0, #1
	b	.LBB4_14
.Ltmp61:
	.p2align	2
@ %bb.16:
__arm_cp.4_0:
	.long	.L_MergedGlobals
.Lcpi_end7:
	.size	__arm_cp.4_0, .Lcpi_end7-__arm_cp.4_0
.Lfunc_end4:
	.size	BSP_TS_Get_GestureId, .Lfunc_end4-BSP_TS_Get_GestureId
	.cfi_endproc
	.cantunwind
	.fnend
                                        @ -- End function
	.section	.text.BSP_TS_ITClear,"ax",%progbits
	.hidden	BSP_TS_ITClear          @ -- Begin function BSP_TS_ITClear
	.globl	BSP_TS_ITClear
	.p2align	2
	.type	BSP_TS_ITClear,%function
	.code	16                      @ @BSP_TS_ITClear
	.thumb_func
BSP_TS_ITClear:
.Lfunc_begin5:
	.loc	2 380 0 is_stmt 1       @ ../Drivers/BSP/STM32F746/stm32746g_ts.c:380:0
	.fnstart
	.cfi_startproc
@ %bb.0:
	.loc	2 382 13 prologue_end   @ ../Drivers/BSP/STM32F746/stm32746g_ts.c:382:13
	ldr	r0, __arm_cp.5_0
	ldr	r1, [r0, #28]
	ldr	r0, __arm_cp.5_1
	ldrb	r0, [r0]
	.loc	2 382 21 is_stmt 0      @ ../Drivers/BSP/STM32F746/stm32746g_ts.c:382:21
	cmp	r0, #0
	it	ne
	movne	r0, #112
	.loc	2 382 3                 @ ../Drivers/BSP/STM32F746/stm32746g_ts.c:382:3
	bx	r1
.Ltmp62:
	.p2align	2
@ %bb.1:
	.loc	2 0 3                   @ ../Drivers/BSP/STM32F746/stm32746g_ts.c:0:3
__arm_cp.5_0:
	.long	ft5336_ts_drv
.Lcpi_end8:
	.size	__arm_cp.5_0, .Lcpi_end8-__arm_cp.5_0
__arm_cp.5_1:
	.long	.L_MergedGlobals
.Lcpi_end9:
	.size	__arm_cp.5_1, .Lcpi_end9-__arm_cp.5_1
.Lfunc_end5:
	.size	BSP_TS_ITClear, .Lfunc_end5-BSP_TS_ITClear
	.cfi_endproc
	.cantunwind
	.fnend
                                        @ -- End function
	.section	.text.BSP_TS_ResetTouchData,"ax",%progbits
	.hidden	BSP_TS_ResetTouchData   @ -- Begin function BSP_TS_ResetTouchData
	.globl	BSP_TS_ResetTouchData
	.p2align	1
	.type	BSP_TS_ResetTouchData,%function
	.code	16                      @ @BSP_TS_ResetTouchData
	.thumb_func
BSP_TS_ResetTouchData:
.Lfunc_begin6:
	.loc	2 398 0 is_stmt 1       @ ../Drivers/BSP/STM32F746/stm32746g_ts.c:398:0
	.fnstart
	.cfi_startproc
@ %bb.0:
	@DEBUG_VALUE: BSP_TS_ResetTouchData:TS_State <- $r0
	@DEBUG_VALUE: BSP_TS_ResetTouchData:TS_State <- $r0
	@DEBUG_VALUE: BSP_TS_ResetTouchData:ts_status <- 1
	.loc	2 402 7 prologue_end    @ ../Drivers/BSP/STM32F746/stm32746g_ts.c:402:7
	cbz	r0, .LBB6_5
.Ltmp63:
@ %bb.1:
	@DEBUG_VALUE: BSP_TS_ResetTouchData:TS_State <- $r0
	.loc	2 407 9                 @ ../Drivers/BSP/STM32F746/stm32746g_ts.c:407:9
	add.w	r12, r0, #22
	movs	r1, #0
	mvn	r2, #9
	mov	r3, r12
.Ltmp64:
	.loc	2 405 29                @ ../Drivers/BSP/STM32F746/stm32746g_ts.c:405:29
	strb	r1, [r0]
	.loc	2 404 25                @ ../Drivers/BSP/STM32F746/stm32746g_ts.c:404:25
	str	r1, [r0, #40]
.Ltmp65:
	@DEBUG_VALUE: BSP_TS_ResetTouchData:index <- 0
	.loc	2 0 25 is_stmt 0        @ ../Drivers/BSP/STM32F746/stm32746g_ts.c:0:25
	b	.LBB6_3
.Ltmp66:
.LBB6_2:                                @   in Loop: Header=BB6_3 Depth=1
	@DEBUG_VALUE: BSP_TS_ResetTouchData:TS_State <- $r0
	.loc	2 409 37 is_stmt 1      @ ../Drivers/BSP/STM32F746/stm32746g_ts.c:409:37
	add.w	r0, r12, r2
.Ltmp67:
	.loc	2 410 37                @ ../Drivers/BSP/STM32F746/stm32746g_ts.c:410:37
	strh.w	r1, [r12, r2]
.Ltmp68:
	.loc	2 407 5                 @ ../Drivers/BSP/STM32F746/stm32746g_ts.c:407:5
	adds	r2, #2
.Ltmp69:
	.loc	2 409 37                @ ../Drivers/BSP/STM32F746/stm32746g_ts.c:409:37
	strh	r1, [r0, #-10]
	.loc	2 412 37                @ ../Drivers/BSP/STM32F746/stm32746g_ts.c:412:37
	strb	r1, [r3, #5]
	.loc	2 411 37                @ ../Drivers/BSP/STM32F746/stm32746g_ts.c:411:37
	strb	r1, [r3, #10]
	.loc	2 413 37                @ ../Drivers/BSP/STM32F746/stm32746g_ts.c:413:37
	strb	r1, [r3]
.Ltmp70:
	.loc	2 407 5                 @ ../Drivers/BSP/STM32F746/stm32746g_ts.c:407:5
	adds	r3, #1
.Ltmp71:
.LBB6_3:                                @ =>This Inner Loop Header: Depth=1
	@DEBUG_VALUE: BSP_TS_ResetTouchData:TS_State <- $r0
	.loc	2 407 5 is_stmt 0       @ ../Drivers/BSP/STM32F746/stm32746g_ts.c:407:5
	cmp	r2, #0
	bne	.LBB6_2
.Ltmp72:
@ %bb.4:
	@DEBUG_VALUE: BSP_TS_ResetTouchData:TS_State <- $r0
	.loc	2 0 5                   @ ../Drivers/BSP/STM32F746/stm32746g_ts.c:0:5
	movs	r0, #0
.Ltmp73:
	.loc	2 420 3 is_stmt 1       @ ../Drivers/BSP/STM32F746/stm32746g_ts.c:420:3
	bx	lr
.LBB6_5:
.Ltmp74:
	@DEBUG_VALUE: BSP_TS_ResetTouchData:TS_State <- $r0
	.loc	2 0 3 is_stmt 0         @ ../Drivers/BSP/STM32F746/stm32746g_ts.c:0:3
	movs	r0, #1
.Ltmp75:
	.loc	2 420 3                 @ ../Drivers/BSP/STM32F746/stm32746g_ts.c:420:3
	bx	lr
.Ltmp76:
.Lfunc_end6:
	.size	BSP_TS_ResetTouchData, .Lfunc_end6-BSP_TS_ResetTouchData
	.cfi_endproc
	.cantunwind
	.fnend
                                        @ -- End function
	.type	.L_MergedGlobals,%object @ @_MergedGlobals
	.section	.bss..L_MergedGlobals,"aw",%nobits
	.p2align	4
.L_MergedGlobals:
	.zero	48
	.size	.L_MergedGlobals, 48

	.section	".note.GNU-stack","",%progbits
	.eabi_attribute	30, 4	@ Tag_ABI_optimization_goals
	.ARM_attribute	16, 1	@ Tag_AV_eba