	.text
	.syntax unified
	.eabi_attribute	67, "2.09"	@ Tag_conformance
	.cpu	cortex-m7
	.eabi_attribute	6, 13	@ Tag_CPU_arch
	.eabi_attribute	7, 77	@ Tag_CPU_arch_profile
	.eabi_attribute	8, 0	@ Tag_ARM_ISA_use
	.eabi_attribute	9, 2	@ Tag_THUMB_ISA_use
	.fpu	fpv5-sp-d16
	.eabi_attribute	27, 1	@ Tag_ABI_HardFP_use
	.eabi_attribute	36, 1	@ Tag_FP_HP_extension
	.eabi_attribute	34, 1	@ Tag_CPU_unaligned_access
	.eabi_attribute	17, 1	@ Tag_ABI_PCS_GOT_use
	.eabi_attribute	20, 2	@ Tag_ABI_FP_denormal
	.eabi_attribute	21, 0	@ Tag_ABI_FP_exceptions
	.eabi_attribute	23, 1	@ Tag_ABI_FP_number_model
	.eabi_attribute	24, 1	@ Tag_ABI_align_needed
	.eabi_attribute	25, 1	@ Tag_ABI_align_preserved
	.eabi_attribute	28, 1	@ Tag_ABI_VFP_args
	.eabi_attribute	38, 1	@ Tag_ABI_FP_16bit_format
	.eabi_attribute	18, 2	@ Tag_ABI_PCS_wchar_t
	.eabi_attribute	26, 1	@ Tag_ABI_enum_size
	.eabi_attribute	14, 0	@ Tag_ABI_PCS_R9_use
	.file	"stm32746g_qspi.c"
	.file	1 "C:\\Keil\\ARM\\ARMCLANG\\Bin\\..\\include" "stdint.h"
	.file	2 "../Drivers/CMSIS/Device/ST/STM32F7xx/Include" "stm32f746xx.h"
	.file	3 "../Drivers/STM32F7xx_HAL_Driver/Inc" "stm32f7xx_hal_qspi.h"
	.file	4 "../Drivers/STM32F7xx_HAL_Driver/Inc" "stm32f7xx_hal_dma.h"
	.file	5 "../Drivers/STM32F7xx_HAL_Driver/Inc" "stm32f7xx_hal_def.h"
	.file	6 "../Drivers/BSP/STM32F746" "stm32746g_qspi.c"
	.section	.text.BSP_QSPI_Init,"ax",%progbits
	.hidden	BSP_QSPI_Init           @ -- Begin function BSP_QSPI_Init
	.globl	BSP_QSPI_Init
	.p2align	2
	.type	BSP_QSPI_Init,%function
	.code	16                      @ @BSP_QSPI_Init
	.thumb_func
BSP_QSPI_Init:
.Lfunc_begin0:
	.loc	6 125 0                 @ ../Drivers/BSP/STM32F746/stm32746g_qspi.c:125:0
	.fnstart
	.cfi_sections .debug_frame
	.cfi_startproc
@ %bb.0:
	.save	{r4, r5, r6, lr}
	push	{r4, r5, r6, lr}
	.cfi_def_cfa_offset 16
	.cfi_offset lr, -4
	.cfi_offset r6, -8
	.cfi_offset r5, -12
	.cfi_offset r4, -16
	.pad	#64
	sub	sp, #64
	.cfi_def_cfa_offset 80
.Ltmp0:
	.loc	6 126 20 prologue_end   @ ../Drivers/BSP/STM32F746/stm32746g_qspi.c:126:20
	ldr	r4, __arm_cp.0_0
	ldr	r0, __arm_cp.0_1
	str	r0, [r4]
.Ltmp1:
	.loc	6 129 9                 @ ../Drivers/BSP/STM32F746/stm32746g_qspi.c:129:9
	mov	r0, r4
	bl	HAL_QSPI_DeInit
.Ltmp2:
	.loc	6 129 9 is_stmt 0       @ ../Drivers/BSP/STM32F746/stm32746g_qspi.c:129:9
	cbnz	r0, .LBB0_2
@ %bb.1:
	.loc	6 135 5 is_stmt 1       @ ../Drivers/BSP/STM32F746/stm32746g_qspi.c:135:5
	mov	r0, r4
	movs	r1, #0
	movs	r5, #0
	bl	BSP_QSPI_MspInit
	movs	r0, #4
	.loc	6 138 35                @ ../Drivers/BSP/STM32F746/stm32746g_qspi.c:138:35
	movs	r1, #2
	movs	r2, #16
	.loc	6 141 35                @ ../Drivers/BSP/STM32F746/stm32746g_qspi.c:141:35
	movs	r3, #23
	.loc	6 142 35                @ ../Drivers/BSP/STM32F746/stm32746g_qspi.c:142:35
	mov.w	r6, #256
	.loc	6 138 35                @ ../Drivers/BSP/STM32F746/stm32746g_qspi.c:138:35
	strd	r1, r0, [r4, #4]
	.loc	6 140 35                @ ../Drivers/BSP/STM32F746/stm32746g_qspi.c:140:35
	add.w	r0, r4, #12
	stm	r0!, {r2, r3, r6}
	.loc	6 143 35                @ ../Drivers/BSP/STM32F746/stm32746g_qspi.c:143:35
	strd	r5, r5, [r4, #24]
	.loc	6 145 35                @ ../Drivers/BSP/STM32F746/stm32746g_qspi.c:145:35
	str	r5, [r4, #32]
.Ltmp3:
	.loc	6 147 9                 @ ../Drivers/BSP/STM32F746/stm32746g_qspi.c:147:9
	mov	r0, r4
	bl	HAL_QSPI_Init
.Ltmp4:
	.loc	6 147 9 is_stmt 0       @ ../Drivers/BSP/STM32F746/stm32746g_qspi.c:147:9
	cbz	r0, .LBB0_4
.LBB0_2:
	.loc	6 0 9                   @ ../Drivers/BSP/STM32F746/stm32746g_qspi.c:0:9
	movs	r0, #1
.LBB0_3:
	.loc	6 170 1 is_stmt 1       @ ../Drivers/BSP/STM32F746/stm32746g_qspi.c:170:1
	uxtb	r0, r0
	add	sp, #64
	pop	{r4, r5, r6, pc}
.LBB0_4:
.Ltmp5:
	.loc	6 615 33                @ ../Drivers/BSP/STM32F746/stm32746g_qspi.c:615:33
	movs	r0, #102
	add	r1, sp, #8
.Ltmp6:
	@DEBUG_VALUE: QSPI_ResetMemory:s_command <- [DW_OP_plus_uconst 8] [$sp+0]
	.loc	6 625 9                 @ ../Drivers/BSP/STM32F746/stm32746g_qspi.c:625:9
	movw	r2, #5000
.Ltmp7:
	.loc	6 615 33                @ ../Drivers/BSP/STM32F746/stm32746g_qspi.c:615:33
	str	r0, [sp, #8]
.Ltmp8:
	.loc	6 625 9                 @ ../Drivers/BSP/STM32F746/stm32746g_qspi.c:625:9
	ldr	r0, __arm_cp.0_0
.Ltmp9:
	@DEBUG_VALUE: QSPI_ResetMemory:hqspi <- $r0
	.loc	6 616 33                @ ../Drivers/BSP/STM32F746/stm32746g_qspi.c:616:33
	strd	r5, r5, [sp, #36]
	.loc	6 618 33                @ ../Drivers/BSP/STM32F746/stm32746g_qspi.c:618:33
	str	r5, [sp, #44]
	.loc	6 619 33                @ ../Drivers/BSP/STM32F746/stm32746g_qspi.c:619:33
	strd	r5, r6, [sp, #28]
	.loc	6 620 33                @ ../Drivers/BSP/STM32F746/stm32746g_qspi.c:620:33
	strd	r5, r5, [sp, #52]
	.loc	6 622 33                @ ../Drivers/BSP/STM32F746/stm32746g_qspi.c:622:33
	str	r5, [sp, #60]
.Ltmp10:
	.loc	6 625 9                 @ ../Drivers/BSP/STM32F746/stm32746g_qspi.c:625:9
	bl	HAL_QSPI_Command
.Ltmp11:
	.loc	6 625 9 is_stmt 0       @ ../Drivers/BSP/STM32F746/stm32746g_qspi.c:625:9
	cmp	r0, #0
	bne	.LBB0_12
.Ltmp12:
@ %bb.5:
	@DEBUG_VALUE: QSPI_ResetMemory:s_command <- [DW_OP_plus_uconst 8] [$sp+0]
	.loc	6 631 27 is_stmt 1      @ ../Drivers/BSP/STM32F746/stm32746g_qspi.c:631:27
	movs	r0, #153
	add	r1, sp, #8
	@DEBUG_VALUE: QSPI_ResetMemory:s_command <- [DW_OP_plus_uconst 8] [$sp+0]
.Ltmp13:
	.loc	6 632 9                 @ ../Drivers/BSP/STM32F746/stm32746g_qspi.c:632:9
	movw	r2, #5000
.Ltmp14:
	.loc	6 631 27                @ ../Drivers/BSP/STM32F746/stm32746g_qspi.c:631:27
	str	r0, [sp, #8]
.Ltmp15:
	.loc	6 632 9                 @ ../Drivers/BSP/STM32F746/stm32746g_qspi.c:632:9
	ldr	r0, __arm_cp.0_0
	bl	HAL_QSPI_Command
.Ltmp16:
	.loc	6 632 9 is_stmt 0       @ ../Drivers/BSP/STM32F746/stm32746g_qspi.c:632:9
	cmp	r0, #0
	bne	.LBB0_12
.Ltmp17:
@ %bb.6:
	@DEBUG_VALUE: QSPI_ResetMemory:s_command <- [DW_OP_plus_uconst 8] [$sp+0]
	.loc	6 638 9 is_stmt 1       @ ../Drivers/BSP/STM32F746/stm32746g_qspi.c:638:9
	movw	r0, #5000
	bl	QSPI_AutoPollingMemReady
.Ltmp18:
	.loc	6 153 9                 @ ../Drivers/BSP/STM32F746/stm32746g_qspi.c:153:9
	cbnz	r0, .LBB0_12
.Ltmp19:
@ %bb.7:
	.loc	6 658 33                @ ../Drivers/BSP/STM32F746/stm32746g_qspi.c:658:33
	movs	r0, #133
	.loc	6 661 33                @ ../Drivers/BSP/STM32F746/stm32746g_qspi.c:661:33
	mov.w	r1, #16777216
.Ltmp20:
	.loc	6 669 9                 @ ../Drivers/BSP/STM32F746/stm32746g_qspi.c:669:9
	movw	r2, #5000
.Ltmp21:
	.loc	6 658 33                @ ../Drivers/BSP/STM32F746/stm32746g_qspi.c:658:33
	str	r0, [sp, #8]
	.loc	6 657 33                @ ../Drivers/BSP/STM32F746/stm32746g_qspi.c:657:33
	mov.w	r0, #256
	str	r0, [sp, #32]
	movs	r0, #0
	.loc	6 659 33                @ ../Drivers/BSP/STM32F746/stm32746g_qspi.c:659:33
	strd	r0, r0, [sp, #36]
	.loc	6 661 33                @ ../Drivers/BSP/STM32F746/stm32746g_qspi.c:661:33
	str	r1, [sp, #44]
	movs	r1, #1
	.loc	6 662 33                @ ../Drivers/BSP/STM32F746/stm32746g_qspi.c:662:33
	str	r0, [sp, #28]
	.loc	6 663 33                @ ../Drivers/BSP/STM32F746/stm32746g_qspi.c:663:33
	strd	r1, r0, [sp, #48]
	.loc	6 665 33                @ ../Drivers/BSP/STM32F746/stm32746g_qspi.c:665:33
	strd	r0, r0, [sp, #56]
.Ltmp22:
	.loc	6 669 9                 @ ../Drivers/BSP/STM32F746/stm32746g_qspi.c:669:9
	ldr	r0, __arm_cp.0_0
.Ltmp23:
	@DEBUG_VALUE: QSPI_DummyCyclesCfg:hqspi <- $r0
	.loc	6 0 9 is_stmt 0         @ ../Drivers/BSP/STM32F746/stm32746g_qspi.c:0:9
	add	r1, sp, #8
.Ltmp24:
	@DEBUG_VALUE: QSPI_DummyCyclesCfg:s_command <- [DW_OP_plus_uconst 8] [$sp+0]
	.loc	6 669 9                 @ ../Drivers/BSP/STM32F746/stm32746g_qspi.c:669:9
	bl	HAL_QSPI_Command
.Ltmp25:
	.loc	6 669 9                 @ ../Drivers/BSP/STM32F746/stm32746g_qspi.c:669:9
	cbnz	r0, .LBB0_12
.Ltmp26:
@ %bb.8:
	@DEBUG_VALUE: QSPI_DummyCyclesCfg:s_command <- [DW_OP_plus_uconst 8] [$sp+0]
	.loc	6 675 9 is_stmt 1       @ ../Drivers/BSP/STM32F746/stm32746g_qspi.c:675:9
	ldr	r0, __arm_cp.0_0
	add.w	r1, sp, #7
.Ltmp27:
	@DEBUG_VALUE: QSPI_DummyCyclesCfg:reg <- [DW_OP_plus_uconst 7] [$sp+0]
	movw	r2, #5000
	bl	HAL_QSPI_Receive
.Ltmp28:
	.loc	6 675 9 is_stmt 0       @ ../Drivers/BSP/STM32F746/stm32746g_qspi.c:675:9
	cbnz	r0, .LBB0_12
.Ltmp29:
@ %bb.9:
	@DEBUG_VALUE: QSPI_DummyCyclesCfg:reg <- [DW_OP_plus_uconst 7] [$sp+0]
	@DEBUG_VALUE: QSPI_DummyCyclesCfg:s_command <- [DW_OP_plus_uconst 8] [$sp+0]
	.loc	6 681 9 is_stmt 1       @ ../Drivers/BSP/STM32F746/stm32746g_qspi.c:681:9
	bl	QSPI_WriteEnable
.Ltmp30:
	.loc	6 681 9 is_stmt 0       @ ../Drivers/BSP/STM32F746/stm32746g_qspi.c:681:9
	cbnz	r0, .LBB0_12
.Ltmp31:
@ %bb.10:
	@DEBUG_VALUE: QSPI_DummyCyclesCfg:reg <- [DW_OP_plus_uconst 7] [$sp+0]
	@DEBUG_VALUE: QSPI_DummyCyclesCfg:s_command <- [DW_OP_plus_uconst 8] [$sp+0]
	.loc	6 687 27 is_stmt 1      @ ../Drivers/BSP/STM32F746/stm32746g_qspi.c:687:27
	movs	r0, #129
	.loc	6 688 5                 @ ../Drivers/BSP/STM32F746/stm32746g_qspi.c:688:5
	movs	r1, #10
.Ltmp32:
	.loc	6 691 9                 @ ../Drivers/BSP/STM32F746/stm32746g_qspi.c:691:9
	movw	r2, #5000
.Ltmp33:
	.loc	6 687 27                @ ../Drivers/BSP/STM32F746/stm32746g_qspi.c:687:27
	str	r0, [sp, #8]
	.loc	6 688 5                 @ ../Drivers/BSP/STM32F746/stm32746g_qspi.c:688:5
	ldrb.w	r0, [sp, #7]
	bfi	r0, r1, #4, #28
	add	r1, sp, #8
	@DEBUG_VALUE: QSPI_DummyCyclesCfg:s_command <- [DW_OP_plus_uconst 8] [$sp+0]
	strb.w	r0, [sp, #7]
.Ltmp34:
	.loc	6 691 9                 @ ../Drivers/BSP/STM32F746/stm32746g_qspi.c:691:9
	ldr	r0, __arm_cp.0_0
	bl	HAL_QSPI_Command
.Ltmp35:
	.loc	6 691 9 is_stmt 0       @ ../Drivers/BSP/STM32F746/stm32746g_qspi.c:691:9
	cbnz	r0, .LBB0_12
.Ltmp36:
@ %bb.11:
	@DEBUG_VALUE: QSPI_DummyCyclesCfg:reg <- [DW_OP_plus_uconst 7] [$sp+0]
	@DEBUG_VALUE: QSPI_DummyCyclesCfg:s_command <- [DW_OP_plus_uconst 8] [$sp+0]
	.loc	6 697 9 is_stmt 1       @ ../Drivers/BSP/STM32F746/stm32746g_qspi.c:697:9
	ldr	r0, __arm_cp.0_0
	add.w	r1, sp, #7
	@DEBUG_VALUE: QSPI_DummyCyclesCfg:reg <- [DW_OP_plus_uconst 7] [$sp+0]
	movw	r2, #5000
	bl	HAL_QSPI_Transmit
.Ltmp37:
	.loc	6 159 9                 @ ../Drivers/BSP/STM32F746/stm32746g_qspi.c:159:9
	cbz	r0, .LBB0_13
.Ltmp38:
.LBB0_12:
	.loc	6 0 9 is_stmt 0         @ ../Drivers/BSP/STM32F746/stm32746g_qspi.c:0:9
	movs	r0, #4
	b	.LBB0_3
.LBB0_13:
.Ltmp39:
	.loc	6 164 8 is_stmt 1       @ ../Drivers/BSP/STM32F746/stm32746g_qspi.c:164:8
	bl	BSP_QSPI_EnableMemoryMappedMode
.Ltmp40:
	.loc	6 164 8 is_stmt 0       @ ../Drivers/BSP/STM32F746/stm32746g_qspi.c:164:8
	cmp	r0, #0
	it	ne
	movne	r0, #4
	add	sp, #64
	pop	{r4, r5, r6, pc}
.Ltmp41:
	.p2align	2
@ %bb.14:
	.loc	6 0 8                   @ ../Drivers/BSP/STM32F746/stm32746g_qspi.c:0:8
__arm_cp.0_0:
	.long	hqspi
.Lcpi_end0:
	.size	__arm_cp.0_0, .Lcpi_end0-__arm_cp.0_0
__arm_cp.0_1:
	.long	2684358656              @ 0xa0001000
.Lcpi_end1:
	.size	__arm_cp.0_1, .Lcpi_end1-__arm_cp.0_1
.Lfunc_end0:
	.size	BSP_QSPI_Init, .Lfunc_end0-BSP_QSPI_Init
	.cfi_endproc
	.cantunwind
	.fnend
                                        @ -- End function
	.section	.text.BSP_QSPI_MspInit,"ax",%progbits
	.hidden	BSP_QSPI_MspInit        @ -- Begin function BSP_QSPI_MspInit
	.weak	BSP_QSPI_MspInit
	.p2align	2
	.type	BSP_QSPI_MspInit,%function
	.code	16                      @ @BSP_QSPI_MspInit
	.thumb_func
BSP_QSPI_MspInit:
.Lfunc_begin1:
	.loc	6 516 0 is_stmt 1       @ ../Drivers/BSP/STM32F746/stm32746g_qspi.c:516:0
	.fnstart
	.cfi_startproc
@ %bb.0:
	.save	{r4, r5, r6, r7, r8, r9, r10, lr}
	push.w	{r4, r5, r6, r7, r8, r9, r10, lr}
	.cfi_def_cfa_offset 32
	.cfi_offset lr, -4
	.cfi_offset r10, -8
	.cfi_offset r9, -12
	.cfi_offset r8, -16
	.cfi_offset r7, -20
	.cfi_offset r6, -24
	.cfi_offset r5, -28
	.cfi_offset r4, -32
	.pad	#24
	sub	sp, #24
	.cfi_def_cfa_offset 56
	@DEBUG_VALUE: BSP_QSPI_MspInit:hqspi <- $r0
	@DEBUG_VALUE: BSP_QSPI_MspInit:Params <- $r1
	ldr	r0, __arm_cp.1_0
.Ltmp42:
	ldr	r4, __arm_cp.1_1
.Ltmp43:
	.loc	6 540 3 prologue_end    @ ../Drivers/BSP/STM32F746/stm32746g_qspi.c:540:3
	ldr	r7, __arm_cp.1_2
	.loc	6 535 29                @ ../Drivers/BSP/STM32F746/stm32746g_qspi.c:535:29
	mov.w	r8, #64
	add	r5, sp, #4
.Ltmp44:
	@DEBUG_VALUE: BSP_QSPI_MspInit:GPIO_InitStruct <- [DW_OP_plus_uconst 4] [$sp+0]
	.loc	6 539 29                @ ../Drivers/BSP/STM32F746/stm32746g_qspi.c:539:29
	mov.w	r10, #10
.Ltmp45:
	.loc	6 521 3                 @ ../Drivers/BSP/STM32F746/stm32746g_qspi.c:521:3
	ldr	r1, [r0, #8]
.Ltmp46:
	.loc	6 540 3                 @ ../Drivers/BSP/STM32F746/stm32746g_qspi.c:540:3
	sub.w	r6, r4, #4096
.Ltmp47:
	.loc	6 521 3                 @ ../Drivers/BSP/STM32F746/stm32746g_qspi.c:521:3
	orr	r1, r1, #2
	str	r1, [r0, #8]
	ldr	r1, [r0, #8]
	and	r1, r1, #2
.Ltmp48:
	@DEBUG_VALUE: tmpreg <- $r1
	str	r1, [sp, #4]
	ldr	r1, [sp, #4]
.Ltmp49:
	@DEBUG_VALUE: tmpreg <- $r1
	.loc	6 523 3                 @ ../Drivers/BSP/STM32F746/stm32746g_qspi.c:523:3
	ldr	r1, [r0, #-24]
.Ltmp50:
	orr	r1, r1, #2
	str	r1, [r0, #-24]
	.loc	6 524 3                 @ ../Drivers/BSP/STM32F746/stm32746g_qspi.c:524:3
	ldr	r1, [r0, #-24]
	bic	r1, r1, #2
	str	r1, [r0, #-24]
.Ltmp51:
	.loc	6 526 3                 @ ../Drivers/BSP/STM32F746/stm32746g_qspi.c:526:3
	ldr	r1, [r0]
	orr	r1, r1, #2
	str	r1, [r0]
	ldr	r1, [r0]
	and	r1, r1, #2
.Ltmp52:
	@DEBUG_VALUE: tmpreg <- $r1
	str	r1, [sp, #4]
	ldr	r1, [sp, #4]
.Ltmp53:
	@DEBUG_VALUE: tmpreg <- $r1
	.loc	6 527 3                 @ ../Drivers/BSP/STM32F746/stm32746g_qspi.c:527:3
	ldr	r1, [r0]
.Ltmp54:
	orr	r1, r1, #2
	str	r1, [r0]
	ldr	r1, [r0]
	and	r1, r1, #2
.Ltmp55:
	@DEBUG_VALUE: tmpreg <- $r1
	str	r1, [sp, #4]
	ldr	r1, [sp, #4]
.Ltmp56:
	@DEBUG_VALUE: tmpreg <- $r1
	.loc	6 528 3                 @ ../Drivers/BSP/STM32F746/stm32746g_qspi.c:528:3
	ldr	r1, [r0]
.Ltmp57:
	orr	r1, r1, #8
	str	r1, [r0]
	ldr	r1, [r0]
	and	r1, r1, #8
.Ltmp58:
	@DEBUG_VALUE: tmpreg <- $r1
	str	r1, [sp, #4]
	ldr	r1, [sp, #4]
.Ltmp59:
	@DEBUG_VALUE: tmpreg <- $r1
	.loc	6 529 3                 @ ../Drivers/BSP/STM32F746/stm32746g_qspi.c:529:3
	ldr	r1, [r0]
.Ltmp60:
	orr	r1, r1, #8
	str	r1, [r0]
	ldr	r1, [r0]
	and	r1, r1, #8
.Ltmp61:
	@DEBUG_VALUE: tmpreg <- $r1
	str	r1, [sp, #4]
	ldr	r1, [sp, #4]
.Ltmp62:
	@DEBUG_VALUE: tmpreg <- $r1
	.loc	6 530 3                 @ ../Drivers/BSP/STM32F746/stm32746g_qspi.c:530:3
	ldr	r1, [r0]
.Ltmp63:
	orr	r1, r1, #16
	str	r1, [r0]
	ldr	r1, [r0]
	and	r1, r1, #16
.Ltmp64:
	@DEBUG_VALUE: tmpreg <- $r1
	str	r1, [sp, #4]
	ldr	r1, [sp, #4]
.Ltmp65:
	@DEBUG_VALUE: tmpreg <- $r1
	.loc	6 531 3                 @ ../Drivers/BSP/STM32F746/stm32746g_qspi.c:531:3
	ldr	r1, [r0]
.Ltmp66:
	orr	r1, r1, #8
	str	r1, [r0]
.Ltmp67:
	.loc	6 540 3                 @ ../Drivers/BSP/STM32F746/stm32746g_qspi.c:540:3
	mov	r1, r5
.Ltmp68:
	.loc	6 531 3                 @ ../Drivers/BSP/STM32F746/stm32746g_qspi.c:531:3
	ldr	r0, [r0]
	and	r0, r0, #8
.Ltmp69:
	@DEBUG_VALUE: tmpreg <- $r0
	str	r0, [sp, #4]
	ldr	r0, [sp, #4]
.Ltmp70:
	@DEBUG_VALUE: tmpreg <- $r0
	.loc	6 521 3                 @ ../Drivers/BSP/STM32F746/stm32746g_qspi.c:521:3
	movs	r0, #2
.Ltmp71:
	.loc	6 536 29                @ ../Drivers/BSP/STM32F746/stm32746g_qspi.c:536:29
	str	r0, [sp, #8]
	.loc	6 537 29                @ ../Drivers/BSP/STM32F746/stm32746g_qspi.c:537:29
	movs	r0, #1
	.loc	6 535 29                @ ../Drivers/BSP/STM32F746/stm32746g_qspi.c:535:29
	str.w	r8, [sp, #4]
	.loc	6 537 29                @ ../Drivers/BSP/STM32F746/stm32746g_qspi.c:537:29
	str	r0, [sp, #12]
	.loc	6 538 29                @ ../Drivers/BSP/STM32F746/stm32746g_qspi.c:538:29
	movs	r0, #3
	str	r0, [sp, #16]
	.loc	6 540 3                 @ ../Drivers/BSP/STM32F746/stm32746g_qspi.c:540:3
	mov	r0, r6
	.loc	6 539 29                @ ../Drivers/BSP/STM32F746/stm32746g_qspi.c:539:29
	str.w	r10, [sp, #20]
	.loc	6 540 3                 @ ../Drivers/BSP/STM32F746/stm32746g_qspi.c:540:3
	blx	r7
	movs	r0, #0
	.loc	6 545 29                @ ../Drivers/BSP/STM32F746/stm32746g_qspi.c:545:29
	mov.w	r9, #9
	.loc	6 546 3                 @ ../Drivers/BSP/STM32F746/stm32746g_qspi.c:546:3
	mov	r1, r5
	.loc	6 544 29                @ ../Drivers/BSP/STM32F746/stm32746g_qspi.c:544:29
	str	r0, [sp, #12]
	movs	r0, #4
	.loc	6 543 29                @ ../Drivers/BSP/STM32F746/stm32746g_qspi.c:543:29
	str	r0, [sp, #4]
	.loc	6 546 3                 @ ../Drivers/BSP/STM32F746/stm32746g_qspi.c:546:3
	mov	r0, r6
	.loc	6 545 29                @ ../Drivers/BSP/STM32F746/stm32746g_qspi.c:545:29
	str.w	r9, [sp, #20]
	.loc	6 546 3                 @ ../Drivers/BSP/STM32F746/stm32746g_qspi.c:546:3
	blx	r7
	.loc	6 549 29                @ ../Drivers/BSP/STM32F746/stm32746g_qspi.c:549:29
	mov.w	r0, #256
	.loc	6 550 29                @ ../Drivers/BSP/STM32F746/stm32746g_qspi.c:550:29
	str.w	r10, [sp, #20]
	.loc	6 551 3                 @ ../Drivers/BSP/STM32F746/stm32746g_qspi.c:551:3
	mov	r1, r5
	.loc	6 549 29                @ ../Drivers/BSP/STM32F746/stm32746g_qspi.c:549:29
	str	r0, [sp, #4]
	.loc	6 551 3                 @ ../Drivers/BSP/STM32F746/stm32746g_qspi.c:551:3
	mov	r0, r4
	blx	r7
	.loc	6 554 29                @ ../Drivers/BSP/STM32F746/stm32746g_qspi.c:554:29
	mov.w	r0, #512
	.loc	6 555 29                @ ../Drivers/BSP/STM32F746/stm32746g_qspi.c:555:29
	str.w	r10, [sp, #20]
	.loc	6 556 3                 @ ../Drivers/BSP/STM32F746/stm32746g_qspi.c:556:3
	mov	r1, r5
	.loc	6 554 29                @ ../Drivers/BSP/STM32F746/stm32746g_qspi.c:554:29
	str	r0, [sp, #4]
	.loc	6 556 3                 @ ../Drivers/BSP/STM32F746/stm32746g_qspi.c:556:3
	mov	r0, r4
	blx	r7
	.loc	6 559 29                @ ../Drivers/BSP/STM32F746/stm32746g_qspi.c:559:29
	movs	r0, #128
	.loc	6 560 29                @ ../Drivers/BSP/STM32F746/stm32746g_qspi.c:560:29
	str.w	r9, [sp, #20]
	.loc	6 561 3                 @ ../Drivers/BSP/STM32F746/stm32746g_qspi.c:561:3
	mov	r1, r5
	.loc	6 559 29                @ ../Drivers/BSP/STM32F746/stm32746g_qspi.c:559:29
	str	r0, [sp, #4]
	.loc	6 561 3                 @ ../Drivers/BSP/STM32F746/stm32746g_qspi.c:561:3
	mov	r0, r4
	blx	r7
	.loc	6 566 3                 @ ../Drivers/BSP/STM32F746/stm32746g_qspi.c:566:3
	mov	r0, r4
	mov	r1, r5
	.loc	6 565 29                @ ../Drivers/BSP/STM32F746/stm32746g_qspi.c:565:29
	str.w	r9, [sp, #20]
	.loc	6 564 29                @ ../Drivers/BSP/STM32F746/stm32746g_qspi.c:564:29
	str.w	r8, [sp, #4]
	.loc	6 566 3                 @ ../Drivers/BSP/STM32F746/stm32746g_qspi.c:566:3
	blx	r7
	.loc	6 570 3                 @ ../Drivers/BSP/STM32F746/stm32746g_qspi.c:570:3
	movs	r0, #92
	movs	r1, #15
	movs	r2, #0
	bl	HAL_NVIC_SetPriority
	.loc	6 571 3                 @ ../Drivers/BSP/STM32F746/stm32746g_qspi.c:571:3
	movs	r0, #92
	bl	HAL_NVIC_EnableIRQ
	.loc	6 572 1                 @ ../Drivers/BSP/STM32F746/stm32746g_qspi.c:572:1
	add	sp, #24
.Ltmp72:
	pop.w	{r4, r5, r6, r7, r8, r9, r10, pc}
.Ltmp73:
	.p2align	2
@ %bb.1:
	.loc	6 0 1 is_stmt 0         @ ../Drivers/BSP/STM32F746/stm32746g_qspi.c:0:1
__arm_cp.1_0:
	.long	1073887280              @ 0x40023830
.Lcpi_end2:
	.size	__arm_cp.1_0, .Lcpi_end2-__arm_cp.1_0
__arm_cp.1_1:
	.long	1073878016              @ 0x40021400
.Lcpi_end3:
	.size	__arm_cp.1_1, .Lcpi_end3-__arm_cp.1_1
__arm_cp.1_2:
	.long	HAL_GPIO_Init
.Lcpi_end4:
	.size	__arm_cp.1_2, .Lcpi_end4-__arm_cp.1_2
.Lfunc_end1:
	.size	BSP_QSPI_MspInit, .Lfunc_end1-BSP_QSPI_MspInit
	.cfi_endproc
	.cantunwind
	.fnend
                                        @ -- End function
	.section	.text.BSP_QSPI_EnableMemoryMappedMode,"ax",%progbits
	.hidden	BSP_QSPI_EnableMemoryMappedMode @ -- Begin function BSP_QSPI_EnableMemoryMappedMode
	.globl	BSP_QSPI_EnableMemoryMappedMode
	.p2align	2
	.type	BSP_QSPI_EnableMemoryMappedMode,%function
	.code	16                      @ @BSP_QSPI_EnableMemoryMappedMode
	.thumb_func
BSP_QSPI_EnableMemoryMappedMode:
.Lfunc_begin2:
	.loc	6 471 0 is_stmt 1       @ ../Drivers/BSP/STM32F746/stm32746g_qspi.c:471:0
	.fnstart
	.cfi_startproc
@ %bb.0:
	.save	{r7, lr}
	push	{r7, lr}
	.cfi_def_cfa_offset 8
	.cfi_offset lr, -4
	.cfi_offset r7, -8
	.pad	#64
	sub	sp, #64
	.cfi_def_cfa_offset 72
.Ltmp74:
	.loc	6 477 33 prologue_end   @ ../Drivers/BSP/STM32F746/stm32746g_qspi.c:477:33
	movs	r0, #235
	.loc	6 481 33                @ ../Drivers/BSP/STM32F746/stm32746g_qspi.c:481:33
	mov.w	r1, #50331648
	mov	r2, sp
.Ltmp75:
	@DEBUG_VALUE: BSP_QSPI_EnableMemoryMappedMode:s_mem_mapped_cfg <- [$sp+0]
	.loc	6 477 33                @ ../Drivers/BSP/STM32F746/stm32746g_qspi.c:477:33
	str	r0, [sp, #8]
	.loc	6 476 33                @ ../Drivers/BSP/STM32F746/stm32746g_qspi.c:476:33
	mov.w	r0, #256
	str	r0, [sp, #32]
	.loc	6 478 33                @ ../Drivers/BSP/STM32F746/stm32746g_qspi.c:478:33
	mov.w	r0, #3072
	str	r0, [sp, #36]
	.loc	6 479 33                @ ../Drivers/BSP/STM32F746/stm32746g_qspi.c:479:33
	mov.w	r0, #8192
	str	r0, [sp, #20]
	movs	r0, #0
	.loc	6 480 33                @ ../Drivers/BSP/STM32F746/stm32746g_qspi.c:480:33
	str	r0, [sp, #40]
	.loc	6 481 33                @ ../Drivers/BSP/STM32F746/stm32746g_qspi.c:481:33
	str	r1, [sp, #44]
	.loc	6 482 33                @ ../Drivers/BSP/STM32F746/stm32746g_qspi.c:482:33
	movs	r1, #10
	str	r1, [sp, #28]
	.loc	6 483 33                @ ../Drivers/BSP/STM32F746/stm32746g_qspi.c:483:33
	strd	r0, r0, [sp, #52]
	.loc	6 485 33                @ ../Drivers/BSP/STM32F746/stm32746g_qspi.c:485:33
	str	r0, [sp, #60]
	.loc	6 489 40                @ ../Drivers/BSP/STM32F746/stm32746g_qspi.c:489:40
	strd	r0, r0, [sp]
.Ltmp76:
	.loc	6 491 9                 @ ../Drivers/BSP/STM32F746/stm32746g_qspi.c:491:9
	ldr	r0, __arm_cp.2_0
	add	r1, sp, #8
.Ltmp77:
	@DEBUG_VALUE: BSP_QSPI_EnableMemoryMappedMode:s_command <- [DW_OP_plus_uconst 8] [$sp+0]
	bl	HAL_QSPI_MemoryMapped
	.loc	6 491 70 is_stmt 0      @ ../Drivers/BSP/STM32F746/stm32746g_qspi.c:491:70
	cmp	r0, #0
	it	ne
	movne	r0, #1
.Ltmp78:
	.loc	6 497 1 is_stmt 1       @ ../Drivers/BSP/STM32F746/stm32746g_qspi.c:497:1
	add	sp, #64
.Ltmp79:
	pop	{r7, pc}
.Ltmp80:
	.p2align	2
@ %bb.1:
	.loc	6 0 1 is_stmt 0         @ ../Drivers/BSP/STM32F746/stm32746g_qspi.c:0:1
__arm_cp.2_0:
	.long	hqspi
.Lcpi_end5:
	.size	__arm_cp.2_0, .Lcpi_end5-__arm_cp.2_0
.Lfunc_end2:
	.size	BSP_QSPI_EnableMemoryMappedMode, .Lfunc_end2-BSP_QSPI_EnableMemoryMappedMode
	.cfi_endproc
	.cantunwind
	.fnend
                                        @ -- End function
	.section	.text.BSP_QSPI_DeInit,"ax",%progbits
	.hidden	BSP_QSPI_DeInit         @ -- Begin function BSP_QSPI_DeInit
	.globl	BSP_QSPI_DeInit
	.p2align	2
	.type	BSP_QSPI_DeInit,%function
	.code	16                      @ @BSP_QSPI_DeInit
	.thumb_func
BSP_QSPI_DeInit:
.Lfunc_begin3:
	.loc	6 177 0 is_stmt 1       @ ../Drivers/BSP/STM32F746/stm32746g_qspi.c:177:0
	.fnstart
	.cfi_startproc
@ %bb.0:
	.save	{r4, lr}
	push	{r4, lr}
	.cfi_def_cfa_offset 8
	.cfi_offset lr, -4
	.cfi_offset r4, -8
.Ltmp81:
	.loc	6 178 18 prologue_end   @ ../Drivers/BSP/STM32F746/stm32746g_qspi.c:178:18
	ldr	r0, __arm_cp.3_0
	ldr	r1, __arm_cp.3_1
	str	r1, [r0]
.Ltmp82:
	.loc	6 181 7                 @ ../Drivers/BSP/STM32F746/stm32746g_qspi.c:181:7
	bl	HAL_QSPI_DeInit
.Ltmp83:
	.loc	6 181 7 is_stmt 0       @ ../Drivers/BSP/STM32F746/stm32746g_qspi.c:181:7
	cbz	r0, .LBB3_2
@ %bb.1:
	.loc	6 0 7                   @ ../Drivers/BSP/STM32F746/stm32746g_qspi.c:0:7
	movs	r4, #1
	b	.LBB3_3
.LBB3_2:
	.loc	6 187 3 is_stmt 1       @ ../Drivers/BSP/STM32F746/stm32746g_qspi.c:187:3
	ldr	r0, __arm_cp.3_0
	movs	r1, #0
	movs	r4, #0
	bl	BSP_QSPI_MspDeInit
.LBB3_3:
	.loc	6 190 1                 @ ../Drivers/BSP/STM32F746/stm32746g_qspi.c:190:1
	mov	r0, r4
	pop	{r4, pc}
.Ltmp84:
	.p2align	2
@ %bb.4:
	.loc	6 0 1 is_stmt 0         @ ../Drivers/BSP/STM32F746/stm32746g_qspi.c:0:1
__arm_cp.3_0:
	.long	hqspi
.Lcpi_end6:
	.size	__arm_cp.3_0, .Lcpi_end6-__arm_cp.3_0
__arm_cp.3_1:
	.long	2684358656              @ 0xa0001000
.Lcpi_end7:
	.size	__arm_cp.3_1, .Lcpi_end7-__arm_cp.3_1
.Lfunc_end3:
	.size	BSP_QSPI_DeInit, .Lfunc_end3-BSP_QSPI_DeInit
	.cfi_endproc
	.cantunwind
	.fnend
                                        @ -- End function
	.section	.text.BSP_QSPI_MspDeInit,"ax",%progbits
	.hidden	BSP_QSPI_MspDeInit      @ -- Begin function BSP_QSPI_MspDeInit
	.weak	BSP_QSPI_MspDeInit
	.p2align	2
	.type	BSP_QSPI_MspDeInit,%function
	.code	16                      @ @BSP_QSPI_MspDeInit
	.thumb_func
BSP_QSPI_MspDeInit:
.Lfunc_begin4:
	.loc	6 582 0 is_stmt 1       @ ../Drivers/BSP/STM32F746/stm32746g_qspi.c:582:0
	.fnstart
	.cfi_startproc
@ %bb.0:
	.save	{r4, r5, r6, lr}
	push	{r4, r5, r6, lr}
	.cfi_def_cfa_offset 16
	.cfi_offset lr, -4
	.cfi_offset r6, -8
	.cfi_offset r5, -12
	.cfi_offset r4, -16
	@DEBUG_VALUE: BSP_QSPI_MspDeInit:hqspi <- $r0
	@DEBUG_VALUE: BSP_QSPI_MspDeInit:Params <- $r1
.Ltmp85:
	.loc	6 584 5 prologue_end    @ ../Drivers/BSP/STM32F746/stm32746g_qspi.c:584:5
	movs	r0, #92
.Ltmp86:
	bl	HAL_NVIC_DisableIRQ
.Ltmp87:
	.loc	6 0 5 is_stmt 0         @ ../Drivers/BSP/STM32F746/stm32746g_qspi.c:0:5
	ldr	r4, __arm_cp.4_0
	.loc	6 588 5 is_stmt 1       @ ../Drivers/BSP/STM32F746/stm32746g_qspi.c:588:5
	ldr	r6, __arm_cp.4_1
	movs	r1, #64
	sub.w	r5, r4, #4096
	mov	r0, r5
	blx	r6
	.loc	6 589 5                 @ ../Drivers/BSP/STM32F746/stm32746g_qspi.c:589:5
	mov	r0, r5
	movs	r1, #4
	blx	r6
	.loc	6 590 5                 @ ../Drivers/BSP/STM32F746/stm32746g_qspi.c:590:5
	mov	r0, r4
	mov.w	r1, #256
	blx	r6
	.loc	6 591 5                 @ ../Drivers/BSP/STM32F746/stm32746g_qspi.c:591:5
	mov	r0, r4
	mov.w	r1, #512
	blx	r6
	.loc	6 592 5                 @ ../Drivers/BSP/STM32F746/stm32746g_qspi.c:592:5
	mov	r0, r4
	movs	r1, #128
	blx	r6
	.loc	6 593 5                 @ ../Drivers/BSP/STM32F746/stm32746g_qspi.c:593:5
	mov	r0, r4
	movs	r1, #64
	blx	r6
	ldr	r0, __arm_cp.4_2
	.loc	6 597 5                 @ ../Drivers/BSP/STM32F746/stm32746g_qspi.c:597:5
	ldr	r1, [r0]
	orr	r1, r1, #2
	str	r1, [r0]
	.loc	6 598 5                 @ ../Drivers/BSP/STM32F746/stm32746g_qspi.c:598:5
	ldr	r1, [r0]
	bic	r1, r1, #2
	str	r1, [r0]
	.loc	6 601 5                 @ ../Drivers/BSP/STM32F746/stm32746g_qspi.c:601:5
	ldr	r1, [r0, #32]
	bic	r1, r1, #2
	str	r1, [r0, #32]
	.loc	6 602 1                 @ ../Drivers/BSP/STM32F746/stm32746g_qspi.c:602:1
	pop	{r4, r5, r6, pc}
.Ltmp88:
	.p2align	2
@ %bb.1:
	.loc	6 0 1 is_stmt 0         @ ../Drivers/BSP/STM32F746/stm32746g_qspi.c:0:1
__arm_cp.4_0:
	.long	1073878016              @ 0x40021400
.Lcpi_end8:
	.size	__arm_cp.4_0, .Lcpi_end8-__arm_cp.4_0
__arm_cp.4_1:
	.long	HAL_GPIO_DeInit
.Lcpi_end9:
	.size	__arm_cp.4_1, .Lcpi_end9-__arm_cp.4_1
__arm_cp.4_2:
	.long	1073887256              @ 0x40023818
.Lcpi_end10:
	.size	__arm_cp.4_2, .Lcpi_end10-__arm_cp.4_2
.Lfunc_end4:
	.size	BSP_QSPI_MspDeInit, .Lfunc_end4-BSP_QSPI_MspDeInit
	.cfi_endproc
	.cantunwind
	.fnend
                                        @ -- End function
	.section	.text.BSP_QSPI_Read,"ax",%progbits
	.hidden	BSP_QSPI_Read           @ -- Begin function BSP_QSPI_Read
	.globl	BSP_QSPI_Read
	.p2align	2
	.type	BSP_QSPI_Read,%function
	.code	16                      @ @BSP_QSPI_Read
	.thumb_func
BSP_QSPI_Read:
.Lfunc_begin5:
	.loc	6 200 0 is_stmt 1       @ ../Drivers/BSP/STM32F746/stm32746g_qspi.c:200:0
	.fnstart
	.cfi_startproc
@ %bb.0:
	.save	{r4, r5, r7, lr}
	push	{r4, r5, r7, lr}
	.cfi_def_cfa_offset 16
	.cfi_offset lr, -4
	.cfi_offset r7, -8
	.cfi_offset r5, -12
	.cfi_offset r4, -16
	.pad	#56
	sub	sp, #56
	.cfi_def_cfa_offset 72
	@DEBUG_VALUE: BSP_QSPI_Read:pData <- $r0
	@DEBUG_VALUE: BSP_QSPI_Read:ReadAddr <- $r1
	@DEBUG_VALUE: BSP_QSPI_Read:Size <- $r2
	mov	r4, r0
	@DEBUG_VALUE: BSP_QSPI_Read:Size <- $r2
	@DEBUG_VALUE: BSP_QSPI_Read:ReadAddr <- $r1
.Ltmp89:
	@DEBUG_VALUE: BSP_QSPI_Read:pData <- $r4
	.loc	6 205 31 prologue_end   @ ../Drivers/BSP/STM32F746/stm32746g_qspi.c:205:31
	movs	r0, #235
.Ltmp90:
	.loc	6 218 7                 @ ../Drivers/BSP/STM32F746/stm32746g_qspi.c:218:7
	ldr	r5, __arm_cp.5_0
.Ltmp91:
	.loc	6 205 31                @ ../Drivers/BSP/STM32F746/stm32746g_qspi.c:205:31
	str	r0, [sp]
	.loc	6 204 31                @ ../Drivers/BSP/STM32F746/stm32746g_qspi.c:204:31
	mov.w	r0, #256
	str	r0, [sp, #24]
	.loc	6 206 31                @ ../Drivers/BSP/STM32F746/stm32746g_qspi.c:206:31
	mov.w	r0, #3072
	str	r0, [sp, #28]
	.loc	6 207 31                @ ../Drivers/BSP/STM32F746/stm32746g_qspi.c:207:31
	mov.w	r0, #8192
	str	r0, [sp, #12]
	.loc	6 208 31                @ ../Drivers/BSP/STM32F746/stm32746g_qspi.c:208:31
	str	r1, [sp, #4]
	movs	r0, #0
	.loc	6 210 31                @ ../Drivers/BSP/STM32F746/stm32746g_qspi.c:210:31
	mov.w	r1, #50331648
.Ltmp92:
	.loc	6 209 31                @ ../Drivers/BSP/STM32F746/stm32746g_qspi.c:209:31
	str	r0, [sp, #32]
	.loc	6 210 31                @ ../Drivers/BSP/STM32F746/stm32746g_qspi.c:210:31
	str	r1, [sp, #36]
	.loc	6 211 31                @ ../Drivers/BSP/STM32F746/stm32746g_qspi.c:211:31
	movs	r1, #10
	str	r1, [sp, #20]
	.loc	6 212 31                @ ../Drivers/BSP/STM32F746/stm32746g_qspi.c:212:31
	strd	r2, r0, [sp, #40]
	.loc	6 214 31                @ ../Drivers/BSP/STM32F746/stm32746g_qspi.c:214:31
	strd	r0, r0, [sp, #48]
	mov	r1, sp
.Ltmp93:
	@DEBUG_VALUE: BSP_QSPI_Read:s_command <- [$sp+0]
	.loc	6 218 7                 @ ../Drivers/BSP/STM32F746/stm32746g_qspi.c:218:7
	mov	r0, r5
	movw	r2, #5000
.Ltmp94:
	bl	HAL_QSPI_Command
.Ltmp95:
	.loc	6 218 7 is_stmt 0       @ ../Drivers/BSP/STM32F746/stm32746g_qspi.c:218:7
	cbnz	r0, .LBB5_2
.Ltmp96:
@ %bb.1:
	@DEBUG_VALUE: BSP_QSPI_Read:s_command <- [$sp+0]
	@DEBUG_VALUE: BSP_QSPI_Read:pData <- $r4
	.loc	6 224 3 is_stmt 1       @ ../Drivers/BSP/STM32F746/stm32746g_qspi.c:224:3
	ldr	r0, [r5]
	movs	r2, #2
	ldr	r1, [r0, #4]
	bfi	r1, r2, #8, #3
.Ltmp97:
	.loc	6 227 7                 @ ../Drivers/BSP/STM32F746/stm32746g_qspi.c:227:7
	movw	r2, #5000
.Ltmp98:
	.loc	6 224 3                 @ ../Drivers/BSP/STM32F746/stm32746g_qspi.c:224:3
	str	r1, [r0, #4]
.Ltmp99:
	.loc	6 227 7                 @ ../Drivers/BSP/STM32F746/stm32746g_qspi.c:227:7
	mov	r0, r5
	mov	r1, r4
	bl	HAL_QSPI_Receive
.Ltmp100:
	.loc	6 227 7 is_stmt 0       @ ../Drivers/BSP/STM32F746/stm32746g_qspi.c:227:7
	cbz	r0, .LBB5_4
.Ltmp101:
.LBB5_2:
	@DEBUG_VALUE: BSP_QSPI_Read:s_command <- [$sp+0]
	@DEBUG_VALUE: BSP_QSPI_Read:pData <- $r4
	.loc	6 0 7                   @ ../Drivers/BSP/STM32F746/stm32746g_qspi.c:0:7
	movs	r0, #1
.Ltmp102:
.LBB5_3:
	@DEBUG_VALUE: BSP_QSPI_Read:s_command <- [$sp+0]
	@DEBUG_VALUE: BSP_QSPI_Read:pData <- $r4
	.loc	6 236 1 is_stmt 1       @ ../Drivers/BSP/STM32F746/stm32746g_qspi.c:236:1
	add	sp, #56
.Ltmp103:
	pop	{r4, r5, r7, pc}
.Ltmp104:
.LBB5_4:
	@DEBUG_VALUE: BSP_QSPI_Read:s_command <- [$sp+0]
	@DEBUG_VALUE: BSP_QSPI_Read:pData <- $r4
	.loc	6 233 3                 @ ../Drivers/BSP/STM32F746/stm32746g_qspi.c:233:3
	ldr	r0, [r5]
	movs	r2, #5
	ldr	r1, [r0, #4]
	bfi	r1, r2, #8, #3
	str	r1, [r0, #4]
	movs	r0, #0
	b	.LBB5_3
.Ltmp105:
	.p2align	2
@ %bb.5:
	.loc	6 0 3 is_stmt 0         @ ../Drivers/BSP/STM32F746/stm32746g_qspi.c:0:3
__arm_cp.5_0:
	.long	hqspi
.Lcpi_end11:
	.size	__arm_cp.5_0, .Lcpi_end11-__arm_cp.5_0
.Lfunc_end5:
	.size	BSP_QSPI_Read, .Lfunc_end5-BSP_QSPI_Read
	.cfi_endproc
	.cantunwind
	.fnend
                                        @ -- End function
	.section	.text.BSP_QSPI_Write,"ax",%progbits
	.hidden	BSP_QSPI_Write          @ -- Begin function BSP_QSPI_Write
	.globl	BSP_QSPI_Write
	.p2align	2
	.type	BSP_QSPI_Write,%function
	.code	16                      @ @BSP_QSPI_Write
	.thumb_func
BSP_QSPI_Write:
.Lfunc_begin6:
	.loc	6 246 0 is_stmt 1       @ ../Drivers/BSP/STM32F746/stm32746g_qspi.c:246:0
	.fnstart
	.cfi_startproc
@ %bb.0:
	.save	{r4, r5, r6, r7, r8, r9, lr}
	push.w	{r4, r5, r6, r7, r8, r9, lr}
	.cfi_def_cfa_offset 28
	.cfi_offset lr, -4
	.cfi_offset r9, -8
	.cfi_offset r8, -12
	.cfi_offset r7, -16
	.cfi_offset r6, -20
	.cfi_offset r5, -24
	.cfi_offset r4, -28
	.pad	#60
	sub	sp, #60
	.cfi_def_cfa_offset 88
	@DEBUG_VALUE: BSP_QSPI_Write:pData <- $r0
	@DEBUG_VALUE: BSP_QSPI_Write:WriteAddr <- $r1
	@DEBUG_VALUE: BSP_QSPI_Write:Size <- $r2
.Ltmp106:
	@DEBUG_VALUE: BSP_QSPI_Write:current_addr <- $r1
	mov	r5, r0
.Ltmp107:
	@DEBUG_VALUE: BSP_QSPI_Write:current_addr <- $r4
	@DEBUG_VALUE: BSP_QSPI_Write:Size <- $r2
	@DEBUG_VALUE: BSP_QSPI_Write:WriteAddr <- $r4
	@DEBUG_VALUE: BSP_QSPI_Write:pData <- $r5
	.loc	6 265 31 prologue_end   @ ../Drivers/BSP/STM32F746/stm32746g_qspi.c:265:31
	movs	r0, #18
	mov	r4, r1
.Ltmp108:
	.loc	6 269 31                @ ../Drivers/BSP/STM32F746/stm32746g_qspi.c:269:31
	mov.w	r1, #50331648
	ldr.w	r9, __arm_cp.6_0
	add.w	r8, sp, #4
	.loc	6 265 31                @ ../Drivers/BSP/STM32F746/stm32746g_qspi.c:265:31
	str	r0, [sp, #4]
	.loc	6 251 37                @ ../Drivers/BSP/STM32F746/stm32746g_qspi.c:251:37
	mov.w	r0, #256
	.loc	6 261 24                @ ../Drivers/BSP/STM32F746/stm32746g_qspi.c:261:24
	adds	r7, r2, r4
.Ltmp109:
	@DEBUG_VALUE: BSP_QSPI_Write:end_addr <- $r7
	.loc	6 264 31                @ ../Drivers/BSP/STM32F746/stm32746g_qspi.c:264:31
	str	r0, [sp, #28]
	.loc	6 266 31                @ ../Drivers/BSP/STM32F746/stm32746g_qspi.c:266:31
	mov.w	r0, #3072
	str	r0, [sp, #32]
	.loc	6 267 31                @ ../Drivers/BSP/STM32F746/stm32746g_qspi.c:267:31
	mov.w	r0, #8192
	str	r0, [sp, #16]
	movs	r0, #0
	.loc	6 268 31                @ ../Drivers/BSP/STM32F746/stm32746g_qspi.c:268:31
	str	r0, [sp, #36]
	.loc	6 269 31                @ ../Drivers/BSP/STM32F746/stm32746g_qspi.c:269:31
	str	r1, [sp, #40]
	.loc	6 270 31                @ ../Drivers/BSP/STM32F746/stm32746g_qspi.c:270:31
	str	r0, [sp, #24]
	.loc	6 271 31                @ ../Drivers/BSP/STM32F746/stm32746g_qspi.c:271:31
	strd	r0, r0, [sp, #48]
	.loc	6 273 31                @ ../Drivers/BSP/STM32F746/stm32746g_qspi.c:273:31
	str	r0, [sp, #56]
	.loc	6 251 50                @ ../Drivers/BSP/STM32F746/stm32746g_qspi.c:251:50
	uxtb	r0, r4
	.loc	6 251 37 is_stmt 0      @ ../Drivers/BSP/STM32F746/stm32746g_qspi.c:251:37
	rsb.w	r6, r0, #256
.Ltmp110:
	@DEBUG_VALUE: BSP_QSPI_Write:current_size <- $r6
	.loc	6 254 7 is_stmt 1       @ ../Drivers/BSP/STM32F746/stm32746g_qspi.c:254:7
	cmp	r6, r2
	it	hi
	movhi	r6, r2
.Ltmp111:
	@DEBUG_VALUE: BSP_QSPI_Write:current_size <- $r6
.LBB6_1:                                @ =>This Inner Loop Header: Depth=1
	@DEBUG_VALUE: BSP_QSPI_Write:current_size <- $r6
	@DEBUG_VALUE: BSP_QSPI_Write:end_addr <- $r7
	@DEBUG_VALUE: BSP_QSPI_Write:pData <- $r5
	@DEBUG_VALUE: BSP_QSPI_Write:Size <- $r2
	@DEBUG_VALUE: BSP_QSPI_Write:current_addr <- $r4
	@DEBUG_VALUE: BSP_QSPI_Write:current_size <- $r6
	.loc	6 279 23                @ ../Drivers/BSP/STM32F746/stm32746g_qspi.c:279:23
	str	r6, [sp, #44]
	.loc	6 278 23                @ ../Drivers/BSP/STM32F746/stm32746g_qspi.c:278:23
	str	r4, [sp, #8]
.Ltmp112:
	.loc	6 282 9                 @ ../Drivers/BSP/STM32F746/stm32746g_qspi.c:282:9
	bl	QSPI_WriteEnable
.Ltmp113:
	.loc	6 282 9 is_stmt 0       @ ../Drivers/BSP/STM32F746/stm32746g_qspi.c:282:9
	cbnz	r0, .LBB6_7
.Ltmp114:
@ %bb.2:                                @   in Loop: Header=BB6_1 Depth=1
	@DEBUG_VALUE: BSP_QSPI_Write:current_size <- $r6
	@DEBUG_VALUE: BSP_QSPI_Write:end_addr <- $r7
	@DEBUG_VALUE: BSP_QSPI_Write:pData <- $r5
	@DEBUG_VALUE: BSP_QSPI_Write:current_addr <- $r4
	@DEBUG_VALUE: BSP_QSPI_Write:s_command <- [DW_OP_plus_uconst 4] [$sp+0]
	.loc	6 288 9 is_stmt 1       @ ../Drivers/BSP/STM32F746/stm32746g_qspi.c:288:9
	mov	r0, r9
	mov	r1, r8
	movw	r2, #5000
	bl	HAL_QSPI_Command
.Ltmp115:
	.loc	6 288 9 is_stmt 0       @ ../Drivers/BSP/STM32F746/stm32746g_qspi.c:288:9
	cbnz	r0, .LBB6_7
.Ltmp116:
@ %bb.3:                                @   in Loop: Header=BB6_1 Depth=1
	@DEBUG_VALUE: BSP_QSPI_Write:s_command <- [DW_OP_plus_uconst 4] [$sp+0]
	@DEBUG_VALUE: BSP_QSPI_Write:current_size <- $r6
	@DEBUG_VALUE: BSP_QSPI_Write:end_addr <- $r7
	@DEBUG_VALUE: BSP_QSPI_Write:pData <- $r5
	@DEBUG_VALUE: BSP_QSPI_Write:current_addr <- $r4
	@DEBUG_VALUE: BSP_QSPI_Write:pData <- $r5
	.loc	6 294 9 is_stmt 1       @ ../Drivers/BSP/STM32F746/stm32746g_qspi.c:294:9
	mov	r0, r9
	mov	r1, r5
	movw	r2, #5000
	bl	HAL_QSPI_Transmit
.Ltmp117:
	.loc	6 294 9 is_stmt 0       @ ../Drivers/BSP/STM32F746/stm32746g_qspi.c:294:9
	cbnz	r0, .LBB6_7
.Ltmp118:
@ %bb.4:                                @   in Loop: Header=BB6_1 Depth=1
	@DEBUG_VALUE: BSP_QSPI_Write:s_command <- [DW_OP_plus_uconst 4] [$sp+0]
	@DEBUG_VALUE: BSP_QSPI_Write:current_size <- $r6
	@DEBUG_VALUE: BSP_QSPI_Write:end_addr <- $r7
	@DEBUG_VALUE: BSP_QSPI_Write:pData <- $r5
	@DEBUG_VALUE: BSP_QSPI_Write:current_addr <- $r4
	.loc	6 300 9 is_stmt 1       @ ../Drivers/BSP/STM32F746/stm32746g_qspi.c:300:9
	movw	r0, #5000
	bl	QSPI_AutoPollingMemReady
.Ltmp119:
	.loc	6 300 9 is_stmt 0       @ ../Drivers/BSP/STM32F746/stm32746g_qspi.c:300:9
	cbnz	r0, .LBB6_7
.Ltmp120:
@ %bb.5:                                @   in Loop: Header=BB6_1 Depth=1
	@DEBUG_VALUE: BSP_QSPI_Write:s_command <- [DW_OP_plus_uconst 4] [$sp+0]
	@DEBUG_VALUE: BSP_QSPI_Write:current_size <- $r6
	@DEBUG_VALUE: BSP_QSPI_Write:end_addr <- $r7
	@DEBUG_VALUE: BSP_QSPI_Write:pData <- $r5
	@DEBUG_VALUE: BSP_QSPI_Write:current_addr <- $r4
	.loc	6 306 18 is_stmt 1      @ ../Drivers/BSP/STM32F746/stm32746g_qspi.c:306:18
	add	r4, r6
.Ltmp121:
	@DEBUG_VALUE: BSP_QSPI_Write:current_addr <- $r4
	.loc	6 307 11                @ ../Drivers/BSP/STM32F746/stm32746g_qspi.c:307:11
	add	r5, r6
.Ltmp122:
	@DEBUG_VALUE: BSP_QSPI_Write:pData <- $r5
	.loc	6 308 35                @ ../Drivers/BSP/STM32F746/stm32746g_qspi.c:308:35
	add.w	r0, r4, #256
	.loc	6 308 20 is_stmt 0      @ ../Drivers/BSP/STM32F746/stm32746g_qspi.c:308:20
	cmp	r0, r7
	mov.w	r0, #256
	it	hi
	subhi	r0, r7, r4
.Ltmp123:
	@DEBUG_VALUE: BSP_QSPI_Write:current_size <- $r0
	.loc	6 309 3 is_stmt 1       @ ../Drivers/BSP/STM32F746/stm32746g_qspi.c:309:3
	cmp	r7, r4
	mov	r6, r0
.Ltmp124:
	@DEBUG_VALUE: BSP_QSPI_Write:current_size <- $r6
	bhi	.LBB6_1
.Ltmp125:
@ %bb.6:
	@DEBUG_VALUE: BSP_QSPI_Write:s_command <- [DW_OP_plus_uconst 4] [$sp+0]
	@DEBUG_VALUE: BSP_QSPI_Write:current_size <- $r6
	@DEBUG_VALUE: BSP_QSPI_Write:end_addr <- $r7
	@DEBUG_VALUE: BSP_QSPI_Write:pData <- $r5
	@DEBUG_VALUE: BSP_QSPI_Write:current_addr <- $r4
	.loc	6 0 3 is_stmt 0         @ ../Drivers/BSP/STM32F746/stm32746g_qspi.c:0:3
	movs	r0, #0
	b	.LBB6_8
.Ltmp126:
.LBB6_7:
	@DEBUG_VALUE: BSP_QSPI_Write:current_size <- $r6
	@DEBUG_VALUE: BSP_QSPI_Write:end_addr <- $r7
	@DEBUG_VALUE: BSP_QSPI_Write:pData <- $r5
	@DEBUG_VALUE: BSP_QSPI_Write:current_addr <- $r4
	movs	r0, #1
.Ltmp127:
.LBB6_8:
	@DEBUG_VALUE: BSP_QSPI_Write:current_size <- $r6
	@DEBUG_VALUE: BSP_QSPI_Write:end_addr <- $r7
	@DEBUG_VALUE: BSP_QSPI_Write:pData <- $r5
	@DEBUG_VALUE: BSP_QSPI_Write:current_addr <- $r4
	.loc	6 312 1 is_stmt 1       @ ../Drivers/BSP/STM32F746/stm32746g_qspi.c:312:1
	add	sp, #60
	pop.w	{r4, r5, r6, r7, r8, r9, pc}
.Ltmp128:
	.p2align	2
@ %bb.9:
	.loc	6 0 1 is_stmt 0         @ ../Drivers/BSP/STM32F746/stm32746g_qspi.c:0:1
__arm_cp.6_0:
	.long	hqspi
.Lcpi_end12:
	.size	__arm_cp.6_0, .Lcpi_end12-__arm_cp.6_0
.Lfunc_end6:
	.size	BSP_QSPI_Write, .Lfunc_end6-BSP_QSPI_Write
	.cfi_endproc
	.cantunwind
	.fnend
                                        @ -- End function
	.section	.text.QSPI_WriteEnable,"ax",%progbits
	.p2align	2               @ -- Begin function QSPI_WriteEnable
	.type	QSPI_WriteEnable,%function
	.code	16                      @ @QSPI_WriteEnable
	.thumb_func
QSPI_WriteEnable:
.Lfunc_begin7:
	.loc	6 711 0 is_stmt 1       @ ../Drivers/BSP/STM32F746/stm32746g_qspi.c:711:0
	.fnstart
	.cfi_startproc
@ %bb.0:
	.save	{r4, lr}
	push	{r4, lr}
	.cfi_def_cfa_offset 8
	.cfi_offset lr, -4
	.cfi_offset r4, -8
	.pad	#80
	sub	sp, #80
	.cfi_def_cfa_offset 88
.Ltmp129:
	.loc	6 717 33 prologue_end   @ ../Drivers/BSP/STM32F746/stm32746g_qspi.c:717:33
	movs	r0, #6
	movs	r4, #0
	add	r1, sp, #24
.Ltmp130:
	@DEBUG_VALUE: QSPI_WriteEnable:s_command <- [DW_OP_plus_uconst 24] [$sp+0]
	.loc	6 726 9                 @ ../Drivers/BSP/STM32F746/stm32746g_qspi.c:726:9
	movw	r2, #5000
.Ltmp131:
	.loc	6 717 33                @ ../Drivers/BSP/STM32F746/stm32746g_qspi.c:717:33
	str	r0, [sp, #24]
	.loc	6 716 33                @ ../Drivers/BSP/STM32F746/stm32746g_qspi.c:716:33
	mov.w	r0, #256
	str	r0, [sp, #48]
.Ltmp132:
	.loc	6 726 9                 @ ../Drivers/BSP/STM32F746/stm32746g_qspi.c:726:9
	ldr	r0, __arm_cp.7_0
.Ltmp133:
	@DEBUG_VALUE: QSPI_WriteEnable:hqspi <- $r0
	.loc	6 718 33                @ ../Drivers/BSP/STM32F746/stm32746g_qspi.c:718:33
	strd	r4, r4, [sp, #52]
	.loc	6 720 33                @ ../Drivers/BSP/STM32F746/stm32746g_qspi.c:720:33
	str	r4, [sp, #60]
	.loc	6 721 33                @ ../Drivers/BSP/STM32F746/stm32746g_qspi.c:721:33
	str	r4, [sp, #44]
	.loc	6 722 33                @ ../Drivers/BSP/STM32F746/stm32746g_qspi.c:722:33
	strd	r4, r4, [sp, #68]
	.loc	6 724 33                @ ../Drivers/BSP/STM32F746/stm32746g_qspi.c:724:33
	str	r4, [sp, #76]
.Ltmp134:
	.loc	6 726 9                 @ ../Drivers/BSP/STM32F746/stm32746g_qspi.c:726:9
	bl	HAL_QSPI_Command
.Ltmp135:
	mov	r1, r0
	movs	r0, #1
.Ltmp136:
	.loc	6 726 9 is_stmt 0       @ ../Drivers/BSP/STM32F746/stm32746g_qspi.c:726:9
	cbnz	r1, .LBB7_2
.Ltmp137:
@ %bb.1:
	@DEBUG_VALUE: QSPI_WriteEnable:s_command <- [DW_OP_plus_uconst 24] [$sp+0]
	.loc	6 732 30 is_stmt 1      @ ../Drivers/BSP/STM32F746/stm32746g_qspi.c:732:30
	movs	r1, #2
	mov	r2, sp
.Ltmp138:
	@DEBUG_VALUE: QSPI_WriteEnable:s_config <- [$sp+0]
	.loc	6 743 9                 @ ../Drivers/BSP/STM32F746/stm32746g_qspi.c:743:9
	movw	r3, #5000
.Ltmp139:
	.loc	6 732 30                @ ../Drivers/BSP/STM32F746/stm32746g_qspi.c:732:30
	strd	r1, r1, [sp]
	movs	r1, #16
	.loc	6 735 30                @ ../Drivers/BSP/STM32F746/stm32746g_qspi.c:735:30
	strd	r0, r4, [sp, #12]
	.loc	6 736 30                @ ../Drivers/BSP/STM32F746/stm32746g_qspi.c:736:30
	str	r1, [sp, #8]
	.loc	6 737 30                @ ../Drivers/BSP/STM32F746/stm32746g_qspi.c:737:30
	mov.w	r1, #4194304
	str	r1, [sp, #20]
	.loc	6 739 30                @ ../Drivers/BSP/STM32F746/stm32746g_qspi.c:739:30
	movs	r1, #5
	str	r1, [sp, #24]
	.loc	6 740 30                @ ../Drivers/BSP/STM32F746/stm32746g_qspi.c:740:30
	mov.w	r1, #16777216
	strd	r1, r0, [sp, #60]
.Ltmp140:
	.loc	6 743 9                 @ ../Drivers/BSP/STM32F746/stm32746g_qspi.c:743:9
	ldr	r0, __arm_cp.7_0
	add	r1, sp, #24
	@DEBUG_VALUE: QSPI_WriteEnable:s_command <- [DW_OP_plus_uconst 24] [$sp+0]
	bl	HAL_QSPI_AutoPolling
	.loc	6 743 92 is_stmt 0      @ ../Drivers/BSP/STM32F746/stm32746g_qspi.c:743:92
	cmp	r0, #0
	it	ne
	movne	r0, #1
.Ltmp141:
.LBB7_2:
	@DEBUG_VALUE: QSPI_WriteEnable:s_command <- [DW_OP_plus_uconst 24] [$sp+0]
	.loc	6 749 1 is_stmt 1       @ ../Drivers/BSP/STM32F746/stm32746g_qspi.c:749:1
	add	sp, #80
.Ltmp142:
	pop	{r4, pc}
.Ltmp143:
	.p2align	2
@ %bb.3:
	.loc	6 0 1 is_stmt 0         @ ../Drivers/BSP/STM32F746/stm32746g_qspi.c:0:1
__arm_cp.7_0:
	.long	hqspi
.Lcpi_end13:
	.size	__arm_cp.7_0, .Lcpi_end13-__arm_cp.7_0
.Lfunc_end7:
	.size	QSPI_WriteEnable, .Lfunc_end7-QSPI_WriteEnable
	.cfi_endproc
	.cantunwind
	.fnend
                                        @ -- End function
	.section	.text.QSPI_AutoPollingMemReady,"ax",%progbits
	.p2align	2               @ -- Begin function QSPI_AutoPollingMemReady
	.type	QSPI_AutoPollingMemReady,%function
	.code	16                      @ @QSPI_AutoPollingMemReady
	.thumb_func
QSPI_AutoPollingMemReady:
.Lfunc_begin8:
	.loc	6 758 0 is_stmt 1       @ ../Drivers/BSP/STM32F746/stm32746g_qspi.c:758:0
	.fnstart
	.cfi_startproc
@ %bb.0:
	.save	{r7, lr}
	push	{r7, lr}
	.cfi_def_cfa_offset 8
	.cfi_offset lr, -4
	.cfi_offset r7, -8
	.pad	#80
	sub	sp, #80
	.cfi_def_cfa_offset 88
	@DEBUG_VALUE: QSPI_AutoPollingMemReady:Timeout <- $r0
	mov	r3, r0
.Ltmp144:
	@DEBUG_VALUE: QSPI_AutoPollingMemReady:Timeout <- $r3
	.loc	6 764 33 prologue_end   @ ../Drivers/BSP/STM32F746/stm32746g_qspi.c:764:33
	movs	r0, #5
	.loc	6 767 33                @ ../Drivers/BSP/STM32F746/stm32746g_qspi.c:767:33
	mov.w	r1, #16777216
	mov	r2, sp
.Ltmp145:
	@DEBUG_VALUE: QSPI_AutoPollingMemReady:s_config <- [$sp+0]
	@DEBUG_VALUE: QSPI_AutoPollingMemReady:Timeout <- $r3
	.loc	6 764 33                @ ../Drivers/BSP/STM32F746/stm32746g_qspi.c:764:33
	str	r0, [sp, #24]
	.loc	6 763 33                @ ../Drivers/BSP/STM32F746/stm32746g_qspi.c:763:33
	mov.w	r0, #256
	str	r0, [sp, #48]
	movs	r0, #0
	.loc	6 765 33                @ ../Drivers/BSP/STM32F746/stm32746g_qspi.c:765:33
	strd	r0, r0, [sp, #52]
	.loc	6 767 33                @ ../Drivers/BSP/STM32F746/stm32746g_qspi.c:767:33
	str	r1, [sp, #60]
	movs	r1, #1
	.loc	6 768 33                @ ../Drivers/BSP/STM32F746/stm32746g_qspi.c:768:33
	str	r0, [sp, #44]
	.loc	6 769 33                @ ../Drivers/BSP/STM32F746/stm32746g_qspi.c:769:33
	strd	r0, r0, [sp, #68]
	.loc	6 773 33                @ ../Drivers/BSP/STM32F746/stm32746g_qspi.c:773:33
	str	r0, [sp]
	.loc	6 771 33                @ ../Drivers/BSP/STM32F746/stm32746g_qspi.c:771:33
	str	r0, [sp, #76]
	.loc	6 774 33                @ ../Drivers/BSP/STM32F746/stm32746g_qspi.c:774:33
	str	r1, [sp, #4]
	.loc	6 776 33                @ ../Drivers/BSP/STM32F746/stm32746g_qspi.c:776:33
	strd	r1, r0, [sp, #12]
	movs	r0, #16
	add	r1, sp, #24
.Ltmp146:
	@DEBUG_VALUE: QSPI_AutoPollingMemReady:s_command <- [DW_OP_plus_uconst 24] [$sp+0]
	.loc	6 777 33                @ ../Drivers/BSP/STM32F746/stm32746g_qspi.c:777:33
	str	r0, [sp, #8]
	.loc	6 778 33                @ ../Drivers/BSP/STM32F746/stm32746g_qspi.c:778:33
	mov.w	r0, #4194304
	str	r0, [sp, #20]
.Ltmp147:
	.loc	6 780 9                 @ ../Drivers/BSP/STM32F746/stm32746g_qspi.c:780:9
	ldr	r0, __arm_cp.8_0
	@DEBUG_VALUE: QSPI_AutoPollingMemReady:hqspi <- $r0
	bl	HAL_QSPI_AutoPolling
.Ltmp148:
	.loc	6 780 69 is_stmt 0      @ ../Drivers/BSP/STM32F746/stm32746g_qspi.c:780:69
	cmp	r0, #0
	it	ne
	movne	r0, #1
.Ltmp149:
	.loc	6 786 1 is_stmt 1       @ ../Drivers/BSP/STM32F746/stm32746g_qspi.c:786:1
	add	sp, #80
.Ltmp150:
	pop	{r7, pc}
.Ltmp151:
	.p2align	2
@ %bb.1:
	.loc	6 0 1 is_stmt 0         @ ../Drivers/BSP/STM32F746/stm32746g_qspi.c:0:1
__arm_cp.8_0:
	.long	hqspi
.Lcpi_end14:
	.size	__arm_cp.8_0, .Lcpi_end14-__arm_cp.8_0
.Lfunc_end8:
	.size	QSPI_AutoPollingMemReady, .Lfunc_end8-QSPI_AutoPollingMemReady
	.cfi_endproc
	.cantunwind
	.fnend
                                        @ -- End function
	.section	.text.BSP_QSPI_Erase_Block,"ax",%progbits
	.hidden	BSP_QSPI_Erase_Block    @ -- Begin function BSP_QSPI_Erase_Block
	.globl	BSP_QSPI_Erase_Block
	.p2align	2
	.type	BSP_QSPI_Erase_Block,%function
	.code	16                      @ @BSP_QSPI_Erase_Block
	.thumb_func
BSP_QSPI_Erase_Block:
.Lfunc_begin9:
	.loc	6 320 0 is_stmt 1       @ ../Drivers/BSP/STM32F746/stm32746g_qspi.c:320:0
	.fnstart
	.cfi_startproc
@ %bb.0:
	.save	{r7, lr}
	push	{r7, lr}
	.cfi_def_cfa_offset 8
	.cfi_offset lr, -4
	.cfi_offset r7, -8
	.pad	#56
	sub	sp, #56
	.cfi_def_cfa_offset 64
	@DEBUG_VALUE: BSP_QSPI_Erase_Block:BlockAddress <- $r0
	movs	r1, #32
	@DEBUG_VALUE: BSP_QSPI_Erase_Block:BlockAddress <- $r0
.Ltmp152:
	.loc	6 325 31 prologue_end   @ ../Drivers/BSP/STM32F746/stm32746g_qspi.c:325:31
	str	r1, [sp]
	.loc	6 324 31                @ ../Drivers/BSP/STM32F746/stm32746g_qspi.c:324:31
	mov.w	r1, #256
	str	r1, [sp, #24]
	.loc	6 326 31                @ ../Drivers/BSP/STM32F746/stm32746g_qspi.c:326:31
	mov.w	r1, #1024
	str	r1, [sp, #28]
	.loc	6 327 31                @ ../Drivers/BSP/STM32F746/stm32746g_qspi.c:327:31
	mov.w	r1, #8192
	str	r1, [sp, #12]
	.loc	6 328 31                @ ../Drivers/BSP/STM32F746/stm32746g_qspi.c:328:31
	str	r0, [sp, #4]
	movs	r0, #0
.Ltmp153:
	.loc	6 329 31                @ ../Drivers/BSP/STM32F746/stm32746g_qspi.c:329:31
	strd	r0, r0, [sp, #32]
	.loc	6 331 31                @ ../Drivers/BSP/STM32F746/stm32746g_qspi.c:331:31
	str	r0, [sp, #20]
	.loc	6 332 31                @ ../Drivers/BSP/STM32F746/stm32746g_qspi.c:332:31
	strd	r0, r0, [sp, #44]
	.loc	6 334 31                @ ../Drivers/BSP/STM32F746/stm32746g_qspi.c:334:31
	str	r0, [sp, #52]
.Ltmp154:
	.loc	6 337 7                 @ ../Drivers/BSP/STM32F746/stm32746g_qspi.c:337:7
	bl	QSPI_WriteEnable
.Ltmp155:
	.loc	6 337 7 is_stmt 0       @ ../Drivers/BSP/STM32F746/stm32746g_qspi.c:337:7
	cbnz	r0, .LBB9_2
@ %bb.1:
.Ltmp156:
	.loc	6 343 7 is_stmt 1       @ ../Drivers/BSP/STM32F746/stm32746g_qspi.c:343:7
	ldr	r0, __arm_cp.9_0
	mov	r1, sp
.Ltmp157:
	@DEBUG_VALUE: BSP_QSPI_Erase_Block:s_command <- [$sp+0]
	movw	r2, #5000
	bl	HAL_QSPI_Command
.Ltmp158:
	.loc	6 343 7 is_stmt 0       @ ../Drivers/BSP/STM32F746/stm32746g_qspi.c:343:7
	cbz	r0, .LBB9_4
.Ltmp159:
.LBB9_2:
	.loc	6 0 7                   @ ../Drivers/BSP/STM32F746/stm32746g_qspi.c:0:7
	movs	r0, #1
.LBB9_3:
	.loc	6 355 1 is_stmt 1       @ ../Drivers/BSP/STM32F746/stm32746g_qspi.c:355:1
	add	sp, #56
	pop	{r7, pc}
.LBB9_4:
.Ltmp160:
	@DEBUG_VALUE: BSP_QSPI_Erase_Block:s_command <- [$sp+0]
	.loc	6 349 7                 @ ../Drivers/BSP/STM32F746/stm32746g_qspi.c:349:7
	mov.w	r0, #800
	bl	QSPI_AutoPollingMemReady
	.loc	6 349 75 is_stmt 0      @ ../Drivers/BSP/STM32F746/stm32746g_qspi.c:349:75
	cmp	r0, #0
	it	ne
	movne	r0, #1
	b	.LBB9_3
.Ltmp161:
	.p2align	2
@ %bb.5:
	.loc	6 0 75                  @ ../Drivers/BSP/STM32F746/stm32746g_qspi.c:0:75
__arm_cp.9_0:
	.long	hqspi
.Lcpi_end15:
	.size	__arm_cp.9_0, .Lcpi_end15-__arm_cp.9_0
.Lfunc_end9:
	.size	BSP_QSPI_Erase_Block, .Lfunc_end9-BSP_QSPI_Erase_Block
	.cfi_endproc
	.cantunwind
	.fnend
                                        @ -- End function
	.section	.text.BSP_QSPI_Erase_Chip,"ax",%progbits
	.hidden	BSP_QSPI_Erase_Chip     @ -- Begin function BSP_QSPI_Erase_Chip
	.globl	BSP_QSPI_Erase_Chip
	.p2align	2
	.type	BSP_QSPI_Erase_Chip,%function
	.code	16                      @ @BSP_QSPI_Erase_Chip
	.thumb_func
BSP_QSPI_Erase_Chip:
.Lfunc_begin10:
	.loc	6 362 0 is_stmt 1       @ ../Drivers/BSP/STM32F746/stm32746g_qspi.c:362:0
	.fnstart
	.cfi_startproc
@ %bb.0:
	.save	{r7, lr}
	push	{r7, lr}
	.cfi_def_cfa_offset 8
	.cfi_offset lr, -4
	.cfi_offset r7, -8
	.pad	#56
	sub	sp, #56
	.cfi_def_cfa_offset 64
.Ltmp162:
	.loc	6 367 31 prologue_end   @ ../Drivers/BSP/STM32F746/stm32746g_qspi.c:367:31
	movs	r0, #199
	str	r0, [sp]
	.loc	6 366 31                @ ../Drivers/BSP/STM32F746/stm32746g_qspi.c:366:31
	mov.w	r0, #256
	str	r0, [sp, #24]
	movs	r0, #0
	.loc	6 368 31                @ ../Drivers/BSP/STM32F746/stm32746g_qspi.c:368:31
	strd	r0, r0, [sp, #28]
	.loc	6 370 31                @ ../Drivers/BSP/STM32F746/stm32746g_qspi.c:370:31
	str	r0, [sp, #36]
	.loc	6 371 31                @ ../Drivers/BSP/STM32F746/stm32746g_qspi.c:371:31
	str	r0, [sp, #20]
	.loc	6 372 31                @ ../Drivers/BSP/STM32F746/stm32746g_qspi.c:372:31
	strd	r0, r0, [sp, #44]
	.loc	6 374 31                @ ../Drivers/BSP/STM32F746/stm32746g_qspi.c:374:31
	str	r0, [sp, #52]
.Ltmp163:
	.loc	6 377 7                 @ ../Drivers/BSP/STM32F746/stm32746g_qspi.c:377:7
	bl	QSPI_WriteEnable
.Ltmp164:
	.loc	6 377 7 is_stmt 0       @ ../Drivers/BSP/STM32F746/stm32746g_qspi.c:377:7
	cbnz	r0, .LBB10_2
@ %bb.1:
.Ltmp165:
	.loc	6 383 7 is_stmt 1       @ ../Drivers/BSP/STM32F746/stm32746g_qspi.c:383:7
	ldr	r0, __arm_cp.10_0
	mov	r1, sp
.Ltmp166:
	@DEBUG_VALUE: BSP_QSPI_Erase_Chip:s_command <- [$sp+0]
	movw	r2, #5000
	bl	HAL_QSPI_Command
.Ltmp167:
	.loc	6 383 7 is_stmt 0       @ ../Drivers/BSP/STM32F746/stm32746g_qspi.c:383:7
	cbz	r0, .LBB10_4
.Ltmp168:
.LBB10_2:
	.loc	6 0 7                   @ ../Drivers/BSP/STM32F746/stm32746g_qspi.c:0:7
	movs	r0, #1
.LBB10_3:
	.loc	6 395 1 is_stmt 1       @ ../Drivers/BSP/STM32F746/stm32746g_qspi.c:395:1
	add	sp, #56
	pop	{r7, pc}
.LBB10_4:
.Ltmp169:
	@DEBUG_VALUE: BSP_QSPI_Erase_Chip:s_command <- [$sp+0]
	.loc	6 389 7                 @ ../Drivers/BSP/STM32F746/stm32746g_qspi.c:389:7
	ldr	r0, __arm_cp.10_1
	bl	QSPI_AutoPollingMemReady
	.loc	6 389 70 is_stmt 0      @ ../Drivers/BSP/STM32F746/stm32746g_qspi.c:389:70
	cmp	r0, #0
	it	ne
	movne	r0, #1
	b	.LBB10_3
.Ltmp170:
	.p2align	2
@ %bb.5:
	.loc	6 0 70                  @ ../Drivers/BSP/STM32F746/stm32746g_qspi.c:0:70
__arm_cp.10_0:
	.long	hqspi
.Lcpi_end16:
	.size	__arm_cp.10_0, .Lcpi_end16-__arm_cp.10_0
__arm_cp.10_1:
	.long	250000                  @ 0x3d090
.Lcpi_end17:
	.size	__arm_cp.10_1, .Lcpi_end17-__arm_cp.10_1
.Lfunc_end10:
	.size	BSP_QSPI_Erase_Chip, .Lfunc_end10-BSP_QSPI_Erase_Chip
	.cfi_endproc
	.cantunwind
	.fnend
                                        @ -- End function
	.section	.text.BSP_QSPI_GetStatus,"ax",%progbits
	.hidden	BSP_QSPI_GetStatus      @ -- Begin function BSP_QSPI_GetStatus
	.globl	BSP_QSPI_GetStatus
	.p2align	2
	.type	BSP_QSPI_GetStatus,%function
	.code	16                      @ @BSP_QSPI_GetStatus
	.thumb_func
BSP_QSPI_GetStatus:
.Lfunc_begin11:
	.loc	6 402 0 is_stmt 1       @ ../Drivers/BSP/STM32F746/stm32746g_qspi.c:402:0
	.fnstart
	.cfi_startproc
@ %bb.0:
	.save	{r4, lr}
	push	{r4, lr}
	.cfi_def_cfa_offset 8
	.cfi_offset lr, -4
	.cfi_offset r4, -8
	.pad	#64
	sub	sp, #64
	.cfi_def_cfa_offset 72
.Ltmp171:
	.loc	6 408 31 prologue_end   @ ../Drivers/BSP/STM32F746/stm32746g_qspi.c:408:31
	movs	r0, #112
	.loc	6 411 31                @ ../Drivers/BSP/STM32F746/stm32746g_qspi.c:411:31
	mov.w	r1, #16777216
	movs	r4, #1
.Ltmp172:
	.loc	6 419 7                 @ ../Drivers/BSP/STM32F746/stm32746g_qspi.c:419:7
	movw	r2, #5000
.Ltmp173:
	.loc	6 408 31                @ ../Drivers/BSP/STM32F746/stm32746g_qspi.c:408:31
	str	r0, [sp, #8]
	.loc	6 407 31                @ ../Drivers/BSP/STM32F746/stm32746g_qspi.c:407:31
	mov.w	r0, #256
	str	r0, [sp, #32]
	movs	r0, #0
	.loc	6 409 31                @ ../Drivers/BSP/STM32F746/stm32746g_qspi.c:409:31
	strd	r0, r0, [sp, #36]
	.loc	6 411 31                @ ../Drivers/BSP/STM32F746/stm32746g_qspi.c:411:31
	str	r1, [sp, #44]
	.loc	6 412 31                @ ../Drivers/BSP/STM32F746/stm32746g_qspi.c:412:31
	str	r0, [sp, #28]
	.loc	6 413 31                @ ../Drivers/BSP/STM32F746/stm32746g_qspi.c:413:31
	strd	r4, r0, [sp, #48]
	.loc	6 415 31                @ ../Drivers/BSP/STM32F746/stm32746g_qspi.c:415:31
	strd	r0, r0, [sp, #56]
.Ltmp174:
	.loc	6 419 7                 @ ../Drivers/BSP/STM32F746/stm32746g_qspi.c:419:7
	ldr	r0, __arm_cp.11_0
	add	r1, sp, #8
.Ltmp175:
	@DEBUG_VALUE: BSP_QSPI_GetStatus:s_command <- [DW_OP_plus_uconst 8] [$sp+0]
	bl	HAL_QSPI_Command
.Ltmp176:
	.loc	6 419 7 is_stmt 0       @ ../Drivers/BSP/STM32F746/stm32746g_qspi.c:419:7
	cbnz	r0, .LBB11_4
.Ltmp177:
@ %bb.1:
	@DEBUG_VALUE: BSP_QSPI_GetStatus:s_command <- [DW_OP_plus_uconst 8] [$sp+0]
	.loc	6 425 7 is_stmt 1       @ ../Drivers/BSP/STM32F746/stm32746g_qspi.c:425:7
	ldr	r0, __arm_cp.11_0
	add.w	r1, sp, #7
.Ltmp178:
	@DEBUG_VALUE: BSP_QSPI_GetStatus:reg <- [DW_OP_plus_uconst 7] [$sp+0]
	movw	r2, #5000
	bl	HAL_QSPI_Receive
.Ltmp179:
	.loc	6 425 7 is_stmt 0       @ ../Drivers/BSP/STM32F746/stm32746g_qspi.c:425:7
	cbnz	r0, .LBB11_3
.Ltmp180:
@ %bb.2:
	@DEBUG_VALUE: BSP_QSPI_GetStatus:reg <- [DW_OP_plus_uconst 7] [$sp+0]
	@DEBUG_VALUE: BSP_QSPI_GetStatus:s_command <- [DW_OP_plus_uconst 8] [$sp+0]
	.loc	6 431 8 is_stmt 1       @ ../Drivers/BSP/STM32F746/stm32746g_qspi.c:431:8
	ldrb.w	r0, [sp, #7]
.Ltmp181:
	.loc	6 431 7 is_stmt 0       @ ../Drivers/BSP/STM32F746/stm32746g_qspi.c:431:7
	tst.w	r0, #58
	beq	.LBB11_5
.Ltmp182:
.LBB11_3:
	@DEBUG_VALUE: BSP_QSPI_GetStatus:reg <- [DW_OP_plus_uconst 7] [$sp+0]
	@DEBUG_VALUE: BSP_QSPI_GetStatus:s_command <- [DW_OP_plus_uconst 8] [$sp+0]
	.loc	6 0 7                   @ ../Drivers/BSP/STM32F746/stm32746g_qspi.c:0:7
	movs	r4, #1
.Ltmp183:
.LBB11_4:
	@DEBUG_VALUE: BSP_QSPI_GetStatus:s_command <- [DW_OP_plus_uconst 8] [$sp+0]
	.loc	6 447 1 is_stmt 1       @ ../Drivers/BSP/STM32F746/stm32746g_qspi.c:447:1
	uxtb	r0, r4
	add	sp, #64
.Ltmp184:
	pop	{r4, pc}
.LBB11_5:
.Ltmp185:
	@DEBUG_VALUE: BSP_QSPI_GetStatus:reg <- [DW_OP_plus_uconst 7] [$sp+0]
	@DEBUG_VALUE: BSP_QSPI_GetStatus:s_command <- [DW_OP_plus_uconst 8] [$sp+0]
	.loc	6 435 12                @ ../Drivers/BSP/STM32F746/stm32746g_qspi.c:435:12
	tst.w	r0, #68
.Ltmp186:
	.loc	6 439 12                @ ../Drivers/BSP/STM32F746/stm32746g_qspi.c:439:12
	itte	eq
	moveq	r1, #2
	biceq.w	r4, r1, r0, lsr #6
	movne	r4, #8
	b	.LBB11_4
.Ltmp187:
	.p2align	2
@ %bb.6:
	.loc	6 0 12 is_stmt 0        @ ../Drivers/BSP/STM32F746/stm32746g_qspi.c:0:12
__arm_cp.11_0:
	.long	hqspi
.Lcpi_end18:
	.size	__arm_cp.11_0, .Lcpi_end18-__arm_cp.11_0
.Lfunc_end11:
	.size	BSP_QSPI_GetStatus, .Lfunc_end11-BSP_QSPI_GetStatus
	.cfi_endproc
	.cantunwind
	.fnend
                                        @ -- End function
	.section	.text.BSP_QSPI_GetInfo,"ax",%progbits
	.hidden	BSP_QSPI_GetInfo        @ -- Begin function BSP_QSPI_GetInfo
	.globl	BSP_QSPI_GetInfo
	.p2align	1
	.type	BSP_QSPI_GetInfo,%function
	.code	16                      @ @BSP_QSPI_GetInfo
	.thumb_func
BSP_QSPI_GetInfo:
.Lfunc_begin12:
	.loc	6 455 0 is_stmt 1       @ ../Drivers/BSP/STM32F746/stm32746g_qspi.c:455:0
	.fnstart
	.cfi_startproc
@ %bb.0:
	@DEBUG_VALUE: BSP_QSPI_GetInfo:pInfo <- $r0
	@DEBUG_VALUE: BSP_QSPI_GetInfo:pInfo <- $r0
	.loc	6 458 29 prologue_end   @ ../Drivers/BSP/STM32F746/stm32746g_qspi.c:458:29
	mov.w	r1, #4096
	.loc	6 457 29                @ ../Drivers/BSP/STM32F746/stm32746g_qspi.c:457:29
	mov.w	r2, #16777216
	.loc	6 460 29                @ ../Drivers/BSP/STM32F746/stm32746g_qspi.c:460:29
	mov.w	r3, #256
	.loc	6 461 29                @ ../Drivers/BSP/STM32F746/stm32746g_qspi.c:461:29
	mov.w	r12, #65536
	.loc	6 457 29                @ ../Drivers/BSP/STM32F746/stm32746g_qspi.c:457:29
	strd	r2, r1, [r0], #8
.Ltmp188:
	.loc	6 459 29                @ ../Drivers/BSP/STM32F746/stm32746g_qspi.c:459:29
	stm.w	r0, {r1, r3, r12}
	.loc	6 463 3                 @ ../Drivers/BSP/STM32F746/stm32746g_qspi.c:463:3
	movs	r0, #0
	bx	lr
.Ltmp189:
.Lfunc_end12:
	.size	BSP_QSPI_GetInfo, .Lfunc_end12-BSP_QSPI_GetInfo
	.cfi_endproc
	.cantunwind
	.fnend
                                        @ -- End function
	.hidden	hqspi                   @ @hqspi
	.type	hqspi,%object
	.section	.bss.hqspi,"aw",%nobits
	.globl	hqspi
	.p2align	2
hqspi:
	.zero	76
	.size	hqspi, 76

	.file	7 "../Drivers/STM32F7xx_HAL_Driver/Inc" "stm32f7xx_hal_gpio.h"
	.file	8 "../Drivers/BSP/STM32F746" "stm32746g_qspi.h"
	.section	".note.GNU-stack","",%progbits
	.eabi_attribute	30, 4	@ Tag_ABI_optimization_goals
	.ARM_attribute	16, 1	@ Tag_AV_eba