	.text
	.syntax unified
	.eabi_attribute	67, "2.09"	@ Tag_conformance
	.cpu	cortex-m7
	.eabi_attribute	6, 13	@ Tag_CPU_arch
	.eabi_attribute	7, 77	@ Tag_CPU_arch_profile
	.eabi_attribute	8, 0	@ Tag_ARM_ISA_use
	.eabi_attribute	9, 2	@ Tag_THUMB_ISA_use
	.fpu	fpv5-sp-d16
	.eabi_attribute	27, 1	@ Tag_ABI_HardFP_use
	.eabi_attribute	36, 1	@ Tag_FP_HP_extension
	.eabi_attribute	34, 1	@ Tag_CPU_unaligned_access
	.eabi_attribute	17, 1	@ Tag_ABI_PCS_GOT_use
	.eabi_attribute	20, 2	@ Tag_ABI_FP_denormal
	.eabi_attribute	21, 0	@ Tag_ABI_FP_exceptions
	.eabi_attribute	23, 1	@ Tag_ABI_FP_number_model
	.eabi_attribute	24, 1	@ Tag_ABI_align_needed
	.eabi_attribute	25, 1	@ Tag_ABI_align_preserved
	.eabi_attribute	28, 1	@ Tag_ABI_VFP_args
	.eabi_attribute	38, 1	@ Tag_ABI_FP_16bit_format
	.eabi_attribute	18, 2	@ Tag_ABI_PCS_wchar_t
	.eabi_attribute	26, 1	@ Tag_ABI_enum_size
	.eabi_attribute	14, 0	@ Tag_ABI_PCS_R9_use
	.file	"stm32f7xx_hal_i2c.c"
	.file	1 "../Drivers/STM32F7xx_HAL_Driver/Inc" "stm32f7xx_hal_def.h"
	.file	2 "../Drivers/STM32F7xx_HAL_Driver/Inc" "stm32f7xx_hal_dma.h"
	.file	3 "../Drivers/STM32F7xx_HAL_Driver/Inc" "stm32f7xx_hal_i2c.h"
	.file	4 "../Drivers/CMSIS/Device/ST/STM32F7xx/Include" "stm32f7xx.h"
	.file	5 "C:\\Keil\\ARM\\ARMCLANG\\Bin\\..\\include" "stdint.h"
	.file	6 "../Drivers/CMSIS/Device/ST/STM32F7xx/Include" "stm32f746xx.h"
	.section	.text.HAL_I2C_Init,"ax",%progbits
	.hidden	HAL_I2C_Init            @ -- Begin function HAL_I2C_Init
	.globl	HAL_I2C_Init
	.p2align	2
	.type	HAL_I2C_Init,%function
	.code	16                      @ @HAL_I2C_Init
	.thumb_func
HAL_I2C_Init:
.Lfunc_begin0:
	.file	7 "../Drivers/STM32F7xx_HAL_Driver/Src" "stm32f7xx_hal_i2c.c"
	.loc	7 405 0                 @ ../Drivers/STM32F7xx_HAL_Driver/Src/stm32f7xx_hal_i2c.c:405:0
	.fnstart
	.cfi_sections .debug_frame
	.cfi_startproc
@ %bb.0:
	.save	{r4, lr}
	push	{r4, lr}
	.cfi_def_cfa_offset 8
	.cfi_offset lr, -4
	.cfi_offset r4, -8
	@DEBUG_VALUE: HAL_I2C_Init:hi2c <- $r0
	mov	r4, r0
.Ltmp0:
	@DEBUG_VALUE: HAL_I2C_Init:hi2c <- $r4
	.loc	7 407 6 prologue_end    @ ../Drivers/STM32F7xx_HAL_Driver/Src/stm32f7xx_hal_i2c.c:407:6
	cbz	r0, .LBB0_5
.Ltmp1:
@ %bb.1:
	@DEBUG_VALUE: HAL_I2C_Init:hi2c <- $r4
	.loc	7 422 12                @ ../Drivers/STM32F7xx_HAL_Driver/Src/stm32f7xx_hal_i2c.c:422:12
	ldrb.w	r0, [r4, #65]
.Ltmp2:
	.loc	7 422 6 is_stmt 0       @ ../Drivers/STM32F7xx_HAL_Driver/Src/stm32f7xx_hal_i2c.c:422:6
	cbnz	r0, .LBB0_3
.Ltmp3:
@ %bb.2:
	@DEBUG_VALUE: HAL_I2C_Init:hi2c <- $r4
	.loc	7 425 16 is_stmt 1      @ ../Drivers/STM32F7xx_HAL_Driver/Src/stm32f7xx_hal_i2c.c:425:16
	movs	r0, #0
	strb.w	r0, [r4, #64]
	.loc	7 428 5                 @ ../Drivers/STM32F7xx_HAL_Driver/Src/stm32f7xx_hal_i2c.c:428:5
	mov	r0, r4
	bl	HAL_I2C_MspInit
.Ltmp4:
.LBB0_3:
	@DEBUG_VALUE: HAL_I2C_Init:hi2c <- $r4
	.loc	7 431 15                @ ../Drivers/STM32F7xx_HAL_Driver/Src/stm32f7xx_hal_i2c.c:431:15
	movs	r0, #36
	strb.w	r0, [r4, #65]
	.loc	7 434 3                 @ ../Drivers/STM32F7xx_HAL_Driver/Src/stm32f7xx_hal_i2c.c:434:3
	ldr	r0, [r4]
	ldr	r1, [r0]
	bic	r1, r1, #1
	str	r1, [r0]
	.loc	7 438 40                @ ../Drivers/STM32F7xx_HAL_Driver/Src/stm32f7xx_hal_i2c.c:438:40
	ldr	r1, [r4, #4]
	.loc	7 438 47 is_stmt 0      @ ../Drivers/STM32F7xx_HAL_Driver/Src/stm32f7xx_hal_i2c.c:438:47
	bic	r1, r1, #251658240
	.loc	7 438 27                @ ../Drivers/STM32F7xx_HAL_Driver/Src/stm32f7xx_hal_i2c.c:438:27
	str	r1, [r0, #16]
	.loc	7 442 24 is_stmt 1      @ ../Drivers/STM32F7xx_HAL_Driver/Src/stm32f7xx_hal_i2c.c:442:24
	ldr	r1, [r0, #8]
	bic	r1, r1, #32768
	str	r1, [r0, #8]
	ldrd	r1, r2, [r4, #8]
	.loc	7 445 6                 @ ../Drivers/STM32F7xx_HAL_Driver/Src/stm32f7xx_hal_i2c.c:445:6
	cmp	r2, #1
	bne	.LBB0_6
.Ltmp5:
@ %bb.4:
	@DEBUG_VALUE: HAL_I2C_Init:hi2c <- $r4
	.loc	7 447 44                @ ../Drivers/STM32F7xx_HAL_Driver/Src/stm32f7xx_hal_i2c.c:447:44
	orr	r1, r1, #32768
	.loc	7 447 26 is_stmt 0      @ ../Drivers/STM32F7xx_HAL_Driver/Src/stm32f7xx_hal_i2c.c:447:26
	str	r1, [r0, #8]
	b	.LBB0_7
.Ltmp6:
.LBB0_5:
	@DEBUG_VALUE: HAL_I2C_Init:hi2c <- $r4
	.loc	7 0 26                  @ ../Drivers/STM32F7xx_HAL_Driver/Src/stm32f7xx_hal_i2c.c:0:26
	movs	r0, #1
	.loc	7 483 1 is_stmt 1       @ ../Drivers/STM32F7xx_HAL_Driver/Src/stm32f7xx_hal_i2c.c:483:1
	pop	{r4, pc}
.Ltmp7:
.LBB0_6:
	@DEBUG_VALUE: HAL_I2C_Init:hi2c <- $r4
	.loc	7 451 63                @ ../Drivers/STM32F7xx_HAL_Driver/Src/stm32f7xx_hal_i2c.c:451:63
	orr	r1, r1, #33792
.Ltmp8:
	.loc	7 456 6                 @ ../Drivers/STM32F7xx_HAL_Driver/Src/stm32f7xx_hal_i2c.c:456:6
	cmp	r2, #2
.Ltmp9:
	.loc	7 451 26                @ ../Drivers/STM32F7xx_HAL_Driver/Src/stm32f7xx_hal_i2c.c:451:26
	str	r1, [r0, #8]
.Ltmp10:
	.loc	7 458 25                @ ../Drivers/STM32F7xx_HAL_Driver/Src/stm32f7xx_hal_i2c.c:458:25
	itt	eq
	moveq.w	r1, #2048
	streq	r1, [r0, #4]
.Ltmp11:
.LBB0_7:
	@DEBUG_VALUE: HAL_I2C_Init:hi2c <- $r4
	.loc	7 461 23                @ ../Drivers/STM32F7xx_HAL_Driver/Src/stm32f7xx_hal_i2c.c:461:23
	ldr	r1, [r0, #4]
	ldr	r2, __arm_cp.0_0
	.loc	7 468 38                @ ../Drivers/STM32F7xx_HAL_Driver/Src/stm32f7xx_hal_i2c.c:468:38
	add.w	r3, r4, #16
	.loc	7 461 23                @ ../Drivers/STM32F7xx_HAL_Driver/Src/stm32f7xx_hal_i2c.c:461:23
	orrs	r1, r2
	str	r1, [r0, #4]
	.loc	7 465 24                @ ../Drivers/STM32F7xx_HAL_Driver/Src/stm32f7xx_hal_i2c.c:465:24
	ldr	r1, [r0, #12]
	bic	r1, r1, #32768
	str	r1, [r0, #12]
	.loc	7 468 38                @ ../Drivers/STM32F7xx_HAL_Driver/Src/stm32f7xx_hal_i2c.c:468:38
	ldm	r3, {r1, r2, r3}
	.loc	7 468 54 is_stmt 0      @ ../Drivers/STM32F7xx_HAL_Driver/Src/stm32f7xx_hal_i2c.c:468:54
	orrs	r1, r2
	.loc	7 468 79                @ ../Drivers/STM32F7xx_HAL_Driver/Src/stm32f7xx_hal_i2c.c:468:79
	orr.w	r1, r1, r3, lsl #8
	.loc	7 468 24                @ ../Drivers/STM32F7xx_HAL_Driver/Src/stm32f7xx_hal_i2c.c:468:24
	str	r1, [r0, #12]
	.loc	7 472 37 is_stmt 1      @ ../Drivers/STM32F7xx_HAL_Driver/Src/stm32f7xx_hal_i2c.c:472:37
	ldrd	r1, r2, [r4, #28]
	.loc	7 472 53 is_stmt 0      @ ../Drivers/STM32F7xx_HAL_Driver/Src/stm32f7xx_hal_i2c.c:472:53
	orrs	r1, r2
	.loc	7 472 23                @ ../Drivers/STM32F7xx_HAL_Driver/Src/stm32f7xx_hal_i2c.c:472:23
	str	r1, [r0]
	.loc	7 475 3 is_stmt 1       @ ../Drivers/STM32F7xx_HAL_Driver/Src/stm32f7xx_hal_i2c.c:475:3
	ldr	r1, [r0]
	orr	r1, r1, #1
	str	r1, [r0]
	movs	r0, #0
	movs	r1, #32
	.loc	7 477 19                @ ../Drivers/STM32F7xx_HAL_Driver/Src/stm32f7xx_hal_i2c.c:477:19
	str	r0, [r4, #68]
	.loc	7 478 15                @ ../Drivers/STM32F7xx_HAL_Driver/Src/stm32f7xx_hal_i2c.c:478:15
	strb.w	r1, [r4, #65]
	.loc	7 479 23                @ ../Drivers/STM32F7xx_HAL_Driver/Src/stm32f7xx_hal_i2c.c:479:23
	str	r0, [r4, #48]
	.loc	7 480 14                @ ../Drivers/STM32F7xx_HAL_Driver/Src/stm32f7xx_hal_i2c.c:480:14
	strb.w	r0, [r4, #66]
	.loc	7 483 1                 @ ../Drivers/STM32F7xx_HAL_Driver/Src/stm32f7xx_hal_i2c.c:483:1
	pop	{r4, pc}
.Ltmp12:
	.p2align	2
@ %bb.8:
	.loc	7 0 1 is_stmt 0         @ ../Drivers/STM32F7xx_HAL_Driver/Src/stm32f7xx_hal_i2c.c:0:1
__arm_cp.0_0:
	.long	33587200                @ 0x2008000
.Lcpi_end0:
	.size	__arm_cp.0_0, .Lcpi_end0-__arm_cp.0_0
.Lfunc_end0:
	.size	HAL_I2C_Init, .Lfunc_end0-HAL_I2C_Init
	.cfi_endproc
	.cantunwind
	.fnend
                                        @ -- End function
	.section	.text.HAL_I2C_MspInit,"ax",%progbits
	.hidden	HAL_I2C_MspInit         @ -- Begin function HAL_I2C_MspInit
	.weak	HAL_I2C_MspInit
	.p2align	1
	.type	HAL_I2C_MspInit,%function
	.code	16                      @ @HAL_I2C_MspInit
	.thumb_func
HAL_I2C_MspInit:
.Lfunc_begin1:
	.loc	7 528 0 is_stmt 1       @ ../Drivers/STM32F7xx_HAL_Driver/Src/stm32f7xx_hal_i2c.c:528:0
	.fnstart
	.cfi_startproc
@ %bb.0:
	@DEBUG_VALUE: HAL_I2C_MspInit:hi2c <- $r0
	.loc	7 535 1 prologue_end    @ ../Drivers/STM32F7xx_HAL_Driver/Src/stm32f7xx_hal_i2c.c:535:1
	bx	lr
.Ltmp13:
.Lfunc_end1:
	.size	HAL_I2C_MspInit, .Lfunc_end1-HAL_I2C_MspInit
	.cfi_endproc
	.cantunwind
	.fnend
                                        @ -- End function
	.section	.text.HAL_I2C_DeInit,"ax",%progbits
	.hidden	HAL_I2C_DeInit          @ -- Begin function HAL_I2C_DeInit
	.globl	HAL_I2C_DeInit
	.p2align	1
	.type	HAL_I2C_DeInit,%function
	.code	16                      @ @HAL_I2C_DeInit
	.thumb_func
HAL_I2C_DeInit:
.Lfunc_begin2:
	.loc	7 492 0                 @ ../Drivers/STM32F7xx_HAL_Driver/Src/stm32f7xx_hal_i2c.c:492:0
	.fnstart
	.cfi_startproc
@ %bb.0:
	.save	{r4, lr}
	push	{r4, lr}
	.cfi_def_cfa_offset 8
	.cfi_offset lr, -4
	.cfi_offset r4, -8
	@DEBUG_VALUE: HAL_I2C_DeInit:hi2c <- $r0
	mov	r4, r0
.Ltmp14:
	@DEBUG_VALUE: HAL_I2C_DeInit:hi2c <- $r4
	.loc	7 494 6 prologue_end    @ ../Drivers/STM32F7xx_HAL_Driver/Src/stm32f7xx_hal_i2c.c:494:6
	cbz	r0, .LBB2_2
.Ltmp15:
@ %bb.1:
	@DEBUG_VALUE: HAL_I2C_DeInit:hi2c <- $r4
	.loc	7 502 15                @ ../Drivers/STM32F7xx_HAL_Driver/Src/stm32f7xx_hal_i2c.c:502:15
	movs	r0, #36
	strb.w	r0, [r4, #65]
	.loc	7 505 3                 @ ../Drivers/STM32F7xx_HAL_Driver/Src/stm32f7xx_hal_i2c.c:505:3
	ldr	r0, [r4]
	ldr	r1, [r0]
	bic	r1, r1, #1
	str	r1, [r0]
	.loc	7 508 3                 @ ../Drivers/STM32F7xx_HAL_Driver/Src/stm32f7xx_hal_i2c.c:508:3
	mov	r0, r4
	bl	HAL_I2C_MspDeInit
	movs	r0, #0
	.loc	7 510 19                @ ../Drivers/STM32F7xx_HAL_Driver/Src/stm32f7xx_hal_i2c.c:510:19
	str	r0, [r4, #68]
	.loc	7 511 15                @ ../Drivers/STM32F7xx_HAL_Driver/Src/stm32f7xx_hal_i2c.c:511:15
	strb.w	r0, [r4, #65]
	.loc	7 512 23                @ ../Drivers/STM32F7xx_HAL_Driver/Src/stm32f7xx_hal_i2c.c:512:23
	str	r0, [r4, #48]
.Ltmp16:
	.loc	7 516 3                 @ ../Drivers/STM32F7xx_HAL_Driver/Src/stm32f7xx_hal_i2c.c:516:3
	strb.w	r0, [r4, #64]
.Ltmp17:
	.loc	7 513 14                @ ../Drivers/STM32F7xx_HAL_Driver/Src/stm32f7xx_hal_i2c.c:513:14
	strb.w	r0, [r4, #66]
	.loc	7 519 1                 @ ../Drivers/STM32F7xx_HAL_Driver/Src/stm32f7xx_hal_i2c.c:519:1
	pop	{r4, pc}
.Ltmp18:
.LBB2_2:
	@DEBUG_VALUE: HAL_I2C_DeInit:hi2c <- $r4
	.loc	7 0 1 is_stmt 0         @ ../Drivers/STM32F7xx_HAL_Driver/Src/stm32f7xx_hal_i2c.c:0:1
	movs	r0, #1
	.loc	7 519 1                 @ ../Drivers/STM32F7xx_HAL_Driver/Src/stm32f7xx_hal_i2c.c:519:1
	pop	{r4, pc}
.Ltmp19:
.Lfunc_end2:
	.size	HAL_I2C_DeInit, .Lfunc_end2-HAL_I2C_DeInit
	.cfi_endproc
	.cantunwind
	.fnend
                                        @ -- End function
	.section	.text.HAL_I2C_MspDeInit,"ax",%progbits
	.hidden	HAL_I2C_MspDeInit       @ -- Begin function HAL_I2C_MspDeInit
	.weak	HAL_I2C_MspDeInit
	.p2align	1
	.type	HAL_I2C_MspDeInit,%function
	.code	16                      @ @HAL_I2C_MspDeInit
	.thumb_func
HAL_I2C_MspDeInit:
.Lfunc_begin3:
	.loc	7 544 0 is_stmt 1       @ ../Drivers/STM32F7xx_HAL_Driver/Src/stm32f7xx_hal_i2c.c:544:0
	.fnstart
	.cfi_startproc
@ %bb.0:
	@DEBUG_VALUE: HAL_I2C_MspDeInit:hi2c <- $r0
	.loc	7 551 1 prologue_end    @ ../Drivers/STM32F7xx_HAL_Driver/Src/stm32f7xx_hal_i2c.c:551:1
	bx	lr
.Ltmp20:
.Lfunc_end3:
	.size	HAL_I2C_MspDeInit, .Lfunc_end3-HAL_I2C_MspDeInit
	.cfi_endproc
	.cantunwind
	.fnend
                                        @ -- End function
	.section	.text.HAL_I2C_Master_Transmit,"ax",%progbits
	.hidden	HAL_I2C_Master_Transmit @ -- Begin function HAL_I2C_Master_Transmit
	.globl	HAL_I2C_Master_Transmit
	.p2align	2
	.type	HAL_I2C_Master_Transmit,%function
	.code	16                      @ @HAL_I2C_Master_Transmit
	.thumb_func
HAL_I2C_Master_Transmit:
.Lfunc_begin4:
	.loc	7 628 0                 @ ../Drivers/STM32F7xx_HAL_Driver/Src/stm32f7xx_hal_i2c.c:628:0
	.fnstart
	.cfi_startproc
@ %bb.0:
	.save	{r4, r5, r6, r7, r8, r9, r10, lr}
	.pad	#8
	push.w	{r2, r3, r4, r5, r6, r7, r8, r9, r10, lr}
	.cfi_def_cfa_offset 40
	.cfi_offset lr, -4
	.cfi_offset r10, -8
	.cfi_offset r9, -12
	.cfi_offset r8, -16
	.cfi_offset r7, -20
	.cfi_offset r6, -24
	.cfi_offset r5, -28
	.cfi_offset r4, -32
	@DEBUG_VALUE: HAL_I2C_Master_Transmit:hi2c <- $r0
	@DEBUG_VALUE: HAL_I2C_Master_Transmit:DevAddress <- $r1
	@DEBUG_VALUE: HAL_I2C_Master_Transmit:pData <- $r2
	@DEBUG_VALUE: HAL_I2C_Master_Transmit:Size <- $r3
	mov	r4, r0
.Ltmp21:
	@DEBUG_VALUE: HAL_I2C_Master_Transmit:tickstart <- 0
	@DEBUG_VALUE: HAL_I2C_Master_Transmit:Timeout <- [DW_OP_plus_uconst 40] [$sp+0]
	@DEBUG_VALUE: HAL_I2C_Master_Transmit:Size <- $r5
	@DEBUG_VALUE: HAL_I2C_Master_Transmit:pData <- $r7
	@DEBUG_VALUE: HAL_I2C_Master_Transmit:DevAddress <- $r8
	@DEBUG_VALUE: HAL_I2C_Master_Transmit:hi2c <- $r4
	.loc	7 631 12 prologue_end   @ ../Drivers/STM32F7xx_HAL_Driver/Src/stm32f7xx_hal_i2c.c:631:12
	ldrb.w	r0, [r0, #65]
	mov	r5, r3
.Ltmp22:
	.loc	7 0 12 is_stmt 0        @ ../Drivers/STM32F7xx_HAL_Driver/Src/stm32f7xx_hal_i2c.c:0:12
	mov	r7, r2
.Ltmp23:
	mov	r8, r1
.Ltmp24:
	.loc	7 631 6                 @ ../Drivers/STM32F7xx_HAL_Driver/Src/stm32f7xx_hal_i2c.c:631:6
	cmp	r0, #32
	bne	.LBB4_2
.Ltmp25:
@ %bb.1:
	@DEBUG_VALUE: HAL_I2C_Master_Transmit:hi2c <- $r4
	@DEBUG_VALUE: HAL_I2C_Master_Transmit:Timeout <- [DW_OP_plus_uconst 40] [$sp+0]
	.loc	7 634 5 is_stmt 1       @ ../Drivers/STM32F7xx_HAL_Driver/Src/stm32f7xx_hal_i2c.c:634:5
	ldrb.w	r0, [r4, #64]
.Ltmp26:
	.loc	7 634 5 is_stmt 0       @ ../Drivers/STM32F7xx_HAL_Driver/Src/stm32f7xx_hal_i2c.c:634:5
	cmp	r0, #1
	bne	.LBB4_4
.Ltmp27:
.LBB4_2:
	@DEBUG_VALUE: HAL_I2C_Master_Transmit:hi2c <- $r4
	@DEBUG_VALUE: HAL_I2C_Master_Transmit:Timeout <- [DW_OP_plus_uconst 40] [$sp+0]
	.loc	7 0 5                   @ ../Drivers/STM32F7xx_HAL_Driver/Src/stm32f7xx_hal_i2c.c:0:5
	movs	r0, #2
.Ltmp28:
.LBB4_3:
	@DEBUG_VALUE: HAL_I2C_Master_Transmit:hi2c <- $r4
	@DEBUG_VALUE: HAL_I2C_Master_Transmit:Timeout <- [DW_OP_plus_uconst 40] [$sp+0]
	.loc	7 738 1 is_stmt 1       @ ../Drivers/STM32F7xx_HAL_Driver/Src/stm32f7xx_hal_i2c.c:738:1
	uxtb	r0, r0
	add	sp, #8
.Ltmp29:
	pop.w	{r4, r5, r6, r7, r8, r9, r10, pc}
.Ltmp30:
.LBB4_4:
	@DEBUG_VALUE: HAL_I2C_Master_Transmit:hi2c <- $r4
	@DEBUG_VALUE: HAL_I2C_Master_Transmit:Timeout <- [DW_OP_plus_uconst 40] [$sp+0]
	.loc	7 0 1 is_stmt 0         @ ../Drivers/STM32F7xx_HAL_Driver/Src/stm32f7xx_hal_i2c.c:0:1
	movs	r0, #1
.Ltmp31:
	.loc	7 634 5 is_stmt 1       @ ../Drivers/STM32F7xx_HAL_Driver/Src/stm32f7xx_hal_i2c.c:634:5
	strb.w	r0, [r4, #64]
.Ltmp32:
	.loc	7 637 17                @ ../Drivers/STM32F7xx_HAL_Driver/Src/stm32f7xx_hal_i2c.c:637:17
	bl	HAL_GetTick
	mov	r6, r0
.Ltmp33:
	@DEBUG_VALUE: HAL_I2C_Master_Transmit:tickstart <- $r6
	.loc	7 639 8                 @ ../Drivers/STM32F7xx_HAL_Driver/Src/stm32f7xx_hal_i2c.c:639:8
	str	r0, [sp]
	mov	r0, r4
	mov.w	r1, #32768
	movs	r2, #1
	movs	r3, #25
	bl	I2C_WaitOnFlagUntilTimeout
.Ltmp34:
	.loc	7 639 8 is_stmt 0       @ ../Drivers/STM32F7xx_HAL_Driver/Src/stm32f7xx_hal_i2c.c:639:8
	cbz	r0, .LBB4_6
.Ltmp35:
.LBB4_5:
	@DEBUG_VALUE: HAL_I2C_Master_Transmit:tickstart <- $r6
	@DEBUG_VALUE: HAL_I2C_Master_Transmit:hi2c <- $r4
	@DEBUG_VALUE: HAL_I2C_Master_Transmit:Timeout <- [DW_OP_plus_uconst 40] [$sp+0]
	.loc	7 0 8                   @ ../Drivers/STM32F7xx_HAL_Driver/Src/stm32f7xx_hal_i2c.c:0:8
	movs	r0, #3
	b	.LBB4_3
.Ltmp36:
.LBB4_6:
	@DEBUG_VALUE: HAL_I2C_Master_Transmit:tickstart <- $r6
	@DEBUG_VALUE: HAL_I2C_Master_Transmit:hi2c <- $r4
	@DEBUG_VALUE: HAL_I2C_Master_Transmit:Timeout <- [DW_OP_plus_uconst 40] [$sp+0]
	@DEBUG_VALUE: HAL_I2C_Master_Transmit:DevAddress <- $r8
	@DEBUG_VALUE: HAL_I2C_Master_Transmit:Size <- $r5
	.loc	7 644 21 is_stmt 1      @ ../Drivers/STM32F7xx_HAL_Driver/Src/stm32f7xx_hal_i2c.c:644:21
	movs	r0, #33
	strb.w	r0, [r4, #65]
	.loc	7 645 21                @ ../Drivers/STM32F7xx_HAL_Driver/Src/stm32f7xx_hal_i2c.c:645:21
	movs	r0, #16
	strb.w	r0, [r4, #66]
	movs	r0, #0
	.loc	7 646 21                @ ../Drivers/STM32F7xx_HAL_Driver/Src/stm32f7xx_hal_i2c.c:646:21
	str	r0, [r4, #68]
	.loc	7 650 21                @ ../Drivers/STM32F7xx_HAL_Driver/Src/stm32f7xx_hal_i2c.c:650:21
	strh	r5, [r4, #42]
	.loc	7 649 21                @ ../Drivers/STM32F7xx_HAL_Driver/Src/stm32f7xx_hal_i2c.c:649:21
	str	r7, [r4, #36]
	.loc	7 651 21                @ ../Drivers/STM32F7xx_HAL_Driver/Src/stm32f7xx_hal_i2c.c:651:21
	str	r0, [r4, #52]
.Ltmp37:
	.loc	7 655 14                @ ../Drivers/STM32F7xx_HAL_Driver/Src/stm32f7xx_hal_i2c.c:655:14
	ldrh	r0, [r4, #42]
.Ltmp38:
	.loc	7 655 8 is_stmt 0       @ ../Drivers/STM32F7xx_HAL_Driver/Src/stm32f7xx_hal_i2c.c:655:8
	cmp.w	r0, #256
	blo	.LBB4_8
.Ltmp39:
@ %bb.7:
	@DEBUG_VALUE: HAL_I2C_Master_Transmit:tickstart <- $r6
	@DEBUG_VALUE: HAL_I2C_Master_Transmit:hi2c <- $r4
	@DEBUG_VALUE: HAL_I2C_Master_Transmit:DevAddress <- $r8
	@DEBUG_VALUE: HAL_I2C_Master_Transmit:Size <- $r5
	@DEBUG_VALUE: HAL_I2C_Master_Transmit:Timeout <- [DW_OP_plus_uconst 40] [$sp+0]
	.loc	7 0 8                   @ ../Drivers/STM32F7xx_HAL_Driver/Src/stm32f7xx_hal_i2c.c:0:8
	movs	r0, #255
.Ltmp40:
	.loc	7 658 7 is_stmt 1       @ ../Drivers/STM32F7xx_HAL_Driver/Src/stm32f7xx_hal_i2c.c:658:7
	mov	r1, r8
	movs	r2, #255
	mov.w	r3, #16777216
	.loc	7 657 22                @ ../Drivers/STM32F7xx_HAL_Driver/Src/stm32f7xx_hal_i2c.c:657:22
	strh	r0, [r4, #40]
	.loc	7 658 7                 @ ../Drivers/STM32F7xx_HAL_Driver/Src/stm32f7xx_hal_i2c.c:658:7
	mov.w	r0, #8192
	str	r0, [sp]
	mov	r0, r4
	b	.LBB4_9
.Ltmp41:
.LBB4_8:
	@DEBUG_VALUE: HAL_I2C_Master_Transmit:tickstart <- $r6
	@DEBUG_VALUE: HAL_I2C_Master_Transmit:hi2c <- $r4
	@DEBUG_VALUE: HAL_I2C_Master_Transmit:DevAddress <- $r8
	@DEBUG_VALUE: HAL_I2C_Master_Transmit:Size <- $r5
	@DEBUG_VALUE: HAL_I2C_Master_Transmit:Timeout <- [DW_OP_plus_uconst 40] [$sp+0]
	.loc	7 662 30                @ ../Drivers/STM32F7xx_HAL_Driver/Src/stm32f7xx_hal_i2c.c:662:30
	ldrh	r0, [r4, #42]
	.loc	7 663 7                 @ ../Drivers/STM32F7xx_HAL_Driver/Src/stm32f7xx_hal_i2c.c:663:7
	mov.w	r1, #8192
	mov.w	r3, #33554432
	.loc	7 662 22                @ ../Drivers/STM32F7xx_HAL_Driver/Src/stm32f7xx_hal_i2c.c:662:22
	strh	r0, [r4, #40]
	.loc	7 663 7                 @ ../Drivers/STM32F7xx_HAL_Driver/Src/stm32f7xx_hal_i2c.c:663:7
	str	r1, [sp]
	uxtb	r2, r0
	mov	r0, r4
	mov	r1, r8
.Ltmp42:
.LBB4_9:
	@DEBUG_VALUE: HAL_I2C_Master_Transmit:tickstart <- $r6
	@DEBUG_VALUE: HAL_I2C_Master_Transmit:hi2c <- $r4
	@DEBUG_VALUE: HAL_I2C_Master_Transmit:DevAddress <- $r8
	@DEBUG_VALUE: HAL_I2C_Master_Transmit:Size <- $r5
	@DEBUG_VALUE: HAL_I2C_Master_Transmit:Timeout <- [DW_OP_plus_uconst 40] [$sp+0]
	.loc	7 0 7 is_stmt 0         @ ../Drivers/STM32F7xx_HAL_Driver/Src/stm32f7xx_hal_i2c.c:0:7
	bl	I2C_TransferConfig
	ldr	r7, [sp, #40]
	movw	r5, #65535
.Ltmp43:
	mov.w	r9, #0
	mov.w	r10, #255
	b	.LBB4_17
.Ltmp44:
.LBB4_10:                               @   in Loop: Header=BB4_17 Depth=1
	@DEBUG_VALUE: HAL_I2C_Master_Transmit:tickstart <- $r6
	@DEBUG_VALUE: HAL_I2C_Master_Transmit:hi2c <- $r4
	@DEBUG_VALUE: HAL_I2C_Master_Transmit:DevAddress <- $r8
	@DEBUG_VALUE: HAL_I2C_Master_Transmit:Timeout <- [DW_OP_plus_uconst 40] [$sp+0]
	.loc	7 669 10 is_stmt 1      @ ../Drivers/STM32F7xx_HAL_Driver/Src/stm32f7xx_hal_i2c.c:669:10
	mov	r0, r4
	mov	r1, r7
	mov	r2, r6
	bl	I2C_WaitOnTXISFlagUntilTimeout
.Ltmp45:
	.loc	7 669 10 is_stmt 0      @ ../Drivers/STM32F7xx_HAL_Driver/Src/stm32f7xx_hal_i2c.c:669:10
	cmp	r0, #0
	bne	.LBB4_20
.Ltmp46:
@ %bb.11:                               @   in Loop: Header=BB4_17 Depth=1
	@DEBUG_VALUE: HAL_I2C_Master_Transmit:tickstart <- $r6
	@DEBUG_VALUE: HAL_I2C_Master_Transmit:hi2c <- $r4
	@DEBUG_VALUE: HAL_I2C_Master_Transmit:DevAddress <- $r8
	@DEBUG_VALUE: HAL_I2C_Master_Transmit:Timeout <- [DW_OP_plus_uconst 40] [$sp+0]
	.loc	7 681 46 is_stmt 1      @ ../Drivers/STM32F7xx_HAL_Driver/Src/stm32f7xx_hal_i2c.c:681:46
	ldr	r1, [r4, #36]
	.loc	7 681 13 is_stmt 0      @ ../Drivers/STM32F7xx_HAL_Driver/Src/stm32f7xx_hal_i2c.c:681:13
	ldr	r0, [r4]
	.loc	7 681 46                @ ../Drivers/STM32F7xx_HAL_Driver/Src/stm32f7xx_hal_i2c.c:681:46
	adds	r2, r1, #1
	str	r2, [r4, #36]
	.loc	7 681 30                @ ../Drivers/STM32F7xx_HAL_Driver/Src/stm32f7xx_hal_i2c.c:681:30
	ldrb	r1, [r1]
	.loc	7 681 28                @ ../Drivers/STM32F7xx_HAL_Driver/Src/stm32f7xx_hal_i2c.c:681:28
	str	r1, [r0, #40]
	.loc	7 682 22 is_stmt 1      @ ../Drivers/STM32F7xx_HAL_Driver/Src/stm32f7xx_hal_i2c.c:682:22
	ldrh	r0, [r4, #42]
	subs	r0, #1
	strh	r0, [r4, #42]
	.loc	7 683 21                @ ../Drivers/STM32F7xx_HAL_Driver/Src/stm32f7xx_hal_i2c.c:683:21
	ldrh	r0, [r4, #40]
	subs	r0, #1
.Ltmp47:
	.loc	7 685 33                @ ../Drivers/STM32F7xx_HAL_Driver/Src/stm32f7xx_hal_i2c.c:685:33
	tst	r0, r5
.Ltmp48:
	.loc	7 683 21                @ ../Drivers/STM32F7xx_HAL_Driver/Src/stm32f7xx_hal_i2c.c:683:21
	strh	r0, [r4, #40]
.Ltmp49:
	.loc	7 685 33                @ ../Drivers/STM32F7xx_HAL_Driver/Src/stm32f7xx_hal_i2c.c:685:33
	bne	.LBB4_17
.Ltmp50:
@ %bb.12:                               @   in Loop: Header=BB4_17 Depth=1
	@DEBUG_VALUE: HAL_I2C_Master_Transmit:tickstart <- $r6
	@DEBUG_VALUE: HAL_I2C_Master_Transmit:hi2c <- $r4
	@DEBUG_VALUE: HAL_I2C_Master_Transmit:DevAddress <- $r8
	@DEBUG_VALUE: HAL_I2C_Master_Transmit:Timeout <- [DW_OP_plus_uconst 40] [$sp+0]
	.loc	7 685 43 is_stmt 0      @ ../Drivers/STM32F7xx_HAL_Driver/Src/stm32f7xx_hal_i2c.c:685:43
	ldrh	r0, [r4, #42]
.Ltmp51:
	.loc	7 685 10                @ ../Drivers/STM32F7xx_HAL_Driver/Src/stm32f7xx_hal_i2c.c:685:10
	cbz	r0, .LBB4_17
.Ltmp52:
@ %bb.13:                               @   in Loop: Header=BB4_17 Depth=1
	@DEBUG_VALUE: HAL_I2C_Master_Transmit:tickstart <- $r6
	@DEBUG_VALUE: HAL_I2C_Master_Transmit:hi2c <- $r4
	@DEBUG_VALUE: HAL_I2C_Master_Transmit:DevAddress <- $r8
	@DEBUG_VALUE: HAL_I2C_Master_Transmit:Timeout <- [DW_OP_plus_uconst 40] [$sp+0]
	.loc	7 688 12 is_stmt 1      @ ../Drivers/STM32F7xx_HAL_Driver/Src/stm32f7xx_hal_i2c.c:688:12
	mov	r0, r4
	movs	r1, #128
	movs	r2, #0
	mov	r3, r7
	str	r6, [sp]
	bl	I2C_WaitOnFlagUntilTimeout
.Ltmp53:
	.loc	7 688 12 is_stmt 0      @ ../Drivers/STM32F7xx_HAL_Driver/Src/stm32f7xx_hal_i2c.c:688:12
	cmp	r0, #0
	bne	.LBB4_5
.Ltmp54:
@ %bb.14:                               @   in Loop: Header=BB4_17 Depth=1
	@DEBUG_VALUE: HAL_I2C_Master_Transmit:tickstart <- $r6
	@DEBUG_VALUE: HAL_I2C_Master_Transmit:hi2c <- $r4
	@DEBUG_VALUE: HAL_I2C_Master_Transmit:DevAddress <- $r8
	@DEBUG_VALUE: HAL_I2C_Master_Transmit:Timeout <- [DW_OP_plus_uconst 40] [$sp+0]
	.loc	7 693 18 is_stmt 1      @ ../Drivers/STM32F7xx_HAL_Driver/Src/stm32f7xx_hal_i2c.c:693:18
	ldrh	r0, [r4, #42]
.Ltmp55:
	.loc	7 693 12 is_stmt 0      @ ../Drivers/STM32F7xx_HAL_Driver/Src/stm32f7xx_hal_i2c.c:693:12
	cmp.w	r0, #256
	blo	.LBB4_16
.Ltmp56:
@ %bb.15:                               @   in Loop: Header=BB4_17 Depth=1
	@DEBUG_VALUE: HAL_I2C_Master_Transmit:tickstart <- $r6
	@DEBUG_VALUE: HAL_I2C_Master_Transmit:hi2c <- $r4
	@DEBUG_VALUE: HAL_I2C_Master_Transmit:DevAddress <- $r8
	@DEBUG_VALUE: HAL_I2C_Master_Transmit:Timeout <- [DW_OP_plus_uconst 40] [$sp+0]
	.loc	7 696 11 is_stmt 1      @ ../Drivers/STM32F7xx_HAL_Driver/Src/stm32f7xx_hal_i2c.c:696:11
	mov	r0, r4
	mov	r1, r8
	movs	r2, #255
	mov.w	r3, #16777216
	.loc	7 695 26                @ ../Drivers/STM32F7xx_HAL_Driver/Src/stm32f7xx_hal_i2c.c:695:26
	strh.w	r10, [r4, #40]
	.loc	7 696 11                @ ../Drivers/STM32F7xx_HAL_Driver/Src/stm32f7xx_hal_i2c.c:696:11
	str.w	r9, [sp]
	bl	I2C_TransferConfig
	b	.LBB4_17
.Ltmp57:
.LBB4_16:                               @   in Loop: Header=BB4_17 Depth=1
	@DEBUG_VALUE: HAL_I2C_Master_Transmit:tickstart <- $r6
	@DEBUG_VALUE: HAL_I2C_Master_Transmit:hi2c <- $r4
	@DEBUG_VALUE: HAL_I2C_Master_Transmit:DevAddress <- $r8
	@DEBUG_VALUE: HAL_I2C_Master_Transmit:Timeout <- [DW_OP_plus_uconst 40] [$sp+0]
	.loc	7 700 34                @ ../Drivers/STM32F7xx_HAL_Driver/Src/stm32f7xx_hal_i2c.c:700:34
	ldrh	r0, [r4, #42]
	.loc	7 701 11                @ ../Drivers/STM32F7xx_HAL_Driver/Src/stm32f7xx_hal_i2c.c:701:11
	mov	r1, r8
	mov.w	r3, #33554432
	.loc	7 700 26                @ ../Drivers/STM32F7xx_HAL_Driver/Src/stm32f7xx_hal_i2c.c:700:26
	strh	r0, [r4, #40]
	.loc	7 701 11                @ ../Drivers/STM32F7xx_HAL_Driver/Src/stm32f7xx_hal_i2c.c:701:11
	uxtb	r2, r0
	mov	r0, r4
	str.w	r9, [sp]
	bl	I2C_TransferConfig
.Ltmp58:
.LBB4_17:                               @ =>This Inner Loop Header: Depth=1
	@DEBUG_VALUE: HAL_I2C_Master_Transmit:tickstart <- $r6
	@DEBUG_VALUE: HAL_I2C_Master_Transmit:hi2c <- $r4
	@DEBUG_VALUE: HAL_I2C_Master_Transmit:DevAddress <- $r8
	@DEBUG_VALUE: HAL_I2C_Master_Transmit:Timeout <- [DW_OP_plus_uconst 40] [$sp+0]
	.loc	7 666 17                @ ../Drivers/STM32F7xx_HAL_Driver/Src/stm32f7xx_hal_i2c.c:666:17
	ldrh	r0, [r4, #42]
	.loc	7 666 5 is_stmt 0       @ ../Drivers/STM32F7xx_HAL_Driver/Src/stm32f7xx_hal_i2c.c:666:5
	cmp	r0, #0
	bne	.LBB4_10
.Ltmp59:
@ %bb.18:
	@DEBUG_VALUE: HAL_I2C_Master_Transmit:tickstart <- $r6
	@DEBUG_VALUE: HAL_I2C_Master_Transmit:hi2c <- $r4
	@DEBUG_VALUE: HAL_I2C_Master_Transmit:DevAddress <- $r8
	@DEBUG_VALUE: HAL_I2C_Master_Transmit:Timeout <- [DW_OP_plus_uconst 40] [$sp+0]
	.loc	7 708 8 is_stmt 1       @ ../Drivers/STM32F7xx_HAL_Driver/Src/stm32f7xx_hal_i2c.c:708:8
	mov	r0, r4
	mov	r1, r7
	mov	r2, r6
	bl	I2C_WaitOnSTOPFlagUntilTimeout
.Ltmp60:
	.loc	7 708 8 is_stmt 0       @ ../Drivers/STM32F7xx_HAL_Driver/Src/stm32f7xx_hal_i2c.c:708:8
	cbz	r0, .LBB4_21
.Ltmp61:
@ %bb.19:
	@DEBUG_VALUE: HAL_I2C_Master_Transmit:tickstart <- $r6
	@DEBUG_VALUE: HAL_I2C_Master_Transmit:hi2c <- $r4
	@DEBUG_VALUE: HAL_I2C_Master_Transmit:DevAddress <- $r8
	@DEBUG_VALUE: HAL_I2C_Master_Transmit:Timeout <- [DW_OP_plus_uconst 40] [$sp+0]
	.loc	7 710 16 is_stmt 1      @ ../Drivers/STM32F7xx_HAL_Driver/Src/stm32f7xx_hal_i2c.c:710:16
	ldr	r1, [r4, #68]
.Ltmp62:
	.loc	7 710 10 is_stmt 0      @ ../Drivers/STM32F7xx_HAL_Driver/Src/stm32f7xx_hal_i2c.c:710:10
	movs	r0, #3
	cmp	r1, #4
	it	eq
	moveq	r0, #1
	b	.LBB4_3
.Ltmp63:
.LBB4_20:
	@DEBUG_VALUE: HAL_I2C_Master_Transmit:tickstart <- $r6
	@DEBUG_VALUE: HAL_I2C_Master_Transmit:hi2c <- $r4
	@DEBUG_VALUE: HAL_I2C_Master_Transmit:DevAddress <- $r8
	@DEBUG_VALUE: HAL_I2C_Master_Transmit:Timeout <- [DW_OP_plus_uconst 40] [$sp+0]
	.loc	7 671 18 is_stmt 1      @ ../Drivers/STM32F7xx_HAL_Driver/Src/stm32f7xx_hal_i2c.c:671:18
	ldr	r1, [r4, #68]
.Ltmp64:
	.loc	7 671 12 is_stmt 0      @ ../Drivers/STM32F7xx_HAL_Driver/Src/stm32f7xx_hal_i2c.c:671:12
	movs	r0, #3
	cmp	r1, #4
	it	eq
	moveq	r0, #1
	add	sp, #8
.Ltmp65:
	pop.w	{r4, r5, r6, r7, r8, r9, r10, pc}
.Ltmp66:
.LBB4_21:
	@DEBUG_VALUE: HAL_I2C_Master_Transmit:tickstart <- $r6
	@DEBUG_VALUE: HAL_I2C_Master_Transmit:hi2c <- $r4
	@DEBUG_VALUE: HAL_I2C_Master_Transmit:DevAddress <- $r8
	@DEBUG_VALUE: HAL_I2C_Master_Transmit:Timeout <- [DW_OP_plus_uconst 40] [$sp+0]
	.loc	7 721 5 is_stmt 1       @ ../Drivers/STM32F7xx_HAL_Driver/Src/stm32f7xx_hal_i2c.c:721:5
	ldr	r0, [r4]
	movs	r1, #32
	.loc	7 724 5                 @ ../Drivers/STM32F7xx_HAL_Driver/Src/stm32f7xx_hal_i2c.c:724:5
	ldr	r3, __arm_cp.4_0
	.loc	7 721 5                 @ ../Drivers/STM32F7xx_HAL_Driver/Src/stm32f7xx_hal_i2c.c:721:5
	str	r1, [r0, #28]
	.loc	7 724 5                 @ ../Drivers/STM32F7xx_HAL_Driver/Src/stm32f7xx_hal_i2c.c:724:5
	ldr	r2, [r0, #4]
	ands	r2, r3
	str	r2, [r0, #4]
	movs	r0, #0
	.loc	7 726 17                @ ../Drivers/STM32F7xx_HAL_Driver/Src/stm32f7xx_hal_i2c.c:726:17
	strb.w	r1, [r4, #65]
.Ltmp67:
	.loc	7 730 5                 @ ../Drivers/STM32F7xx_HAL_Driver/Src/stm32f7xx_hal_i2c.c:730:5
	strb.w	r0, [r4, #64]
.Ltmp68:
	.loc	7 727 17                @ ../Drivers/STM32F7xx_HAL_Driver/Src/stm32f7xx_hal_i2c.c:727:17
	strb.w	r0, [r4, #66]
	b	.LBB4_3
.Ltmp69:
	.p2align	2
@ %bb.22:
	.loc	7 0 17 is_stmt 0        @ ../Drivers/STM32F7xx_HAL_Driver/Src/stm32f7xx_hal_i2c.c:0:17
__arm_cp.4_0:
	.long	4261472256              @ 0xfe00e800
.Lcpi_end1:
	.size	__arm_cp.4_0, .Lcpi_end1-__arm_cp.4_0
.Lfunc_end4:
	.size	HAL_I2C_Master_Transmit, .Lfunc_end4-HAL_I2C_Master_Transmit
	.cfi_endproc
	.cantunwind
	.fnend
                                        @ -- End function
	.section	.text.I2C_WaitOnFlagUntilTimeout,"ax",%progbits
	.p2align	1               @ -- Begin function I2C_WaitOnFlagUntilTimeout
	.type	I2C_WaitOnFlagUntilTimeout,%function
	.code	16                      @ @I2C_WaitOnFlagUntilTimeout
	.thumb_func
I2C_WaitOnFlagUntilTimeout:
.Lfunc_begin5:
	.loc	7 4472 0 is_stmt 1      @ ../Drivers/STM32F7xx_HAL_Driver/Src/stm32f7xx_hal_i2c.c:4472:0
	.fnstart
	.cfi_startproc
@ %bb.0:
	.save	{r4, r5, r6, r7, r8, r9, lr}
	.pad	#4
	push.w	{r3, r4, r5, r6, r7, r8, r9, lr}
	.cfi_def_cfa_offset 32
	.cfi_offset lr, -4
	.cfi_offset r9, -8
	.cfi_offset r8, -12
	.cfi_offset r7, -16
	.cfi_offset r6, -20
	.cfi_offset r5, -24
	.cfi_offset r4, -28
	@DEBUG_VALUE: I2C_WaitOnFlagUntilTimeout:hi2c <- $r0
	@DEBUG_VALUE: I2C_WaitOnFlagUntilTimeout:Flag <- $r1
	@DEBUG_VALUE: I2C_WaitOnFlagUntilTimeout:Status <- $r2
	@DEBUG_VALUE: I2C_WaitOnFlagUntilTimeout:Timeout <- $r3
	@DEBUG_VALUE: I2C_WaitOnFlagUntilTimeout:Tickstart <- [DW_OP_plus_uconst 32] [$sp+0]
	ldr.w	r8, [sp, #32]
	mov	r5, r3
.Ltmp70:
	@DEBUG_VALUE: I2C_WaitOnFlagUntilTimeout:Timeout <- $r5
	mov	r9, r2
.Ltmp71:
	@DEBUG_VALUE: I2C_WaitOnFlagUntilTimeout:Status <- $r9
	mov	r7, r1
.Ltmp72:
	@DEBUG_VALUE: I2C_WaitOnFlagUntilTimeout:Flag <- $r7
	mov	r4, r0
.Ltmp73:
	@DEBUG_VALUE: I2C_WaitOnFlagUntilTimeout:Status <- undef
	@DEBUG_VALUE: I2C_WaitOnFlagUntilTimeout:hi2c <- $r4
	adds	r6, r3, #1
.Ltmp74:
.LBB5_1:                                @ =>This Inner Loop Header: Depth=1
	@DEBUG_VALUE: I2C_WaitOnFlagUntilTimeout:hi2c <- $r4
	@DEBUG_VALUE: I2C_WaitOnFlagUntilTimeout:Flag <- $r7
	@DEBUG_VALUE: I2C_WaitOnFlagUntilTimeout:Timeout <- $r5
	@DEBUG_VALUE: I2C_WaitOnFlagUntilTimeout:Tickstart <- [DW_OP_plus_uconst 32] [$sp+0]
	.loc	7 4473 9 prologue_end   @ ../Drivers/STM32F7xx_HAL_Driver/Src/stm32f7xx_hal_i2c.c:4473:9
	ldr	r0, [r4]
	ldr	r0, [r0, #24]
	ands	r0, r7
	subs	r0, r0, r7
	clz	r0, r0
	lsrs	r0, r0, #5
	.loc	7 4473 3 is_stmt 0      @ ../Drivers/STM32F7xx_HAL_Driver/Src/stm32f7xx_hal_i2c.c:4473:3
	cmp	r0, r9
	bne	.LBB5_6
.Ltmp75:
@ %bb.2:                                @   in Loop: Header=BB5_1 Depth=1
	@DEBUG_VALUE: I2C_WaitOnFlagUntilTimeout:hi2c <- $r4
	@DEBUG_VALUE: I2C_WaitOnFlagUntilTimeout:Flag <- $r7
	@DEBUG_VALUE: I2C_WaitOnFlagUntilTimeout:Timeout <- $r5
	@DEBUG_VALUE: I2C_WaitOnFlagUntilTimeout:Tickstart <- [DW_OP_plus_uconst 32] [$sp+0]
	.loc	7 4476 8 is_stmt 1      @ ../Drivers/STM32F7xx_HAL_Driver/Src/stm32f7xx_hal_i2c.c:4476:8
	cmp	r6, #0
	beq	.LBB5_1
.Ltmp76:
@ %bb.3:                                @   in Loop: Header=BB5_1 Depth=1
	@DEBUG_VALUE: I2C_WaitOnFlagUntilTimeout:hi2c <- $r4
	@DEBUG_VALUE: I2C_WaitOnFlagUntilTimeout:Flag <- $r7
	@DEBUG_VALUE: I2C_WaitOnFlagUntilTimeout:Timeout <- $r5
	@DEBUG_VALUE: I2C_WaitOnFlagUntilTimeout:Tickstart <- [DW_OP_plus_uconst 32] [$sp+0]
	cbz	r5, .LBB5_5
.Ltmp77:
@ %bb.4:                                @   in Loop: Header=BB5_1 Depth=1
	@DEBUG_VALUE: I2C_WaitOnFlagUntilTimeout:hi2c <- $r4
	@DEBUG_VALUE: I2C_WaitOnFlagUntilTimeout:Flag <- $r7
	@DEBUG_VALUE: I2C_WaitOnFlagUntilTimeout:Timeout <- $r5
	@DEBUG_VALUE: I2C_WaitOnFlagUntilTimeout:Tickstart <- [DW_OP_plus_uconst 32] [$sp+0]
	.loc	7 4478 29               @ ../Drivers/STM32F7xx_HAL_Driver/Src/stm32f7xx_hal_i2c.c:4478:29
	bl	HAL_GetTick
	.loc	7 4478 43 is_stmt 0     @ ../Drivers/STM32F7xx_HAL_Driver/Src/stm32f7xx_hal_i2c.c:4478:43
	sub.w	r0, r0, r8
.Ltmp78:
	.loc	7 4478 10               @ ../Drivers/STM32F7xx_HAL_Driver/Src/stm32f7xx_hal_i2c.c:4478:10
	cmp	r0, r5
	bls	.LBB5_1
.Ltmp79:
.LBB5_5:
	@DEBUG_VALUE: I2C_WaitOnFlagUntilTimeout:hi2c <- $r4
	@DEBUG_VALUE: I2C_WaitOnFlagUntilTimeout:Flag <- $r7
	@DEBUG_VALUE: I2C_WaitOnFlagUntilTimeout:Timeout <- $r5
	@DEBUG_VALUE: I2C_WaitOnFlagUntilTimeout:Tickstart <- [DW_OP_plus_uconst 32] [$sp+0]
	.loc	7 4480 20 is_stmt 1     @ ../Drivers/STM32F7xx_HAL_Driver/Src/stm32f7xx_hal_i2c.c:4480:20
	movs	r0, #32
	strb.w	r0, [r4, #65]
	.loc	7 4481 20               @ ../Drivers/STM32F7xx_HAL_Driver/Src/stm32f7xx_hal_i2c.c:4481:20
	movs	r0, #0
.Ltmp80:
	.loc	7 4484 9                @ ../Drivers/STM32F7xx_HAL_Driver/Src/stm32f7xx_hal_i2c.c:4484:9
	strb.w	r0, [r4, #64]
.Ltmp81:
	.loc	7 4481 20               @ ../Drivers/STM32F7xx_HAL_Driver/Src/stm32f7xx_hal_i2c.c:4481:20
	strb.w	r0, [r4, #66]
	movs	r0, #3
	b	.LBB5_7
.Ltmp82:
.LBB5_6:
	@DEBUG_VALUE: I2C_WaitOnFlagUntilTimeout:hi2c <- $r4
	@DEBUG_VALUE: I2C_WaitOnFlagUntilTimeout:Flag <- $r7
	@DEBUG_VALUE: I2C_WaitOnFlagUntilTimeout:Timeout <- $r5
	@DEBUG_VALUE: I2C_WaitOnFlagUntilTimeout:Tickstart <- [DW_OP_plus_uconst 32] [$sp+0]
	.loc	7 0 20 is_stmt 0        @ ../Drivers/STM32F7xx_HAL_Driver/Src/stm32f7xx_hal_i2c.c:0:20
	movs	r0, #0
.Ltmp83:
.LBB5_7:
	@DEBUG_VALUE: I2C_WaitOnFlagUntilTimeout:hi2c <- $r4
	@DEBUG_VALUE: I2C_WaitOnFlagUntilTimeout:Flag <- $r7
	@DEBUG_VALUE: I2C_WaitOnFlagUntilTimeout:Timeout <- $r5
	@DEBUG_VALUE: I2C_WaitOnFlagUntilTimeout:Tickstart <- [DW_OP_plus_uconst 32] [$sp+0]
	.loc	7 4490 1 is_stmt 1      @ ../Drivers/STM32F7xx_HAL_Driver/Src/stm32f7xx_hal_i2c.c:4490:1
	uxtb	r0, r0
	add	sp, #4
.Ltmp84:
	pop.w	{r4, r5, r6, r7, r8, r9, pc}
.Ltmp85:
.Lfunc_end5:
	.size	I2C_WaitOnFlagUntilTimeout, .Lfunc_end5-I2C_WaitOnFlagUntilTimeout
	.cfi_endproc
	.cantunwind
	.fnend
                                        @ -- End function
	.section	.text.I2C_TransferConfig,"ax",%progbits
	.p2align	2               @ -- Begin function I2C_TransferConfig
	.type	I2C_TransferConfig,%function
	.code	16                      @ @I2C_TransferConfig
	.thumb_func
I2C_TransferConfig:
.Lfunc_begin6:
	.loc	7 4690 0                @ ../Drivers/STM32F7xx_HAL_Driver/Src/stm32f7xx_hal_i2c.c:4690:0
	.fnstart
	.cfi_startproc
@ %bb.0:
	@DEBUG_VALUE: I2C_TransferConfig:hi2c <- $r0
	@DEBUG_VALUE: I2C_TransferConfig:hi2c <- $r0
	@DEBUG_VALUE: I2C_TransferConfig:DevAddress <- $r1
	@DEBUG_VALUE: I2C_TransferConfig:DevAddress <- $r1
	@DEBUG_VALUE: I2C_TransferConfig:Size <- $r2
	@DEBUG_VALUE: I2C_TransferConfig:Size <- $r2
	@DEBUG_VALUE: I2C_TransferConfig:Mode <- $r3
	@DEBUG_VALUE: I2C_TransferConfig:Mode <- $r3
	@DEBUG_VALUE: I2C_TransferConfig:Request <- [$sp+0]
	@DEBUG_VALUE: I2C_TransferConfig:tmpreg <- 0
	.loc	7 4705 46 prologue_end  @ ../Drivers/STM32F7xx_HAL_Driver/Src/stm32f7xx_hal_i2c.c:4705:46
	bfc	r1, #10, #22
.Ltmp86:
	.loc	7 4699 18               @ ../Drivers/STM32F7xx_HAL_Driver/Src/stm32f7xx_hal_i2c.c:4699:18
	ldr	r0, [r0]
.Ltmp87:
	.loc	7 4705 62               @ ../Drivers/STM32F7xx_HAL_Driver/Src/stm32f7xx_hal_i2c.c:4705:62
	orrs	r1, r3
	.loc	7 4702 10               @ ../Drivers/STM32F7xx_HAL_Driver/Src/stm32f7xx_hal_i2c.c:4702:10
	ldr	r3, __arm_cp.6_0
.Ltmp88:
	.loc	7 4705 107              @ ../Drivers/STM32F7xx_HAL_Driver/Src/stm32f7xx_hal_i2c.c:4705:107
	orr.w	r1, r1, r2, lsl #16
	ldr	r2, [sp]
.Ltmp89:
	.loc	7 4706 28               @ ../Drivers/STM32F7xx_HAL_Driver/Src/stm32f7xx_hal_i2c.c:4706:28
	orrs	r1, r2
	.loc	7 4699 28               @ ../Drivers/STM32F7xx_HAL_Driver/Src/stm32f7xx_hal_i2c.c:4699:28
	ldr	r2, [r0, #4]
.Ltmp90:
	@DEBUG_VALUE: I2C_TransferConfig:tmpreg <- $r2
	.loc	7 4702 10               @ ../Drivers/STM32F7xx_HAL_Driver/Src/stm32f7xx_hal_i2c.c:4702:10
	ands	r2, r3
.Ltmp91:
	@DEBUG_VALUE: I2C_TransferConfig:tmpreg <- $r2
	.loc	7 4705 10               @ ../Drivers/STM32F7xx_HAL_Driver/Src/stm32f7xx_hal_i2c.c:4705:10
	orrs	r1, r2
.Ltmp92:
	@DEBUG_VALUE: I2C_TransferConfig:tmpreg <- $r1
	.loc	7 4709 23               @ ../Drivers/STM32F7xx_HAL_Driver/Src/stm32f7xx_hal_i2c.c:4709:23
	str	r1, [r0, #4]
	.loc	7 4710 1                @ ../Drivers/STM32F7xx_HAL_Driver/Src/stm32f7xx_hal_i2c.c:4710:1
	bx	lr
.Ltmp93:
	.p2align	2
@ %bb.1:
	.loc	7 0 1 is_stmt 0         @ ../Drivers/STM32F7xx_HAL_Driver/Src/stm32f7xx_hal_i2c.c:0:1
__arm_cp.6_0:
	.long	4227897344              @ 0xfc009800
.Lcpi_end2:
	.size	__arm_cp.6_0, .Lcpi_end2-__arm_cp.6_0
.Lfunc_end6:
	.size	I2C_TransferConfig, .Lfunc_end6-I2C_TransferConfig
	.cfi_endproc
	.cantunwind
	.fnend
                                        @ -- End function
	.section	.text.I2C_WaitOnTXISFlagUntilTimeout,"ax",%progbits
	.p2align	1               @ -- Begin function I2C_WaitOnTXISFlagUntilTimeout
	.type	I2C_WaitOnTXISFlagUntilTimeout,%function
	.code	16                      @ @I2C_WaitOnTXISFlagUntilTimeout
	.thumb_func
I2C_WaitOnTXISFlagUntilTimeout:
.Lfunc_begin7:
	.loc	7 4501 0 is_stmt 1      @ ../Drivers/STM32F7xx_HAL_Driver/Src/stm32f7xx_hal_i2c.c:4501:0
	.fnstart
	.cfi_startproc
@ %bb.0:
	.save	{r4, r5, r6, r7, lr}
	.pad	#4
	push	{r3, r4, r5, r6, r7, lr}
	.cfi_def_cfa_offset 24
	.cfi_offset lr, -4
	.cfi_offset r7, -8
	.cfi_offset r6, -12
	.cfi_offset r5, -16
	.cfi_offset r4, -20
	@DEBUG_VALUE: I2C_WaitOnTXISFlagUntilTimeout:hi2c <- $r0
	@DEBUG_VALUE: I2C_WaitOnTXISFlagUntilTimeout:Timeout <- $r1
	@DEBUG_VALUE: I2C_WaitOnTXISFlagUntilTimeout:Tickstart <- $r2
	mov	r5, r2
.Ltmp94:
	@DEBUG_VALUE: I2C_WaitOnTXISFlagUntilTimeout:Tickstart <- $r5
	mov	r6, r1
.Ltmp95:
	@DEBUG_VALUE: I2C_WaitOnTXISFlagUntilTimeout:Timeout <- $r6
	mov	r4, r0
.Ltmp96:
	@DEBUG_VALUE: I2C_WaitOnTXISFlagUntilTimeout:hi2c <- $r4
	adds	r7, r1, #1
.Ltmp97:
.LBB7_1:                                @ =>This Inner Loop Header: Depth=1
	@DEBUG_VALUE: I2C_WaitOnTXISFlagUntilTimeout:hi2c <- $r4
	@DEBUG_VALUE: I2C_WaitOnTXISFlagUntilTimeout:Timeout <- $r6
	@DEBUG_VALUE: I2C_WaitOnTXISFlagUntilTimeout:Tickstart <- $r5
	.loc	7 4502 9 prologue_end   @ ../Drivers/STM32F7xx_HAL_Driver/Src/stm32f7xx_hal_i2c.c:4502:9
	ldr	r0, [r4]
	ldr	r0, [r0, #24]
	.loc	7 4502 3 is_stmt 0      @ ../Drivers/STM32F7xx_HAL_Driver/Src/stm32f7xx_hal_i2c.c:4502:3
	tst.w	r0, #2
	bne	.LBB7_7
.Ltmp98:
@ %bb.2:                                @   in Loop: Header=BB7_1 Depth=1
	@DEBUG_VALUE: I2C_WaitOnTXISFlagUntilTimeout:hi2c <- $r4
	@DEBUG_VALUE: I2C_WaitOnTXISFlagUntilTimeout:Timeout <- $r6
	@DEBUG_VALUE: I2C_WaitOnTXISFlagUntilTimeout:Tickstart <- $r5
	.loc	7 4505 8 is_stmt 1      @ ../Drivers/STM32F7xx_HAL_Driver/Src/stm32f7xx_hal_i2c.c:4505:8
	mov	r0, r4
	mov	r1, r6
	mov	r2, r5
	bl	I2C_IsAcknowledgeFailed
.Ltmp99:
	.loc	7 4505 8 is_stmt 0      @ ../Drivers/STM32F7xx_HAL_Driver/Src/stm32f7xx_hal_i2c.c:4505:8
	cbnz	r0, .LBB7_8
.Ltmp100:
@ %bb.3:                                @   in Loop: Header=BB7_1 Depth=1
	@DEBUG_VALUE: I2C_WaitOnTXISFlagUntilTimeout:hi2c <- $r4
	@DEBUG_VALUE: I2C_WaitOnTXISFlagUntilTimeout:Timeout <- $r6
	@DEBUG_VALUE: I2C_WaitOnTXISFlagUntilTimeout:Tickstart <- $r5
	.loc	7 4511 8 is_stmt 1      @ ../Drivers/STM32F7xx_HAL_Driver/Src/stm32f7xx_hal_i2c.c:4511:8
	cmp	r7, #0
	beq	.LBB7_1
.Ltmp101:
@ %bb.4:                                @   in Loop: Header=BB7_1 Depth=1
	@DEBUG_VALUE: I2C_WaitOnTXISFlagUntilTimeout:hi2c <- $r4
	@DEBUG_VALUE: I2C_WaitOnTXISFlagUntilTimeout:Timeout <- $r6
	@DEBUG_VALUE: I2C_WaitOnTXISFlagUntilTimeout:Tickstart <- $r5
	cbz	r6, .LBB7_6
.Ltmp102:
@ %bb.5:                                @   in Loop: Header=BB7_1 Depth=1
	@DEBUG_VALUE: I2C_WaitOnTXISFlagUntilTimeout:hi2c <- $r4
	@DEBUG_VALUE: I2C_WaitOnTXISFlagUntilTimeout:Timeout <- $r6
	@DEBUG_VALUE: I2C_WaitOnTXISFlagUntilTimeout:Tickstart <- $r5
	.loc	7 4513 29               @ ../Drivers/STM32F7xx_HAL_Driver/Src/stm32f7xx_hal_i2c.c:4513:29
	bl	HAL_GetTick
	.loc	7 4513 43 is_stmt 0     @ ../Drivers/STM32F7xx_HAL_Driver/Src/stm32f7xx_hal_i2c.c:4513:43
	subs	r0, r0, r5
.Ltmp103:
	.loc	7 4513 10               @ ../Drivers/STM32F7xx_HAL_Driver/Src/stm32f7xx_hal_i2c.c:4513:10
	cmp	r0, r6
	bls	.LBB7_1
.Ltmp104:
.LBB7_6:
	@DEBUG_VALUE: I2C_WaitOnTXISFlagUntilTimeout:hi2c <- $r4
	@DEBUG_VALUE: I2C_WaitOnTXISFlagUntilTimeout:Timeout <- $r6
	@DEBUG_VALUE: I2C_WaitOnTXISFlagUntilTimeout:Tickstart <- $r5
	.loc	7 4515 25 is_stmt 1     @ ../Drivers/STM32F7xx_HAL_Driver/Src/stm32f7xx_hal_i2c.c:4515:25
	ldr	r0, [r4, #68]
	orr	r0, r0, #32
	str	r0, [r4, #68]
	movs	r0, #32
	.loc	7 4516 20               @ ../Drivers/STM32F7xx_HAL_Driver/Src/stm32f7xx_hal_i2c.c:4516:20
	strb.w	r0, [r4, #65]
	.loc	7 4517 20               @ ../Drivers/STM32F7xx_HAL_Driver/Src/stm32f7xx_hal_i2c.c:4517:20
	movs	r0, #0
.Ltmp105:
	.loc	7 4520 9                @ ../Drivers/STM32F7xx_HAL_Driver/Src/stm32f7xx_hal_i2c.c:4520:9
	strb.w	r0, [r4, #64]
.Ltmp106:
	.loc	7 4517 20               @ ../Drivers/STM32F7xx_HAL_Driver/Src/stm32f7xx_hal_i2c.c:4517:20
	strb.w	r0, [r4, #66]
	movs	r0, #3
	b	.LBB7_9
.Ltmp107:
.LBB7_7:
	@DEBUG_VALUE: I2C_WaitOnTXISFlagUntilTimeout:hi2c <- $r4
	@DEBUG_VALUE: I2C_WaitOnTXISFlagUntilTimeout:Timeout <- $r6
	@DEBUG_VALUE: I2C_WaitOnTXISFlagUntilTimeout:Tickstart <- $r5
	.loc	7 0 20 is_stmt 0        @ ../Drivers/STM32F7xx_HAL_Driver/Src/stm32f7xx_hal_i2c.c:0:20
	movs	r0, #0
	b	.LBB7_9
.Ltmp108:
.LBB7_8:
	@DEBUG_VALUE: I2C_WaitOnTXISFlagUntilTimeout:hi2c <- $r4
	@DEBUG_VALUE: I2C_WaitOnTXISFlagUntilTimeout:Timeout <- $r6
	@DEBUG_VALUE: I2C_WaitOnTXISFlagUntilTimeout:Tickstart <- $r5
	movs	r0, #1
.Ltmp109:
.LBB7_9:
	@DEBUG_VALUE: I2C_WaitOnTXISFlagUntilTimeout:hi2c <- $r4
	@DEBUG_VALUE: I2C_WaitOnTXISFlagUntilTimeout:Timeout <- $r6
	@DEBUG_VALUE: I2C_WaitOnTXISFlagUntilTimeout:Tickstart <- $r5
	.loc	7 4527 1 is_stmt 1      @ ../Drivers/STM32F7xx_HAL_Driver/Src/stm32f7xx_hal_i2c.c:4527:1
	uxtb	r0, r0
	add	sp, #4
	pop	{r4, r5, r6, r7, pc}
.Ltmp110:
.Lfunc_end7:
	.size	I2C_WaitOnTXISFlagUntilTimeout, .Lfunc_end7-I2C_WaitOnTXISFlagUntilTimeout
	.cfi_endproc
	.cantunwind
	.fnend
                                        @ -- End function
	.section	.text.I2C_WaitOnSTOPFlagUntilTimeout,"ax",%progbits
	.p2align	1               @ -- Begin function I2C_WaitOnSTOPFlagUntilTimeout
	.type	I2C_WaitOnSTOPFlagUntilTimeout,%function
	.code	16                      @ @I2C_WaitOnSTOPFlagUntilTimeout
	.thumb_func
I2C_WaitOnSTOPFlagUntilTimeout:
.Lfunc_begin8:
	.loc	7 4538 0                @ ../Drivers/STM32F7xx_HAL_Driver/Src/stm32f7xx_hal_i2c.c:4538:0
	.fnstart
	.cfi_startproc
@ %bb.0:
	.save	{r4, r5, r6, lr}
	push	{r4, r5, r6, lr}
	.cfi_def_cfa_offset 16
	.cfi_offset lr, -4
	.cfi_offset r6, -8
	.cfi_offset r5, -12
	.cfi_offset r4, -16
	@DEBUG_VALUE: I2C_WaitOnSTOPFlagUntilTimeout:hi2c <- $r0
	@DEBUG_VALUE: I2C_WaitOnSTOPFlagUntilTimeout:Timeout <- $r1
	@DEBUG_VALUE: I2C_WaitOnSTOPFlagUntilTimeout:Tickstart <- $r2
	mov	r5, r2
.Ltmp111:
	@DEBUG_VALUE: I2C_WaitOnSTOPFlagUntilTimeout:Tickstart <- $r5
	mov	r6, r1
.Ltmp112:
	@DEBUG_VALUE: I2C_WaitOnSTOPFlagUntilTimeout:Timeout <- $r6
	mov	r4, r0
.Ltmp113:
	@DEBUG_VALUE: I2C_WaitOnSTOPFlagUntilTimeout:hi2c <- $r4
.LBB8_1:                                @ =>This Inner Loop Header: Depth=1
	@DEBUG_VALUE: I2C_WaitOnSTOPFlagUntilTimeout:hi2c <- $r4
	@DEBUG_VALUE: I2C_WaitOnSTOPFlagUntilTimeout:Timeout <- $r6
	@DEBUG_VALUE: I2C_WaitOnSTOPFlagUntilTimeout:Tickstart <- $r5
	.loc	7 4539 9 prologue_end   @ ../Drivers/STM32F7xx_HAL_Driver/Src/stm32f7xx_hal_i2c.c:4539:9
	ldr	r0, [r4]
	ldr	r0, [r0, #24]
	.loc	7 4539 3 is_stmt 0      @ ../Drivers/STM32F7xx_HAL_Driver/Src/stm32f7xx_hal_i2c.c:4539:3
	tst.w	r0, #32
	bne	.LBB8_6
.Ltmp114:
@ %bb.2:                                @   in Loop: Header=BB8_1 Depth=1
	@DEBUG_VALUE: I2C_WaitOnSTOPFlagUntilTimeout:hi2c <- $r4
	@DEBUG_VALUE: I2C_WaitOnSTOPFlagUntilTimeout:Timeout <- $r6
	@DEBUG_VALUE: I2C_WaitOnSTOPFlagUntilTimeout:Tickstart <- $r5
	.loc	7 4542 8 is_stmt 1      @ ../Drivers/STM32F7xx_HAL_Driver/Src/stm32f7xx_hal_i2c.c:4542:8
	mov	r0, r4
	mov	r1, r6
	mov	r2, r5
	bl	I2C_IsAcknowledgeFailed
.Ltmp115:
	.loc	7 4542 8 is_stmt 0      @ ../Drivers/STM32F7xx_HAL_Driver/Src/stm32f7xx_hal_i2c.c:4542:8
	cbnz	r0, .LBB8_7
.Ltmp116:
@ %bb.3:                                @   in Loop: Header=BB8_1 Depth=1
	@DEBUG_VALUE: I2C_WaitOnSTOPFlagUntilTimeout:hi2c <- $r4
	@DEBUG_VALUE: I2C_WaitOnSTOPFlagUntilTimeout:Timeout <- $r6
	@DEBUG_VALUE: I2C_WaitOnSTOPFlagUntilTimeout:Tickstart <- $r5
	.loc	7 4548 23 is_stmt 1     @ ../Drivers/STM32F7xx_HAL_Driver/Src/stm32f7xx_hal_i2c.c:4548:23
	cbz	r6, .LBB8_5
.Ltmp117:
@ %bb.4:                                @   in Loop: Header=BB8_1 Depth=1
	@DEBUG_VALUE: I2C_WaitOnSTOPFlagUntilTimeout:hi2c <- $r4
	@DEBUG_VALUE: I2C_WaitOnSTOPFlagUntilTimeout:Timeout <- $r6
	@DEBUG_VALUE: I2C_WaitOnSTOPFlagUntilTimeout:Tickstart <- $r5
	.loc	7 4548 27 is_stmt 0     @ ../Drivers/STM32F7xx_HAL_Driver/Src/stm32f7xx_hal_i2c.c:4548:27
	bl	HAL_GetTick
	.loc	7 4548 41               @ ../Drivers/STM32F7xx_HAL_Driver/Src/stm32f7xx_hal_i2c.c:4548:41
	subs	r0, r0, r5
.Ltmp118:
	.loc	7 4548 8                @ ../Drivers/STM32F7xx_HAL_Driver/Src/stm32f7xx_hal_i2c.c:4548:8
	cmp	r0, r6
	bls	.LBB8_1
.Ltmp119:
.LBB8_5:
	@DEBUG_VALUE: I2C_WaitOnSTOPFlagUntilTimeout:hi2c <- $r4
	@DEBUG_VALUE: I2C_WaitOnSTOPFlagUntilTimeout:Timeout <- $r6
	@DEBUG_VALUE: I2C_WaitOnSTOPFlagUntilTimeout:Tickstart <- $r5
	.loc	7 4550 23 is_stmt 1     @ ../Drivers/STM32F7xx_HAL_Driver/Src/stm32f7xx_hal_i2c.c:4550:23
	ldr	r0, [r4, #68]
	orr	r0, r0, #32
	str	r0, [r4, #68]
	movs	r0, #32
	.loc	7 4551 18               @ ../Drivers/STM32F7xx_HAL_Driver/Src/stm32f7xx_hal_i2c.c:4551:18
	strb.w	r0, [r4, #65]
	.loc	7 4552 18               @ ../Drivers/STM32F7xx_HAL_Driver/Src/stm32f7xx_hal_i2c.c:4552:18
	movs	r0, #0
.Ltmp120:
	.loc	7 4555 7                @ ../Drivers/STM32F7xx_HAL_Driver/Src/stm32f7xx_hal_i2c.c:4555:7
	strb.w	r0, [r4, #64]
.Ltmp121:
	.loc	7 4552 18               @ ../Drivers/STM32F7xx_HAL_Driver/Src/stm32f7xx_hal_i2c.c:4552:18
	strb.w	r0, [r4, #66]
	movs	r0, #3
	b	.LBB8_8
.Ltmp122:
.LBB8_6:
	@DEBUG_VALUE: I2C_WaitOnSTOPFlagUntilTimeout:hi2c <- $r4
	@DEBUG_VALUE: I2C_WaitOnSTOPFlagUntilTimeout:Timeout <- $r6
	@DEBUG_VALUE: I2C_WaitOnSTOPFlagUntilTimeout:Tickstart <- $r5
	.loc	7 0 18 is_stmt 0        @ ../Drivers/STM32F7xx_HAL_Driver/Src/stm32f7xx_hal_i2c.c:0:18
	movs	r0, #0
	b	.LBB8_8
.Ltmp123:
.LBB8_7:
	@DEBUG_VALUE: I2C_WaitOnSTOPFlagUntilTimeout:hi2c <- $r4
	@DEBUG_VALUE: I2C_WaitOnSTOPFlagUntilTimeout:Timeout <- $r6
	@DEBUG_VALUE: I2C_WaitOnSTOPFlagUntilTimeout:Tickstart <- $r5
	movs	r0, #1
.Ltmp124:
.LBB8_8:
	@DEBUG_VALUE: I2C_WaitOnSTOPFlagUntilTimeout:hi2c <- $r4
	@DEBUG_VALUE: I2C_WaitOnSTOPFlagUntilTimeout:Timeout <- $r6
	@DEBUG_VALUE: I2C_WaitOnSTOPFlagUntilTimeout:Tickstart <- $r5
	.loc	7 4561 1 is_stmt 1      @ ../Drivers/STM32F7xx_HAL_Driver/Src/stm32f7xx_hal_i2c.c:4561:1
	uxtb	r0, r0
	pop	{r4, r5, r6, pc}
.Ltmp125:
.Lfunc_end8:
	.size	I2C_WaitOnSTOPFlagUntilTimeout, .Lfunc_end8-I2C_WaitOnSTOPFlagUntilTimeout
	.cfi_endproc
	.cantunwind
	.fnend
                                        @ -- End function
	.section	.text.HAL_I2C_Master_Receive,"ax",%progbits
	.hidden	HAL_I2C_Master_Receive  @ -- Begin function HAL_I2C_Master_Receive
	.globl	HAL_I2C_Master_Receive
	.p2align	2
	.type	HAL_I2C_Master_Receive,%function
	.code	16                      @ @HAL_I2C_Master_Receive
	.thumb_func
HAL_I2C_Master_Receive:
.Lfunc_begin9:
	.loc	7 752 0                 @ ../Drivers/STM32F7xx_HAL_Driver/Src/stm32f7xx_hal_i2c.c:752:0
	.fnstart
	.cfi_startproc
@ %bb.0:
	.save	{r4, r5, r6, r7, r8, r9, r10, lr}
	.pad	#8
	push.w	{r2, r3, r4, r5, r6, r7, r8, r9, r10, lr}
	.cfi_def_cfa_offset 40
	.cfi_offset lr, -4
	.cfi_offset r10, -8
	.cfi_offset r9, -12
	.cfi_offset r8, -16
	.cfi_offset r7, -20
	.cfi_offset r6, -24
	.cfi_offset r5, -28
	.cfi_offset r4, -32
	@DEBUG_VALUE: HAL_I2C_Master_Receive:hi2c <- $r0
	@DEBUG_VALUE: HAL_I2C_Master_Receive:DevAddress <- $r1
	@DEBUG_VALUE: HAL_I2C_Master_Receive:pData <- $r2
	@DEBUG_VALUE: HAL_I2C_Master_Receive:Size <- $r3
	mov	r4, r0
.Ltmp126:
	@DEBUG_VALUE: HAL_I2C_Master_Receive:tickstart <- 0
	@DEBUG_VALUE: HAL_I2C_Master_Receive:Timeout <- [DW_OP_plus_uconst 40] [$sp+0]
	@DEBUG_VALUE: HAL_I2C_Master_Receive:Size <- $r5
	@DEBUG_VALUE: HAL_I2C_Master_Receive:pData <- $r7
	@DEBUG_VALUE: HAL_I2C_Master_Receive:DevAddress <- $r8
	@DEBUG_VALUE: HAL_I2C_Master_Receive:hi2c <- $r4
	.loc	7 755 12 prologue_end   @ ../Drivers/STM32F7xx_HAL_Driver/Src/stm32f7xx_hal_i2c.c:755:12
	ldrb.w	r0, [r0, #65]
	mov	r5, r3
.Ltmp127:
	.loc	7 0 12 is_stmt 0        @ ../Drivers/STM32F7xx_HAL_Driver/Src/stm32f7xx_hal_i2c.c:0:12
	mov	r7, r2
.Ltmp128:
	mov	r8, r1
.Ltmp129:
	.loc	7 755 6                 @ ../Drivers/STM32F7xx_HAL_Driver/Src/stm32f7xx_hal_i2c.c:755:6
	cmp	r0, #32
	bne	.LBB9_2
.Ltmp130:
@ %bb.1:
	@DEBUG_VALUE: HAL_I2C_Master_Receive:hi2c <- $r4
	@DEBUG_VALUE: HAL_I2C_Master_Receive:Timeout <- [DW_OP_plus_uconst 40] [$sp+0]
	.loc	7 758 5 is_stmt 1       @ ../Drivers/STM32F7xx_HAL_Driver/Src/stm32f7xx_hal_i2c.c:758:5
	ldrb.w	r0, [r4, #64]
.Ltmp131:
	.loc	7 758 5 is_stmt 0       @ ../Drivers/STM32F7xx_HAL_Driver/Src/stm32f7xx_hal_i2c.c:758:5
	cmp	r0, #1
	bne	.LBB9_4
.Ltmp132:
.LBB9_2:
	@DEBUG_VALUE: HAL_I2C_Master_Receive:hi2c <- $r4
	@DEBUG_VALUE: HAL_I2C_Master_Receive:Timeout <- [DW_OP_plus_uconst 40] [$sp+0]
	.loc	7 0 5                   @ ../Drivers/STM32F7xx_HAL_Driver/Src/stm32f7xx_hal_i2c.c:0:5
	movs	r0, #2
.Ltmp133:
.LBB9_3:
	@DEBUG_VALUE: HAL_I2C_Master_Receive:hi2c <- $r4
	@DEBUG_VALUE: HAL_I2C_Master_Receive:Timeout <- [DW_OP_plus_uconst 40] [$sp+0]
	.loc	7 863 1 is_stmt 1       @ ../Drivers/STM32F7xx_HAL_Driver/Src/stm32f7xx_hal_i2c.c:863:1
	uxtb	r0, r0
	add	sp, #8
.Ltmp134:
	pop.w	{r4, r5, r6, r7, r8, r9, r10, pc}
.Ltmp135:
.LBB9_4:
	@DEBUG_VALUE: HAL_I2C_Master_Receive:hi2c <- $r4
	@DEBUG_VALUE: HAL_I2C_Master_Receive:Timeout <- [DW_OP_plus_uconst 40] [$sp+0]
	.loc	7 0 1 is_stmt 0         @ ../Drivers/STM32F7xx_HAL_Driver/Src/stm32f7xx_hal_i2c.c:0:1
	movs	r0, #1
.Ltmp136:
	.loc	7 758 5 is_stmt 1       @ ../Drivers/STM32F7xx_HAL_Driver/Src/stm32f7xx_hal_i2c.c:758:5
	strb.w	r0, [r4, #64]
.Ltmp137:
	.loc	7 761 17                @ ../Drivers/STM32F7xx_HAL_Driver/Src/stm32f7xx_hal_i2c.c:761:17
	bl	HAL_GetTick
	mov	r6, r0
.Ltmp138:
	@DEBUG_VALUE: HAL_I2C_Master_Receive:tickstart <- $r6
	.loc	7 763 8                 @ ../Drivers/STM32F7xx_HAL_Driver/Src/stm32f7xx_hal_i2c.c:763:8
	str	r0, [sp]
	mov	r0, r4
	mov.w	r1, #32768
	movs	r2, #1
	movs	r3, #25
	bl	I2C_WaitOnFlagUntilTimeout
.Ltmp139:
	.loc	7 763 8 is_stmt 0       @ ../Drivers/STM32F7xx_HAL_Driver/Src/stm32f7xx_hal_i2c.c:763:8
	cbz	r0, .LBB9_6
.Ltmp140:
.LBB9_5:
	@DEBUG_VALUE: HAL_I2C_Master_Receive:tickstart <- $r6
	@DEBUG_VALUE: HAL_I2C_Master_Receive:hi2c <- $r4
	@DEBUG_VALUE: HAL_I2C_Master_Receive:Timeout <- [DW_OP_plus_uconst 40] [$sp+0]
	.loc	7 0 8                   @ ../Drivers/STM32F7xx_HAL_Driver/Src/stm32f7xx_hal_i2c.c:0:8
	movs	r0, #3
	b	.LBB9_3
.Ltmp141:
.LBB9_6:
	@DEBUG_VALUE: HAL_I2C_Master_Receive:tickstart <- $r6
	@DEBUG_VALUE: HAL_I2C_Master_Receive:hi2c <- $r4
	@DEBUG_VALUE: HAL_I2C_Master_Receive:Timeout <- [DW_OP_plus_uconst 40] [$sp+0]
	@DEBUG_VALUE: HAL_I2C_Master_Receive:DevAddress <- $r8
	@DEBUG_VALUE: HAL_I2C_Master_Receive:Size <- $r5
	.loc	7 768 21 is_stmt 1      @ ../Drivers/STM32F7xx_HAL_Driver/Src/stm32f7xx_hal_i2c.c:768:21
	movs	r0, #34
	strb.w	r0, [r4, #65]
	.loc	7 769 21                @ ../Drivers/STM32F7xx_HAL_Driver/Src/stm32f7xx_hal_i2c.c:769:21
	movs	r0, #16
	strb.w	r0, [r4, #66]
	movs	r0, #0
	.loc	7 770 21                @ ../Drivers/STM32F7xx_HAL_Driver/Src/stm32f7xx_hal_i2c.c:770:21
	str	r0, [r4, #68]
	.loc	7 774 21                @ ../Drivers/STM32F7xx_HAL_Driver/Src/stm32f7xx_hal_i2c.c:774:21
	strh	r5, [r4, #42]
	.loc	7 773 21                @ ../Drivers/STM32F7xx_HAL_Driver/Src/stm32f7xx_hal_i2c.c:773:21
	str	r7, [r4, #36]
	.loc	7 775 21                @ ../Drivers/STM32F7xx_HAL_Driver/Src/stm32f7xx_hal_i2c.c:775:21
	str	r0, [r4, #52]
.Ltmp142:
	.loc	7 779 14                @ ../Drivers/STM32F7xx_HAL_Driver/Src/stm32f7xx_hal_i2c.c:779:14
	ldrh	r0, [r4, #42]
.Ltmp143:
	.loc	7 779 8 is_stmt 0       @ ../Drivers/STM32F7xx_HAL_Driver/Src/stm32f7xx_hal_i2c.c:779:8
	cmp.w	r0, #256
	blo	.LBB9_8
.Ltmp144:
@ %bb.7:
	@DEBUG_VALUE: HAL_I2C_Master_Receive:tickstart <- $r6
	@DEBUG_VALUE: HAL_I2C_Master_Receive:hi2c <- $r4
	@DEBUG_VALUE: HAL_I2C_Master_Receive:DevAddress <- $r8
	@DEBUG_VALUE: HAL_I2C_Master_Receive:Size <- $r5
	@DEBUG_VALUE: HAL_I2C_Master_Receive:Timeout <- [DW_OP_plus_uconst 40] [$sp+0]
	.loc	7 0 8                   @ ../Drivers/STM32F7xx_HAL_Driver/Src/stm32f7xx_hal_i2c.c:0:8
	movs	r0, #255
.Ltmp145:
	.loc	7 782 7 is_stmt 1       @ ../Drivers/STM32F7xx_HAL_Driver/Src/stm32f7xx_hal_i2c.c:782:7
	mov	r1, r8
	movs	r2, #255
	mov.w	r3, #16777216
	.loc	7 781 22                @ ../Drivers/STM32F7xx_HAL_Driver/Src/stm32f7xx_hal_i2c.c:781:22
	strh	r0, [r4, #40]
	.loc	7 782 7                 @ ../Drivers/STM32F7xx_HAL_Driver/Src/stm32f7xx_hal_i2c.c:782:7
	mov.w	r0, #9216
	str	r0, [sp]
	mov	r0, r4
	b	.LBB9_9
.Ltmp146:
.LBB9_8:
	@DEBUG_VALUE: HAL_I2C_Master_Receive:tickstart <- $r6
	@DEBUG_VALUE: HAL_I2C_Master_Receive:hi2c <- $r4
	@DEBUG_VALUE: HAL_I2C_Master_Receive:DevAddress <- $r8
	@DEBUG_VALUE: HAL_I2C_Master_Receive:Size <- $r5
	@DEBUG_VALUE: HAL_I2C_Master_Receive:Timeout <- [DW_OP_plus_uconst 40] [$sp+0]
	.loc	7 786 30                @ ../Drivers/STM32F7xx_HAL_Driver/Src/stm32f7xx_hal_i2c.c:786:30
	ldrh	r0, [r4, #42]
	.loc	7 787 7                 @ ../Drivers/STM32F7xx_HAL_Driver/Src/stm32f7xx_hal_i2c.c:787:7
	mov.w	r1, #9216
	mov.w	r3, #33554432
	.loc	7 786 22                @ ../Drivers/STM32F7xx_HAL_Driver/Src/stm32f7xx_hal_i2c.c:786:22
	strh	r0, [r4, #40]
	.loc	7 787 7                 @ ../Drivers/STM32F7xx_HAL_Driver/Src/stm32f7xx_hal_i2c.c:787:7
	str	r1, [sp]
	uxtb	r2, r0
	mov	r0, r4
	mov	r1, r8
.Ltmp147:
.LBB9_9:
	@DEBUG_VALUE: HAL_I2C_Master_Receive:tickstart <- $r6
	@DEBUG_VALUE: HAL_I2C_Master_Receive:hi2c <- $r4
	@DEBUG_VALUE: HAL_I2C_Master_Receive:DevAddress <- $r8
	@DEBUG_VALUE: HAL_I2C_Master_Receive:Size <- $r5
	@DEBUG_VALUE: HAL_I2C_Master_Receive:Timeout <- [DW_OP_plus_uconst 40] [$sp+0]
	.loc	7 0 7 is_stmt 0         @ ../Drivers/STM32F7xx_HAL_Driver/Src/stm32f7xx_hal_i2c.c:0:7
	bl	I2C_TransferConfig
	ldr	r7, [sp, #40]
	movw	r5, #65535
.Ltmp148:
	mov.w	r9, #0
	mov.w	r10, #255
	b	.LBB9_17
.Ltmp149:
.LBB9_10:                               @   in Loop: Header=BB9_17 Depth=1
	@DEBUG_VALUE: HAL_I2C_Master_Receive:tickstart <- $r6
	@DEBUG_VALUE: HAL_I2C_Master_Receive:hi2c <- $r4
	@DEBUG_VALUE: HAL_I2C_Master_Receive:DevAddress <- $r8
	@DEBUG_VALUE: HAL_I2C_Master_Receive:Timeout <- [DW_OP_plus_uconst 40] [$sp+0]
	.loc	7 793 10 is_stmt 1      @ ../Drivers/STM32F7xx_HAL_Driver/Src/stm32f7xx_hal_i2c.c:793:10
	mov	r0, r4
	mov	r1, r7
	mov	r2, r6
	bl	I2C_WaitOnRXNEFlagUntilTimeout
.Ltmp150:
	.loc	7 793 10 is_stmt 0      @ ../Drivers/STM32F7xx_HAL_Driver/Src/stm32f7xx_hal_i2c.c:793:10
	cmp	r0, #0
	bne	.LBB9_20
.Ltmp151:
@ %bb.11:                               @   in Loop: Header=BB9_17 Depth=1
	@DEBUG_VALUE: HAL_I2C_Master_Receive:tickstart <- $r6
	@DEBUG_VALUE: HAL_I2C_Master_Receive:hi2c <- $r4
	@DEBUG_VALUE: HAL_I2C_Master_Receive:DevAddress <- $r8
	@DEBUG_VALUE: HAL_I2C_Master_Receive:Timeout <- [DW_OP_plus_uconst 40] [$sp+0]
	.loc	7 806 35 is_stmt 1      @ ../Drivers/STM32F7xx_HAL_Driver/Src/stm32f7xx_hal_i2c.c:806:35
	ldr	r0, [r4]
	.loc	7 806 45 is_stmt 0      @ ../Drivers/STM32F7xx_HAL_Driver/Src/stm32f7xx_hal_i2c.c:806:45
	ldr	r0, [r0, #36]
	.loc	7 806 23                @ ../Drivers/STM32F7xx_HAL_Driver/Src/stm32f7xx_hal_i2c.c:806:23
	ldr	r1, [r4, #36]
	adds	r2, r1, #1
	str	r2, [r4, #36]
	.loc	7 806 27                @ ../Drivers/STM32F7xx_HAL_Driver/Src/stm32f7xx_hal_i2c.c:806:27
	strb	r0, [r1]
	.loc	7 807 21 is_stmt 1      @ ../Drivers/STM32F7xx_HAL_Driver/Src/stm32f7xx_hal_i2c.c:807:21
	ldrh	r0, [r4, #40]
	subs	r0, #1
	strh	r0, [r4, #40]
.Ltmp152:
	.loc	7 810 33                @ ../Drivers/STM32F7xx_HAL_Driver/Src/stm32f7xx_hal_i2c.c:810:33
	tst	r0, r5
.Ltmp153:
	.loc	7 808 22                @ ../Drivers/STM32F7xx_HAL_Driver/Src/stm32f7xx_hal_i2c.c:808:22
	ldrh	r1, [r4, #42]
	sub.w	r1, r1, #1
	strh	r1, [r4, #42]
.Ltmp154:
	.loc	7 810 33                @ ../Drivers/STM32F7xx_HAL_Driver/Src/stm32f7xx_hal_i2c.c:810:33
	bne	.LBB9_17
.Ltmp155:
@ %bb.12:                               @   in Loop: Header=BB9_17 Depth=1
	@DEBUG_VALUE: HAL_I2C_Master_Receive:tickstart <- $r6
	@DEBUG_VALUE: HAL_I2C_Master_Receive:hi2c <- $r4
	@DEBUG_VALUE: HAL_I2C_Master_Receive:DevAddress <- $r8
	@DEBUG_VALUE: HAL_I2C_Master_Receive:Timeout <- [DW_OP_plus_uconst 40] [$sp+0]
	.loc	7 810 43 is_stmt 0      @ ../Drivers/STM32F7xx_HAL_Driver/Src/stm32f7xx_hal_i2c.c:810:43
	ldrh	r0, [r4, #42]
.Ltmp156:
	.loc	7 810 10                @ ../Drivers/STM32F7xx_HAL_Driver/Src/stm32f7xx_hal_i2c.c:810:10
	cbz	r0, .LBB9_17
.Ltmp157:
@ %bb.13:                               @   in Loop: Header=BB9_17 Depth=1
	@DEBUG_VALUE: HAL_I2C_Master_Receive:tickstart <- $r6
	@DEBUG_VALUE: HAL_I2C_Master_Receive:hi2c <- $r4
	@DEBUG_VALUE: HAL_I2C_Master_Receive:DevAddress <- $r8
	@DEBUG_VALUE: HAL_I2C_Master_Receive:Timeout <- [DW_OP_plus_uconst 40] [$sp+0]
	.loc	7 813 12 is_stmt 1      @ ../Drivers/STM32F7xx_HAL_Driver/Src/stm32f7xx_hal_i2c.c:813:12
	mov	r0, r4
	movs	r1, #128
	movs	r2, #0
	mov	r3, r7
	str	r6, [sp]
	bl	I2C_WaitOnFlagUntilTimeout
.Ltmp158:
	.loc	7 813 12 is_stmt 0      @ ../Drivers/STM32F7xx_HAL_Driver/Src/stm32f7xx_hal_i2c.c:813:12
	cmp	r0, #0
	bne	.LBB9_5
.Ltmp159:
@ %bb.14:                               @   in Loop: Header=BB9_17 Depth=1
	@DEBUG_VALUE: HAL_I2C_Master_Receive:tickstart <- $r6
	@DEBUG_VALUE: HAL_I2C_Master_Receive:hi2c <- $r4
	@DEBUG_VALUE: HAL_I2C_Master_Receive:DevAddress <- $r8
	@DEBUG_VALUE: HAL_I2C_Master_Receive:Timeout <- [DW_OP_plus_uconst 40] [$sp+0]
	.loc	7 818 18 is_stmt 1      @ ../Drivers/STM32F7xx_HAL_Driver/Src/stm32f7xx_hal_i2c.c:818:18
	ldrh	r0, [r4, #42]
.Ltmp160:
	.loc	7 818 12 is_stmt 0      @ ../Drivers/STM32F7xx_HAL_Driver/Src/stm32f7xx_hal_i2c.c:818:12
	cmp.w	r0, #256
	blo	.LBB9_16
.Ltmp161:
@ %bb.15:                               @   in Loop: Header=BB9_17 Depth=1
	@DEBUG_VALUE: HAL_I2C_Master_Receive:tickstart <- $r6
	@DEBUG_VALUE: HAL_I2C_Master_Receive:hi2c <- $r4
	@DEBUG_VALUE: HAL_I2C_Master_Receive:DevAddress <- $r8
	@DEBUG_VALUE: HAL_I2C_Master_Receive:Timeout <- [DW_OP_plus_uconst 40] [$sp+0]
	.loc	7 821 11 is_stmt 1      @ ../Drivers/STM32F7xx_HAL_Driver/Src/stm32f7xx_hal_i2c.c:821:11
	mov	r0, r4
	mov	r1, r8
	movs	r2, #255
	mov.w	r3, #16777216
	.loc	7 820 26                @ ../Drivers/STM32F7xx_HAL_Driver/Src/stm32f7xx_hal_i2c.c:820:26
	strh.w	r10, [r4, #40]
	.loc	7 821 11                @ ../Drivers/STM32F7xx_HAL_Driver/Src/stm32f7xx_hal_i2c.c:821:11
	str.w	r9, [sp]
	bl	I2C_TransferConfig
	b	.LBB9_17
.Ltmp162:
.LBB9_16:                               @   in Loop: Header=BB9_17 Depth=1
	@DEBUG_VALUE: HAL_I2C_Master_Receive:tickstart <- $r6
	@DEBUG_VALUE: HAL_I2C_Master_Receive:hi2c <- $r4
	@DEBUG_VALUE: HAL_I2C_Master_Receive:DevAddress <- $r8
	@DEBUG_VALUE: HAL_I2C_Master_Receive:Timeout <- [DW_OP_plus_uconst 40] [$sp+0]
	.loc	7 825 34                @ ../Drivers/STM32F7xx_HAL_Driver/Src/stm32f7xx_hal_i2c.c:825:34
	ldrh	r0, [r4, #42]
	.loc	7 826 11                @ ../Drivers/STM32F7xx_HAL_Driver/Src/stm32f7xx_hal_i2c.c:826:11
	mov	r1, r8
	mov.w	r3, #33554432
	.loc	7 825 26                @ ../Drivers/STM32F7xx_HAL_Driver/Src/stm32f7xx_hal_i2c.c:825:26
	strh	r0, [r4, #40]
	.loc	7 826 11                @ ../Drivers/STM32F7xx_HAL_Driver/Src/stm32f7xx_hal_i2c.c:826:11
	uxtb	r2, r0
	mov	r0, r4
	str.w	r9, [sp]
	bl	I2C_TransferConfig
.Ltmp163:
.LBB9_17:                               @ =>This Inner Loop Header: Depth=1
	@DEBUG_VALUE: HAL_I2C_Master_Receive:tickstart <- $r6
	@DEBUG_VALUE: HAL_I2C_Master_Receive:hi2c <- $r4
	@DEBUG_VALUE: HAL_I2C_Master_Receive:DevAddress <- $r8
	@DEBUG_VALUE: HAL_I2C_Master_Receive:Timeout <- [DW_OP_plus_uconst 40] [$sp+0]
	.loc	7 790 17                @ ../Drivers/STM32F7xx_HAL_Driver/Src/stm32f7xx_hal_i2c.c:790:17
	ldrh	r0, [r4, #42]
	.loc	7 790 5 is_stmt 0       @ ../Drivers/STM32F7xx_HAL_Driver/Src/stm32f7xx_hal_i2c.c:790:5
	cmp	r0, #0
	bne	.LBB9_10
.Ltmp164:
@ %bb.18:
	@DEBUG_VALUE: HAL_I2C_Master_Receive:tickstart <- $r6
	@DEBUG_VALUE: HAL_I2C_Master_Receive:hi2c <- $r4
	@DEBUG_VALUE: HAL_I2C_Master_Receive:DevAddress <- $r8
	@DEBUG_VALUE: HAL_I2C_Master_Receive:Timeout <- [DW_OP_plus_uconst 40] [$sp+0]
	.loc	7 833 8 is_stmt 1       @ ../Drivers/STM32F7xx_HAL_Driver/Src/stm32f7xx_hal_i2c.c:833:8
	mov	r0, r4
	mov	r1, r7
	mov	r2, r6
	bl	I2C_WaitOnSTOPFlagUntilTimeout
.Ltmp165:
	.loc	7 833 8 is_stmt 0       @ ../Drivers/STM32F7xx_HAL_Driver/Src/stm32f7xx_hal_i2c.c:833:8
	cbz	r0, .LBB9_21
.Ltmp166:
@ %bb.19:
	@DEBUG_VALUE: HAL_I2C_Master_Receive:tickstart <- $r6
	@DEBUG_VALUE: HAL_I2C_Master_Receive:hi2c <- $r4
	@DEBUG_VALUE: HAL_I2C_Master_Receive:DevAddress <- $r8
	@DEBUG_VALUE: HAL_I2C_Master_Receive:Timeout <- [DW_OP_plus_uconst 40] [$sp+0]
	.loc	7 835 16 is_stmt 1      @ ../Drivers/STM32F7xx_HAL_Driver/Src/stm32f7xx_hal_i2c.c:835:16
	ldr	r1, [r4, #68]
.Ltmp167:
	.loc	7 835 10 is_stmt 0      @ ../Drivers/STM32F7xx_HAL_Driver/Src/stm32f7xx_hal_i2c.c:835:10
	movs	r0, #3
	cmp	r1, #4
	it	eq
	moveq	r0, #1
	b	.LBB9_3
.Ltmp168:
.LBB9_20:
	@DEBUG_VALUE: HAL_I2C_Master_Receive:tickstart <- $r6
	@DEBUG_VALUE: HAL_I2C_Master_Receive:hi2c <- $r4
	@DEBUG_VALUE: HAL_I2C_Master_Receive:DevAddress <- $r8
	@DEBUG_VALUE: HAL_I2C_Master_Receive:Timeout <- [DW_OP_plus_uconst 40] [$sp+0]
	.loc	7 795 18 is_stmt 1      @ ../Drivers/STM32F7xx_HAL_Driver/Src/stm32f7xx_hal_i2c.c:795:18
	ldr	r1, [r4, #68]
.Ltmp169:
	.loc	7 795 12 is_stmt 0      @ ../Drivers/STM32F7xx_HAL_Driver/Src/stm32f7xx_hal_i2c.c:795:12
	movs	r0, #3
	cmp	r1, #4
	it	eq
	moveq	r0, #1
	add	sp, #8
.Ltmp170:
	pop.w	{r4, r5, r6, r7, r8, r9, r10, pc}
.Ltmp171:
.LBB9_21:
	@DEBUG_VALUE: HAL_I2C_Master_Receive:tickstart <- $r6
	@DEBUG_VALUE: HAL_I2C_Master_Receive:hi2c <- $r4
	@DEBUG_VALUE: HAL_I2C_Master_Receive:DevAddress <- $r8
	@DEBUG_VALUE: HAL_I2C_Master_Receive:Timeout <- [DW_OP_plus_uconst 40] [$sp+0]
	.loc	7 846 5 is_stmt 1       @ ../Drivers/STM32F7xx_HAL_Driver/Src/stm32f7xx_hal_i2c.c:846:5
	ldr	r0, [r4]
	movs	r1, #32
	.loc	7 849 5                 @ ../Drivers/STM32F7xx_HAL_Driver/Src/stm32f7xx_hal_i2c.c:849:5
	ldr	r3, __arm_cp.9_0
	.loc	7 846 5                 @ ../Drivers/STM32F7xx_HAL_Driver/Src/stm32f7xx_hal_i2c.c:846:5
	str	r1, [r0, #28]
	.loc	7 849 5                 @ ../Drivers/STM32F7xx_HAL_Driver/Src/stm32f7xx_hal_i2c.c:849:5
	ldr	r2, [r0, #4]
	ands	r2, r3
	str	r2, [r0, #4]
	movs	r0, #0
	.loc	7 851 17                @ ../Drivers/STM32F7xx_HAL_Driver/Src/stm32f7xx_hal_i2c.c:851:17
	strb.w	r1, [r4, #65]
.Ltmp172:
	.loc	7 855 5                 @ ../Drivers/STM32F7xx_HAL_Driver/Src/stm32f7xx_hal_i2c.c:855:5
	strb.w	r0, [r4, #64]
.Ltmp173:
	.loc	7 852 17                @ ../Drivers/STM32F7xx_HAL_Driver/Src/stm32f7xx_hal_i2c.c:852:17
	strb.w	r0, [r4, #66]
	b	.LBB9_3
.Ltmp174:
	.p2align	2
@ %bb.22:
	.loc	7 0 17 is_stmt 0        @ ../Drivers/STM32F7xx_HAL_Driver/Src/stm32f7xx_hal_i2c.c:0:17
__arm_cp.9_0:
	.long	4261472256              @ 0xfe00e800
.Lcpi_end3:
	.size	__arm_cp.9_0, .Lcpi_end3-__arm_cp.9_0
.Lfunc_end9:
	.size	HAL_I2C_Master_Receive, .Lfunc_end9-HAL_I2C_Master_Receive
	.cfi_endproc
	.cantunwind
	.fnend
                                        @ -- End function
	.section	.text.I2C_WaitOnRXNEFlagUntilTimeout,"ax",%progbits
	.p2align	2               @ -- Begin function I2C_WaitOnRXNEFlagUntilTimeout
	.type	I2C_WaitOnRXNEFlagUntilTimeout,%function
	.code	16                      @ @I2C_WaitOnRXNEFlagUntilTimeout
	.thumb_func
I2C_WaitOnRXNEFlagUntilTimeout:
.Lfunc_begin10:
	.loc	7 4572 0 is_stmt 1      @ ../Drivers/STM32F7xx_HAL_Driver/Src/stm32f7xx_hal_i2c.c:4572:0
	.fnstart
	.cfi_startproc
@ %bb.0:
	.save	{r4, r5, r6, lr}
	push	{r4, r5, r6, lr}
	.cfi_def_cfa_offset 16
	.cfi_offset lr, -4
	.cfi_offset r6, -8
	.cfi_offset r5, -12
	.cfi_offset r4, -16
	@DEBUG_VALUE: I2C_WaitOnRXNEFlagUntilTimeout:hi2c <- $r0
	@DEBUG_VALUE: I2C_WaitOnRXNEFlagUntilTimeout:Timeout <- $r1
	@DEBUG_VALUE: I2C_WaitOnRXNEFlagUntilTimeout:Tickstart <- $r2
	mov	r5, r2
.Ltmp175:
	@DEBUG_VALUE: I2C_WaitOnRXNEFlagUntilTimeout:Tickstart <- $r5
	mov	r6, r1
.Ltmp176:
	@DEBUG_VALUE: I2C_WaitOnRXNEFlagUntilTimeout:Timeout <- $r6
	mov	r4, r0
.Ltmp177:
	@DEBUG_VALUE: I2C_WaitOnRXNEFlagUntilTimeout:hi2c <- $r4
.LBB10_1:                               @ =>This Inner Loop Header: Depth=1
	@DEBUG_VALUE: I2C_WaitOnRXNEFlagUntilTimeout:hi2c <- $r4
	@DEBUG_VALUE: I2C_WaitOnRXNEFlagUntilTimeout:Timeout <- $r6
	@DEBUG_VALUE: I2C_WaitOnRXNEFlagUntilTimeout:Tickstart <- $r5
	.loc	7 4573 9 prologue_end   @ ../Drivers/STM32F7xx_HAL_Driver/Src/stm32f7xx_hal_i2c.c:4573:9
	ldr	r0, [r4]
	ldr	r0, [r0, #24]
	.loc	7 4573 3 is_stmt 0      @ ../Drivers/STM32F7xx_HAL_Driver/Src/stm32f7xx_hal_i2c.c:4573:3
	tst.w	r0, #4
	bne	.LBB10_7
.Ltmp178:
@ %bb.2:                                @   in Loop: Header=BB10_1 Depth=1
	@DEBUG_VALUE: I2C_WaitOnRXNEFlagUntilTimeout:hi2c <- $r4
	@DEBUG_VALUE: I2C_WaitOnRXNEFlagUntilTimeout:Timeout <- $r6
	@DEBUG_VALUE: I2C_WaitOnRXNEFlagUntilTimeout:Tickstart <- $r5
	.loc	7 4576 8 is_stmt 1      @ ../Drivers/STM32F7xx_HAL_Driver/Src/stm32f7xx_hal_i2c.c:4576:8
	mov	r0, r4
	mov	r1, r6
	mov	r2, r5
	bl	I2C_IsAcknowledgeFailed
.Ltmp179:
	.loc	7 4576 8 is_stmt 0      @ ../Drivers/STM32F7xx_HAL_Driver/Src/stm32f7xx_hal_i2c.c:4576:8
	cbnz	r0, .LBB10_9
.Ltmp180:
@ %bb.3:                                @   in Loop: Header=BB10_1 Depth=1
	@DEBUG_VALUE: I2C_WaitOnRXNEFlagUntilTimeout:hi2c <- $r4
	@DEBUG_VALUE: I2C_WaitOnRXNEFlagUntilTimeout:Timeout <- $r6
	@DEBUG_VALUE: I2C_WaitOnRXNEFlagUntilTimeout:Tickstart <- $r5
	.loc	7 4582 8 is_stmt 1      @ ../Drivers/STM32F7xx_HAL_Driver/Src/stm32f7xx_hal_i2c.c:4582:8
	ldr	r0, [r4]
	ldr	r1, [r0, #24]
.Ltmp181:
	.loc	7 4582 8 is_stmt 0      @ ../Drivers/STM32F7xx_HAL_Driver/Src/stm32f7xx_hal_i2c.c:4582:8
	tst.w	r1, #32
	bne	.LBB10_8
.Ltmp182:
@ %bb.4:                                @   in Loop: Header=BB10_1 Depth=1
	@DEBUG_VALUE: I2C_WaitOnRXNEFlagUntilTimeout:hi2c <- $r4
	@DEBUG_VALUE: I2C_WaitOnRXNEFlagUntilTimeout:Timeout <- $r6
	@DEBUG_VALUE: I2C_WaitOnRXNEFlagUntilTimeout:Tickstart <- $r5
	.loc	7 4601 23 is_stmt 1     @ ../Drivers/STM32F7xx_HAL_Driver/Src/stm32f7xx_hal_i2c.c:4601:23
	cbz	r6, .LBB10_6
.Ltmp183:
@ %bb.5:                                @   in Loop: Header=BB10_1 Depth=1
	@DEBUG_VALUE: I2C_WaitOnRXNEFlagUntilTimeout:hi2c <- $r4
	@DEBUG_VALUE: I2C_WaitOnRXNEFlagUntilTimeout:Timeout <- $r6
	@DEBUG_VALUE: I2C_WaitOnRXNEFlagUntilTimeout:Tickstart <- $r5
	.loc	7 4601 27 is_stmt 0     @ ../Drivers/STM32F7xx_HAL_Driver/Src/stm32f7xx_hal_i2c.c:4601:27
	bl	HAL_GetTick
	.loc	7 4601 41               @ ../Drivers/STM32F7xx_HAL_Driver/Src/stm32f7xx_hal_i2c.c:4601:41
	subs	r0, r0, r5
.Ltmp184:
	.loc	7 4601 8                @ ../Drivers/STM32F7xx_HAL_Driver/Src/stm32f7xx_hal_i2c.c:4601:8
	cmp	r0, r6
	bls	.LBB10_1
.Ltmp185:
.LBB10_6:
	@DEBUG_VALUE: I2C_WaitOnRXNEFlagUntilTimeout:hi2c <- $r4
	@DEBUG_VALUE: I2C_WaitOnRXNEFlagUntilTimeout:Timeout <- $r6
	@DEBUG_VALUE: I2C_WaitOnRXNEFlagUntilTimeout:Tickstart <- $r5
	.loc	7 4603 23 is_stmt 1     @ ../Drivers/STM32F7xx_HAL_Driver/Src/stm32f7xx_hal_i2c.c:4603:23
	ldr	r0, [r4, #68]
	orr	r0, r0, #32
	str	r0, [r4, #68]
.Ltmp186:
	.loc	7 4607 7                @ ../Drivers/STM32F7xx_HAL_Driver/Src/stm32f7xx_hal_i2c.c:4607:7
	movs	r0, #0
	strb.w	r0, [r4, #64]
	movs	r0, #32
.Ltmp187:
	.loc	7 4604 18               @ ../Drivers/STM32F7xx_HAL_Driver/Src/stm32f7xx_hal_i2c.c:4604:18
	strb.w	r0, [r4, #65]
	movs	r0, #3
	b	.LBB10_10
.Ltmp188:
.LBB10_7:
	@DEBUG_VALUE: I2C_WaitOnRXNEFlagUntilTimeout:hi2c <- $r4
	@DEBUG_VALUE: I2C_WaitOnRXNEFlagUntilTimeout:Timeout <- $r6
	@DEBUG_VALUE: I2C_WaitOnRXNEFlagUntilTimeout:Tickstart <- $r5
	.loc	7 0 18 is_stmt 0        @ ../Drivers/STM32F7xx_HAL_Driver/Src/stm32f7xx_hal_i2c.c:0:18
	movs	r0, #0
	b	.LBB10_10
.Ltmp189:
.LBB10_8:
	@DEBUG_VALUE: I2C_WaitOnRXNEFlagUntilTimeout:hi2c <- $r4
	@DEBUG_VALUE: I2C_WaitOnRXNEFlagUntilTimeout:Timeout <- $r6
	@DEBUG_VALUE: I2C_WaitOnRXNEFlagUntilTimeout:Tickstart <- $r5
	movs	r1, #32
.Ltmp190:
	.loc	7 4588 7 is_stmt 1      @ ../Drivers/STM32F7xx_HAL_Driver/Src/stm32f7xx_hal_i2c.c:4588:7
	ldr	r3, __arm_cp.10_0
	.loc	7 4585 7                @ ../Drivers/STM32F7xx_HAL_Driver/Src/stm32f7xx_hal_i2c.c:4585:7
	str	r1, [r0, #28]
	.loc	7 4588 7                @ ../Drivers/STM32F7xx_HAL_Driver/Src/stm32f7xx_hal_i2c.c:4588:7
	ldr	r2, [r0, #4]
	ands	r2, r3
	str	r2, [r0, #4]
	movs	r0, #0
	.loc	7 4590 23               @ ../Drivers/STM32F7xx_HAL_Driver/Src/stm32f7xx_hal_i2c.c:4590:23
	str	r0, [r4, #68]
	.loc	7 4591 18               @ ../Drivers/STM32F7xx_HAL_Driver/Src/stm32f7xx_hal_i2c.c:4591:18
	strb.w	r1, [r4, #65]
.Ltmp191:
	.loc	7 4595 7                @ ../Drivers/STM32F7xx_HAL_Driver/Src/stm32f7xx_hal_i2c.c:4595:7
	strb.w	r0, [r4, #64]
.Ltmp192:
	.loc	7 4592 18               @ ../Drivers/STM32F7xx_HAL_Driver/Src/stm32f7xx_hal_i2c.c:4592:18
	strb.w	r0, [r4, #66]
.Ltmp193:
.LBB10_9:
	@DEBUG_VALUE: I2C_WaitOnRXNEFlagUntilTimeout:hi2c <- $r4
	@DEBUG_VALUE: I2C_WaitOnRXNEFlagUntilTimeout:Timeout <- $r6
	@DEBUG_VALUE: I2C_WaitOnRXNEFlagUntilTimeout:Tickstart <- $r5
	.loc	7 0 18 is_stmt 0        @ ../Drivers/STM32F7xx_HAL_Driver/Src/stm32f7xx_hal_i2c.c:0:18
	movs	r0, #1
.Ltmp194:
.LBB10_10:
	@DEBUG_VALUE: I2C_WaitOnRXNEFlagUntilTimeout:hi2c <- $r4
	@DEBUG_VALUE: I2C_WaitOnRXNEFlagUntilTimeout:Timeout <- $r6
	@DEBUG_VALUE: I2C_WaitOnRXNEFlagUntilTimeout:Tickstart <- $r5
	.loc	7 4613 1 is_stmt 1      @ ../Drivers/STM32F7xx_HAL_Driver/Src/stm32f7xx_hal_i2c.c:4613:1
	uxtb	r0, r0
	pop	{r4, r5, r6, pc}
.Ltmp195:
	.p2align	2
@ %bb.11:
	.loc	7 0 1 is_stmt 0         @ ../Drivers/STM32F7xx_HAL_Driver/Src/stm32f7xx_hal_i2c.c:0:1
__arm_cp.10_0:
	.long	4261472256              @ 0xfe00e800
.Lcpi_end4:
	.size	__arm_cp.10_0, .Lcpi_end4-__arm_cp.10_0
.Lfunc_end10:
	.size	I2C_WaitOnRXNEFlagUntilTimeout, .Lfunc_end10-I2C_WaitOnRXNEFlagUntilTimeout
	.cfi_endproc
	.cantunwind
	.fnend
                                        @ -- End function
	.section	.text.HAL_I2C_Slave_Transmit,"ax",%progbits
	.hidden	HAL_I2C_Slave_Transmit  @ -- Begin function HAL_I2C_Slave_Transmit
	.globl	HAL_I2C_Slave_Transmit
	.p2align	1
	.type	HAL_I2C_Slave_Transmit,%function
	.code	16                      @ @HAL_I2C_Slave_Transmit
	.thumb_func
HAL_I2C_Slave_Transmit:
.Lfunc_begin11:
	.loc	7 875 0 is_stmt 1       @ ../Drivers/STM32F7xx_HAL_Driver/Src/stm32f7xx_hal_i2c.c:875:0
	.fnstart
	.cfi_startproc
@ %bb.0:
	.save	{r4, r5, r6, r7, r8, lr}
	.pad	#8
	push.w	{r2, r3, r4, r5, r6, r7, r8, lr}
	.cfi_def_cfa_offset 32
	.cfi_offset lr, -4
	.cfi_offset r8, -8
	.cfi_offset r7, -12
	.cfi_offset r6, -16
	.cfi_offset r5, -20
	.cfi_offset r4, -24
	@DEBUG_VALUE: HAL_I2C_Slave_Transmit:hi2c <- $r0
	@DEBUG_VALUE: HAL_I2C_Slave_Transmit:pData <- $r1
	@DEBUG_VALUE: HAL_I2C_Slave_Transmit:Size <- $r2
	@DEBUG_VALUE: HAL_I2C_Slave_Transmit:Timeout <- $r3
	mov	r4, r0
.Ltmp196:
	@DEBUG_VALUE: HAL_I2C_Slave_Transmit:tickstart <- 0
	@DEBUG_VALUE: HAL_I2C_Slave_Transmit:Timeout <- $r5
	@DEBUG_VALUE: HAL_I2C_Slave_Transmit:Size <- $r7
	@DEBUG_VALUE: HAL_I2C_Slave_Transmit:pData <- $r6
	@DEBUG_VALUE: HAL_I2C_Slave_Transmit:hi2c <- $r4
	.loc	7 878 12 prologue_end   @ ../Drivers/STM32F7xx_HAL_Driver/Src/stm32f7xx_hal_i2c.c:878:12
	ldrb.w	r0, [r0, #65]
	mov	r5, r3
.Ltmp197:
	.loc	7 0 12 is_stmt 0        @ ../Drivers/STM32F7xx_HAL_Driver/Src/stm32f7xx_hal_i2c.c:0:12
	mov	r7, r2
.Ltmp198:
	mov	r6, r1
.Ltmp199:
	.loc	7 878 6                 @ ../Drivers/STM32F7xx_HAL_Driver/Src/stm32f7xx_hal_i2c.c:878:6
	cmp	r0, #32
	bne	.LBB11_4
.Ltmp200:
@ %bb.1:
	@DEBUG_VALUE: HAL_I2C_Slave_Transmit:hi2c <- $r4
	.loc	7 0 6                   @ ../Drivers/STM32F7xx_HAL_Driver/Src/stm32f7xx_hal_i2c.c:0:6
	movs	r0, #1
.Ltmp201:
	.loc	7 880 24 is_stmt 1      @ ../Drivers/STM32F7xx_HAL_Driver/Src/stm32f7xx_hal_i2c.c:880:24
	cbz	r6, .LBB11_5
.Ltmp202:
@ %bb.2:
	@DEBUG_VALUE: HAL_I2C_Slave_Transmit:hi2c <- $r4
	cbz	r7, .LBB11_5
.Ltmp203:
@ %bb.3:
	@DEBUG_VALUE: HAL_I2C_Slave_Transmit:hi2c <- $r4
	.loc	7 885 5                 @ ../Drivers/STM32F7xx_HAL_Driver/Src/stm32f7xx_hal_i2c.c:885:5
	ldrb.w	r0, [r4, #64]
.Ltmp204:
	.loc	7 885 5 is_stmt 0       @ ../Drivers/STM32F7xx_HAL_Driver/Src/stm32f7xx_hal_i2c.c:885:5
	cmp	r0, #1
	bne	.LBB11_6
.Ltmp205:
.LBB11_4:
	@DEBUG_VALUE: HAL_I2C_Slave_Transmit:hi2c <- $r4
	.loc	7 0 5                   @ ../Drivers/STM32F7xx_HAL_Driver/Src/stm32f7xx_hal_i2c.c:0:5
	movs	r0, #2
.Ltmp206:
.LBB11_5:
	@DEBUG_VALUE: HAL_I2C_Slave_Transmit:hi2c <- $r4
	.loc	7 1003 1 is_stmt 1      @ ../Drivers/STM32F7xx_HAL_Driver/Src/stm32f7xx_hal_i2c.c:1003:1
	uxtb	r0, r0
	add	sp, #8
	pop.w	{r4, r5, r6, r7, r8, pc}
.Ltmp207:
.LBB11_6:
	@DEBUG_VALUE: HAL_I2C_Slave_Transmit:hi2c <- $r4
	@DEBUG_VALUE: HAL_I2C_Slave_Transmit:Size <- $r7
	.loc	7 0 1 is_stmt 0         @ ../Drivers/STM32F7xx_HAL_Driver/Src/stm32f7xx_hal_i2c.c:0:1
	movs	r0, #1
.Ltmp208:
	.loc	7 885 5 is_stmt 1       @ ../Drivers/STM32F7xx_HAL_Driver/Src/stm32f7xx_hal_i2c.c:885:5
	strb.w	r0, [r4, #64]
.Ltmp209:
	.loc	7 888 17                @ ../Drivers/STM32F7xx_HAL_Driver/Src/stm32f7xx_hal_i2c.c:888:17
	bl	HAL_GetTick
	mov	r8, r0
.Ltmp210:
	@DEBUG_VALUE: HAL_I2C_Slave_Transmit:tickstart <- $r8
	.loc	7 890 21                @ ../Drivers/STM32F7xx_HAL_Driver/Src/stm32f7xx_hal_i2c.c:890:21
	movs	r0, #33
.Ltmp211:
	.loc	7 903 8                 @ ../Drivers/STM32F7xx_HAL_Driver/Src/stm32f7xx_hal_i2c.c:903:8
	movs	r2, #0
	mov	r3, r5
.Ltmp212:
	.loc	7 890 21                @ ../Drivers/STM32F7xx_HAL_Driver/Src/stm32f7xx_hal_i2c.c:890:21
	strb.w	r0, [r4, #65]
	.loc	7 891 21                @ ../Drivers/STM32F7xx_HAL_Driver/Src/stm32f7xx_hal_i2c.c:891:21
	movs	r0, #32
	strb.w	r0, [r4, #66]
	movs	r0, #0
	.loc	7 892 21                @ ../Drivers/STM32F7xx_HAL_Driver/Src/stm32f7xx_hal_i2c.c:892:21
	str	r0, [r4, #68]
	.loc	7 895 21                @ ../Drivers/STM32F7xx_HAL_Driver/Src/stm32f7xx_hal_i2c.c:895:21
	str	r6, [r4, #36]
	.loc	7 897 21                @ ../Drivers/STM32F7xx_HAL_Driver/Src/stm32f7xx_hal_i2c.c:897:21
	str	r0, [r4, #52]
	.loc	7 896 21                @ ../Drivers/STM32F7xx_HAL_Driver/Src/stm32f7xx_hal_i2c.c:896:21
	strh	r7, [r4, #42]
.Ltmp213:
	.loc	7 903 8                 @ ../Drivers/STM32F7xx_HAL_Driver/Src/stm32f7xx_hal_i2c.c:903:8
	movs	r6, #8
.Ltmp214:
	.loc	7 900 11                @ ../Drivers/STM32F7xx_HAL_Driver/Src/stm32f7xx_hal_i2c.c:900:11
	ldr	r0, [r4]
	.loc	7 900 25 is_stmt 0      @ ../Drivers/STM32F7xx_HAL_Driver/Src/stm32f7xx_hal_i2c.c:900:25
	ldr	r1, [r0, #4]
	bic	r1, r1, #32768
	str	r1, [r0, #4]
.Ltmp215:
	.loc	7 903 8 is_stmt 1       @ ../Drivers/STM32F7xx_HAL_Driver/Src/stm32f7xx_hal_i2c.c:903:8
	mov	r0, r4
	movs	r1, #8
	str.w	r8, [sp]
	bl	I2C_WaitOnFlagUntilTimeout
	ldr	r1, [r4]
.Ltmp216:
	.loc	7 903 8 is_stmt 0       @ ../Drivers/STM32F7xx_HAL_Driver/Src/stm32f7xx_hal_i2c.c:903:8
	cbz	r0, .LBB11_9
.Ltmp217:
.LBB11_7:
	@DEBUG_VALUE: HAL_I2C_Slave_Transmit:tickstart <- $r8
	@DEBUG_VALUE: HAL_I2C_Slave_Transmit:hi2c <- $r4
	@DEBUG_VALUE: HAL_I2C_Slave_Transmit:Size <- $r7
	.loc	7 0 8                   @ ../Drivers/STM32F7xx_HAL_Driver/Src/stm32f7xx_hal_i2c.c:0:8
	ldr	r0, [r1, #4]
	orr	r0, r0, #32768
	str	r0, [r1, #4]
.Ltmp218:
.LBB11_8:
	@DEBUG_VALUE: HAL_I2C_Slave_Transmit:tickstart <- $r8
	@DEBUG_VALUE: HAL_I2C_Slave_Transmit:hi2c <- $r4
	@DEBUG_VALUE: HAL_I2C_Slave_Transmit:Size <- $r7
	movs	r0, #3
	b	.LBB11_5
.Ltmp219:
.LBB11_9:
	@DEBUG_VALUE: HAL_I2C_Slave_Transmit:tickstart <- $r8
	@DEBUG_VALUE: HAL_I2C_Slave_Transmit:hi2c <- $r4
	@DEBUG_VALUE: HAL_I2C_Slave_Transmit:Size <- $r7
	.loc	7 911 5 is_stmt 1       @ ../Drivers/STM32F7xx_HAL_Driver/Src/stm32f7xx_hal_i2c.c:911:5
	str	r6, [r1, #28]
.Ltmp220:
	.loc	7 914 19                @ ../Drivers/STM32F7xx_HAL_Driver/Src/stm32f7xx_hal_i2c.c:914:19
	ldr	r0, [r4, #12]
.Ltmp221:
	.loc	7 914 8 is_stmt 0       @ ../Drivers/STM32F7xx_HAL_Driver/Src/stm32f7xx_hal_i2c.c:914:8
	cmp	r0, #2
	bne	.LBB11_12
.Ltmp222:
@ %bb.10:
	@DEBUG_VALUE: HAL_I2C_Slave_Transmit:tickstart <- $r8
	@DEBUG_VALUE: HAL_I2C_Slave_Transmit:hi2c <- $r4
	@DEBUG_VALUE: HAL_I2C_Slave_Transmit:Size <- $r7
	.loc	7 917 10 is_stmt 1      @ ../Drivers/STM32F7xx_HAL_Driver/Src/stm32f7xx_hal_i2c.c:917:10
	mov	r0, r4
	movs	r1, #8
	movs	r2, #0
	mov	r3, r5
	str.w	r8, [sp]
	movs	r6, #8
	bl	I2C_WaitOnFlagUntilTimeout
	ldr	r1, [r4]
.Ltmp223:
	.loc	7 917 10 is_stmt 0      @ ../Drivers/STM32F7xx_HAL_Driver/Src/stm32f7xx_hal_i2c.c:917:10
	cmp	r0, #0
	bne	.LBB11_7
.Ltmp224:
@ %bb.11:
	@DEBUG_VALUE: HAL_I2C_Slave_Transmit:tickstart <- $r8
	@DEBUG_VALUE: HAL_I2C_Slave_Transmit:hi2c <- $r4
	@DEBUG_VALUE: HAL_I2C_Slave_Transmit:Size <- $r7
	.loc	7 925 7 is_stmt 1       @ ../Drivers/STM32F7xx_HAL_Driver/Src/stm32f7xx_hal_i2c.c:925:7
	str	r6, [r1, #28]
.Ltmp225:
.LBB11_12:
	@DEBUG_VALUE: HAL_I2C_Slave_Transmit:tickstart <- $r8
	@DEBUG_VALUE: HAL_I2C_Slave_Transmit:hi2c <- $r4
	@DEBUG_VALUE: HAL_I2C_Slave_Transmit:Size <- $r7
	.loc	7 929 8                 @ ../Drivers/STM32F7xx_HAL_Driver/Src/stm32f7xx_hal_i2c.c:929:8
	mov	r0, r4
	mov.w	r1, #65536
	movs	r2, #0
	mov	r3, r5
	str.w	r8, [sp]
	bl	I2C_WaitOnFlagUntilTimeout
.Ltmp226:
	.loc	7 929 8 is_stmt 0       @ ../Drivers/STM32F7xx_HAL_Driver/Src/stm32f7xx_hal_i2c.c:929:8
	cbz	r0, .LBB11_16
.Ltmp227:
@ %bb.13:
	@DEBUG_VALUE: HAL_I2C_Slave_Transmit:tickstart <- $r8
	@DEBUG_VALUE: HAL_I2C_Slave_Transmit:hi2c <- $r4
	@DEBUG_VALUE: HAL_I2C_Slave_Transmit:Size <- $r7
	.loc	7 932 13 is_stmt 1      @ ../Drivers/STM32F7xx_HAL_Driver/Src/stm32f7xx_hal_i2c.c:932:13
	ldr	r0, [r4]
	.loc	7 932 27 is_stmt 0      @ ../Drivers/STM32F7xx_HAL_Driver/Src/stm32f7xx_hal_i2c.c:932:27
	ldr	r1, [r0, #4]
	orr	r1, r1, #32768
	str	r1, [r0, #4]
	b	.LBB11_8
.Ltmp228:
.LBB11_14:                              @   in Loop: Header=BB11_16 Depth=1
	@DEBUG_VALUE: HAL_I2C_Slave_Transmit:tickstart <- $r8
	@DEBUG_VALUE: HAL_I2C_Slave_Transmit:hi2c <- $r4
	@DEBUG_VALUE: HAL_I2C_Slave_Transmit:Size <- $r7
	.loc	7 939 10 is_stmt 1      @ ../Drivers/STM32F7xx_HAL_Driver/Src/stm32f7xx_hal_i2c.c:939:10
	mov	r0, r4
	mov	r1, r5
	mov	r2, r8
	bl	I2C_WaitOnTXISFlagUntilTimeout
.Ltmp229:
	.loc	7 939 10 is_stmt 0      @ ../Drivers/STM32F7xx_HAL_Driver/Src/stm32f7xx_hal_i2c.c:939:10
	cbnz	r0, .LBB11_22
.Ltmp230:
@ %bb.15:                               @   in Loop: Header=BB11_16 Depth=1
	@DEBUG_VALUE: HAL_I2C_Slave_Transmit:tickstart <- $r8
	@DEBUG_VALUE: HAL_I2C_Slave_Transmit:hi2c <- $r4
	@DEBUG_VALUE: HAL_I2C_Slave_Transmit:Size <- $r7
	.loc	7 955 46 is_stmt 1      @ ../Drivers/STM32F7xx_HAL_Driver/Src/stm32f7xx_hal_i2c.c:955:46
	ldr	r1, [r4, #36]
	.loc	7 955 13 is_stmt 0      @ ../Drivers/STM32F7xx_HAL_Driver/Src/stm32f7xx_hal_i2c.c:955:13
	ldr	r0, [r4]
	.loc	7 955 46                @ ../Drivers/STM32F7xx_HAL_Driver/Src/stm32f7xx_hal_i2c.c:955:46
	adds	r2, r1, #1
	str	r2, [r4, #36]
	.loc	7 955 30                @ ../Drivers/STM32F7xx_HAL_Driver/Src/stm32f7xx_hal_i2c.c:955:30
	ldrb	r1, [r1]
	.loc	7 955 28                @ ../Drivers/STM32F7xx_HAL_Driver/Src/stm32f7xx_hal_i2c.c:955:28
	str	r1, [r0, #40]
	.loc	7 956 22 is_stmt 1      @ ../Drivers/STM32F7xx_HAL_Driver/Src/stm32f7xx_hal_i2c.c:956:22
	ldrh	r0, [r4, #42]
	subs	r0, #1
	strh	r0, [r4, #42]
.Ltmp231:
.LBB11_16:                              @ =>This Inner Loop Header: Depth=1
	@DEBUG_VALUE: HAL_I2C_Slave_Transmit:tickstart <- $r8
	@DEBUG_VALUE: HAL_I2C_Slave_Transmit:hi2c <- $r4
	@DEBUG_VALUE: HAL_I2C_Slave_Transmit:Size <- $r7
	.loc	7 936 17                @ ../Drivers/STM32F7xx_HAL_Driver/Src/stm32f7xx_hal_i2c.c:936:17
	ldrh	r0, [r4, #42]
	.loc	7 936 5 is_stmt 0       @ ../Drivers/STM32F7xx_HAL_Driver/Src/stm32f7xx_hal_i2c.c:936:5
	cmp	r0, #0
	bne	.LBB11_14
.Ltmp232:
@ %bb.17:
	@DEBUG_VALUE: HAL_I2C_Slave_Transmit:tickstart <- $r8
	@DEBUG_VALUE: HAL_I2C_Slave_Transmit:hi2c <- $r4
	@DEBUG_VALUE: HAL_I2C_Slave_Transmit:Size <- $r7
	.loc	7 960 8 is_stmt 1       @ ../Drivers/STM32F7xx_HAL_Driver/Src/stm32f7xx_hal_i2c.c:960:8
	mov	r0, r4
	mov	r1, r5
	mov	r2, r8
	bl	I2C_WaitOnSTOPFlagUntilTimeout
	ldr	r1, [r4]
.Ltmp233:
	.loc	7 960 8 is_stmt 0       @ ../Drivers/STM32F7xx_HAL_Driver/Src/stm32f7xx_hal_i2c.c:960:8
	cbz	r0, .LBB11_20
.Ltmp234:
@ %bb.18:
	@DEBUG_VALUE: HAL_I2C_Slave_Transmit:tickstart <- $r8
	@DEBUG_VALUE: HAL_I2C_Slave_Transmit:hi2c <- $r4
	@DEBUG_VALUE: HAL_I2C_Slave_Transmit:Size <- $r7
	.loc	7 963 27 is_stmt 1      @ ../Drivers/STM32F7xx_HAL_Driver/Src/stm32f7xx_hal_i2c.c:963:27
	ldr	r0, [r1, #4]
	orr	r0, r0, #32768
	str	r0, [r1, #4]
.Ltmp235:
	.loc	7 965 16                @ ../Drivers/STM32F7xx_HAL_Driver/Src/stm32f7xx_hal_i2c.c:965:16
	ldr	r0, [r4, #68]
.Ltmp236:
	.loc	7 965 10 is_stmt 0      @ ../Drivers/STM32F7xx_HAL_Driver/Src/stm32f7xx_hal_i2c.c:965:10
	cmp	r0, #4
	bne	.LBB11_8
.Ltmp237:
@ %bb.19:
	@DEBUG_VALUE: HAL_I2C_Slave_Transmit:tickstart <- $r8
	@DEBUG_VALUE: HAL_I2C_Slave_Transmit:hi2c <- $r4
	@DEBUG_VALUE: HAL_I2C_Slave_Transmit:Size <- $r7
	.loc	7 969 25 is_stmt 1      @ ../Drivers/STM32F7xx_HAL_Driver/Src/stm32f7xx_hal_i2c.c:969:25
	movs	r0, #0
	str	r0, [r4, #68]
.Ltmp238:
.LBB11_20:
	@DEBUG_VALUE: HAL_I2C_Slave_Transmit:tickstart <- $r8
	@DEBUG_VALUE: HAL_I2C_Slave_Transmit:hi2c <- $r4
	@DEBUG_VALUE: HAL_I2C_Slave_Transmit:Size <- $r7
	.loc	7 978 5                 @ ../Drivers/STM32F7xx_HAL_Driver/Src/stm32f7xx_hal_i2c.c:978:5
	movs	r6, #32
.Ltmp239:
	.loc	7 981 8                 @ ../Drivers/STM32F7xx_HAL_Driver/Src/stm32f7xx_hal_i2c.c:981:8
	mov	r0, r4
	movs	r2, #1
	mov	r3, r5
.Ltmp240:
	.loc	7 978 5                 @ ../Drivers/STM32F7xx_HAL_Driver/Src/stm32f7xx_hal_i2c.c:978:5
	str	r6, [r1, #28]
.Ltmp241:
	.loc	7 981 8                 @ ../Drivers/STM32F7xx_HAL_Driver/Src/stm32f7xx_hal_i2c.c:981:8
	mov.w	r1, #32768
	str.w	r8, [sp]
	bl	I2C_WaitOnFlagUntilTimeout
	ldr	r1, [r4]
.Ltmp242:
	.loc	7 981 8 is_stmt 0       @ ../Drivers/STM32F7xx_HAL_Driver/Src/stm32f7xx_hal_i2c.c:981:8
	cmp	r0, #0
	ldr	r2, [r1, #4]
	orr	r2, r2, #32768
	str	r2, [r1, #4]
	bne	.LBB11_8
.Ltmp243:
@ %bb.21:
	@DEBUG_VALUE: HAL_I2C_Slave_Transmit:tickstart <- $r8
	@DEBUG_VALUE: HAL_I2C_Slave_Transmit:hi2c <- $r4
	@DEBUG_VALUE: HAL_I2C_Slave_Transmit:Size <- $r7
	.loc	7 0 8                   @ ../Drivers/STM32F7xx_HAL_Driver/Src/stm32f7xx_hal_i2c.c:0:8
	movs	r0, #0
	.loc	7 991 17 is_stmt 1      @ ../Drivers/STM32F7xx_HAL_Driver/Src/stm32f7xx_hal_i2c.c:991:17
	strb.w	r6, [r4, #65]
.Ltmp244:
	.loc	7 995 5                 @ ../Drivers/STM32F7xx_HAL_Driver/Src/stm32f7xx_hal_i2c.c:995:5
	strb.w	r0, [r4, #64]
.Ltmp245:
	.loc	7 992 17                @ ../Drivers/STM32F7xx_HAL_Driver/Src/stm32f7xx_hal_i2c.c:992:17
	strb.w	r0, [r4, #66]
	b	.LBB11_5
.Ltmp246:
.LBB11_22:
	@DEBUG_VALUE: HAL_I2C_Slave_Transmit:tickstart <- $r8
	@DEBUG_VALUE: HAL_I2C_Slave_Transmit:hi2c <- $r4
	@DEBUG_VALUE: HAL_I2C_Slave_Transmit:Size <- $r7
	.loc	7 942 15                @ ../Drivers/STM32F7xx_HAL_Driver/Src/stm32f7xx_hal_i2c.c:942:15
	ldr	r0, [r4]
	.loc	7 942 29 is_stmt 0      @ ../Drivers/STM32F7xx_HAL_Driver/Src/stm32f7xx_hal_i2c.c:942:29
	ldr	r1, [r0, #4]
	orr	r1, r1, #32768
	str	r1, [r0, #4]
	.loc	7 944 12 is_stmt 1      @ ../Drivers/STM32F7xx_HAL_Driver/Src/stm32f7xx_hal_i2c.c:944:12
	movs	r0, #3
.Ltmp247:
	.loc	7 944 18 is_stmt 0      @ ../Drivers/STM32F7xx_HAL_Driver/Src/stm32f7xx_hal_i2c.c:944:18
	ldr	r1, [r4, #68]
.Ltmp248:
	.loc	7 944 12                @ ../Drivers/STM32F7xx_HAL_Driver/Src/stm32f7xx_hal_i2c.c:944:12
	cmp	r1, #4
	it	eq
	moveq	r0, #1
	add	sp, #8
	pop.w	{r4, r5, r6, r7, r8, pc}
.Ltmp249:
.Lfunc_end11:
	.size	HAL_I2C_Slave_Transmit, .Lfunc_end11-HAL_I2C_Slave_Transmit
	.cfi_endproc
	.cantunwind
	.fnend
                                        @ -- End function
	.section	.text.HAL_I2C_Slave_Receive,"ax",%progbits
	.hidden	HAL_I2C_Slave_Receive   @ -- Begin function HAL_I2C_Slave_Receive
	.globl	HAL_I2C_Slave_Receive
	.p2align	1
	.type	HAL_I2C_Slave_Receive,%function
	.code	16                      @ @HAL_I2C_Slave_Receive
	.thumb_func
HAL_I2C_Slave_Receive:
.Lfunc_begin12:
	.loc	7 1015 0 is_stmt 1      @ ../Drivers/STM32F7xx_HAL_Driver/Src/stm32f7xx_hal_i2c.c:1015:0
	.fnstart
	.cfi_startproc
@ %bb.0:
	.save	{r4, r5, r6, r7, r8, lr}
	.pad	#8
	push.w	{r2, r3, r4, r5, r6, r7, r8, lr}
	.cfi_def_cfa_offset 32
	.cfi_offset lr, -4
	.cfi_offset r8, -8
	.cfi_offset r7, -12
	.cfi_offset r6, -16
	.cfi_offset r5, -20
	.cfi_offset r4, -24
	@DEBUG_VALUE: HAL_I2C_Slave_Receive:hi2c <- $r0
	@DEBUG_VALUE: HAL_I2C_Slave_Receive:pData <- $r1
	@DEBUG_VALUE: HAL_I2C_Slave_Receive:Size <- $r2
	@DEBUG_VALUE: HAL_I2C_Slave_Receive:Timeout <- $r3
	mov	r4, r0
.Ltmp250:
	@DEBUG_VALUE: HAL_I2C_Slave_Receive:tickstart <- 0
	@DEBUG_VALUE: HAL_I2C_Slave_Receive:Timeout <- $r5
	@DEBUG_VALUE: HAL_I2C_Slave_Receive:Size <- $r7
	@DEBUG_VALUE: HAL_I2C_Slave_Receive:pData <- $r6
	@DEBUG_VALUE: HAL_I2C_Slave_Receive:hi2c <- $r4
	.loc	7 1018 12 prologue_end  @ ../Drivers/STM32F7xx_HAL_Driver/Src/stm32f7xx_hal_i2c.c:1018:12
	ldrb.w	r0, [r0, #65]
	mov	r5, r3
.Ltmp251:
	.loc	7 0 12 is_stmt 0        @ ../Drivers/STM32F7xx_HAL_Driver/Src/stm32f7xx_hal_i2c.c:0:12
	mov	r7, r2
.Ltmp252:
	mov	r6, r1
.Ltmp253:
	.loc	7 1018 6                @ ../Drivers/STM32F7xx_HAL_Driver/Src/stm32f7xx_hal_i2c.c:1018:6
	cmp	r0, #32
	bne	.LBB12_4
.Ltmp254:
@ %bb.1:
	@DEBUG_VALUE: HAL_I2C_Slave_Receive:hi2c <- $r4
	.loc	7 0 6                   @ ../Drivers/STM32F7xx_HAL_Driver/Src/stm32f7xx_hal_i2c.c:0:6
	movs	r0, #1
.Ltmp255:
	.loc	7 1020 24 is_stmt 1     @ ../Drivers/STM32F7xx_HAL_Driver/Src/stm32f7xx_hal_i2c.c:1020:24
	cbz	r6, .LBB12_5
.Ltmp256:
@ %bb.2:
	@DEBUG_VALUE: HAL_I2C_Slave_Receive:hi2c <- $r4
	cbz	r7, .LBB12_5
.Ltmp257:
@ %bb.3:
	@DEBUG_VALUE: HAL_I2C_Slave_Receive:hi2c <- $r4
	.loc	7 1025 5                @ ../Drivers/STM32F7xx_HAL_Driver/Src/stm32f7xx_hal_i2c.c:1025:5
	ldrb.w	r0, [r4, #64]
.Ltmp258:
	.loc	7 1025 5 is_stmt 0      @ ../Drivers/STM32F7xx_HAL_Driver/Src/stm32f7xx_hal_i2c.c:1025:5
	cmp	r0, #1
	bne	.LBB12_6
.Ltmp259:
.LBB12_4:
	@DEBUG_VALUE: HAL_I2C_Slave_Receive:hi2c <- $r4
	.loc	7 0 5                   @ ../Drivers/STM32F7xx_HAL_Driver/Src/stm32f7xx_hal_i2c.c:0:5
	movs	r0, #2
.Ltmp260:
.LBB12_5:
	@DEBUG_VALUE: HAL_I2C_Slave_Receive:hi2c <- $r4
	.loc	7 1134 1 is_stmt 1      @ ../Drivers/STM32F7xx_HAL_Driver/Src/stm32f7xx_hal_i2c.c:1134:1
	uxtb	r0, r0
	add	sp, #8
	pop.w	{r4, r5, r6, r7, r8, pc}
.Ltmp261:
.LBB12_6:
	@DEBUG_VALUE: HAL_I2C_Slave_Receive:hi2c <- $r4
	@DEBUG_VALUE: HAL_I2C_Slave_Receive:Size <- $r7
	.loc	7 0 1 is_stmt 0         @ ../Drivers/STM32F7xx_HAL_Driver/Src/stm32f7xx_hal_i2c.c:0:1
	movs	r0, #1
.Ltmp262:
	.loc	7 1025 5 is_stmt 1      @ ../Drivers/STM32F7xx_HAL_Driver/Src/stm32f7xx_hal_i2c.c:1025:5
	strb.w	r0, [r4, #64]
.Ltmp263:
	.loc	7 1028 17               @ ../Drivers/STM32F7xx_HAL_Driver/Src/stm32f7xx_hal_i2c.c:1028:17
	bl	HAL_GetTick
	mov	r8, r0
.Ltmp264:
	@DEBUG_VALUE: HAL_I2C_Slave_Receive:tickstart <- $r8
	.loc	7 1030 21               @ ../Drivers/STM32F7xx_HAL_Driver/Src/stm32f7xx_hal_i2c.c:1030:21
	movs	r0, #34
.Ltmp265:
	.loc	7 1043 8                @ ../Drivers/STM32F7xx_HAL_Driver/Src/stm32f7xx_hal_i2c.c:1043:8
	movs	r2, #0
	mov	r3, r5
.Ltmp266:
	.loc	7 1030 21               @ ../Drivers/STM32F7xx_HAL_Driver/Src/stm32f7xx_hal_i2c.c:1030:21
	strb.w	r0, [r4, #65]
	.loc	7 1031 21               @ ../Drivers/STM32F7xx_HAL_Driver/Src/stm32f7xx_hal_i2c.c:1031:21
	movs	r0, #32
	strb.w	r0, [r4, #66]
	movs	r0, #0
	.loc	7 1032 21               @ ../Drivers/STM32F7xx_HAL_Driver/Src/stm32f7xx_hal_i2c.c:1032:21
	str	r0, [r4, #68]
	.loc	7 1035 21               @ ../Drivers/STM32F7xx_HAL_Driver/Src/stm32f7xx_hal_i2c.c:1035:21
	str	r6, [r4, #36]
	.loc	7 1037 21               @ ../Drivers/STM32F7xx_HAL_Driver/Src/stm32f7xx_hal_i2c.c:1037:21
	str	r0, [r4, #52]
	.loc	7 1036 21               @ ../Drivers/STM32F7xx_HAL_Driver/Src/stm32f7xx_hal_i2c.c:1036:21
	strh	r7, [r4, #42]
.Ltmp267:
	.loc	7 1043 8                @ ../Drivers/STM32F7xx_HAL_Driver/Src/stm32f7xx_hal_i2c.c:1043:8
	movs	r6, #8
.Ltmp268:
	.loc	7 1040 11               @ ../Drivers/STM32F7xx_HAL_Driver/Src/stm32f7xx_hal_i2c.c:1040:11
	ldr	r0, [r4]
	.loc	7 1040 25 is_stmt 0     @ ../Drivers/STM32F7xx_HAL_Driver/Src/stm32f7xx_hal_i2c.c:1040:25
	ldr	r1, [r0, #4]
	bic	r1, r1, #32768
	str	r1, [r0, #4]
.Ltmp269:
	.loc	7 1043 8 is_stmt 1      @ ../Drivers/STM32F7xx_HAL_Driver/Src/stm32f7xx_hal_i2c.c:1043:8
	mov	r0, r4
	movs	r1, #8
	str.w	r8, [sp]
	bl	I2C_WaitOnFlagUntilTimeout
	ldr	r1, [r4]
.Ltmp270:
	.loc	7 1043 8 is_stmt 0      @ ../Drivers/STM32F7xx_HAL_Driver/Src/stm32f7xx_hal_i2c.c:1043:8
	cbz	r0, .LBB12_8
.Ltmp271:
@ %bb.7:
	@DEBUG_VALUE: HAL_I2C_Slave_Receive:tickstart <- $r8
	@DEBUG_VALUE: HAL_I2C_Slave_Receive:hi2c <- $r4
	@DEBUG_VALUE: HAL_I2C_Slave_Receive:Size <- $r7
	.loc	7 1046 27 is_stmt 1     @ ../Drivers/STM32F7xx_HAL_Driver/Src/stm32f7xx_hal_i2c.c:1046:27
	ldr	r0, [r1, #4]
	orr	r0, r0, #32768
	str	r0, [r1, #4]
	b	.LBB12_10
.Ltmp272:
.LBB12_8:
	@DEBUG_VALUE: HAL_I2C_Slave_Receive:tickstart <- $r8
	@DEBUG_VALUE: HAL_I2C_Slave_Receive:hi2c <- $r4
	@DEBUG_VALUE: HAL_I2C_Slave_Receive:Size <- $r7
	.loc	7 1051 5                @ ../Drivers/STM32F7xx_HAL_Driver/Src/stm32f7xx_hal_i2c.c:1051:5
	str	r6, [r1, #28]
.Ltmp273:
	.loc	7 1054 8                @ ../Drivers/STM32F7xx_HAL_Driver/Src/stm32f7xx_hal_i2c.c:1054:8
	mov	r0, r4
	mov.w	r1, #65536
	movs	r2, #1
	mov	r3, r5
	str.w	r8, [sp]
	bl	I2C_WaitOnFlagUntilTimeout
.Ltmp274:
	.loc	7 1054 8 is_stmt 0      @ ../Drivers/STM32F7xx_HAL_Driver/Src/stm32f7xx_hal_i2c.c:1054:8
	cbz	r0, .LBB12_13
.Ltmp275:
@ %bb.9:
	@DEBUG_VALUE: HAL_I2C_Slave_Receive:tickstart <- $r8
	@DEBUG_VALUE: HAL_I2C_Slave_Receive:hi2c <- $r4
	@DEBUG_VALUE: HAL_I2C_Slave_Receive:Size <- $r7
	.loc	7 1057 13 is_stmt 1     @ ../Drivers/STM32F7xx_HAL_Driver/Src/stm32f7xx_hal_i2c.c:1057:13
	ldr	r0, [r4]
	.loc	7 1057 27 is_stmt 0     @ ../Drivers/STM32F7xx_HAL_Driver/Src/stm32f7xx_hal_i2c.c:1057:27
	ldr	r1, [r0, #4]
	orr	r1, r1, #32768
	str	r1, [r0, #4]
.Ltmp276:
.LBB12_10:
	@DEBUG_VALUE: HAL_I2C_Slave_Receive:tickstart <- $r8
	@DEBUG_VALUE: HAL_I2C_Slave_Receive:hi2c <- $r4
	@DEBUG_VALUE: HAL_I2C_Slave_Receive:Size <- $r7
	.loc	7 0 27                  @ ../Drivers/STM32F7xx_HAL_Driver/Src/stm32f7xx_hal_i2c.c:0:27
	movs	r0, #3
	b	.LBB12_5
.Ltmp277:
.LBB12_11:                              @   in Loop: Header=BB12_13 Depth=1
	@DEBUG_VALUE: HAL_I2C_Slave_Receive:tickstart <- $r8
	@DEBUG_VALUE: HAL_I2C_Slave_Receive:hi2c <- $r4
	@DEBUG_VALUE: HAL_I2C_Slave_Receive:Size <- $r7
	.loc	7 1064 10 is_stmt 1     @ ../Drivers/STM32F7xx_HAL_Driver/Src/stm32f7xx_hal_i2c.c:1064:10
	mov	r0, r4
	mov	r1, r5
	mov	r2, r8
	bl	I2C_WaitOnRXNEFlagUntilTimeout
	ldr	r1, [r4]
.Ltmp278:
	.loc	7 1064 10 is_stmt 0     @ ../Drivers/STM32F7xx_HAL_Driver/Src/stm32f7xx_hal_i2c.c:1064:10
	cbnz	r0, .LBB12_16
.Ltmp279:
@ %bb.12:                               @   in Loop: Header=BB12_13 Depth=1
	@DEBUG_VALUE: HAL_I2C_Slave_Receive:tickstart <- $r8
	@DEBUG_VALUE: HAL_I2C_Slave_Receive:hi2c <- $r4
	@DEBUG_VALUE: HAL_I2C_Slave_Receive:Size <- $r7
	.loc	7 1088 45 is_stmt 1     @ ../Drivers/STM32F7xx_HAL_Driver/Src/stm32f7xx_hal_i2c.c:1088:45
	ldr	r0, [r1, #36]
	.loc	7 1088 23 is_stmt 0     @ ../Drivers/STM32F7xx_HAL_Driver/Src/stm32f7xx_hal_i2c.c:1088:23
	ldr	r1, [r4, #36]
	adds	r2, r1, #1
	str	r2, [r4, #36]
	.loc	7 1088 27               @ ../Drivers/STM32F7xx_HAL_Driver/Src/stm32f7xx_hal_i2c.c:1088:27
	strb	r0, [r1]
	.loc	7 1089 22 is_stmt 1     @ ../Drivers/STM32F7xx_HAL_Driver/Src/stm32f7xx_hal_i2c.c:1089:22
	ldrh	r0, [r4, #42]
	subs	r0, #1
	strh	r0, [r4, #42]
.Ltmp280:
.LBB12_13:                              @ =>This Inner Loop Header: Depth=1
	@DEBUG_VALUE: HAL_I2C_Slave_Receive:tickstart <- $r8
	@DEBUG_VALUE: HAL_I2C_Slave_Receive:hi2c <- $r4
	@DEBUG_VALUE: HAL_I2C_Slave_Receive:Size <- $r7
	.loc	7 1061 17               @ ../Drivers/STM32F7xx_HAL_Driver/Src/stm32f7xx_hal_i2c.c:1061:17
	ldrh	r0, [r4, #42]
	.loc	7 1061 5 is_stmt 0      @ ../Drivers/STM32F7xx_HAL_Driver/Src/stm32f7xx_hal_i2c.c:1061:5
	cmp	r0, #0
	bne	.LBB12_11
.Ltmp281:
@ %bb.14:
	@DEBUG_VALUE: HAL_I2C_Slave_Receive:tickstart <- $r8
	@DEBUG_VALUE: HAL_I2C_Slave_Receive:hi2c <- $r4
	@DEBUG_VALUE: HAL_I2C_Slave_Receive:Size <- $r7
	.loc	7 1093 8 is_stmt 1      @ ../Drivers/STM32F7xx_HAL_Driver/Src/stm32f7xx_hal_i2c.c:1093:8
	mov	r0, r4
	mov	r1, r5
	mov	r2, r8
	bl	I2C_WaitOnSTOPFlagUntilTimeout
	ldr	r1, [r4]
.Ltmp282:
	.loc	7 1093 8 is_stmt 0      @ ../Drivers/STM32F7xx_HAL_Driver/Src/stm32f7xx_hal_i2c.c:1093:8
	cbz	r0, .LBB12_19
.Ltmp283:
@ %bb.15:
	@DEBUG_VALUE: HAL_I2C_Slave_Receive:tickstart <- $r8
	@DEBUG_VALUE: HAL_I2C_Slave_Receive:hi2c <- $r4
	@DEBUG_VALUE: HAL_I2C_Slave_Receive:Size <- $r7
	.loc	7 1096 27 is_stmt 1     @ ../Drivers/STM32F7xx_HAL_Driver/Src/stm32f7xx_hal_i2c.c:1096:27
	ldr	r0, [r1, #4]
	orr	r0, r0, #32768
	str	r0, [r1, #4]
	.loc	7 1098 10               @ ../Drivers/STM32F7xx_HAL_Driver/Src/stm32f7xx_hal_i2c.c:1098:10
	movs	r0, #3
.Ltmp284:
	.loc	7 1098 16 is_stmt 0     @ ../Drivers/STM32F7xx_HAL_Driver/Src/stm32f7xx_hal_i2c.c:1098:16
	ldr	r1, [r4, #68]
.Ltmp285:
	.loc	7 1098 10               @ ../Drivers/STM32F7xx_HAL_Driver/Src/stm32f7xx_hal_i2c.c:1098:10
	cmp	r1, #4
	it	eq
	moveq	r0, #1
	b	.LBB12_5
.Ltmp286:
.LBB12_16:
	@DEBUG_VALUE: HAL_I2C_Slave_Receive:tickstart <- $r8
	@DEBUG_VALUE: HAL_I2C_Slave_Receive:hi2c <- $r4
	@DEBUG_VALUE: HAL_I2C_Slave_Receive:Size <- $r7
	.loc	7 1067 29 is_stmt 1     @ ../Drivers/STM32F7xx_HAL_Driver/Src/stm32f7xx_hal_i2c.c:1067:29
	ldr	r0, [r1, #4]
	orr	r0, r0, #32768
	str	r0, [r1, #4]
.Ltmp287:
	.loc	7 1070 12               @ ../Drivers/STM32F7xx_HAL_Driver/Src/stm32f7xx_hal_i2c.c:1070:12
	ldr	r0, [r1, #24]
.Ltmp288:
	.loc	7 1070 12 is_stmt 0     @ ../Drivers/STM32F7xx_HAL_Driver/Src/stm32f7xx_hal_i2c.c:1070:12
	tst.w	r0, #4
	beq	.LBB12_18
.Ltmp289:
@ %bb.17:
	@DEBUG_VALUE: HAL_I2C_Slave_Receive:tickstart <- $r8
	@DEBUG_VALUE: HAL_I2C_Slave_Receive:hi2c <- $r4
	@DEBUG_VALUE: HAL_I2C_Slave_Receive:Size <- $r7
	.loc	7 1073 49 is_stmt 1     @ ../Drivers/STM32F7xx_HAL_Driver/Src/stm32f7xx_hal_i2c.c:1073:49
	ldr	r0, [r1, #36]
	.loc	7 1073 27 is_stmt 0     @ ../Drivers/STM32F7xx_HAL_Driver/Src/stm32f7xx_hal_i2c.c:1073:27
	ldr	r1, [r4, #36]
	adds	r2, r1, #1
	str	r2, [r4, #36]
	.loc	7 1073 31               @ ../Drivers/STM32F7xx_HAL_Driver/Src/stm32f7xx_hal_i2c.c:1073:31
	strb	r0, [r1]
	.loc	7 1074 26 is_stmt 1     @ ../Drivers/STM32F7xx_HAL_Driver/Src/stm32f7xx_hal_i2c.c:1074:26
	ldrh	r0, [r4, #42]
	subs	r0, #1
	strh	r0, [r4, #42]
.Ltmp290:
.LBB12_18:
	@DEBUG_VALUE: HAL_I2C_Slave_Receive:tickstart <- $r8
	@DEBUG_VALUE: HAL_I2C_Slave_Receive:hi2c <- $r4
	@DEBUG_VALUE: HAL_I2C_Slave_Receive:Size <- $r7
	.loc	7 1077 18               @ ../Drivers/STM32F7xx_HAL_Driver/Src/stm32f7xx_hal_i2c.c:1077:18
	ldr	r1, [r4, #68]
	movs	r0, #1
.Ltmp291:
	.loc	7 1077 12 is_stmt 0     @ ../Drivers/STM32F7xx_HAL_Driver/Src/stm32f7xx_hal_i2c.c:1077:12
	cmp	r1, #32
	it	eq
	moveq	r0, #3
	add	sp, #8
	pop.w	{r4, r5, r6, r7, r8, pc}
.Ltmp292:
.LBB12_19:
	@DEBUG_VALUE: HAL_I2C_Slave_Receive:tickstart <- $r8
	@DEBUG_VALUE: HAL_I2C_Slave_Receive:hi2c <- $r4
	@DEBUG_VALUE: HAL_I2C_Slave_Receive:Size <- $r7
	.loc	7 1109 5 is_stmt 1      @ ../Drivers/STM32F7xx_HAL_Driver/Src/stm32f7xx_hal_i2c.c:1109:5
	movs	r6, #32
.Ltmp293:
	.loc	7 1112 8                @ ../Drivers/STM32F7xx_HAL_Driver/Src/stm32f7xx_hal_i2c.c:1112:8
	mov	r0, r4
	movs	r2, #1
	mov	r3, r5
.Ltmp294:
	.loc	7 1109 5                @ ../Drivers/STM32F7xx_HAL_Driver/Src/stm32f7xx_hal_i2c.c:1109:5
	str	r6, [r1, #28]
.Ltmp295:
	.loc	7 1112 8                @ ../Drivers/STM32F7xx_HAL_Driver/Src/stm32f7xx_hal_i2c.c:1112:8
	mov.w	r1, #32768
	str.w	r8, [sp]
	bl	I2C_WaitOnFlagUntilTimeout
	ldr	r1, [r4]
.Ltmp296:
	.loc	7 1112 8 is_stmt 0      @ ../Drivers/STM32F7xx_HAL_Driver/Src/stm32f7xx_hal_i2c.c:1112:8
	cmp	r0, #0
	ldr	r2, [r1, #4]
	orr	r2, r2, #32768
	str	r2, [r1, #4]
	bne	.LBB12_10
.Ltmp297:
@ %bb.20:
	@DEBUG_VALUE: HAL_I2C_Slave_Receive:tickstart <- $r8
	@DEBUG_VALUE: HAL_I2C_Slave_Receive:hi2c <- $r4
	@DEBUG_VALUE: HAL_I2C_Slave_Receive:Size <- $r7
	.loc	7 0 8                   @ ../Drivers/STM32F7xx_HAL_Driver/Src/stm32f7xx_hal_i2c.c:0:8
	movs	r0, #0
	.loc	7 1122 17 is_stmt 1     @ ../Drivers/STM32F7xx_HAL_Driver/Src/stm32f7xx_hal_i2c.c:1122:17
	strb.w	r6, [r4, #65]
.Ltmp298:
	.loc	7 1126 5                @ ../Drivers/STM32F7xx_HAL_Driver/Src/stm32f7xx_hal_i2c.c:1126:5
	strb.w	r0, [r4, #64]
.Ltmp299:
	.loc	7 1123 17               @ ../Drivers/STM32F7xx_HAL_Driver/Src/stm32f7xx_hal_i2c.c:1123:17
	strb.w	r0, [r4, #66]
	b	.LBB12_5
.Ltmp300:
.Lfunc_end12:
	.size	HAL_I2C_Slave_Receive, .Lfunc_end12-HAL_I2C_Slave_Receive
	.cfi_endproc
	.cantunwind
	.fnend
                                        @ -- End function
	.section	.text.HAL_I2C_Master_Transmit_IT,"ax",%progbits
	.hidden	HAL_I2C_Master_Transmit_IT @ -- Begin function HAL_I2C_Master_Transmit_IT
	.globl	HAL_I2C_Master_Transmit_IT
	.p2align	2
	.type	HAL_I2C_Master_Transmit_IT,%function
	.code	16                      @ @HAL_I2C_Master_Transmit_IT
	.thumb_func
HAL_I2C_Master_Transmit_IT:
.Lfunc_begin13:
	.loc	7 1147 0                @ ../Drivers/STM32F7xx_HAL_Driver/Src/stm32f7xx_hal_i2c.c:1147:0
	.fnstart
	.cfi_startproc
@ %bb.0:
	.save	{r4, r5, r7, lr}
	.pad	#8
	push	{r2, r3, r4, r5, r7, lr}
	.cfi_def_cfa_offset 24
	.cfi_offset lr, -4
	.cfi_offset r7, -8
	.cfi_offset r5, -12
	.cfi_offset r4, -16
	@DEBUG_VALUE: HAL_I2C_Master_Transmit_IT:hi2c <- $r0
	@DEBUG_VALUE: HAL_I2C_Master_Transmit_IT:DevAddress <- $r1
	@DEBUG_VALUE: HAL_I2C_Master_Transmit_IT:pData <- $r2
	@DEBUG_VALUE: HAL_I2C_Master_Transmit_IT:Size <- $r3
	mov	r4, r0
.Ltmp301:
	@DEBUG_VALUE: HAL_I2C_Master_Transmit_IT:xfermode <- 0
	@DEBUG_VALUE: HAL_I2C_Master_Transmit_IT:Size <- $r3
	@DEBUG_VALUE: HAL_I2C_Master_Transmit_IT:pData <- $r2
	@DEBUG_VALUE: HAL_I2C_Master_Transmit_IT:DevAddress <- $r1
	@DEBUG_VALUE: HAL_I2C_Master_Transmit_IT:hi2c <- $r4
	.loc	7 1150 12 prologue_end  @ ../Drivers/STM32F7xx_HAL_Driver/Src/stm32f7xx_hal_i2c.c:1150:12
	ldrb.w	r0, [r0, #65]
.Ltmp302:
	.loc	7 1150 6 is_stmt 0      @ ../Drivers/STM32F7xx_HAL_Driver/Src/stm32f7xx_hal_i2c.c:1150:6
	cmp	r0, #32
	bne	.LBB13_3
.Ltmp303:
@ %bb.1:
	@DEBUG_VALUE: HAL_I2C_Master_Transmit_IT:hi2c <- $r4
	@DEBUG_VALUE: HAL_I2C_Master_Transmit_IT:Size <- $r3
	@DEBUG_VALUE: HAL_I2C_Master_Transmit_IT:pData <- $r2
	@DEBUG_VALUE: HAL_I2C_Master_Transmit_IT:DevAddress <- $r1
	.loc	7 1152 8 is_stmt 1      @ ../Drivers/STM32F7xx_HAL_Driver/Src/stm32f7xx_hal_i2c.c:1152:8
	ldr	r0, [r4]
	ldr	r0, [r0, #24]
.Ltmp304:
	.loc	7 1152 8 is_stmt 0      @ ../Drivers/STM32F7xx_HAL_Driver/Src/stm32f7xx_hal_i2c.c:1152:8
	tst.w	r0, #32768
	bne	.LBB13_3
.Ltmp305:
@ %bb.2:
	@DEBUG_VALUE: HAL_I2C_Master_Transmit_IT:hi2c <- $r4
	@DEBUG_VALUE: HAL_I2C_Master_Transmit_IT:Size <- $r3
	@DEBUG_VALUE: HAL_I2C_Master_Transmit_IT:pData <- $r2
	@DEBUG_VALUE: HAL_I2C_Master_Transmit_IT:DevAddress <- $r1
	.loc	7 1158 5 is_stmt 1      @ ../Drivers/STM32F7xx_HAL_Driver/Src/stm32f7xx_hal_i2c.c:1158:5
	ldrb.w	r0, [r4, #64]
.Ltmp306:
	.loc	7 1158 5 is_stmt 0      @ ../Drivers/STM32F7xx_HAL_Driver/Src/stm32f7xx_hal_i2c.c:1158:5
	cmp	r0, #1
	bne	.LBB13_5
.Ltmp307:
.LBB13_3:
	@DEBUG_VALUE: HAL_I2C_Master_Transmit_IT:hi2c <- $r4
	@DEBUG_VALUE: HAL_I2C_Master_Transmit_IT:Size <- $r3
	@DEBUG_VALUE: HAL_I2C_Master_Transmit_IT:pData <- $r2
	@DEBUG_VALUE: HAL_I2C_Master_Transmit_IT:DevAddress <- $r1
	.loc	7 0 5                   @ ../Drivers/STM32F7xx_HAL_Driver/Src/stm32f7xx_hal_i2c.c:0:5
	movs	r5, #2
.Ltmp308:
.LBB13_4:
	@DEBUG_VALUE: HAL_I2C_Master_Transmit_IT:hi2c <- $r4
	.loc	7 1203 1 is_stmt 1      @ ../Drivers/STM32F7xx_HAL_Driver/Src/stm32f7xx_hal_i2c.c:1203:1
	uxtb	r0, r5
	add	sp, #8
	pop	{r4, r5, r7, pc}
.Ltmp309:
.LBB13_5:
	@DEBUG_VALUE: HAL_I2C_Master_Transmit_IT:hi2c <- $r4
	@DEBUG_VALUE: HAL_I2C_Master_Transmit_IT:Size <- $r3
	@DEBUG_VALUE: HAL_I2C_Master_Transmit_IT:pData <- $r2
	@DEBUG_VALUE: HAL_I2C_Master_Transmit_IT:DevAddress <- $r1
	@DEBUG_VALUE: HAL_I2C_Master_Transmit_IT:DevAddress <- $r1
	@DEBUG_VALUE: HAL_I2C_Master_Transmit_IT:Size <- $r3
	.loc	7 1160 23               @ ../Drivers/STM32F7xx_HAL_Driver/Src/stm32f7xx_hal_i2c.c:1160:23
	movs	r0, #33
	movs	r5, #0
	strb.w	r0, [r4, #65]
	.loc	7 1161 23               @ ../Drivers/STM32F7xx_HAL_Driver/Src/stm32f7xx_hal_i2c.c:1161:23
	movs	r0, #16
	strb.w	r0, [r4, #66]
	.loc	7 1167 23               @ ../Drivers/STM32F7xx_HAL_Driver/Src/stm32f7xx_hal_i2c.c:1167:23
	ldr	r0, __arm_cp.13_0
	.loc	7 1162 23               @ ../Drivers/STM32F7xx_HAL_Driver/Src/stm32f7xx_hal_i2c.c:1162:23
	str	r5, [r4, #68]
	.loc	7 1166 23               @ ../Drivers/STM32F7xx_HAL_Driver/Src/stm32f7xx_hal_i2c.c:1166:23
	strh	r3, [r4, #42]
	.loc	7 1167 23               @ ../Drivers/STM32F7xx_HAL_Driver/Src/stm32f7xx_hal_i2c.c:1167:23
	str	r0, [r4, #44]
	movs	r0, #1
.Ltmp310:
	.loc	7 1158 5                @ ../Drivers/STM32F7xx_HAL_Driver/Src/stm32f7xx_hal_i2c.c:1158:5
	strb.w	r0, [r4, #64]
.Ltmp311:
	.loc	7 1168 23               @ ../Drivers/STM32F7xx_HAL_Driver/Src/stm32f7xx_hal_i2c.c:1168:23
	ldr	r0, __arm_cp.13_1
	.loc	7 1165 23               @ ../Drivers/STM32F7xx_HAL_Driver/Src/stm32f7xx_hal_i2c.c:1165:23
	str	r2, [r4, #36]
	.loc	7 1168 23               @ ../Drivers/STM32F7xx_HAL_Driver/Src/stm32f7xx_hal_i2c.c:1168:23
	str	r0, [r4, #52]
.Ltmp312:
	.loc	7 1170 14               @ ../Drivers/STM32F7xx_HAL_Driver/Src/stm32f7xx_hal_i2c.c:1170:14
	ldrh	r0, [r4, #42]
.Ltmp313:
	.loc	7 1170 8 is_stmt 0      @ ../Drivers/STM32F7xx_HAL_Driver/Src/stm32f7xx_hal_i2c.c:1170:8
	cmp	r0, #255
	bls	.LBB13_7
.Ltmp314:
@ %bb.6:
	@DEBUG_VALUE: HAL_I2C_Master_Transmit_IT:hi2c <- $r4
	@DEBUG_VALUE: HAL_I2C_Master_Transmit_IT:Size <- $r3
	@DEBUG_VALUE: HAL_I2C_Master_Transmit_IT:pData <- $r2
	@DEBUG_VALUE: HAL_I2C_Master_Transmit_IT:DevAddress <- $r1
	.loc	7 0 8                   @ ../Drivers/STM32F7xx_HAL_Driver/Src/stm32f7xx_hal_i2c.c:0:8
	mov.w	r3, #16777216
.Ltmp315:
	movs	r0, #255
	b	.LBB13_8
.Ltmp316:
.LBB13_7:
	@DEBUG_VALUE: HAL_I2C_Master_Transmit_IT:hi2c <- $r4
	@DEBUG_VALUE: HAL_I2C_Master_Transmit_IT:Size <- $r3
	@DEBUG_VALUE: HAL_I2C_Master_Transmit_IT:pData <- $r2
	@DEBUG_VALUE: HAL_I2C_Master_Transmit_IT:DevAddress <- $r1
	.loc	7 1177 30 is_stmt 1     @ ../Drivers/STM32F7xx_HAL_Driver/Src/stm32f7xx_hal_i2c.c:1177:30
	ldrh	r0, [r4, #42]
	mov.w	r3, #33554432
.Ltmp317:
	@DEBUG_VALUE: HAL_I2C_Master_Transmit_IT:xfermode <- 33554432
.LBB13_8:
	@DEBUG_VALUE: HAL_I2C_Master_Transmit_IT:hi2c <- $r4
	@DEBUG_VALUE: HAL_I2C_Master_Transmit_IT:pData <- $r2
	@DEBUG_VALUE: HAL_I2C_Master_Transmit_IT:DevAddress <- $r1
	.loc	7 1183 5                @ ../Drivers/STM32F7xx_HAL_Driver/Src/stm32f7xx_hal_i2c.c:1183:5
	mov.w	r2, #8192
.Ltmp318:
	.loc	7 1177 22               @ ../Drivers/STM32F7xx_HAL_Driver/Src/stm32f7xx_hal_i2c.c:1177:22
	strh	r0, [r4, #40]
.Ltmp319:
	.loc	7 1183 5                @ ../Drivers/STM32F7xx_HAL_Driver/Src/stm32f7xx_hal_i2c.c:1183:5
	str	r2, [sp]
	uxtb	r2, r0
.Ltmp320:
	@DEBUG_VALUE: HAL_I2C_Master_Transmit_IT:xfermode <- $r3
	mov	r0, r4
	bl	I2C_TransferConfig
.Ltmp321:
	.loc	7 1195 5                @ ../Drivers/STM32F7xx_HAL_Driver/Src/stm32f7xx_hal_i2c.c:1195:5
	mov	r0, r4
	movs	r1, #1
.Ltmp322:
	.loc	7 1186 5                @ ../Drivers/STM32F7xx_HAL_Driver/Src/stm32f7xx_hal_i2c.c:1186:5
	strb.w	r5, [r4, #64]
.Ltmp323:
	.loc	7 1195 5                @ ../Drivers/STM32F7xx_HAL_Driver/Src/stm32f7xx_hal_i2c.c:1195:5
	bl	I2C_Enable_IRQ
	b	.LBB13_4
.Ltmp324:
	.p2align	2
@ %bb.9:
	.loc	7 0 5 is_stmt 0         @ ../Drivers/STM32F7xx_HAL_Driver/Src/stm32f7xx_hal_i2c.c:0:5
__arm_cp.13_0:
	.long	4294901760              @ 0xffff0000
.Lcpi_end5:
	.size	__arm_cp.13_0, .Lcpi_end5-__arm_cp.13_0
__arm_cp.13_1:
	.long	I2C_Master_ISR_IT
.Lcpi_end6:
	.size	__arm_cp.13_1, .Lcpi_end6-__arm_cp.13_1
.Lfunc_end13:
	.size	HAL_I2C_Master_Transmit_IT, .Lfunc_end13-HAL_I2C_Master_Transmit_IT
	.cfi_endproc
	.cantunwind
	.fnend
                                        @ -- End function
	.section	.text.I2C_Master_ISR_IT,"ax",%progbits
	.p2align	1               @ -- Begin function I2C_Master_ISR_IT
	.type	I2C_Master_ISR_IT,%function
	.code	16                      @ @I2C_Master_ISR_IT
	.thumb_func
I2C_Master_ISR_IT:
.Lfunc_begin14:
	.loc	7 3262 0 is_stmt 1      @ ../Drivers/STM32F7xx_HAL_Driver/Src/stm32f7xx_hal_i2c.c:3262:0
	.fnstart
	.cfi_startproc
@ %bb.0:
	.save	{r4, r5, r6, lr}
	.pad	#8
	push	{r2, r3, r4, r5, r6, lr}
	.cfi_def_cfa_offset 24
	.cfi_offset lr, -4
	.cfi_offset r6, -8
	.cfi_offset r5, -12
	.cfi_offset r4, -16
	@DEBUG_VALUE: I2C_Master_ISR_IT:hi2c <- $r0
	@DEBUG_VALUE: I2C_Master_ISR_IT:ITFlags <- $r1
	@DEBUG_VALUE: I2C_Master_ISR_IT:ITSources <- $r2
	mov	r4, r0
.Ltmp325:
	@DEBUG_VALUE: I2C_Master_ISR_IT:devaddress <- 0
	@DEBUG_VALUE: I2C_Master_ISR_IT:ITSources <- $r2
	@DEBUG_VALUE: I2C_Master_ISR_IT:ITFlags <- $r5
	@DEBUG_VALUE: I2C_Master_ISR_IT:hi2c <- $r4
	.loc	7 3266 3 prologue_end   @ ../Drivers/STM32F7xx_HAL_Driver/Src/stm32f7xx_hal_i2c.c:3266:3
	ldrb.w	r0, [r0, #64]
	mov	r5, r1
.Ltmp326:
	.loc	7 3266 3 is_stmt 0      @ ../Drivers/STM32F7xx_HAL_Driver/Src/stm32f7xx_hal_i2c.c:3266:3
	cmp	r0, #1
	bne	.LBB14_2
.Ltmp327:
@ %bb.1:
	@DEBUG_VALUE: I2C_Master_ISR_IT:hi2c <- $r4
	@DEBUG_VALUE: I2C_Master_ISR_IT:ITSources <- $r2
	.loc	7 0 3                   @ ../Drivers/STM32F7xx_HAL_Driver/Src/stm32f7xx_hal_i2c.c:0:3
	movs	r0, #2
	b	.LBB14_17
.Ltmp328:
.LBB14_2:
	@DEBUG_VALUE: I2C_Master_ISR_IT:hi2c <- $r4
	@DEBUG_VALUE: I2C_Master_ISR_IT:ITSources <- $r2
	.loc	7 3268 41 is_stmt 1     @ ../Drivers/STM32F7xx_HAL_Driver/Src/stm32f7xx_hal_i2c.c:3268:41
	and.w	r6, r2, r5
.Ltmp329:
	.loc	7 3266 3                @ ../Drivers/STM32F7xx_HAL_Driver/Src/stm32f7xx_hal_i2c.c:3266:3
	movs	r0, #1
.Ltmp330:
	.loc	7 3268 41               @ ../Drivers/STM32F7xx_HAL_Driver/Src/stm32f7xx_hal_i2c.c:3268:41
	tst.w	r6, #16
.Ltmp331:
	.loc	7 3266 3                @ ../Drivers/STM32F7xx_HAL_Driver/Src/stm32f7xx_hal_i2c.c:3266:3
	strb.w	r0, [r4, #64]
.Ltmp332:
	.loc	7 3268 41               @ ../Drivers/STM32F7xx_HAL_Driver/Src/stm32f7xx_hal_i2c.c:3268:41
	bne	.LBB14_10
.Ltmp333:
@ %bb.3:
	@DEBUG_VALUE: I2C_Master_ISR_IT:hi2c <- $r4
	@DEBUG_VALUE: I2C_Master_ISR_IT:ITSources <- $r2
	.loc	7 3281 48               @ ../Drivers/STM32F7xx_HAL_Driver/Src/stm32f7xx_hal_i2c.c:3281:48
	lsls	r0, r6, #29
	bmi	.LBB14_11
.Ltmp334:
@ %bb.4:
	@DEBUG_VALUE: I2C_Master_ISR_IT:hi2c <- $r4
	@DEBUG_VALUE: I2C_Master_ISR_IT:ITSources <- $r2
	.loc	7 3288 48               @ ../Drivers/STM32F7xx_HAL_Driver/Src/stm32f7xx_hal_i2c.c:3288:48
	lsls	r0, r6, #30
	bmi	.LBB14_12
.Ltmp335:
@ %bb.5:
	@DEBUG_VALUE: I2C_Master_ISR_IT:hi2c <- $r4
	@DEBUG_VALUE: I2C_Master_ISR_IT:ITSources <- $r2
	.loc	7 3295 47               @ ../Drivers/STM32F7xx_HAL_Driver/Src/stm32f7xx_hal_i2c.c:3295:47
	lsls	r0, r5, #24
	bpl	.LBB14_18
.Ltmp336:
@ %bb.6:
	@DEBUG_VALUE: I2C_Master_ISR_IT:hi2c <- $r4
	@DEBUG_VALUE: I2C_Master_ISR_IT:ITSources <- $r2
	.loc	7 0 47 is_stmt 0        @ ../Drivers/STM32F7xx_HAL_Driver/Src/stm32f7xx_hal_i2c.c:0:47
	ands	r0, r2, #64
	.loc	7 3295 47               @ ../Drivers/STM32F7xx_HAL_Driver/Src/stm32f7xx_hal_i2c.c:3295:47
	beq	.LBB14_18
.Ltmp337:
@ %bb.7:
	@DEBUG_VALUE: I2C_Master_ISR_IT:hi2c <- $r4
	@DEBUG_VALUE: I2C_Master_ISR_IT:ITSources <- $r2
	.loc	7 3297 15 is_stmt 1     @ ../Drivers/STM32F7xx_HAL_Driver/Src/stm32f7xx_hal_i2c.c:3297:15
	ldrh	r0, [r4, #40]
	.loc	7 3297 31 is_stmt 0     @ ../Drivers/STM32F7xx_HAL_Driver/Src/stm32f7xx_hal_i2c.c:3297:31
	cbz	r0, .LBB14_21
.Ltmp338:
.LBB14_8:
	@DEBUG_VALUE: I2C_Master_ISR_IT:hi2c <- $r4
	@DEBUG_VALUE: I2C_Master_ISR_IT:ITSources <- $r2
	.loc	7 3322 10 is_stmt 1     @ ../Drivers/STM32F7xx_HAL_Driver/Src/stm32f7xx_hal_i2c.c:3322:10
	ldr	r0, [r4]
	ldr	r0, [r0, #4]
.Ltmp339:
	.loc	7 3322 10 is_stmt 0     @ ../Drivers/STM32F7xx_HAL_Driver/Src/stm32f7xx_hal_i2c.c:3322:10
	tst.w	r0, #33554432
	bne	.LBB14_20
.Ltmp340:
.LBB14_9:
	@DEBUG_VALUE: I2C_Master_ISR_IT:hi2c <- $r4
	@DEBUG_VALUE: I2C_Master_ISR_IT:ITSources <- $r2
	.loc	7 0 10                  @ ../Drivers/STM32F7xx_HAL_Driver/Src/stm32f7xx_hal_i2c.c:0:10
	mov	r0, r4
	bl	I2C_ITMasterSequentialCplt
.Ltmp341:
	b	.LBB14_14
.Ltmp342:
.LBB14_10:
	@DEBUG_VALUE: I2C_Master_ISR_IT:hi2c <- $r4
	@DEBUG_VALUE: I2C_Master_ISR_IT:ITSources <- $r2
	.loc	7 3271 5 is_stmt 1      @ ../Drivers/STM32F7xx_HAL_Driver/Src/stm32f7xx_hal_i2c.c:3271:5
	ldr	r0, [r4]
	movs	r1, #16
	str	r1, [r0, #28]
	.loc	7 3276 21               @ ../Drivers/STM32F7xx_HAL_Driver/Src/stm32f7xx_hal_i2c.c:3276:21
	ldr	r0, [r4, #68]
	orr	r0, r0, #4
	str	r0, [r4, #68]
	.loc	7 3279 5                @ ../Drivers/STM32F7xx_HAL_Driver/Src/stm32f7xx_hal_i2c.c:3279:5
	mov	r0, r4
	bl	I2C_Flush_TXDR
.Ltmp343:
	.loc	7 0 5 is_stmt 0         @ ../Drivers/STM32F7xx_HAL_Driver/Src/stm32f7xx_hal_i2c.c:0:5
	b	.LBB14_14
.Ltmp344:
.LBB14_11:
	@DEBUG_VALUE: I2C_Master_ISR_IT:hi2c <- $r4
	@DEBUG_VALUE: I2C_Master_ISR_IT:ITSources <- $r2
	.loc	7 3284 33 is_stmt 1     @ ../Drivers/STM32F7xx_HAL_Driver/Src/stm32f7xx_hal_i2c.c:3284:33
	ldr	r0, [r4]
	.loc	7 3284 43 is_stmt 0     @ ../Drivers/STM32F7xx_HAL_Driver/Src/stm32f7xx_hal_i2c.c:3284:43
	ldr	r0, [r0, #36]
	.loc	7 3284 21               @ ../Drivers/STM32F7xx_HAL_Driver/Src/stm32f7xx_hal_i2c.c:3284:21
	ldr	r1, [r4, #36]
	adds	r2, r1, #1
.Ltmp345:
	str	r2, [r4, #36]
	.loc	7 3284 25               @ ../Drivers/STM32F7xx_HAL_Driver/Src/stm32f7xx_hal_i2c.c:3284:25
	strb	r0, [r1]
	b	.LBB14_13
.Ltmp346:
.LBB14_12:
	@DEBUG_VALUE: I2C_Master_ISR_IT:hi2c <- $r4
	@DEBUG_VALUE: I2C_Master_ISR_IT:ITSources <- $r2
	.loc	7 3291 44 is_stmt 1     @ ../Drivers/STM32F7xx_HAL_Driver/Src/stm32f7xx_hal_i2c.c:3291:44
	ldr	r1, [r4, #36]
	.loc	7 3291 11 is_stmt 0     @ ../Drivers/STM32F7xx_HAL_Driver/Src/stm32f7xx_hal_i2c.c:3291:11
	ldr	r0, [r4]
	.loc	7 3291 44               @ ../Drivers/STM32F7xx_HAL_Driver/Src/stm32f7xx_hal_i2c.c:3291:44
	adds	r2, r1, #1
.Ltmp347:
	str	r2, [r4, #36]
	.loc	7 3291 28               @ ../Drivers/STM32F7xx_HAL_Driver/Src/stm32f7xx_hal_i2c.c:3291:28
	ldrb	r1, [r1]
	.loc	7 3291 26               @ ../Drivers/STM32F7xx_HAL_Driver/Src/stm32f7xx_hal_i2c.c:3291:26
	str	r1, [r0, #40]
.Ltmp348:
.LBB14_13:
	@DEBUG_VALUE: I2C_Master_ISR_IT:hi2c <- $r4
	.loc	7 0 26                  @ ../Drivers/STM32F7xx_HAL_Driver/Src/stm32f7xx_hal_i2c.c:0:26
	ldrh	r0, [r4, #40]
	subs	r0, #1
	strh	r0, [r4, #40]
	ldrh	r0, [r4, #42]
	subs	r0, #1
	strh	r0, [r4, #42]
.Ltmp349:
.LBB14_14:
	@DEBUG_VALUE: I2C_Master_ISR_IT:hi2c <- $r4
	.loc	7 3362 44 is_stmt 1     @ ../Drivers/STM32F7xx_HAL_Driver/Src/stm32f7xx_hal_i2c.c:3362:44
	lsls	r0, r6, #26
	bpl	.LBB14_16
.Ltmp350:
@ %bb.15:
	@DEBUG_VALUE: I2C_Master_ISR_IT:hi2c <- $r4
	.loc	7 3365 5                @ ../Drivers/STM32F7xx_HAL_Driver/Src/stm32f7xx_hal_i2c.c:3365:5
	mov	r0, r4
	mov	r1, r5
	bl	I2C_ITMasterCplt
.Ltmp351:
.LBB14_16:
	@DEBUG_VALUE: I2C_Master_ISR_IT:hi2c <- $r4
	.loc	7 0 5 is_stmt 0         @ ../Drivers/STM32F7xx_HAL_Driver/Src/stm32f7xx_hal_i2c.c:0:5
	movs	r0, #0
.Ltmp352:
	.loc	7 3369 3 is_stmt 1      @ ../Drivers/STM32F7xx_HAL_Driver/Src/stm32f7xx_hal_i2c.c:3369:3
	strb.w	r0, [r4, #64]
.Ltmp353:
.LBB14_17:
	@DEBUG_VALUE: I2C_Master_ISR_IT:hi2c <- $r4
	.loc	7 3372 1                @ ../Drivers/STM32F7xx_HAL_Driver/Src/stm32f7xx_hal_i2c.c:3372:1
	uxtb	r0, r0
	add	sp, #8
	pop	{r4, r5, r6, pc}
.Ltmp354:
.LBB14_18:
	@DEBUG_VALUE: I2C_Master_ISR_IT:hi2c <- $r4
	@DEBUG_VALUE: I2C_Master_ISR_IT:ITSources <- $r2
	.loc	7 3335 46               @ ../Drivers/STM32F7xx_HAL_Driver/Src/stm32f7xx_hal_i2c.c:3335:46
	lsls	r0, r6, #25
	bpl	.LBB14_14
.Ltmp355:
@ %bb.19:
	@DEBUG_VALUE: I2C_Master_ISR_IT:hi2c <- $r4
	@DEBUG_VALUE: I2C_Master_ISR_IT:ITSources <- $r2
	.loc	7 3337 14               @ ../Drivers/STM32F7xx_HAL_Driver/Src/stm32f7xx_hal_i2c.c:3337:14
	ldrh	r0, [r4, #42]
.Ltmp356:
	.loc	7 3337 8 is_stmt 0      @ ../Drivers/STM32F7xx_HAL_Driver/Src/stm32f7xx_hal_i2c.c:3337:8
	cbz	r0, .LBB14_24
.Ltmp357:
.LBB14_20:
	@DEBUG_VALUE: I2C_Master_ISR_IT:hi2c <- $r4
	@DEBUG_VALUE: I2C_Master_ISR_IT:ITSources <- $r2
	.loc	7 0 8                   @ ../Drivers/STM32F7xx_HAL_Driver/Src/stm32f7xx_hal_i2c.c:0:8
	mov	r0, r4
	movs	r1, #64
	bl	I2C_ITError
.Ltmp358:
	b	.LBB14_14
.Ltmp359:
.LBB14_21:
	@DEBUG_VALUE: I2C_Master_ISR_IT:hi2c <- $r4
	@DEBUG_VALUE: I2C_Master_ISR_IT:ITSources <- $r2
	.loc	7 3297 41 is_stmt 1     @ ../Drivers/STM32F7xx_HAL_Driver/Src/stm32f7xx_hal_i2c.c:3297:41
	ldrh	r0, [r4, #42]
.Ltmp360:
	.loc	7 3297 8 is_stmt 0      @ ../Drivers/STM32F7xx_HAL_Driver/Src/stm32f7xx_hal_i2c.c:3297:8
	cmp	r0, #0
	beq	.LBB14_8
.Ltmp361:
@ %bb.22:
	@DEBUG_VALUE: I2C_Master_ISR_IT:hi2c <- $r4
	@DEBUG_VALUE: I2C_Master_ISR_IT:ITSources <- $r2
	.loc	7 3299 27 is_stmt 1     @ ../Drivers/STM32F7xx_HAL_Driver/Src/stm32f7xx_hal_i2c.c:3299:27
	ldr	r0, [r4]
	.loc	7 3299 37 is_stmt 0     @ ../Drivers/STM32F7xx_HAL_Driver/Src/stm32f7xx_hal_i2c.c:3299:37
	ldr	r0, [r0, #4]
.Ltmp362:
	.loc	7 3301 16 is_stmt 1     @ ../Drivers/STM32F7xx_HAL_Driver/Src/stm32f7xx_hal_i2c.c:3301:16
	ldrh	r1, [r4, #42]
.Ltmp363:
	.loc	7 3299 20               @ ../Drivers/STM32F7xx_HAL_Driver/Src/stm32f7xx_hal_i2c.c:3299:20
	bfc	r0, #10, #22
	.loc	7 3301 10               @ ../Drivers/STM32F7xx_HAL_Driver/Src/stm32f7xx_hal_i2c.c:3301:10
	cmp.w	r1, #256
	blo	.LBB14_27
.Ltmp364:
@ %bb.23:
	@DEBUG_VALUE: I2C_Master_ISR_IT:hi2c <- $r4
	@DEBUG_VALUE: I2C_Master_ISR_IT:ITSources <- $r2
	.loc	7 0 10 is_stmt 0        @ ../Drivers/STM32F7xx_HAL_Driver/Src/stm32f7xx_hal_i2c.c:0:10
	movs	r1, #255
.Ltmp365:
	.loc	7 3304 9 is_stmt 1      @ ../Drivers/STM32F7xx_HAL_Driver/Src/stm32f7xx_hal_i2c.c:3304:9
	movs	r2, #255
.Ltmp366:
	mov.w	r3, #16777216
	.loc	7 3303 24               @ ../Drivers/STM32F7xx_HAL_Driver/Src/stm32f7xx_hal_i2c.c:3303:24
	strh	r1, [r4, #40]
	movs	r1, #0
	b	.LBB14_30
.Ltmp367:
.LBB14_24:
	@DEBUG_VALUE: I2C_Master_ISR_IT:hi2c <- $r4
	@DEBUG_VALUE: I2C_Master_ISR_IT:ITSources <- $r2
	.loc	7 3339 10               @ ../Drivers/STM32F7xx_HAL_Driver/Src/stm32f7xx_hal_i2c.c:3339:10
	ldr	r0, [r4]
	ldr	r1, [r0, #4]
.Ltmp368:
	.loc	7 3339 10 is_stmt 0     @ ../Drivers/STM32F7xx_HAL_Driver/Src/stm32f7xx_hal_i2c.c:3339:10
	tst.w	r1, #33554432
	bne	.LBB14_14
.Ltmp369:
@ %bb.25:
	@DEBUG_VALUE: I2C_Master_ISR_IT:hi2c <- $r4
	@DEBUG_VALUE: I2C_Master_ISR_IT:ITSources <- $r2
	.loc	7 3342 18 is_stmt 1     @ ../Drivers/STM32F7xx_HAL_Driver/Src/stm32f7xx_hal_i2c.c:3342:18
	ldr	r1, [r4, #44]
.Ltmp370:
	.loc	7 3342 12 is_stmt 0     @ ../Drivers/STM32F7xx_HAL_Driver/Src/stm32f7xx_hal_i2c.c:3342:12
	cmn.w	r1, #65536
	bne	.LBB14_9
.Ltmp371:
@ %bb.26:
	@DEBUG_VALUE: I2C_Master_ISR_IT:hi2c <- $r4
	@DEBUG_VALUE: I2C_Master_ISR_IT:ITSources <- $r2
	.loc	7 3345 31 is_stmt 1     @ ../Drivers/STM32F7xx_HAL_Driver/Src/stm32f7xx_hal_i2c.c:3345:31
	ldr	r1, [r0, #4]
	orr	r1, r1, #16384
	str	r1, [r0, #4]
	b	.LBB14_14
.Ltmp372:
.LBB14_27:
	@DEBUG_VALUE: I2C_Master_ISR_IT:hi2c <- $r4
	@DEBUG_VALUE: I2C_Master_ISR_IT:ITSources <- $r2
	.loc	7 3308 32               @ ../Drivers/STM32F7xx_HAL_Driver/Src/stm32f7xx_hal_i2c.c:3308:32
	ldrh	r2, [r4, #42]
.Ltmp373:
	.loc	7 3308 24 is_stmt 0     @ ../Drivers/STM32F7xx_HAL_Driver/Src/stm32f7xx_hal_i2c.c:3308:24
	strh	r2, [r4, #40]
.Ltmp374:
	.loc	7 3309 18 is_stmt 1     @ ../Drivers/STM32F7xx_HAL_Driver/Src/stm32f7xx_hal_i2c.c:3309:18
	ldr	r1, [r4, #44]
.Ltmp375:
	.loc	7 3309 12 is_stmt 0     @ ../Drivers/STM32F7xx_HAL_Driver/Src/stm32f7xx_hal_i2c.c:3309:12
	cmn.w	r1, #65536
	bne	.LBB14_29
.Ltmp376:
@ %bb.28:
	@DEBUG_VALUE: I2C_Master_ISR_IT:hi2c <- $r4
	.loc	7 3315 11 is_stmt 1     @ ../Drivers/STM32F7xx_HAL_Driver/Src/stm32f7xx_hal_i2c.c:3315:11
	movs	r1, #0
	uxtb	r2, r2
	mov.w	r3, #33554432
	b	.LBB14_30
.Ltmp377:
.LBB14_29:
	@DEBUG_VALUE: I2C_Master_ISR_IT:hi2c <- $r4
	.loc	7 3311 70               @ ../Drivers/STM32F7xx_HAL_Driver/Src/stm32f7xx_hal_i2c.c:3311:70
	ldr	r3, [r4, #44]
	movs	r1, #0
	.loc	7 3311 11 is_stmt 0     @ ../Drivers/STM32F7xx_HAL_Driver/Src/stm32f7xx_hal_i2c.c:3311:11
	uxtb	r2, r2
.Ltmp378:
.LBB14_30:
	@DEBUG_VALUE: I2C_Master_ISR_IT:hi2c <- $r4
	.loc	7 0 11                  @ ../Drivers/STM32F7xx_HAL_Driver/Src/stm32f7xx_hal_i2c.c:0:11
	str	r1, [sp]
	uxth	r1, r0
	mov	r0, r4
	bl	I2C_TransferConfig
	b	.LBB14_14
.Lfunc_end14:
	.size	I2C_Master_ISR_IT, .Lfunc_end14-I2C_Master_ISR_IT
	.cfi_endproc
	.cantunwind
	.fnend
                                        @ -- End function
	.section	.text.I2C_Enable_IRQ,"ax",%progbits
	.p2align	2               @ -- Begin function I2C_Enable_IRQ
	.type	I2C_Enable_IRQ,%function
	.code	16                      @ @I2C_Enable_IRQ
	.thumb_func
I2C_Enable_IRQ:
.Lfunc_begin15:
	.loc	7 4720 0 is_stmt 1      @ ../Drivers/STM32F7xx_HAL_Driver/Src/stm32f7xx_hal_i2c.c:4720:0
	.fnstart
	.cfi_startproc
@ %bb.0:
	@DEBUG_VALUE: I2C_Enable_IRQ:hi2c <- $r0
	@DEBUG_VALUE: I2C_Enable_IRQ:InterruptRequest <- $r1
	@DEBUG_VALUE: I2C_Enable_IRQ:tmpisr <- 0
	lsls	r2, r1, #29
	movs	r3, #184
.Ltmp379:
	.loc	7 4723 13 prologue_end  @ ../Drivers/STM32F7xx_HAL_Driver/Src/stm32f7xx_hal_i2c.c:4723:13
	ldr.w	r12, [r0, #52]
	and.w	r2, r3, r2, asr #31
.Ltmp380:
	@DEBUG_VALUE: I2C_Enable_IRQ:tmpisr <- $r2
	@DEBUG_VALUE: I2C_Enable_IRQ:InterruptRequest <- $r1
	@DEBUG_VALUE: I2C_Enable_IRQ:hi2c <- $r0
	.loc	7 4723 21 is_stmt 0     @ ../Drivers/STM32F7xx_HAL_Driver/Src/stm32f7xx_hal_i2c.c:4723:21
	ldr	r3, __arm_cp.15_0
	.loc	7 4723 44               @ ../Drivers/STM32F7xx_HAL_Driver/Src/stm32f7xx_hal_i2c.c:4723:44
	cmp	r12, r3
	itt	ne
	ldrne	r3, __arm_cp.15_1
	cmpne	r12, r3
	bne	.LBB15_2
.Ltmp381:
@ %bb.1:
	@DEBUG_VALUE: I2C_Enable_IRQ:tmpisr <- $r2
	@DEBUG_VALUE: I2C_Enable_IRQ:InterruptRequest <- $r1
	@DEBUG_VALUE: I2C_Enable_IRQ:hi2c <- $r0
	.loc	7 4732 26 is_stmt 1     @ ../Drivers/STM32F7xx_HAL_Driver/Src/stm32f7xx_hal_i2c.c:4732:26
	and	r3, r1, #17
.Ltmp382:
	@DEBUG_VALUE: I2C_Enable_IRQ:tmpisr <- undef
	.loc	7 4732 8 is_stmt 0      @ ../Drivers/STM32F7xx_HAL_Driver/Src/stm32f7xx_hal_i2c.c:4732:8
	cmp	r3, #17
	it	eq
	orreq	r2, r2, #144
.Ltmp383:
	@DEBUG_VALUE: I2C_Enable_IRQ:tmpisr <- $r2
	.loc	7 4747 14 is_stmt 1     @ ../Drivers/STM32F7xx_HAL_Driver/Src/stm32f7xx_hal_i2c.c:4747:14
	orr	r3, r2, #96
	b	.LBB15_3
.Ltmp384:
.LBB15_2:
	@DEBUG_VALUE: I2C_Enable_IRQ:tmpisr <- $r2
	@DEBUG_VALUE: I2C_Enable_IRQ:InterruptRequest <- $r1
	@DEBUG_VALUE: I2C_Enable_IRQ:hi2c <- $r0
	@DEBUG_VALUE: I2C_Enable_IRQ:tmpisr <- undef
	.loc	7 4758 8                @ ../Drivers/STM32F7xx_HAL_Driver/Src/stm32f7xx_hal_i2c.c:4758:8
	tst.w	r1, #1
	it	ne
	orrne	r2, r2, #242
.Ltmp385:
	@DEBUG_VALUE: I2C_Enable_IRQ:tmpisr <- $r2
	.loc	7 4764 8                @ ../Drivers/STM32F7xx_HAL_Driver/Src/stm32f7xx_hal_i2c.c:4764:8
	tst.w	r1, #2
	it	ne
	orrne	r2, r2, #244
.Ltmp386:
	@DEBUG_VALUE: I2C_Enable_IRQ:tmpisr <- $r2
	.loc	7 4773 14               @ ../Drivers/STM32F7xx_HAL_Driver/Src/stm32f7xx_hal_i2c.c:4773:14
	orr	r3, r2, #32
.Ltmp387:
.LBB15_3:
	@DEBUG_VALUE: I2C_Enable_IRQ:tmpisr <- $r2
	@DEBUG_VALUE: I2C_Enable_IRQ:InterruptRequest <- $r1
	@DEBUG_VALUE: I2C_Enable_IRQ:hi2c <- $r0
	.loc	7 0 14 is_stmt 0        @ ../Drivers/STM32F7xx_HAL_Driver/Src/stm32f7xx_hal_i2c.c:0:14
	and	r1, r1, #18
.Ltmp388:
	cmp	r1, #18
	it	eq
	moveq	r2, r3
.Ltmp389:
	@DEBUG_VALUE: I2C_Enable_IRQ:tmpisr <- $r2
	.loc	7 4780 3 is_stmt 1      @ ../Drivers/STM32F7xx_HAL_Driver/Src/stm32f7xx_hal_i2c.c:4780:3
	ldr	r0, [r0]
.Ltmp390:
	ldr	r1, [r0]
	orrs	r1, r2
	str	r1, [r0]
	bx	lr
.Ltmp391:
	.p2align	2
@ %bb.4:
	.loc	7 0 3 is_stmt 0         @ ../Drivers/STM32F7xx_HAL_Driver/Src/stm32f7xx_hal_i2c.c:0:3
__arm_cp.15_0:
	.long	I2C_Master_ISR_DMA
.Lcpi_end7:
	.size	__arm_cp.15_0, .Lcpi_end7-__arm_cp.15_0
__arm_cp.15_1:
	.long	I2C_Slave_ISR_DMA
.Lcpi_end8:
	.size	__arm_cp.15_1, .Lcpi_end8-__arm_cp.15_1
.Lfunc_end15:
	.size	I2C_Enable_IRQ, .Lfunc_end15-I2C_Enable_IRQ
	.cfi_endproc
	.cantunwind
	.fnend
                                        @ -- End function
	.section	.text.HAL_I2C_Master_Receive_IT,"ax",%progbits
	.hidden	HAL_I2C_Master_Receive_IT @ -- Begin function HAL_I2C_Master_Receive_IT
	.globl	HAL_I2C_Master_Receive_IT
	.p2align	2
	.type	HAL_I2C_Master_Receive_IT,%function
	.code	16                      @ @HAL_I2C_Master_Receive_IT
	.thumb_func
HAL_I2C_Master_Receive_IT:
.Lfunc_begin16:
	.loc	7 1216 0 is_stmt 1      @ ../Drivers/STM32F7xx_HAL_Driver/Src/stm32f7xx_hal_i2c.c:1216:0
	.fnstart
	.cfi_startproc
@ %bb.0:
	.save	{r4, r5, r7, lr}
	.pad	#8
	push	{r2, r3, r4, r5, r7, lr}
	.cfi_def_cfa_offset 24
	.cfi_offset lr, -4
	.cfi_offset r7, -8
	.cfi_offset r5, -12
	.cfi_offset r4, -16
	@DEBUG_VALUE: HAL_I2C_Master_Receive_IT:hi2c <- $r0
	@DEBUG_VALUE: HAL_I2C_Master_Receive_IT:DevAddress <- $r1
	@DEBUG_VALUE: HAL_I2C_Master_Receive_IT:pData <- $r2
	@DEBUG_VALUE: HAL_I2C_Master_Receive_IT:Size <- $r3
	mov	r4, r0
.Ltmp392:
	@DEBUG_VALUE: HAL_I2C_Master_Receive_IT:xfermode <- 0
	@DEBUG_VALUE: HAL_I2C_Master_Receive_IT:Size <- $r3
	@DEBUG_VALUE: HAL_I2C_Master_Receive_IT:pData <- $r2
	@DEBUG_VALUE: HAL_I2C_Master_Receive_IT:DevAddress <- $r1
	@DEBUG_VALUE: HAL_I2C_Master_Receive_IT:hi2c <- $r4
	.loc	7 1219 12 prologue_end  @ ../Drivers/STM32F7xx_HAL_Driver/Src/stm32f7xx_hal_i2c.c:1219:12
	ldrb.w	r0, [r0, #65]
.Ltmp393:
	.loc	7 1219 6 is_stmt 0      @ ../Drivers/STM32F7xx_HAL_Driver/Src/stm32f7xx_hal_i2c.c:1219:6
	cmp	r0, #32
	bne	.LBB16_3
.Ltmp394:
@ %bb.1:
	@DEBUG_VALUE: HAL_I2C_Master_Receive_IT:hi2c <- $r4
	@DEBUG_VALUE: HAL_I2C_Master_Receive_IT:Size <- $r3
	@DEBUG_VALUE: HAL_I2C_Master_Receive_IT:pData <- $r2
	@DEBUG_VALUE: HAL_I2C_Master_Receive_IT:DevAddress <- $r1
	.loc	7 1221 8 is_stmt 1      @ ../Drivers/STM32F7xx_HAL_Driver/Src/stm32f7xx_hal_i2c.c:1221:8
	ldr	r0, [r4]
	ldr	r0, [r0, #24]
.Ltmp395:
	.loc	7 1221 8 is_stmt 0      @ ../Drivers/STM32F7xx_HAL_Driver/Src/stm32f7xx_hal_i2c.c:1221:8
	tst.w	r0, #32768
	bne	.LBB16_3
.Ltmp396:
@ %bb.2:
	@DEBUG_VALUE: HAL_I2C_Master_Receive_IT:hi2c <- $r4
	@DEBUG_VALUE: HAL_I2C_Master_Receive_IT:Size <- $r3
	@DEBUG_VALUE: HAL_I2C_Master_Receive_IT:pData <- $r2
	@DEBUG_VALUE: HAL_I2C_Master_Receive_IT:DevAddress <- $r1
	.loc	7 1227 5 is_stmt 1      @ ../Drivers/STM32F7xx_HAL_Driver/Src/stm32f7xx_hal_i2c.c:1227:5
	ldrb.w	r0, [r4, #64]
.Ltmp397:
	.loc	7 1227 5 is_stmt 0      @ ../Drivers/STM32F7xx_HAL_Driver/Src/stm32f7xx_hal_i2c.c:1227:5
	cmp	r0, #1
	bne	.LBB16_5
.Ltmp398:
.LBB16_3:
	@DEBUG_VALUE: HAL_I2C_Master_Receive_IT:hi2c <- $r4
	@DEBUG_VALUE: HAL_I2C_Master_Receive_IT:Size <- $r3
	@DEBUG_VALUE: HAL_I2C_Master_Receive_IT:pData <- $r2
	@DEBUG_VALUE: HAL_I2C_Master_Receive_IT:DevAddress <- $r1
	.loc	7 0 5                   @ ../Drivers/STM32F7xx_HAL_Driver/Src/stm32f7xx_hal_i2c.c:0:5
	movs	r5, #2
.Ltmp399:
.LBB16_4:
	@DEBUG_VALUE: HAL_I2C_Master_Receive_IT:hi2c <- $r4
	.loc	7 1272 1 is_stmt 1      @ ../Drivers/STM32F7xx_HAL_Driver/Src/stm32f7xx_hal_i2c.c:1272:1
	uxtb	r0, r5
	add	sp, #8
	pop	{r4, r5, r7, pc}
.Ltmp400:
.LBB16_5:
	@DEBUG_VALUE: HAL_I2C_Master_Receive_IT:hi2c <- $r4
	@DEBUG_VALUE: HAL_I2C_Master_Receive_IT:Size <- $r3
	@DEBUG_VALUE: HAL_I2C_Master_Receive_IT:pData <- $r2
	@DEBUG_VALUE: HAL_I2C_Master_Receive_IT:DevAddress <- $r1
	@DEBUG_VALUE: HAL_I2C_Master_Receive_IT:DevAddress <- $r1
	@DEBUG_VALUE: HAL_I2C_Master_Receive_IT:Size <- $r3
	.loc	7 1229 23               @ ../Drivers/STM32F7xx_HAL_Driver/Src/stm32f7xx_hal_i2c.c:1229:23
	movs	r0, #34
	movs	r5, #0
	strb.w	r0, [r4, #65]
	.loc	7 1230 23               @ ../Drivers/STM32F7xx_HAL_Driver/Src/stm32f7xx_hal_i2c.c:1230:23
	movs	r0, #16
	strb.w	r0, [r4, #66]
	.loc	7 1236 23               @ ../Drivers/STM32F7xx_HAL_Driver/Src/stm32f7xx_hal_i2c.c:1236:23
	ldr	r0, __arm_cp.16_0
	.loc	7 1231 23               @ ../Drivers/STM32F7xx_HAL_Driver/Src/stm32f7xx_hal_i2c.c:1231:23
	str	r5, [r4, #68]
	.loc	7 1235 23               @ ../Drivers/STM32F7xx_HAL_Driver/Src/stm32f7xx_hal_i2c.c:1235:23
	strh	r3, [r4, #42]
	.loc	7 1236 23               @ ../Drivers/STM32F7xx_HAL_Driver/Src/stm32f7xx_hal_i2c.c:1236:23
	str	r0, [r4, #44]
	movs	r0, #1
.Ltmp401:
	.loc	7 1227 5                @ ../Drivers/STM32F7xx_HAL_Driver/Src/stm32f7xx_hal_i2c.c:1227:5
	strb.w	r0, [r4, #64]
.Ltmp402:
	.loc	7 1237 23               @ ../Drivers/STM32F7xx_HAL_Driver/Src/stm32f7xx_hal_i2c.c:1237:23
	ldr	r0, __arm_cp.16_1
	.loc	7 1234 23               @ ../Drivers/STM32F7xx_HAL_Driver/Src/stm32f7xx_hal_i2c.c:1234:23
	str	r2, [r4, #36]
	.loc	7 1237 23               @ ../Drivers/STM32F7xx_HAL_Driver/Src/stm32f7xx_hal_i2c.c:1237:23
	str	r0, [r4, #52]
.Ltmp403:
	.loc	7 1239 14               @ ../Drivers/STM32F7xx_HAL_Driver/Src/stm32f7xx_hal_i2c.c:1239:14
	ldrh	r0, [r4, #42]
.Ltmp404:
	.loc	7 1239 8 is_stmt 0      @ ../Drivers/STM32F7xx_HAL_Driver/Src/stm32f7xx_hal_i2c.c:1239:8
	cmp	r0, #255
	bls	.LBB16_7
.Ltmp405:
@ %bb.6:
	@DEBUG_VALUE: HAL_I2C_Master_Receive_IT:hi2c <- $r4
	@DEBUG_VALUE: HAL_I2C_Master_Receive_IT:Size <- $r3
	@DEBUG_VALUE: HAL_I2C_Master_Receive_IT:pData <- $r2
	@DEBUG_VALUE: HAL_I2C_Master_Receive_IT:DevAddress <- $r1
	.loc	7 0 8                   @ ../Drivers/STM32F7xx_HAL_Driver/Src/stm32f7xx_hal_i2c.c:0:8
	mov.w	r3, #16777216
.Ltmp406:
	movs	r0, #255
	b	.LBB16_8
.Ltmp407:
.LBB16_7:
	@DEBUG_VALUE: HAL_I2C_Master_Receive_IT:hi2c <- $r4
	@DEBUG_VALUE: HAL_I2C_Master_Receive_IT:Size <- $r3
	@DEBUG_VALUE: HAL_I2C_Master_Receive_IT:pData <- $r2
	@DEBUG_VALUE: HAL_I2C_Master_Receive_IT:DevAddress <- $r1
	.loc	7 1246 30 is_stmt 1     @ ../Drivers/STM32F7xx_HAL_Driver/Src/stm32f7xx_hal_i2c.c:1246:30
	ldrh	r0, [r4, #42]
	mov.w	r3, #33554432
.Ltmp408:
	@DEBUG_VALUE: HAL_I2C_Master_Receive_IT:xfermode <- 33554432
.LBB16_8:
	@DEBUG_VALUE: HAL_I2C_Master_Receive_IT:hi2c <- $r4
	@DEBUG_VALUE: HAL_I2C_Master_Receive_IT:pData <- $r2
	@DEBUG_VALUE: HAL_I2C_Master_Receive_IT:DevAddress <- $r1
	.loc	7 1252 5                @ ../Drivers/STM32F7xx_HAL_Driver/Src/stm32f7xx_hal_i2c.c:1252:5
	mov.w	r2, #9216
.Ltmp409:
	.loc	7 1246 22               @ ../Drivers/STM32F7xx_HAL_Driver/Src/stm32f7xx_hal_i2c.c:1246:22
	strh	r0, [r4, #40]
.Ltmp410:
	.loc	7 1252 5                @ ../Drivers/STM32F7xx_HAL_Driver/Src/stm32f7xx_hal_i2c.c:1252:5
	str	r2, [sp]
	uxtb	r2, r0
.Ltmp411:
	@DEBUG_VALUE: HAL_I2C_Master_Receive_IT:xfermode <- $r3
	mov	r0, r4
	bl	I2C_TransferConfig
.Ltmp412:
	.loc	7 1264 5                @ ../Drivers/STM32F7xx_HAL_Driver/Src/stm32f7xx_hal_i2c.c:1264:5
	mov	r0, r4
	movs	r1, #2
.Ltmp413:
	.loc	7 1255 5                @ ../Drivers/STM32F7xx_HAL_Driver/Src/stm32f7xx_hal_i2c.c:1255:5
	strb.w	r5, [r4, #64]
.Ltmp414:
	.loc	7 1264 5                @ ../Drivers/STM32F7xx_HAL_Driver/Src/stm32f7xx_hal_i2c.c:1264:5
	bl	I2C_Enable_IRQ
	b	.LBB16_4
.Ltmp415:
	.p2align	2
@ %bb.9:
	.loc	7 0 5 is_stmt 0         @ ../Drivers/STM32F7xx_HAL_Driver/Src/stm32f7xx_hal_i2c.c:0:5
__arm_cp.16_0:
	.long	4294901760              @ 0xffff0000
.Lcpi_end9:
	.size	__arm_cp.16_0, .Lcpi_end9-__arm_cp.16_0
__arm_cp.16_1:
	.long	I2C_Master_ISR_IT
.Lcpi_end10:
	.size	__arm_cp.16_1, .Lcpi_end10-__arm_cp.16_1
.Lfunc_end16:
	.size	HAL_I2C_Master_Receive_IT, .Lfunc_end16-HAL_I2C_Master_Receive_IT
	.cfi_endproc
	.cantunwind
	.fnend
                                        @ -- End function
	.section	.text.HAL_I2C_Slave_Transmit_IT,"ax",%progbits
	.hidden	HAL_I2C_Slave_Transmit_IT @ -- Begin function HAL_I2C_Slave_Transmit_IT
	.globl	HAL_I2C_Slave_Transmit_IT
	.p2align	2
	.type	HAL_I2C_Slave_Transmit_IT,%function
	.code	16                      @ @HAL_I2C_Slave_Transmit_IT
	.thumb_func
HAL_I2C_Slave_Transmit_IT:
.Lfunc_begin17:
	.loc	7 1283 0 is_stmt 1      @ ../Drivers/STM32F7xx_HAL_Driver/Src/stm32f7xx_hal_i2c.c:1283:0
	.fnstart
	.cfi_startproc
@ %bb.0:
	.save	{r4, lr}
	push	{r4, lr}
	.cfi_def_cfa_offset 8
	.cfi_offset lr, -4
	.cfi_offset r4, -8
	@DEBUG_VALUE: HAL_I2C_Slave_Transmit_IT:hi2c <- $r0
	@DEBUG_VALUE: HAL_I2C_Slave_Transmit_IT:hi2c <- $r0
	@DEBUG_VALUE: HAL_I2C_Slave_Transmit_IT:pData <- $r1
	@DEBUG_VALUE: HAL_I2C_Slave_Transmit_IT:pData <- $r1
	@DEBUG_VALUE: HAL_I2C_Slave_Transmit_IT:Size <- $r2
	@DEBUG_VALUE: HAL_I2C_Slave_Transmit_IT:Size <- $r2
.Ltmp416:
	.loc	7 1284 12 prologue_end  @ ../Drivers/STM32F7xx_HAL_Driver/Src/stm32f7xx_hal_i2c.c:1284:12
	ldrb.w	r3, [r0, #65]
.Ltmp417:
	.loc	7 1284 6 is_stmt 0      @ ../Drivers/STM32F7xx_HAL_Driver/Src/stm32f7xx_hal_i2c.c:1284:6
	cmp	r3, #32
	bne	.LBB17_2
.Ltmp418:
@ %bb.1:
	@DEBUG_VALUE: HAL_I2C_Slave_Transmit_IT:Size <- $r2
	@DEBUG_VALUE: HAL_I2C_Slave_Transmit_IT:pData <- $r1
	@DEBUG_VALUE: HAL_I2C_Slave_Transmit_IT:hi2c <- $r0
	.loc	7 1287 5 is_stmt 1      @ ../Drivers/STM32F7xx_HAL_Driver/Src/stm32f7xx_hal_i2c.c:1287:5
	ldrb.w	r3, [r0, #64]
.Ltmp419:
	.loc	7 1287 5 is_stmt 0      @ ../Drivers/STM32F7xx_HAL_Driver/Src/stm32f7xx_hal_i2c.c:1287:5
	cmp	r3, #1
	bne	.LBB17_3
.Ltmp420:
.LBB17_2:
	@DEBUG_VALUE: HAL_I2C_Slave_Transmit_IT:Size <- $r2
	@DEBUG_VALUE: HAL_I2C_Slave_Transmit_IT:pData <- $r1
	@DEBUG_VALUE: HAL_I2C_Slave_Transmit_IT:hi2c <- $r0
	.loc	7 0 5                   @ ../Drivers/STM32F7xx_HAL_Driver/Src/stm32f7xx_hal_i2c.c:0:5
	movs	r4, #2
	b	.LBB17_4
.Ltmp421:
.LBB17_3:
	@DEBUG_VALUE: HAL_I2C_Slave_Transmit_IT:Size <- $r2
	@DEBUG_VALUE: HAL_I2C_Slave_Transmit_IT:pData <- $r1
	@DEBUG_VALUE: HAL_I2C_Slave_Transmit_IT:hi2c <- $r0
	@DEBUG_VALUE: HAL_I2C_Slave_Transmit_IT:Size <- $r2
	.loc	7 1289 23 is_stmt 1     @ ../Drivers/STM32F7xx_HAL_Driver/Src/stm32f7xx_hal_i2c.c:1289:23
	movs	r3, #33
	movs	r4, #0
	strb.w	r3, [r0, #65]
	.loc	7 1290 23               @ ../Drivers/STM32F7xx_HAL_Driver/Src/stm32f7xx_hal_i2c.c:1290:23
	movs	r3, #32
	strb.w	r3, [r0, #66]
	.loc	7 1291 23               @ ../Drivers/STM32F7xx_HAL_Driver/Src/stm32f7xx_hal_i2c.c:1291:23
	str	r4, [r0, #68]
	.loc	7 1294 11               @ ../Drivers/STM32F7xx_HAL_Driver/Src/stm32f7xx_hal_i2c.c:1294:11
	ldr.w	r12, [r0]
	.loc	7 1294 25 is_stmt 0     @ ../Drivers/STM32F7xx_HAL_Driver/Src/stm32f7xx_hal_i2c.c:1294:25
	ldr.w	r3, [r12, #4]
	bic	r3, r3, #32768
	str.w	r3, [r12, #4]
	.loc	7 1298 23 is_stmt 1     @ ../Drivers/STM32F7xx_HAL_Driver/Src/stm32f7xx_hal_i2c.c:1298:23
	strh	r2, [r0, #42]
	.loc	7 1297 23               @ ../Drivers/STM32F7xx_HAL_Driver/Src/stm32f7xx_hal_i2c.c:1297:23
	str	r1, [r0, #36]
	.loc	7 1301 23               @ ../Drivers/STM32F7xx_HAL_Driver/Src/stm32f7xx_hal_i2c.c:1301:23
	ldr	r1, __arm_cp.17_0
.Ltmp422:
	.loc	7 1300 23               @ ../Drivers/STM32F7xx_HAL_Driver/Src/stm32f7xx_hal_i2c.c:1300:23
	ldr	r2, __arm_cp.17_1
.Ltmp423:
	.loc	7 1301 23               @ ../Drivers/STM32F7xx_HAL_Driver/Src/stm32f7xx_hal_i2c.c:1301:23
	str	r1, [r0, #52]
.Ltmp424:
	.loc	7 1304 5                @ ../Drivers/STM32F7xx_HAL_Driver/Src/stm32f7xx_hal_i2c.c:1304:5
	strb.w	r4, [r0, #64]
.Ltmp425:
	.loc	7 1299 31               @ ../Drivers/STM32F7xx_HAL_Driver/Src/stm32f7xx_hal_i2c.c:1299:31
	ldrh	r1, [r0, #42]
	.loc	7 1300 23               @ ../Drivers/STM32F7xx_HAL_Driver/Src/stm32f7xx_hal_i2c.c:1300:23
	str	r2, [r0, #44]
	.loc	7 1299 23               @ ../Drivers/STM32F7xx_HAL_Driver/Src/stm32f7xx_hal_i2c.c:1299:23
	strh	r1, [r0, #40]
	.loc	7 1313 5                @ ../Drivers/STM32F7xx_HAL_Driver/Src/stm32f7xx_hal_i2c.c:1313:5
	movs	r1, #5
	bl	I2C_Enable_IRQ
.Ltmp426:
.LBB17_4:
	.loc	7 1321 1                @ ../Drivers/STM32F7xx_HAL_Driver/Src/stm32f7xx_hal_i2c.c:1321:1
	uxtb	r0, r4
	pop	{r4, pc}
.Ltmp427:
	.p2align	2
@ %bb.5:
	.loc	7 0 1 is_stmt 0         @ ../Drivers/STM32F7xx_HAL_Driver/Src/stm32f7xx_hal_i2c.c:0:1
__arm_cp.17_0:
	.long	I2C_Slave_ISR_IT
.Lcpi_end11:
	.size	__arm_cp.17_0, .Lcpi_end11-__arm_cp.17_0
__arm_cp.17_1:
	.long	4294901760              @ 0xffff0000
.Lcpi_end12:
	.size	__arm_cp.17_1, .Lcpi_end12-__arm_cp.17_1
.Lfunc_end17:
	.size	HAL_I2C_Slave_Transmit_IT, .Lfunc_end17-HAL_I2C_Slave_Transmit_IT
	.cfi_endproc
	.cantunwind
	.fnend
                                        @ -- End function
	.section	.text.I2C_Slave_ISR_IT,"ax",%progbits
	.p2align	1               @ -- Begin function I2C_Slave_ISR_IT
	.type	I2C_Slave_ISR_IT,%function
	.code	16                      @ @I2C_Slave_ISR_IT
	.thumb_func
I2C_Slave_ISR_IT:
.Lfunc_begin18:
	.loc	7 3383 0 is_stmt 1      @ ../Drivers/STM32F7xx_HAL_Driver/Src/stm32f7xx_hal_i2c.c:3383:0
	.fnstart
	.cfi_startproc
@ %bb.0:
	.save	{r4, r5, r6, r7, r8, r9, lr}
	.pad	#4
	push.w	{r3, r4, r5, r6, r7, r8, r9, lr}
	.cfi_def_cfa_offset 32
	.cfi_offset lr, -4
	.cfi_offset r9, -8
	.cfi_offset r8, -12
	.cfi_offset r7, -16
	.cfi_offset r6, -20
	.cfi_offset r5, -24
	.cfi_offset r4, -28
	@DEBUG_VALUE: I2C_Slave_ISR_IT:hi2c <- $r0
	@DEBUG_VALUE: I2C_Slave_ISR_IT:ITFlags <- $r1
	@DEBUG_VALUE: I2C_Slave_ISR_IT:ITSources <- $r2
.Ltmp428:
	@DEBUG_VALUE: I2C_ITAddrCplt:hi2c <- $r0
	mov	r4, r0
.Ltmp429:
	@DEBUG_VALUE: I2C_ITAddrCplt:hi2c <- $r4
	@DEBUG_VALUE: I2C_Slave_ISR_IT:ITSources <- $r2
	@DEBUG_VALUE: I2C_Slave_ISR_IT:ITFlags <- $r5
	@DEBUG_VALUE: I2C_Slave_ISR_IT:hi2c <- $r4
	.loc	7 3385 3 prologue_end   @ ../Drivers/STM32F7xx_HAL_Driver/Src/stm32f7xx_hal_i2c.c:3385:3
	ldrb.w	r0, [r0, #64]
	mov	r5, r1
.Ltmp430:
	.loc	7 3385 3 is_stmt 0      @ ../Drivers/STM32F7xx_HAL_Driver/Src/stm32f7xx_hal_i2c.c:3385:3
	cmp	r0, #1
	bne	.LBB18_2
.Ltmp431:
@ %bb.1:
	@DEBUG_VALUE: I2C_Slave_ISR_IT:hi2c <- $r4
	@DEBUG_VALUE: I2C_Slave_ISR_IT:ITSources <- $r2
	.loc	7 0 3                   @ ../Drivers/STM32F7xx_HAL_Driver/Src/stm32f7xx_hal_i2c.c:0:3
	movs	r0, #2
	b	.LBB18_34
.Ltmp432:
.LBB18_2:
	@DEBUG_VALUE: I2C_Slave_ISR_IT:hi2c <- $r4
	@DEBUG_VALUE: I2C_Slave_ISR_IT:ITSources <- $r2
	.loc	7 3387 41 is_stmt 1     @ ../Drivers/STM32F7xx_HAL_Driver/Src/stm32f7xx_hal_i2c.c:3387:41
	and.w	r7, r2, r5
.Ltmp433:
	.loc	7 3385 3                @ ../Drivers/STM32F7xx_HAL_Driver/Src/stm32f7xx_hal_i2c.c:3385:3
	movs	r0, #1
.Ltmp434:
	.loc	7 3387 41               @ ../Drivers/STM32F7xx_HAL_Driver/Src/stm32f7xx_hal_i2c.c:3387:41
	tst.w	r7, #16
.Ltmp435:
	.loc	7 3385 3                @ ../Drivers/STM32F7xx_HAL_Driver/Src/stm32f7xx_hal_i2c.c:3385:3
	strb.w	r0, [r4, #64]
.Ltmp436:
	.loc	7 3387 41               @ ../Drivers/STM32F7xx_HAL_Driver/Src/stm32f7xx_hal_i2c.c:3387:41
	bne	.LBB18_8
.Ltmp437:
@ %bb.3:
	@DEBUG_VALUE: I2C_Slave_ISR_IT:hi2c <- $r4
	@DEBUG_VALUE: I2C_Slave_ISR_IT:ITSources <- $r2
	.loc	7 3429 48               @ ../Drivers/STM32F7xx_HAL_Driver/Src/stm32f7xx_hal_i2c.c:3429:48
	lsls	r0, r7, #29
	bmi	.LBB18_10
.Ltmp438:
@ %bb.4:
	@DEBUG_VALUE: I2C_Slave_ISR_IT:hi2c <- $r4
	@DEBUG_VALUE: I2C_Slave_ISR_IT:ITSources <- $r2
	.loc	7 3446 48               @ ../Drivers/STM32F7xx_HAL_Driver/Src/stm32f7xx_hal_i2c.c:3446:48
	lsls	r0, r7, #28
	bmi	.LBB18_17
.Ltmp439:
@ %bb.5:
	@DEBUG_VALUE: I2C_Slave_ISR_IT:hi2c <- $r4
	@DEBUG_VALUE: I2C_Slave_ISR_IT:ITSources <- $r2
	.loc	7 3450 48               @ ../Drivers/STM32F7xx_HAL_Driver/Src/stm32f7xx_hal_i2c.c:3450:48
	lsls	r0, r7, #30
	bpl.w	.LBB18_31
.Ltmp440:
@ %bb.6:
	@DEBUG_VALUE: I2C_Slave_ISR_IT:hi2c <- $r4
	@DEBUG_VALUE: I2C_Slave_ISR_IT:ITSources <- $r2
	.loc	7 3456 14               @ ../Drivers/STM32F7xx_HAL_Driver/Src/stm32f7xx_hal_i2c.c:3456:14
	ldrh	r0, [r4, #42]
.Ltmp441:
	.loc	7 3456 8 is_stmt 0      @ ../Drivers/STM32F7xx_HAL_Driver/Src/stm32f7xx_hal_i2c.c:3456:8
	cmp	r0, #0
	beq.w	.LBB18_29
.Ltmp442:
@ %bb.7:
	@DEBUG_VALUE: I2C_Slave_ISR_IT:hi2c <- $r4
	@DEBUG_VALUE: I2C_Slave_ISR_IT:ITSources <- $r2
	.loc	7 3459 46 is_stmt 1     @ ../Drivers/STM32F7xx_HAL_Driver/Src/stm32f7xx_hal_i2c.c:3459:46
	ldr	r1, [r4, #36]
	.loc	7 3459 13 is_stmt 0     @ ../Drivers/STM32F7xx_HAL_Driver/Src/stm32f7xx_hal_i2c.c:3459:13
	ldr	r0, [r4]
	.loc	7 3459 46               @ ../Drivers/STM32F7xx_HAL_Driver/Src/stm32f7xx_hal_i2c.c:3459:46
	adds	r2, r1, #1
.Ltmp443:
	str	r2, [r4, #36]
	.loc	7 3459 30               @ ../Drivers/STM32F7xx_HAL_Driver/Src/stm32f7xx_hal_i2c.c:3459:30
	ldrb	r1, [r1]
	.loc	7 3459 28               @ ../Drivers/STM32F7xx_HAL_Driver/Src/stm32f7xx_hal_i2c.c:3459:28
	str	r1, [r0, #40]
	.loc	7 3460 22 is_stmt 1     @ ../Drivers/STM32F7xx_HAL_Driver/Src/stm32f7xx_hal_i2c.c:3460:22
	ldrh	r0, [r4, #42]
	subs	r0, #1
	strh	r0, [r4, #42]
	.loc	7 3461 21               @ ../Drivers/STM32F7xx_HAL_Driver/Src/stm32f7xx_hal_i2c.c:3461:21
	ldrh	r0, [r4, #40]
	subs	r0, #1
	strh	r0, [r4, #40]
	b	.LBB18_31
.Ltmp444:
.LBB18_8:
	@DEBUG_VALUE: I2C_Slave_ISR_IT:hi2c <- $r4
	@DEBUG_VALUE: I2C_Slave_ISR_IT:ITSources <- $r2
	.loc	7 3393 14               @ ../Drivers/STM32F7xx_HAL_Driver/Src/stm32f7xx_hal_i2c.c:3393:14
	ldrh	r0, [r4, #42]
.Ltmp445:
	.loc	7 3393 8 is_stmt 0      @ ../Drivers/STM32F7xx_HAL_Driver/Src/stm32f7xx_hal_i2c.c:3393:8
	cbz	r0, .LBB18_14
.Ltmp446:
@ %bb.9:
	@DEBUG_VALUE: I2C_Slave_ISR_IT:hi2c <- $r4
	@DEBUG_VALUE: I2C_Slave_ISR_IT:ITSources <- $r2
	.loc	7 3423 7 is_stmt 1      @ ../Drivers/STM32F7xx_HAL_Driver/Src/stm32f7xx_hal_i2c.c:3423:7
	ldr	r0, [r4]
	movs	r1, #16
	str	r1, [r0, #28]
	.loc	7 3426 23               @ ../Drivers/STM32F7xx_HAL_Driver/Src/stm32f7xx_hal_i2c.c:3426:23
	ldr	r0, [r4, #68]
	orr	r0, r0, #4
	str	r0, [r4, #68]
	b	.LBB18_31
.Ltmp447:
.LBB18_10:
	@DEBUG_VALUE: I2C_Slave_ISR_IT:hi2c <- $r4
	@DEBUG_VALUE: I2C_Slave_ISR_IT:ITSources <- $r2
	.loc	7 3431 14               @ ../Drivers/STM32F7xx_HAL_Driver/Src/stm32f7xx_hal_i2c.c:3431:14
	ldrh	r0, [r4, #42]
.Ltmp448:
	.loc	7 3431 8 is_stmt 0      @ ../Drivers/STM32F7xx_HAL_Driver/Src/stm32f7xx_hal_i2c.c:3431:8
	cbz	r0, .LBB18_12
.Ltmp449:
@ %bb.11:
	@DEBUG_VALUE: I2C_Slave_ISR_IT:hi2c <- $r4
	@DEBUG_VALUE: I2C_Slave_ISR_IT:ITSources <- $r2
	.loc	7 3434 35 is_stmt 1     @ ../Drivers/STM32F7xx_HAL_Driver/Src/stm32f7xx_hal_i2c.c:3434:35
	ldr	r0, [r4]
	.loc	7 3434 45 is_stmt 0     @ ../Drivers/STM32F7xx_HAL_Driver/Src/stm32f7xx_hal_i2c.c:3434:45
	ldr	r0, [r0, #36]
	.loc	7 3434 23               @ ../Drivers/STM32F7xx_HAL_Driver/Src/stm32f7xx_hal_i2c.c:3434:23
	ldr	r1, [r4, #36]
	adds	r2, r1, #1
.Ltmp450:
	str	r2, [r4, #36]
	.loc	7 3434 27               @ ../Drivers/STM32F7xx_HAL_Driver/Src/stm32f7xx_hal_i2c.c:3434:27
	strb	r0, [r1]
	.loc	7 3435 21 is_stmt 1     @ ../Drivers/STM32F7xx_HAL_Driver/Src/stm32f7xx_hal_i2c.c:3435:21
	ldrh	r0, [r4, #40]
	subs	r0, #1
	strh	r0, [r4, #40]
	.loc	7 3436 22               @ ../Drivers/STM32F7xx_HAL_Driver/Src/stm32f7xx_hal_i2c.c:3436:22
	ldrh	r0, [r4, #42]
	subs	r0, #1
	strh	r0, [r4, #42]
.Ltmp451:
.LBB18_12:
	@DEBUG_VALUE: I2C_Slave_ISR_IT:hi2c <- $r4
	.loc	7 3439 15               @ ../Drivers/STM32F7xx_HAL_Driver/Src/stm32f7xx_hal_i2c.c:3439:15
	ldrh	r0, [r4, #42]
	.loc	7 3439 32 is_stmt 0     @ ../Drivers/STM32F7xx_HAL_Driver/Src/stm32f7xx_hal_i2c.c:3439:32
	cmp	r0, #0
	bne	.LBB18_31
.Ltmp452:
@ %bb.13:
	@DEBUG_VALUE: I2C_Slave_ISR_IT:hi2c <- $r4
	.loc	7 3440 15 is_stmt 1     @ ../Drivers/STM32F7xx_HAL_Driver/Src/stm32f7xx_hal_i2c.c:3440:15
	ldr	r0, [r4, #44]
.Ltmp453:
	.loc	7 3439 8                @ ../Drivers/STM32F7xx_HAL_Driver/Src/stm32f7xx_hal_i2c.c:3439:8
	cmn.w	r0, #65536
	bne	.LBB18_30
	b	.LBB18_31
.Ltmp454:
.LBB18_14:
	@DEBUG_VALUE: I2C_Slave_ISR_IT:hi2c <- $r4
	@DEBUG_VALUE: I2C_Slave_ISR_IT:ITSources <- $r2
	.loc	7 3395 18               @ ../Drivers/STM32F7xx_HAL_Driver/Src/stm32f7xx_hal_i2c.c:3395:18
	ldr	r0, [r4, #44]
	.loc	7 3395 59 is_stmt 0     @ ../Drivers/STM32F7xx_HAL_Driver/Src/stm32f7xx_hal_i2c.c:3395:59
	cmp.w	r0, #33554432
	.loc	7 3395 69               @ ../Drivers/STM32F7xx_HAL_Driver/Src/stm32f7xx_hal_i2c.c:3395:69
	itt	ne
	ldrne	r0, [r4, #44]
	.loc	7 3395 101              @ ../Drivers/STM32F7xx_HAL_Driver/Src/stm32f7xx_hal_i2c.c:3395:101
	cmpne.w	r0, #33554432
	bne	.LBB18_21
.Ltmp455:
@ %bb.15:
	@DEBUG_VALUE: I2C_Slave_ISR_IT:hi2c <- $r4
	@DEBUG_VALUE: I2C_Slave_ISR_IT:ITSources <- $r2
	.loc	7 3396 16 is_stmt 1     @ ../Drivers/STM32F7xx_HAL_Driver/Src/stm32f7xx_hal_i2c.c:3396:16
	ldrb.w	r0, [r4, #65]
.Ltmp456:
	.loc	7 3395 10               @ ../Drivers/STM32F7xx_HAL_Driver/Src/stm32f7xx_hal_i2c.c:3395:10
	cmp	r0, #40
	bne	.LBB18_21
.Ltmp457:
@ %bb.16:
	@DEBUG_VALUE: I2C_Slave_ISR_IT:hi2c <- $r4
	@DEBUG_VALUE: I2C_Slave_ISR_IT:ITSources <- $r2
	.loc	7 3399 9                @ ../Drivers/STM32F7xx_HAL_Driver/Src/stm32f7xx_hal_i2c.c:3399:9
	mov	r0, r4
	mov	r1, r5
	bl	I2C_ITListenCplt
.Ltmp458:
	.loc	7 0 9 is_stmt 0         @ ../Drivers/STM32F7xx_HAL_Driver/Src/stm32f7xx_hal_i2c.c:0:9
	b	.LBB18_31
.Ltmp459:
.LBB18_17:
	@DEBUG_VALUE: I2C_Slave_ISR_IT:hi2c <- $r4
	@DEBUG_VALUE: I2C_Slave_ISR_IT:ITSources <- $r2
	ldr	r0, [r4]
.Ltmp460:
	@DEBUG_VALUE: I2C_ITAddrCplt:ownadd2code <- 0
	@DEBUG_VALUE: I2C_ITAddrCplt:ownadd1code <- 0
	@DEBUG_VALUE: I2C_ITAddrCplt:slaveaddrcode <- 0
	@DEBUG_VALUE: I2C_ITAddrCplt:transferdirection <- 0
	@DEBUG_VALUE: I2C_ITAddrCplt:ITFlags <- 0
	.loc	7 3778 13 is_stmt 1     @ ../Drivers/STM32F7xx_HAL_Driver/Src/stm32f7xx_hal_i2c.c:3778:13
	ldrb.w	r1, [r4, #65]
	.loc	7 3778 19 is_stmt 0     @ ../Drivers/STM32F7xx_HAL_Driver/Src/stm32f7xx_hal_i2c.c:3778:19
	and	r1, r1, #40
.Ltmp461:
	.loc	7 3778 6                @ ../Drivers/STM32F7xx_HAL_Driver/Src/stm32f7xx_hal_i2c.c:3778:6
	cmp	r1, #40
	bne	.LBB18_25
.Ltmp462:
@ %bb.18:
	@DEBUG_VALUE: I2C_Slave_ISR_IT:hi2c <- $r4
	@DEBUG_VALUE: I2C_Slave_ISR_IT:ITSources <- $r2
	.loc	7 3780 25 is_stmt 1     @ ../Drivers/STM32F7xx_HAL_Driver/Src/stm32f7xx_hal_i2c.c:3780:25
	ldr	r1, [r0, #24]
	ubfx	r9, r1, #16, #1
	.loc	7 3781 25               @ ../Drivers/STM32F7xx_HAL_Driver/Src/stm32f7xx_hal_i2c.c:3781:25
	ldr	r1, [r0, #24]
	lsrs	r6, r1, #16
	.loc	7 3782 25               @ ../Drivers/STM32F7xx_HAL_Driver/Src/stm32f7xx_hal_i2c.c:3782:25
	ldr	r1, [r0, #8]
	.loc	7 3783 25               @ ../Drivers/STM32F7xx_HAL_Driver/Src/stm32f7xx_hal_i2c.c:3783:25
	ldr	r2, [r0, #12]
.Ltmp463:
	.loc	7 3786 19               @ ../Drivers/STM32F7xx_HAL_Driver/Src/stm32f7xx_hal_i2c.c:3786:19
	ldr	r3, [r4, #12]
.Ltmp464:
	.loc	7 3786 8 is_stmt 0      @ ../Drivers/STM32F7xx_HAL_Driver/Src/stm32f7xx_hal_i2c.c:3786:8
	cmp	r3, #2
	bne	.LBB18_26
.Ltmp465:
@ %bb.19:
	@DEBUG_VALUE: I2C_Slave_ISR_IT:hi2c <- $r4
	.loc	7 3788 42 is_stmt 1     @ ../Drivers/STM32F7xx_HAL_Driver/Src/stm32f7xx_hal_i2c.c:3788:42
	eor.w	r3, r6, r1, lsr #7
.Ltmp466:
	.loc	7 3788 10 is_stmt 0     @ ../Drivers/STM32F7xx_HAL_Driver/Src/stm32f7xx_hal_i2c.c:3788:10
	tst.w	r3, #6
	beq	.LBB18_35
.Ltmp467:
@ %bb.20:
	@DEBUG_VALUE: I2C_Slave_ISR_IT:hi2c <- $r4
	.loc	7 3812 9 is_stmt 1      @ ../Drivers/STM32F7xx_HAL_Driver/Src/stm32f7xx_hal_i2c.c:3812:9
	mov	r0, r4
	movs	r1, #4
	and	r8, r2, #254
	bl	I2C_Disable_IRQ
.Ltmp468:
	.loc	7 3815 9                @ ../Drivers/STM32F7xx_HAL_Driver/Src/stm32f7xx_hal_i2c.c:3815:9
	movs	r0, #0
.Ltmp469:
	.loc	7 3818 9                @ ../Drivers/STM32F7xx_HAL_Driver/Src/stm32f7xx_hal_i2c.c:3818:9
	mov	r1, r9
	mov	r2, r8
.Ltmp470:
	.loc	7 3815 9                @ ../Drivers/STM32F7xx_HAL_Driver/Src/stm32f7xx_hal_i2c.c:3815:9
	strb.w	r0, [r4, #64]
.Ltmp471:
	.loc	7 3818 9                @ ../Drivers/STM32F7xx_HAL_Driver/Src/stm32f7xx_hal_i2c.c:3818:9
	mov	r0, r4
	b	.LBB18_28
.Ltmp472:
.LBB18_21:
	@DEBUG_VALUE: I2C_Slave_ISR_IT:hi2c <- $r4
	@DEBUG_VALUE: I2C_Slave_ISR_IT:ITSources <- $r2
	.loc	7 3401 22               @ ../Drivers/STM32F7xx_HAL_Driver/Src/stm32f7xx_hal_i2c.c:3401:22
	ldr	r0, [r4, #44]
	.loc	7 3401 58 is_stmt 0     @ ../Drivers/STM32F7xx_HAL_Driver/Src/stm32f7xx_hal_i2c.c:3401:58
	cmn.w	r0, #65536
	beq	.LBB18_24
.Ltmp473:
@ %bb.22:
	@DEBUG_VALUE: I2C_Slave_ISR_IT:hi2c <- $r4
	@DEBUG_VALUE: I2C_Slave_ISR_IT:ITSources <- $r2
	.loc	7 3401 68               @ ../Drivers/STM32F7xx_HAL_Driver/Src/stm32f7xx_hal_i2c.c:3401:68
	ldrb.w	r0, [r4, #65]
.Ltmp474:
	.loc	7 3401 15               @ ../Drivers/STM32F7xx_HAL_Driver/Src/stm32f7xx_hal_i2c.c:3401:15
	cmp	r0, #41
	bne	.LBB18_24
.Ltmp475:
@ %bb.23:
	@DEBUG_VALUE: I2C_Slave_ISR_IT:hi2c <- $r4
	@DEBUG_VALUE: I2C_Slave_ISR_IT:ITSources <- $r2
	.loc	7 3404 9 is_stmt 1      @ ../Drivers/STM32F7xx_HAL_Driver/Src/stm32f7xx_hal_i2c.c:3404:9
	ldr	r0, [r4]
	movs	r1, #16
	str	r1, [r0, #28]
	.loc	7 3407 9                @ ../Drivers/STM32F7xx_HAL_Driver/Src/stm32f7xx_hal_i2c.c:3407:9
	mov	r0, r4
	bl	I2C_Flush_TXDR
.Ltmp476:
	.loc	7 0 9 is_stmt 0         @ ../Drivers/STM32F7xx_HAL_Driver/Src/stm32f7xx_hal_i2c.c:0:9
	b	.LBB18_30
.Ltmp477:
.LBB18_24:
	@DEBUG_VALUE: I2C_Slave_ISR_IT:hi2c <- $r4
	@DEBUG_VALUE: I2C_Slave_ISR_IT:ITSources <- $r2
	.loc	7 3416 9 is_stmt 1      @ ../Drivers/STM32F7xx_HAL_Driver/Src/stm32f7xx_hal_i2c.c:3416:9
	ldr	r0, [r4]
	movs	r1, #16
	str	r1, [r0, #28]
	b	.LBB18_31
.Ltmp478:
.LBB18_25:
	@DEBUG_VALUE: I2C_Slave_ISR_IT:hi2c <- $r4
	@DEBUG_VALUE: I2C_Slave_ISR_IT:ITSources <- $r2
	.loc	7 3838 5                @ ../Drivers/STM32F7xx_HAL_Driver/Src/stm32f7xx_hal_i2c.c:3838:5
	movs	r1, #8
	str	r1, [r0, #28]
.Ltmp479:
	.loc	7 3841 5                @ ../Drivers/STM32F7xx_HAL_Driver/Src/stm32f7xx_hal_i2c.c:3841:5
	movs	r0, #0
	strb.w	r0, [r4, #64]
	b	.LBB18_31
.Ltmp480:
.LBB18_26:
	@DEBUG_VALUE: I2C_Slave_ISR_IT:hi2c <- $r4
	.loc	7 3825 7                @ ../Drivers/STM32F7xx_HAL_Driver/Src/stm32f7xx_hal_i2c.c:3825:7
	mov	r0, r4
	movs	r1, #4
	bl	I2C_Disable_IRQ
.Ltmp481:
	.loc	7 3828 7                @ ../Drivers/STM32F7xx_HAL_Driver/Src/stm32f7xx_hal_i2c.c:3828:7
	movs	r0, #0
.Ltmp482:
	.loc	7 3831 7                @ ../Drivers/STM32F7xx_HAL_Driver/Src/stm32f7xx_hal_i2c.c:3831:7
	and	r2, r6, #254
.Ltmp483:
	.loc	7 3828 7                @ ../Drivers/STM32F7xx_HAL_Driver/Src/stm32f7xx_hal_i2c.c:3828:7
	strb.w	r0, [r4, #64]
.Ltmp484:
.LBB18_27:
	@DEBUG_VALUE: I2C_Slave_ISR_IT:hi2c <- $r4
	.loc	7 0 7 is_stmt 0         @ ../Drivers/STM32F7xx_HAL_Driver/Src/stm32f7xx_hal_i2c.c:0:7
	mov	r0, r4
	mov	r1, r9
.Ltmp485:
.LBB18_28:
	@DEBUG_VALUE: I2C_Slave_ISR_IT:hi2c <- $r4
	bl	HAL_I2C_AddrCallback
	b	.LBB18_31
.Ltmp486:
.LBB18_29:
	@DEBUG_VALUE: I2C_Slave_ISR_IT:hi2c <- $r4
	@DEBUG_VALUE: I2C_Slave_ISR_IT:ITSources <- $r2
	.loc	7 3465 17 is_stmt 1     @ ../Drivers/STM32F7xx_HAL_Driver/Src/stm32f7xx_hal_i2c.c:3465:17
	ldr	r0, [r4, #44]
	.loc	7 3465 48 is_stmt 0     @ ../Drivers/STM32F7xx_HAL_Driver/Src/stm32f7xx_hal_i2c.c:3465:48
	cmp.w	r0, #16777216
	.loc	7 3465 58               @ ../Drivers/STM32F7xx_HAL_Driver/Src/stm32f7xx_hal_i2c.c:3465:58
	itt	ne
	ldrne	r0, [r4, #44]
.Ltmp487:
	.loc	7 3465 10               @ ../Drivers/STM32F7xx_HAL_Driver/Src/stm32f7xx_hal_i2c.c:3465:10
	cmpne	r0, #0
	bne	.LBB18_31
.Ltmp488:
.LBB18_30:
	@DEBUG_VALUE: I2C_Slave_ISR_IT:hi2c <- $r4
	.loc	7 0 10                  @ ../Drivers/STM32F7xx_HAL_Driver/Src/stm32f7xx_hal_i2c.c:0:10
	mov	r0, r4
	bl	I2C_ITSlaveSequentialCplt
.Ltmp489:
.LBB18_31:
	@DEBUG_VALUE: I2C_Slave_ISR_IT:hi2c <- $r4
	.loc	7 3475 44 is_stmt 1     @ ../Drivers/STM32F7xx_HAL_Driver/Src/stm32f7xx_hal_i2c.c:3475:44
	lsls	r0, r7, #26
	bpl	.LBB18_33
.Ltmp490:
@ %bb.32:
	@DEBUG_VALUE: I2C_Slave_ISR_IT:hi2c <- $r4
	.loc	7 3478 5                @ ../Drivers/STM32F7xx_HAL_Driver/Src/stm32f7xx_hal_i2c.c:3478:5
	mov	r0, r4
	mov	r1, r5
	bl	I2C_ITSlaveCplt
.Ltmp491:
.LBB18_33:
	@DEBUG_VALUE: I2C_Slave_ISR_IT:hi2c <- $r4
	.loc	7 0 5 is_stmt 0         @ ../Drivers/STM32F7xx_HAL_Driver/Src/stm32f7xx_hal_i2c.c:0:5
	movs	r0, #0
.Ltmp492:
	.loc	7 3482 3 is_stmt 1      @ ../Drivers/STM32F7xx_HAL_Driver/Src/stm32f7xx_hal_i2c.c:3482:3
	strb.w	r0, [r4, #64]
.Ltmp493:
.LBB18_34:
	@DEBUG_VALUE: I2C_Slave_ISR_IT:hi2c <- $r4
	.loc	7 3485 1                @ ../Drivers/STM32F7xx_HAL_Driver/Src/stm32f7xx_hal_i2c.c:3485:1
	uxtb	r0, r0
	add	sp, #4
	pop.w	{r4, r5, r6, r7, r8, r9, pc}
.Ltmp494:
.LBB18_35:
	@DEBUG_VALUE: I2C_Slave_ISR_IT:hi2c <- $r4
	.loc	7 3791 29               @ ../Drivers/STM32F7xx_HAL_Driver/Src/stm32f7xx_hal_i2c.c:3791:29
	ldr	r2, [r4, #72]
	adds	r2, #1
	str	r2, [r4, #72]
.Ltmp495:
	.loc	7 3792 18               @ ../Drivers/STM32F7xx_HAL_Driver/Src/stm32f7xx_hal_i2c.c:3792:18
	ldr	r2, [r4, #72]
.Ltmp496:
	.loc	7 3792 12 is_stmt 0     @ ../Drivers/STM32F7xx_HAL_Driver/Src/stm32f7xx_hal_i2c.c:3792:12
	cmp	r2, #2
	bne	.LBB18_31
.Ltmp497:
@ %bb.36:
	@DEBUG_VALUE: I2C_Slave_ISR_IT:hi2c <- $r4
	.loc	7 0 12                  @ ../Drivers/STM32F7xx_HAL_Driver/Src/stm32f7xx_hal_i2c.c:0:12
	movs	r2, #0
	bfc	r1, #10, #22
.Ltmp498:
	.loc	7 3798 11 is_stmt 1     @ ../Drivers/STM32F7xx_HAL_Driver/Src/stm32f7xx_hal_i2c.c:3798:11
	movs	r3, #8
	.loc	7 3795 32               @ ../Drivers/STM32F7xx_HAL_Driver/Src/stm32f7xx_hal_i2c.c:3795:32
	str	r2, [r4, #72]
	.loc	7 3798 11               @ ../Drivers/STM32F7xx_HAL_Driver/Src/stm32f7xx_hal_i2c.c:3798:11
	str	r3, [r0, #28]
.Ltmp499:
	.loc	7 3801 11               @ ../Drivers/STM32F7xx_HAL_Driver/Src/stm32f7xx_hal_i2c.c:3801:11
	strb.w	r2, [r4, #64]
.Ltmp500:
	.loc	7 3804 11               @ ../Drivers/STM32F7xx_HAL_Driver/Src/stm32f7xx_hal_i2c.c:3804:11
	uxth	r2, r1
	b	.LBB18_27
.Ltmp501:
.Lfunc_end18:
	.size	I2C_Slave_ISR_IT, .Lfunc_end18-I2C_Slave_ISR_IT
	.cfi_endproc
	.cantunwind
	.fnend
                                        @ -- End function
	.section	.text.HAL_I2C_Slave_Receive_IT,"ax",%progbits
	.hidden	HAL_I2C_Slave_Receive_IT @ -- Begin function HAL_I2C_Slave_Receive_IT
	.globl	HAL_I2C_Slave_Receive_IT
	.p2align	2
	.type	HAL_I2C_Slave_Receive_IT,%function
	.code	16                      @ @HAL_I2C_Slave_Receive_IT
	.thumb_func
HAL_I2C_Slave_Receive_IT:
.Lfunc_begin19:
	.loc	7 1332 0                @ ../Drivers/STM32F7xx_HAL_Driver/Src/stm32f7xx_hal_i2c.c:1332:0
	.fnstart
	.cfi_startproc
@ %bb.0:
	.save	{r4, lr}
	push	{r4, lr}
	.cfi_def_cfa_offset 8
	.cfi_offset lr, -4
	.cfi_offset r4, -8
	@DEBUG_VALUE: HAL_I2C_Slave_Receive_IT:hi2c <- $r0
	@DEBUG_VALUE: HAL_I2C_Slave_Receive_IT:hi2c <- $r0
	@DEBUG_VALUE: HAL_I2C_Slave_Receive_IT:pData <- $r1
	@DEBUG_VALUE: HAL_I2C_Slave_Receive_IT:pData <- $r1
	@DEBUG_VALUE: HAL_I2C_Slave_Receive_IT:Size <- $r2
	@DEBUG_VALUE: HAL_I2C_Slave_Receive_IT:Size <- $r2
.Ltmp502:
	.loc	7 1333 12 prologue_end  @ ../Drivers/STM32F7xx_HAL_Driver/Src/stm32f7xx_hal_i2c.c:1333:12
	ldrb.w	r3, [r0, #65]
.Ltmp503:
	.loc	7 1333 6 is_stmt 0      @ ../Drivers/STM32F7xx_HAL_Driver/Src/stm32f7xx_hal_i2c.c:1333:6
	cmp	r3, #32
	bne	.LBB19_2
.Ltmp504:
@ %bb.1:
	@DEBUG_VALUE: HAL_I2C_Slave_Receive_IT:Size <- $r2
	@DEBUG_VALUE: HAL_I2C_Slave_Receive_IT:pData <- $r1
	@DEBUG_VALUE: HAL_I2C_Slave_Receive_IT:hi2c <- $r0
	.loc	7 1336 5 is_stmt 1      @ ../Drivers/STM32F7xx_HAL_Driver/Src/stm32f7xx_hal_i2c.c:1336:5
	ldrb.w	r3, [r0, #64]
.Ltmp505:
	.loc	7 1336 5 is_stmt 0      @ ../Drivers/STM32F7xx_HAL_Driver/Src/stm32f7xx_hal_i2c.c:1336:5
	cmp	r3, #1
	bne	.LBB19_3
.Ltmp506:
.LBB19_2:
	@DEBUG_VALUE: HAL_I2C_Slave_Receive_IT:Size <- $r2
	@DEBUG_VALUE: HAL_I2C_Slave_Receive_IT:pData <- $r1
	@DEBUG_VALUE: HAL_I2C_Slave_Receive_IT:hi2c <- $r0
	.loc	7 0 5                   @ ../Drivers/STM32F7xx_HAL_Driver/Src/stm32f7xx_hal_i2c.c:0:5
	movs	r4, #2
	b	.LBB19_4
.Ltmp507:
.LBB19_3:
	@DEBUG_VALUE: HAL_I2C_Slave_Receive_IT:Size <- $r2
	@DEBUG_VALUE: HAL_I2C_Slave_Receive_IT:pData <- $r1
	@DEBUG_VALUE: HAL_I2C_Slave_Receive_IT:hi2c <- $r0
	@DEBUG_VALUE: HAL_I2C_Slave_Receive_IT:Size <- $r2
	.loc	7 1338 23 is_stmt 1     @ ../Drivers/STM32F7xx_HAL_Driver/Src/stm32f7xx_hal_i2c.c:1338:23
	movs	r3, #34
	movs	r4, #0
	strb.w	r3, [r0, #65]
	.loc	7 1339 23               @ ../Drivers/STM32F7xx_HAL_Driver/Src/stm32f7xx_hal_i2c.c:1339:23
	movs	r3, #32
	strb.w	r3, [r0, #66]
	.loc	7 1340 23               @ ../Drivers/STM32F7xx_HAL_Driver/Src/stm32f7xx_hal_i2c.c:1340:23
	str	r4, [r0, #68]
	.loc	7 1343 11               @ ../Drivers/STM32F7xx_HAL_Driver/Src/stm32f7xx_hal_i2c.c:1343:11
	ldr.w	r12, [r0]
	.loc	7 1343 25 is_stmt 0     @ ../Drivers/STM32F7xx_HAL_Driver/Src/stm32f7xx_hal_i2c.c:1343:25
	ldr.w	r3, [r12, #4]
	bic	r3, r3, #32768
	str.w	r3, [r12, #4]
	.loc	7 1347 23 is_stmt 1     @ ../Drivers/STM32F7xx_HAL_Driver/Src/stm32f7xx_hal_i2c.c:1347:23
	strh	r2, [r0, #42]
	.loc	7 1346 23               @ ../Drivers/STM32F7xx_HAL_Driver/Src/stm32f7xx_hal_i2c.c:1346:23
	str	r1, [r0, #36]
	.loc	7 1350 23               @ ../Drivers/STM32F7xx_HAL_Driver/Src/stm32f7xx_hal_i2c.c:1350:23
	ldr	r1, __arm_cp.19_0
.Ltmp508:
	.loc	7 1349 23               @ ../Drivers/STM32F7xx_HAL_Driver/Src/stm32f7xx_hal_i2c.c:1349:23
	ldr	r2, __arm_cp.19_1
.Ltmp509:
	.loc	7 1350 23               @ ../Drivers/STM32F7xx_HAL_Driver/Src/stm32f7xx_hal_i2c.c:1350:23
	str	r1, [r0, #52]
.Ltmp510:
	.loc	7 1353 5                @ ../Drivers/STM32F7xx_HAL_Driver/Src/stm32f7xx_hal_i2c.c:1353:5
	strb.w	r4, [r0, #64]
.Ltmp511:
	.loc	7 1348 31               @ ../Drivers/STM32F7xx_HAL_Driver/Src/stm32f7xx_hal_i2c.c:1348:31
	ldrh	r1, [r0, #42]
	.loc	7 1349 23               @ ../Drivers/STM32F7xx_HAL_Driver/Src/stm32f7xx_hal_i2c.c:1349:23
	str	r2, [r0, #44]
	.loc	7 1348 23               @ ../Drivers/STM32F7xx_HAL_Driver/Src/stm32f7xx_hal_i2c.c:1348:23
	strh	r1, [r0, #40]
	.loc	7 1362 5                @ ../Drivers/STM32F7xx_HAL_Driver/Src/stm32f7xx_hal_i2c.c:1362:5
	movs	r1, #6
	bl	I2C_Enable_IRQ
.Ltmp512:
.LBB19_4:
	.loc	7 1370 1                @ ../Drivers/STM32F7xx_HAL_Driver/Src/stm32f7xx_hal_i2c.c:1370:1
	uxtb	r0, r4
	pop	{r4, pc}
.Ltmp513:
	.p2align	2
@ %bb.5:
	.loc	7 0 1 is_stmt 0         @ ../Drivers/STM32F7xx_HAL_Driver/Src/stm32f7xx_hal_i2c.c:0:1
__arm_cp.19_0:
	.long	I2C_Slave_ISR_IT
.Lcpi_end13:
	.size	__arm_cp.19_0, .Lcpi_end13-__arm_cp.19_0
__arm_cp.19_1:
	.long	4294901760              @ 0xffff0000
.Lcpi_end14:
	.size	__arm_cp.19_1, .Lcpi_end14-__arm_cp.19_1
.Lfunc_end19:
	.size	HAL_I2C_Slave_Receive_IT, .Lfunc_end19-HAL_I2C_Slave_Receive_IT
	.cfi_endproc
	.cantunwind
	.fnend
                                        @ -- End function
	.section	.text.HAL_I2C_Master_Transmit_DMA,"ax",%progbits
	.hidden	HAL_I2C_Master_Transmit_DMA @ -- Begin function HAL_I2C_Master_Transmit_DMA
	.globl	HAL_I2C_Master_Transmit_DMA
	.p2align	2
	.type	HAL_I2C_Master_Transmit_DMA,%function
	.code	16                      @ @HAL_I2C_Master_Transmit_DMA
	.thumb_func
HAL_I2C_Master_Transmit_DMA:
.Lfunc_begin20:
	.loc	7 1383 0 is_stmt 1      @ ../Drivers/STM32F7xx_HAL_Driver/Src/stm32f7xx_hal_i2c.c:1383:0
	.fnstart
	.cfi_startproc
@ %bb.0:
	.save	{r4, r5, r6, r7, r8, lr}
	.pad	#8
	push.w	{r2, r3, r4, r5, r6, r7, r8, lr}
	.cfi_def_cfa_offset 32
	.cfi_offset lr, -4
	.cfi_offset r8, -8
	.cfi_offset r7, -12
	.cfi_offset r6, -16
	.cfi_offset r5, -20
	.cfi_offset r4, -24
	@DEBUG_VALUE: HAL_I2C_Master_Transmit_DMA:hi2c <- $r0
	@DEBUG_VALUE: HAL_I2C_Master_Transmit_DMA:DevAddress <- $r1
	@DEBUG_VALUE: HAL_I2C_Master_Transmit_DMA:pData <- $r2
	@DEBUG_VALUE: HAL_I2C_Master_Transmit_DMA:Size <- $r3
	mov	r4, r0
.Ltmp514:
	@DEBUG_VALUE: HAL_I2C_Master_Transmit_DMA:xfermode <- 0
	@DEBUG_VALUE: HAL_I2C_Master_Transmit_DMA:Size <- $r3
	@DEBUG_VALUE: HAL_I2C_Master_Transmit_DMA:pData <- $r2
	@DEBUG_VALUE: HAL_I2C_Master_Transmit_DMA:DevAddress <- $r5
	@DEBUG_VALUE: HAL_I2C_Master_Transmit_DMA:hi2c <- $r4
	.loc	7 1386 12 prologue_end  @ ../Drivers/STM32F7xx_HAL_Driver/Src/stm32f7xx_hal_i2c.c:1386:12
	ldrb.w	r0, [r0, #65]
	mov	r5, r1
.Ltmp515:
	.loc	7 1386 6 is_stmt 0      @ ../Drivers/STM32F7xx_HAL_Driver/Src/stm32f7xx_hal_i2c.c:1386:6
	cmp	r0, #32
	bne	.LBB20_3
.Ltmp516:
@ %bb.1:
	@DEBUG_VALUE: HAL_I2C_Master_Transmit_DMA:hi2c <- $r4
	@DEBUG_VALUE: HAL_I2C_Master_Transmit_DMA:Size <- $r3
	@DEBUG_VALUE: HAL_I2C_Master_Transmit_DMA:pData <- $r2
	.loc	7 1388 8 is_stmt 1      @ ../Drivers/STM32F7xx_HAL_Driver/Src/stm32f7xx_hal_i2c.c:1388:8
	ldr	r1, [r4]
	ldr	r0, [r1, #24]
.Ltmp517:
	.loc	7 1388 8 is_stmt 0      @ ../Drivers/STM32F7xx_HAL_Driver/Src/stm32f7xx_hal_i2c.c:1388:8
	tst.w	r0, #32768
	bne	.LBB20_3
.Ltmp518:
@ %bb.2:
	@DEBUG_VALUE: HAL_I2C_Master_Transmit_DMA:hi2c <- $r4
	@DEBUG_VALUE: HAL_I2C_Master_Transmit_DMA:Size <- $r3
	@DEBUG_VALUE: HAL_I2C_Master_Transmit_DMA:pData <- $r2
	.loc	7 1394 5 is_stmt 1      @ ../Drivers/STM32F7xx_HAL_Driver/Src/stm32f7xx_hal_i2c.c:1394:5
	ldrb.w	r0, [r4, #64]
.Ltmp519:
	.loc	7 1394 5 is_stmt 0      @ ../Drivers/STM32F7xx_HAL_Driver/Src/stm32f7xx_hal_i2c.c:1394:5
	cmp	r0, #1
	bne	.LBB20_5
.Ltmp520:
.LBB20_3:
	@DEBUG_VALUE: HAL_I2C_Master_Transmit_DMA:hi2c <- $r4
	@DEBUG_VALUE: HAL_I2C_Master_Transmit_DMA:Size <- $r3
	@DEBUG_VALUE: HAL_I2C_Master_Transmit_DMA:pData <- $r2
	.loc	7 0 5                   @ ../Drivers/STM32F7xx_HAL_Driver/Src/stm32f7xx_hal_i2c.c:0:5
	movs	r7, #2
.Ltmp521:
.LBB20_4:
	@DEBUG_VALUE: HAL_I2C_Master_Transmit_DMA:hi2c <- $r4
	.loc	7 1478 1 is_stmt 1      @ ../Drivers/STM32F7xx_HAL_Driver/Src/stm32f7xx_hal_i2c.c:1478:1
	uxtb	r0, r7
	add	sp, #8
	pop.w	{r4, r5, r6, r7, r8, pc}
.Ltmp522:
.LBB20_5:
	@DEBUG_VALUE: HAL_I2C_Master_Transmit_DMA:hi2c <- $r4
	@DEBUG_VALUE: HAL_I2C_Master_Transmit_DMA:Size <- $r3
	@DEBUG_VALUE: HAL_I2C_Master_Transmit_DMA:pData <- $r2
	@DEBUG_VALUE: HAL_I2C_Master_Transmit_DMA:DevAddress <- $r5
	@DEBUG_VALUE: HAL_I2C_Master_Transmit_DMA:Size <- $r3
	.loc	7 1396 23               @ ../Drivers/STM32F7xx_HAL_Driver/Src/stm32f7xx_hal_i2c.c:1396:23
	movs	r0, #33
	strb.w	r0, [r4, #65]
	.loc	7 1397 23               @ ../Drivers/STM32F7xx_HAL_Driver/Src/stm32f7xx_hal_i2c.c:1397:23
	movs	r0, #16
	strb.w	r0, [r4, #66]
	movs	r0, #0
	.loc	7 1398 23               @ ../Drivers/STM32F7xx_HAL_Driver/Src/stm32f7xx_hal_i2c.c:1398:23
	str	r0, [r4, #68]
	.loc	7 1403 23               @ ../Drivers/STM32F7xx_HAL_Driver/Src/stm32f7xx_hal_i2c.c:1403:23
	ldr	r0, __arm_cp.20_0
	.loc	7 1402 23               @ ../Drivers/STM32F7xx_HAL_Driver/Src/stm32f7xx_hal_i2c.c:1402:23
	strh	r3, [r4, #42]
	.loc	7 1403 23               @ ../Drivers/STM32F7xx_HAL_Driver/Src/stm32f7xx_hal_i2c.c:1403:23
	str	r0, [r4, #44]
	movs	r0, #1
.Ltmp523:
	.loc	7 1394 5                @ ../Drivers/STM32F7xx_HAL_Driver/Src/stm32f7xx_hal_i2c.c:1394:5
	strb.w	r0, [r4, #64]
.Ltmp524:
	.loc	7 1404 23               @ ../Drivers/STM32F7xx_HAL_Driver/Src/stm32f7xx_hal_i2c.c:1404:23
	ldr	r0, __arm_cp.20_1
	.loc	7 1401 23               @ ../Drivers/STM32F7xx_HAL_Driver/Src/stm32f7xx_hal_i2c.c:1401:23
	str	r2, [r4, #36]
	.loc	7 1404 23               @ ../Drivers/STM32F7xx_HAL_Driver/Src/stm32f7xx_hal_i2c.c:1404:23
	str	r0, [r4, #52]
.Ltmp525:
	.loc	7 1406 14               @ ../Drivers/STM32F7xx_HAL_Driver/Src/stm32f7xx_hal_i2c.c:1406:14
	ldrh	r0, [r4, #42]
.Ltmp526:
	.loc	7 1406 8 is_stmt 0      @ ../Drivers/STM32F7xx_HAL_Driver/Src/stm32f7xx_hal_i2c.c:1406:8
	cmp.w	r0, #256
	blo	.LBB20_7
.Ltmp527:
@ %bb.6:
	@DEBUG_VALUE: HAL_I2C_Master_Transmit_DMA:hi2c <- $r4
	@DEBUG_VALUE: HAL_I2C_Master_Transmit_DMA:DevAddress <- $r5
	@DEBUG_VALUE: HAL_I2C_Master_Transmit_DMA:Size <- $r3
	@DEBUG_VALUE: HAL_I2C_Master_Transmit_DMA:pData <- $r2
	.loc	7 0 8                   @ ../Drivers/STM32F7xx_HAL_Driver/Src/stm32f7xx_hal_i2c.c:0:8
	movs	r3, #255
.Ltmp528:
	mov.w	r8, #16777216
.Ltmp529:
	@DEBUG_VALUE: HAL_I2C_Master_Transmit_DMA:xfermode <- 33554432
	.loc	7 1413 22 is_stmt 1     @ ../Drivers/STM32F7xx_HAL_Driver/Src/stm32f7xx_hal_i2c.c:1413:22
	strh	r3, [r4, #40]
	b	.LBB20_9
.Ltmp530:
.LBB20_7:
	@DEBUG_VALUE: HAL_I2C_Master_Transmit_DMA:hi2c <- $r4
	@DEBUG_VALUE: HAL_I2C_Master_Transmit_DMA:DevAddress <- $r5
	@DEBUG_VALUE: HAL_I2C_Master_Transmit_DMA:Size <- $r3
	@DEBUG_VALUE: HAL_I2C_Master_Transmit_DMA:pData <- $r2
	.loc	7 1413 30 is_stmt 0     @ ../Drivers/STM32F7xx_HAL_Driver/Src/stm32f7xx_hal_i2c.c:1413:30
	ldrh	r3, [r4, #42]
.Ltmp531:
	@DEBUG_VALUE: HAL_I2C_Master_Transmit_DMA:xfermode <- 33554432
	.loc	7 1417 8 is_stmt 1      @ ../Drivers/STM32F7xx_HAL_Driver/Src/stm32f7xx_hal_i2c.c:1417:8
	cmp	r3, #0
.Ltmp532:
	.loc	7 1413 22               @ ../Drivers/STM32F7xx_HAL_Driver/Src/stm32f7xx_hal_i2c.c:1413:22
	strh	r3, [r4, #40]
.Ltmp533:
	.loc	7 1417 8                @ ../Drivers/STM32F7xx_HAL_Driver/Src/stm32f7xx_hal_i2c.c:1417:8
	beq	.LBB20_10
.Ltmp534:
@ %bb.8:
	@DEBUG_VALUE: HAL_I2C_Master_Transmit_DMA:hi2c <- $r4
	@DEBUG_VALUE: HAL_I2C_Master_Transmit_DMA:DevAddress <- $r5
	@DEBUG_VALUE: HAL_I2C_Master_Transmit_DMA:pData <- $r2
	.loc	7 0 8 is_stmt 0         @ ../Drivers/STM32F7xx_HAL_Driver/Src/stm32f7xx_hal_i2c.c:0:8
	mov.w	r8, #33554432
.Ltmp535:
.LBB20_9:
	@DEBUG_VALUE: HAL_I2C_Master_Transmit_DMA:hi2c <- $r4
	@DEBUG_VALUE: HAL_I2C_Master_Transmit_DMA:DevAddress <- $r5
	@DEBUG_VALUE: HAL_I2C_Master_Transmit_DMA:pData <- $r2
	.loc	7 1420 13 is_stmt 1     @ ../Drivers/STM32F7xx_HAL_Driver/Src/stm32f7xx_hal_i2c.c:1420:13
	ldr	r0, [r4, #56]
	.loc	7 1420 38 is_stmt 0     @ ../Drivers/STM32F7xx_HAL_Driver/Src/stm32f7xx_hal_i2c.c:1420:38
	ldr	r6, __arm_cp.20_4
	.loc	7 1423 39 is_stmt 1     @ ../Drivers/STM32F7xx_HAL_Driver/Src/stm32f7xx_hal_i2c.c:1423:39
	ldr.w	r12, __arm_cp.20_3
	movs	r7, #0
	.loc	7 1420 38               @ ../Drivers/STM32F7xx_HAL_Driver/Src/stm32f7xx_hal_i2c.c:1420:38
	strd	r6, r7, [r0, #60]
	.loc	7 1430 82               @ ../Drivers/STM32F7xx_HAL_Driver/Src/stm32f7xx_hal_i2c.c:1430:82
	add.w	r6, r1, #40
	.loc	7 1430 7 is_stmt 0      @ ../Drivers/STM32F7xx_HAL_Driver/Src/stm32f7xx_hal_i2c.c:1430:7
	mov	r1, r2
	.loc	7 1423 39 is_stmt 1     @ ../Drivers/STM32F7xx_HAL_Driver/Src/stm32f7xx_hal_i2c.c:1423:39
	strd	r12, r7, [r0, #76]
	.loc	7 1430 7                @ ../Drivers/STM32F7xx_HAL_Driver/Src/stm32f7xx_hal_i2c.c:1430:7
	mov	r2, r6
.Ltmp536:
	bl	HAL_DMA_Start_IT
	.loc	7 1434 7                @ ../Drivers/STM32F7xx_HAL_Driver/Src/stm32f7xx_hal_i2c.c:1434:7
	ldrb.w	r2, [r4, #40]
	mov.w	r0, #8192
	mov	r1, r5
	mov	r3, r8
	str	r0, [sp]
	mov	r0, r4
	bl	I2C_TransferConfig
.Ltmp537:
	.loc	7 1440 7                @ ../Drivers/STM32F7xx_HAL_Driver/Src/stm32f7xx_hal_i2c.c:1440:7
	strb.w	r7, [r4, #64]
.Ltmp538:
	.loc	7 1437 32               @ ../Drivers/STM32F7xx_HAL_Driver/Src/stm32f7xx_hal_i2c.c:1437:32
	ldrh	r0, [r4, #40]
	.loc	7 1437 23 is_stmt 0     @ ../Drivers/STM32F7xx_HAL_Driver/Src/stm32f7xx_hal_i2c.c:1437:23
	ldrh	r1, [r4, #42]
	subs	r0, r1, r0
	.loc	7 1446 7 is_stmt 1      @ ../Drivers/STM32F7xx_HAL_Driver/Src/stm32f7xx_hal_i2c.c:1446:7
	movs	r1, #17
	.loc	7 1437 23               @ ../Drivers/STM32F7xx_HAL_Driver/Src/stm32f7xx_hal_i2c.c:1437:23
	strh	r0, [r4, #42]
	.loc	7 1446 7                @ ../Drivers/STM32F7xx_HAL_Driver/Src/stm32f7xx_hal_i2c.c:1446:7
	mov	r0, r4
	bl	I2C_Enable_IRQ
	.loc	7 1449 13               @ ../Drivers/STM32F7xx_HAL_Driver/Src/stm32f7xx_hal_i2c.c:1449:13
	ldr	r0, [r4]
	.loc	7 1449 27 is_stmt 0     @ ../Drivers/STM32F7xx_HAL_Driver/Src/stm32f7xx_hal_i2c.c:1449:27
	ldr	r1, [r0]
	orr	r1, r1, #16384
	str	r1, [r0]
	b	.LBB20_4
.Ltmp539:
.LBB20_10:
	@DEBUG_VALUE: HAL_I2C_Master_Transmit_DMA:hi2c <- $r4
	@DEBUG_VALUE: HAL_I2C_Master_Transmit_DMA:DevAddress <- $r5
	@DEBUG_VALUE: HAL_I2C_Master_Transmit_DMA:pData <- $r2
	.loc	7 1454 21 is_stmt 1     @ ../Drivers/STM32F7xx_HAL_Driver/Src/stm32f7xx_hal_i2c.c:1454:21
	ldr	r0, __arm_cp.20_2
	.loc	7 1458 7                @ ../Drivers/STM32F7xx_HAL_Driver/Src/stm32f7xx_hal_i2c.c:1458:7
	mov	r1, r5
	movs	r2, #0
.Ltmp540:
	mov.w	r3, #33554432
	movs	r7, #0
	.loc	7 1454 21               @ ../Drivers/STM32F7xx_HAL_Driver/Src/stm32f7xx_hal_i2c.c:1454:21
	str	r0, [r4, #52]
	.loc	7 1458 7                @ ../Drivers/STM32F7xx_HAL_Driver/Src/stm32f7xx_hal_i2c.c:1458:7
	mov.w	r0, #8192
	str	r0, [sp]
	mov	r0, r4
	bl	I2C_TransferConfig
	.loc	7 1469 7                @ ../Drivers/STM32F7xx_HAL_Driver/Src/stm32f7xx_hal_i2c.c:1469:7
	mov	r0, r4
	movs	r1, #1
.Ltmp541:
	.loc	7 1461 7                @ ../Drivers/STM32F7xx_HAL_Driver/Src/stm32f7xx_hal_i2c.c:1461:7
	strb.w	r7, [r4, #64]
.Ltmp542:
	.loc	7 1469 7                @ ../Drivers/STM32F7xx_HAL_Driver/Src/stm32f7xx_hal_i2c.c:1469:7
	bl	I2C_Enable_IRQ
	b	.LBB20_4
.Ltmp543:
	.p2align	2
@ %bb.11:
	.loc	7 0 7 is_stmt 0         @ ../Drivers/STM32F7xx_HAL_Driver/Src/stm32f7xx_hal_i2c.c:0:7
__arm_cp.20_0:
	.long	4294901760              @ 0xffff0000
.Lcpi_end15:
	.size	__arm_cp.20_0, .Lcpi_end15-__arm_cp.20_0
__arm_cp.20_1:
	.long	I2C_Master_ISR_DMA
.Lcpi_end16:
	.size	__arm_cp.20_1, .Lcpi_end16-__arm_cp.20_1
__arm_cp.20_2:
	.long	I2C_Master_ISR_IT
.Lcpi_end17:
	.size	__arm_cp.20_2, .Lcpi_end17-__arm_cp.20_2
__arm_cp.20_3:
	.long	I2C_DMAError
.Lcpi_end18:
	.size	__arm_cp.20_3, .Lcpi_end18-__arm_cp.20_3
__arm_cp.20_4:
	.long	I2C_DMAMasterTransmitCplt
.Lcpi_end19:
	.size	__arm_cp.20_4, .Lcpi_end19-__arm_cp.20_4
.Lfunc_end20:
	.size	HAL_I2C_Master_Transmit_DMA, .Lfunc_end20-HAL_I2C_Master_Transmit_DMA
	.cfi_endproc
	.cantunwind
	.fnend
                                        @ -- End function
	.section	.text.I2C_Master_ISR_DMA,"ax",%progbits
	.p2align	1               @ -- Begin function I2C_Master_ISR_DMA
	.type	I2C_Master_ISR_DMA,%function
	.code	16                      @ @I2C_Master_ISR_DMA
	.thumb_func
I2C_Master_ISR_DMA:
.Lfunc_begin21:
	.loc	7 3496 0 is_stmt 1      @ ../Drivers/STM32F7xx_HAL_Driver/Src/stm32f7xx_hal_i2c.c:3496:0
	.fnstart
	.cfi_startproc
@ %bb.0:
	.save	{r4, lr}
	.pad	#8
	push	{r2, r3, r4, lr}
	.cfi_def_cfa_offset 16
	.cfi_offset lr, -4
	.cfi_offset r4, -8
	@DEBUG_VALUE: I2C_Master_ISR_DMA:hi2c <- $r0
	@DEBUG_VALUE: I2C_Master_ISR_DMA:ITFlags <- $r1
	@DEBUG_VALUE: I2C_Master_ISR_DMA:ITSources <- $r2
	mov	r4, r0
.Ltmp544:
	@DEBUG_VALUE: I2C_Master_ISR_DMA:xfermode <- 0
	@DEBUG_VALUE: I2C_Master_ISR_DMA:devaddress <- 0
	@DEBUG_VALUE: I2C_Master_ISR_DMA:ITSources <- $r2
	@DEBUG_VALUE: I2C_Master_ISR_DMA:ITFlags <- $r1
	@DEBUG_VALUE: I2C_Master_ISR_DMA:hi2c <- $r4
	.loc	7 3501 3 prologue_end   @ ../Drivers/STM32F7xx_HAL_Driver/Src/stm32f7xx_hal_i2c.c:3501:3
	ldrb.w	r0, [r0, #64]
.Ltmp545:
	.loc	7 3501 3 is_stmt 0      @ ../Drivers/STM32F7xx_HAL_Driver/Src/stm32f7xx_hal_i2c.c:3501:3
	cmp	r0, #1
	bne	.LBB21_2
.Ltmp546:
@ %bb.1:
	@DEBUG_VALUE: I2C_Master_ISR_DMA:hi2c <- $r4
	@DEBUG_VALUE: I2C_Master_ISR_DMA:ITSources <- $r2
	@DEBUG_VALUE: I2C_Master_ISR_DMA:ITFlags <- $r1
	.loc	7 0 3                   @ ../Drivers/STM32F7xx_HAL_Driver/Src/stm32f7xx_hal_i2c.c:0:3
	movs	r0, #2
	b	.LBB21_14
.Ltmp547:
.LBB21_2:
	@DEBUG_VALUE: I2C_Master_ISR_DMA:hi2c <- $r4
	@DEBUG_VALUE: I2C_Master_ISR_DMA:ITSources <- $r2
	@DEBUG_VALUE: I2C_Master_ISR_DMA:ITFlags <- $r1
	.loc	7 3501 3                @ ../Drivers/STM32F7xx_HAL_Driver/Src/stm32f7xx_hal_i2c.c:3501:3
	movs	r0, #1
	strb.w	r0, [r4, #64]
.Ltmp548:
	.loc	7 3503 41 is_stmt 1     @ ../Drivers/STM32F7xx_HAL_Driver/Src/stm32f7xx_hal_i2c.c:3503:41
	and.w	r0, r2, r1
	tst.w	r0, #16
	bne	.LBB21_8
.Ltmp549:
@ %bb.3:
	@DEBUG_VALUE: I2C_Master_ISR_DMA:hi2c <- $r4
	@DEBUG_VALUE: I2C_Master_ISR_DMA:ITSources <- $r2
	@DEBUG_VALUE: I2C_Master_ISR_DMA:ITFlags <- $r1
	.loc	7 3519 47               @ ../Drivers/STM32F7xx_HAL_Driver/Src/stm32f7xx_hal_i2c.c:3519:47
	lsls	r3, r1, #24
	bpl	.LBB21_9
.Ltmp550:
@ %bb.4:
	@DEBUG_VALUE: I2C_Master_ISR_DMA:hi2c <- $r4
	@DEBUG_VALUE: I2C_Master_ISR_DMA:ITSources <- $r2
	@DEBUG_VALUE: I2C_Master_ISR_DMA:ITFlags <- $r1
	.loc	7 0 47 is_stmt 0        @ ../Drivers/STM32F7xx_HAL_Driver/Src/stm32f7xx_hal_i2c.c:0:47
	ands	r2, r2, #64
.Ltmp551:
	.loc	7 3519 47               @ ../Drivers/STM32F7xx_HAL_Driver/Src/stm32f7xx_hal_i2c.c:3519:47
	beq	.LBB21_9
.Ltmp552:
@ %bb.5:
	@DEBUG_VALUE: I2C_Master_ISR_DMA:hi2c <- $r4
	@DEBUG_VALUE: I2C_Master_ISR_DMA:ITFlags <- $r1
	.loc	7 3522 5 is_stmt 1      @ ../Drivers/STM32F7xx_HAL_Driver/Src/stm32f7xx_hal_i2c.c:3522:5
	ldr	r0, [r4]
	ldr	r1, [r0]
.Ltmp553:
	bic	r1, r1, #64
	str	r1, [r0]
.Ltmp554:
	.loc	7 3524 14               @ ../Drivers/STM32F7xx_HAL_Driver/Src/stm32f7xx_hal_i2c.c:3524:14
	ldrh	r1, [r4, #42]
.Ltmp555:
	.loc	7 3524 8 is_stmt 0      @ ../Drivers/STM32F7xx_HAL_Driver/Src/stm32f7xx_hal_i2c.c:3524:8
	cbz	r1, .LBB21_10
.Ltmp556:
@ %bb.6:
	@DEBUG_VALUE: I2C_Master_ISR_DMA:hi2c <- $r4
	.loc	7 3527 37 is_stmt 1     @ ../Drivers/STM32F7xx_HAL_Driver/Src/stm32f7xx_hal_i2c.c:3527:37
	ldr	r0, [r0, #4]
.Ltmp557:
	.loc	7 3530 16               @ ../Drivers/STM32F7xx_HAL_Driver/Src/stm32f7xx_hal_i2c.c:3530:16
	ldrh	r1, [r4, #42]
.Ltmp558:
	.loc	7 3527 20               @ ../Drivers/STM32F7xx_HAL_Driver/Src/stm32f7xx_hal_i2c.c:3527:20
	bfc	r0, #10, #22
	.loc	7 3530 10               @ ../Drivers/STM32F7xx_HAL_Driver/Src/stm32f7xx_hal_i2c.c:3530:10
	cmp	r1, #255
	bls	.LBB21_11
.Ltmp559:
@ %bb.7:
	@DEBUG_VALUE: I2C_Master_ISR_DMA:hi2c <- $r4
	.loc	7 0 10 is_stmt 0        @ ../Drivers/STM32F7xx_HAL_Driver/Src/stm32f7xx_hal_i2c.c:0:10
	mov.w	r3, #16777216
	movs	r2, #255
	b	.LBB21_12
.Ltmp560:
.LBB21_8:
	@DEBUG_VALUE: I2C_Master_ISR_DMA:hi2c <- $r4
	@DEBUG_VALUE: I2C_Master_ISR_DMA:ITSources <- $r2
	@DEBUG_VALUE: I2C_Master_ISR_DMA:ITFlags <- $r1
	.loc	7 3506 5 is_stmt 1      @ ../Drivers/STM32F7xx_HAL_Driver/Src/stm32f7xx_hal_i2c.c:3506:5
	ldr	r0, [r4]
	movs	r1, #16
.Ltmp561:
	str	r1, [r0, #28]
	.loc	7 3514 5                @ ../Drivers/STM32F7xx_HAL_Driver/Src/stm32f7xx_hal_i2c.c:3514:5
	movs	r1, #18
	.loc	7 3509 21               @ ../Drivers/STM32F7xx_HAL_Driver/Src/stm32f7xx_hal_i2c.c:3509:21
	ldr	r0, [r4, #68]
	orr	r0, r0, #4
	str	r0, [r4, #68]
	.loc	7 3514 5                @ ../Drivers/STM32F7xx_HAL_Driver/Src/stm32f7xx_hal_i2c.c:3514:5
	mov	r0, r4
	bl	I2C_Enable_IRQ
.Ltmp562:
	.loc	7 3517 5                @ ../Drivers/STM32F7xx_HAL_Driver/Src/stm32f7xx_hal_i2c.c:3517:5
	mov	r0, r4
	bl	I2C_Flush_TXDR
	b	.LBB21_13
.Ltmp563:
.LBB21_9:
	@DEBUG_VALUE: I2C_Master_ISR_DMA:hi2c <- $r4
	@DEBUG_VALUE: I2C_Master_ISR_DMA:ITFlags <- $r1
	.loc	7 3564 49               @ ../Drivers/STM32F7xx_HAL_Driver/Src/stm32f7xx_hal_i2c.c:3564:49
	lsls	r0, r0, #26
.Ltmp564:
	.loc	7 3567 5                @ ../Drivers/STM32F7xx_HAL_Driver/Src/stm32f7xx_hal_i2c.c:3567:5
	itt	mi
	movmi	r0, r4
	blmi	I2C_ITMasterCplt
.Ltmp565:
	.loc	7 0 5 is_stmt 0         @ ../Drivers/STM32F7xx_HAL_Driver/Src/stm32f7xx_hal_i2c.c:0:5
	b	.LBB21_13
.Ltmp566:
.LBB21_10:
	@DEBUG_VALUE: I2C_Master_ISR_DMA:hi2c <- $r4
	.loc	7 3561 7 is_stmt 1      @ ../Drivers/STM32F7xx_HAL_Driver/Src/stm32f7xx_hal_i2c.c:3561:7
	mov	r0, r4
	movs	r1, #64
	bl	I2C_ITError
	b	.LBB21_13
.Ltmp567:
.LBB21_11:
	@DEBUG_VALUE: I2C_Master_ISR_DMA:hi2c <- $r4
	.loc	7 3537 32               @ ../Drivers/STM32F7xx_HAL_Driver/Src/stm32f7xx_hal_i2c.c:3537:32
	ldrh	r2, [r4, #42]
	mov.w	r3, #33554432
.Ltmp568:
	@DEBUG_VALUE: I2C_Master_ISR_DMA:xfermode <- 33554432
.LBB21_12:
	@DEBUG_VALUE: I2C_Master_ISR_DMA:hi2c <- $r4
	.loc	7 0 32 is_stmt 0        @ ../Drivers/STM32F7xx_HAL_Driver/Src/stm32f7xx_hal_i2c.c:0:32
	movs	r1, #0
	.loc	7 3537 24               @ ../Drivers/STM32F7xx_HAL_Driver/Src/stm32f7xx_hal_i2c.c:3537:24
	strh	r2, [r4, #40]
.Ltmp569:
	.loc	7 3542 7 is_stmt 1      @ ../Drivers/STM32F7xx_HAL_Driver/Src/stm32f7xx_hal_i2c.c:3542:7
	uxtb	r2, r2
.Ltmp570:
	@DEBUG_VALUE: I2C_Master_ISR_DMA:xfermode <- $r3
	str	r1, [sp]
	uxth	r1, r0
	mov	r0, r4
	bl	I2C_TransferConfig
.Ltmp571:
	.loc	7 3545 32               @ ../Drivers/STM32F7xx_HAL_Driver/Src/stm32f7xx_hal_i2c.c:3545:32
	ldrh	r0, [r4, #40]
	.loc	7 3545 23 is_stmt 0     @ ../Drivers/STM32F7xx_HAL_Driver/Src/stm32f7xx_hal_i2c.c:3545:23
	ldrh	r1, [r4, #42]
	subs	r0, r1, r0
	strh	r0, [r4, #42]
.Ltmp572:
	.loc	7 3548 16 is_stmt 1     @ ../Drivers/STM32F7xx_HAL_Driver/Src/stm32f7xx_hal_i2c.c:3548:16
	ldrb.w	r2, [r4, #65]
	ldr	r0, [r4]
	ldr	r1, [r0]
.Ltmp573:
	.loc	7 3548 10 is_stmt 0     @ ../Drivers/STM32F7xx_HAL_Driver/Src/stm32f7xx_hal_i2c.c:3548:10
	cmp	r2, #34
.Ltmp574:
	.loc	7 3554 29 is_stmt 1     @ ../Drivers/STM32F7xx_HAL_Driver/Src/stm32f7xx_hal_i2c.c:3554:29
	ite	ne
	orrne	r1, r1, #16384
.Ltmp575:
	.loc	7 3550 29               @ ../Drivers/STM32F7xx_HAL_Driver/Src/stm32f7xx_hal_i2c.c:3550:29
	orreq	r1, r1, #32768
	str	r1, [r0]
.Ltmp576:
.LBB21_13:
	@DEBUG_VALUE: I2C_Master_ISR_DMA:hi2c <- $r4
	.loc	7 0 29 is_stmt 0        @ ../Drivers/STM32F7xx_HAL_Driver/Src/stm32f7xx_hal_i2c.c:0:29
	movs	r0, #0
.Ltmp577:
	.loc	7 3571 3 is_stmt 1      @ ../Drivers/STM32F7xx_HAL_Driver/Src/stm32f7xx_hal_i2c.c:3571:3
	strb.w	r0, [r4, #64]
.Ltmp578:
.LBB21_14:
	@DEBUG_VALUE: I2C_Master_ISR_DMA:hi2c <- $r4
	.loc	7 3574 1                @ ../Drivers/STM32F7xx_HAL_Driver/Src/stm32f7xx_hal_i2c.c:3574:1
	uxtb	r0, r0
	add	sp, #8
	pop	{r4, pc}
.Ltmp579:
.Lfunc_end21:
	.size	I2C_Master_ISR_DMA, .Lfunc_end21-I2C_Master_ISR_DMA
	.cfi_endproc
	.cantunwind
	.fnend
                                        @ -- End function
	.section	.text.I2C_DMAMasterTransmitCplt,"ax",%progbits
	.p2align	1               @ -- Begin function I2C_DMAMasterTransmitCplt
	.type	I2C_DMAMasterTransmitCplt,%function
	.code	16                      @ @I2C_DMAMasterTransmitCplt
	.thumb_func
I2C_DMAMasterTransmitCplt:
.Lfunc_begin22:
	.loc	7 4305 0                @ ../Drivers/STM32F7xx_HAL_Driver/Src/stm32f7xx_hal_i2c.c:4305:0
	.fnstart
	.cfi_startproc
@ %bb.0:
	.save	{r4, lr}
	push	{r4, lr}
	.cfi_def_cfa_offset 8
	.cfi_offset lr, -4
	.cfi_offset r4, -8
	@DEBUG_VALUE: I2C_DMAMasterTransmitCplt:hdma <- $r0
	@DEBUG_VALUE: I2C_DMAMasterTransmitCplt:hdma <- $r0
.Ltmp580:
	.loc	7 4306 77 prologue_end  @ ../Drivers/STM32F7xx_HAL_Driver/Src/stm32f7xx_hal_i2c.c:4306:77
	ldr	r4, [r0, #56]
.Ltmp581:
	@DEBUG_VALUE: I2C_DMAMasterTransmitCplt:hi2c <- $r4
	.loc	7 4309 9                @ ../Drivers/STM32F7xx_HAL_Driver/Src/stm32f7xx_hal_i2c.c:4309:9
	ldr	r2, [r4]
	.loc	7 4309 23 is_stmt 0     @ ../Drivers/STM32F7xx_HAL_Driver/Src/stm32f7xx_hal_i2c.c:4309:23
	ldr	r0, [r2]
.Ltmp582:
	bic	r0, r0, #16384
	str	r0, [r2]
.Ltmp583:
	.loc	7 4312 12 is_stmt 1     @ ../Drivers/STM32F7xx_HAL_Driver/Src/stm32f7xx_hal_i2c.c:4312:12
	ldrh	r0, [r4, #42]
.Ltmp584:
	.loc	7 4312 6 is_stmt 0      @ ../Drivers/STM32F7xx_HAL_Driver/Src/stm32f7xx_hal_i2c.c:4312:6
	cbz	r0, .LBB22_2
.Ltmp585:
@ %bb.1:
	@DEBUG_VALUE: I2C_DMAMasterTransmitCplt:hi2c <- $r4
	.loc	7 4321 23 is_stmt 1     @ ../Drivers/STM32F7xx_HAL_Driver/Src/stm32f7xx_hal_i2c.c:4321:23
	ldrh	r0, [r4, #40]
	.loc	7 4321 20 is_stmt 0     @ ../Drivers/STM32F7xx_HAL_Driver/Src/stm32f7xx_hal_i2c.c:4321:20
	ldr	r1, [r4, #36]
	.loc	7 4334 89 is_stmt 1     @ ../Drivers/STM32F7xx_HAL_Driver/Src/stm32f7xx_hal_i2c.c:4334:89
	adds	r2, #40
	.loc	7 4321 20               @ ../Drivers/STM32F7xx_HAL_Driver/Src/stm32f7xx_hal_i2c.c:4321:20
	add	r1, r0
	str	r1, [r4, #36]
.Ltmp586:
	.loc	7 4324 14               @ ../Drivers/STM32F7xx_HAL_Driver/Src/stm32f7xx_hal_i2c.c:4324:14
	ldrh	r0, [r4, #42]
.Ltmp587:
	.loc	7 4324 8 is_stmt 0      @ ../Drivers/STM32F7xx_HAL_Driver/Src/stm32f7xx_hal_i2c.c:4324:8
	cmp	r0, #255
.Ltmp588:
	.loc	7 4330 30 is_stmt 1     @ ../Drivers/STM32F7xx_HAL_Driver/Src/stm32f7xx_hal_i2c.c:4330:30
	ite	ls
	ldrhls	r3, [r4, #42]
	movhi	r3, #255
	strh	r3, [r4, #40]
.Ltmp589:
	.loc	7 4334 28               @ ../Drivers/STM32F7xx_HAL_Driver/Src/stm32f7xx_hal_i2c.c:4334:28
	ldr	r0, [r4, #56]
	.loc	7 4334 5 is_stmt 0      @ ../Drivers/STM32F7xx_HAL_Driver/Src/stm32f7xx_hal_i2c.c:4334:5
	bl	HAL_DMA_Start_IT
.Ltmp590:
.LBB22_2:
	@DEBUG_VALUE: I2C_DMAMasterTransmitCplt:hi2c <- $r4
	.loc	7 0 5                   @ ../Drivers/STM32F7xx_HAL_Driver/Src/stm32f7xx_hal_i2c.c:0:5
	mov	r0, r4
	movs	r1, #18
	pop.w	{r4, lr}
.Ltmp591:
	b	I2C_Enable_IRQ
.Lfunc_end22:
	.size	I2C_DMAMasterTransmitCplt, .Lfunc_end22-I2C_DMAMasterTransmitCplt
	.cfi_endproc
	.cantunwind
	.fnend
                                        @ -- End function
	.section	.text.I2C_DMAError,"ax",%progbits
	.p2align	1               @ -- Begin function I2C_DMAError
	.type	I2C_DMAError,%function
	.code	16                      @ @I2C_DMAError
	.thumb_func
I2C_DMAError:
.Lfunc_begin23:
	.loc	7 4419 0 is_stmt 1      @ ../Drivers/STM32F7xx_HAL_Driver/Src/stm32f7xx_hal_i2c.c:4419:0
	.fnstart
	.cfi_startproc
@ %bb.0:
	@DEBUG_VALUE: I2C_DMAError:hdma <- $r0
	@DEBUG_VALUE: I2C_DMAError:hdma <- $r0
	.loc	7 4420 80 prologue_end  @ ../Drivers/STM32F7xx_HAL_Driver/Src/stm32f7xx_hal_i2c.c:4420:80
	ldr	r0, [r0, #56]
.Ltmp592:
	@DEBUG_VALUE: I2C_DMAError:hi2c <- $r0
	.loc	7 4423 9                @ ../Drivers/STM32F7xx_HAL_Driver/Src/stm32f7xx_hal_i2c.c:4423:9
	ldr	r1, [r0]
	.loc	7 4423 23 is_stmt 0     @ ../Drivers/STM32F7xx_HAL_Driver/Src/stm32f7xx_hal_i2c.c:4423:23
	ldr	r2, [r1, #4]
	orr	r2, r2, #32768
	str	r2, [r1, #4]
	.loc	7 4426 3 is_stmt 1      @ ../Drivers/STM32F7xx_HAL_Driver/Src/stm32f7xx_hal_i2c.c:4426:3
	movs	r1, #16
	b	I2C_ITError
.Ltmp593:
.Lfunc_end23:
	.size	I2C_DMAError, .Lfunc_end23-I2C_DMAError
	.cfi_endproc
	.cantunwind
	.fnend
                                        @ -- End function
	.section	.text.HAL_I2C_Master_Receive_DMA,"ax",%progbits
	.hidden	HAL_I2C_Master_Receive_DMA @ -- Begin function HAL_I2C_Master_Receive_DMA
	.globl	HAL_I2C_Master_Receive_DMA
	.p2align	2
	.type	HAL_I2C_Master_Receive_DMA,%function
	.code	16                      @ @HAL_I2C_Master_Receive_DMA
	.thumb_func
HAL_I2C_Master_Receive_DMA:
.Lfunc_begin24:
	.loc	7 1491 0                @ ../Drivers/STM32F7xx_HAL_Driver/Src/stm32f7xx_hal_i2c.c:1491:0
	.fnstart
	.cfi_startproc
@ %bb.0:
	.save	{r4, r5, r6, r7, r8, lr}
	.pad	#8
	push.w	{r2, r3, r4, r5, r6, r7, r8, lr}
	.cfi_def_cfa_offset 32
	.cfi_offset lr, -4
	.cfi_offset r8, -8
	.cfi_offset r7, -12
	.cfi_offset r6, -16
	.cfi_offset r5, -20
	.cfi_offset r4, -24
	@DEBUG_VALUE: HAL_I2C_Master_Receive_DMA:hi2c <- $r0
	@DEBUG_VALUE: HAL_I2C_Master_Receive_DMA:DevAddress <- $r1
	@DEBUG_VALUE: HAL_I2C_Master_Receive_DMA:pData <- $r2
	@DEBUG_VALUE: HAL_I2C_Master_Receive_DMA:Size <- $r3
	mov	r4, r0
.Ltmp594:
	@DEBUG_VALUE: HAL_I2C_Master_Receive_DMA:xfermode <- 0
	@DEBUG_VALUE: HAL_I2C_Master_Receive_DMA:Size <- $r3
	@DEBUG_VALUE: HAL_I2C_Master_Receive_DMA:pData <- $r2
	@DEBUG_VALUE: HAL_I2C_Master_Receive_DMA:DevAddress <- $r5
	@DEBUG_VALUE: HAL_I2C_Master_Receive_DMA:hi2c <- $r4
	.loc	7 1494 12 prologue_end  @ ../Drivers/STM32F7xx_HAL_Driver/Src/stm32f7xx_hal_i2c.c:1494:12
	ldrb.w	r0, [r0, #65]
	mov	r5, r1
.Ltmp595:
	.loc	7 1494 6 is_stmt 0      @ ../Drivers/STM32F7xx_HAL_Driver/Src/stm32f7xx_hal_i2c.c:1494:6
	cmp	r0, #32
	bne	.LBB24_3
.Ltmp596:
@ %bb.1:
	@DEBUG_VALUE: HAL_I2C_Master_Receive_DMA:hi2c <- $r4
	@DEBUG_VALUE: HAL_I2C_Master_Receive_DMA:Size <- $r3
	@DEBUG_VALUE: HAL_I2C_Master_Receive_DMA:pData <- $r2
	.loc	7 1496 8 is_stmt 1      @ ../Drivers/STM32F7xx_HAL_Driver/Src/stm32f7xx_hal_i2c.c:1496:8
	ldr	r1, [r4]
	ldr	r0, [r1, #24]
.Ltmp597:
	.loc	7 1496 8 is_stmt 0      @ ../Drivers/STM32F7xx_HAL_Driver/Src/stm32f7xx_hal_i2c.c:1496:8
	tst.w	r0, #32768
	bne	.LBB24_3
.Ltmp598:
@ %bb.2:
	@DEBUG_VALUE: HAL_I2C_Master_Receive_DMA:hi2c <- $r4
	@DEBUG_VALUE: HAL_I2C_Master_Receive_DMA:Size <- $r3
	@DEBUG_VALUE: HAL_I2C_Master_Receive_DMA:pData <- $r2
	.loc	7 1502 5 is_stmt 1      @ ../Drivers/STM32F7xx_HAL_Driver/Src/stm32f7xx_hal_i2c.c:1502:5
	ldrb.w	r0, [r4, #64]
.Ltmp599:
	.loc	7 1502 5 is_stmt 0      @ ../Drivers/STM32F7xx_HAL_Driver/Src/stm32f7xx_hal_i2c.c:1502:5
	cmp	r0, #1
	bne	.LBB24_5
.Ltmp600:
.LBB24_3:
	@DEBUG_VALUE: HAL_I2C_Master_Receive_DMA:hi2c <- $r4
	@DEBUG_VALUE: HAL_I2C_Master_Receive_DMA:Size <- $r3
	@DEBUG_VALUE: HAL_I2C_Master_Receive_DMA:pData <- $r2
	.loc	7 0 5                   @ ../Drivers/STM32F7xx_HAL_Driver/Src/stm32f7xx_hal_i2c.c:0:5
	movs	r7, #2
.Ltmp601:
.LBB24_4:
	@DEBUG_VALUE: HAL_I2C_Master_Receive_DMA:hi2c <- $r4
	.loc	7 1585 1 is_stmt 1      @ ../Drivers/STM32F7xx_HAL_Driver/Src/stm32f7xx_hal_i2c.c:1585:1
	uxtb	r0, r7
	add	sp, #8
	pop.w	{r4, r5, r6, r7, r8, pc}
.Ltmp602:
.LBB24_5:
	@DEBUG_VALUE: HAL_I2C_Master_Receive_DMA:hi2c <- $r4
	@DEBUG_VALUE: HAL_I2C_Master_Receive_DMA:Size <- $r3
	@DEBUG_VALUE: HAL_I2C_Master_Receive_DMA:pData <- $r2
	@DEBUG_VALUE: HAL_I2C_Master_Receive_DMA:DevAddress <- $r5
	@DEBUG_VALUE: HAL_I2C_Master_Receive_DMA:Size <- $r3
	.loc	7 1504 23               @ ../Drivers/STM32F7xx_HAL_Driver/Src/stm32f7xx_hal_i2c.c:1504:23
	movs	r0, #34
	strb.w	r0, [r4, #65]
	.loc	7 1505 23               @ ../Drivers/STM32F7xx_HAL_Driver/Src/stm32f7xx_hal_i2c.c:1505:23
	movs	r0, #16
	strb.w	r0, [r4, #66]
	movs	r0, #0
	.loc	7 1506 23               @ ../Drivers/STM32F7xx_HAL_Driver/Src/stm32f7xx_hal_i2c.c:1506:23
	str	r0, [r4, #68]
	.loc	7 1511 23               @ ../Drivers/STM32F7xx_HAL_Driver/Src/stm32f7xx_hal_i2c.c:1511:23
	ldr	r0, __arm_cp.24_0
	.loc	7 1510 23               @ ../Drivers/STM32F7xx_HAL_Driver/Src/stm32f7xx_hal_i2c.c:1510:23
	strh	r3, [r4, #42]
	.loc	7 1511 23               @ ../Drivers/STM32F7xx_HAL_Driver/Src/stm32f7xx_hal_i2c.c:1511:23
	str	r0, [r4, #44]
	movs	r0, #1
.Ltmp603:
	.loc	7 1502 5                @ ../Drivers/STM32F7xx_HAL_Driver/Src/stm32f7xx_hal_i2c.c:1502:5
	strb.w	r0, [r4, #64]
.Ltmp604:
	.loc	7 1512 23               @ ../Drivers/STM32F7xx_HAL_Driver/Src/stm32f7xx_hal_i2c.c:1512:23
	ldr	r0, __arm_cp.24_1
	.loc	7 1509 23               @ ../Drivers/STM32F7xx_HAL_Driver/Src/stm32f7xx_hal_i2c.c:1509:23
	str	r2, [r4, #36]
	.loc	7 1512 23               @ ../Drivers/STM32F7xx_HAL_Driver/Src/stm32f7xx_hal_i2c.c:1512:23
	str	r0, [r4, #52]
.Ltmp605:
	.loc	7 1514 14               @ ../Drivers/STM32F7xx_HAL_Driver/Src/stm32f7xx_hal_i2c.c:1514:14
	ldrh	r0, [r4, #42]
.Ltmp606:
	.loc	7 1514 8 is_stmt 0      @ ../Drivers/STM32F7xx_HAL_Driver/Src/stm32f7xx_hal_i2c.c:1514:8
	cmp.w	r0, #256
	blo	.LBB24_7
.Ltmp607:
@ %bb.6:
	@DEBUG_VALUE: HAL_I2C_Master_Receive_DMA:hi2c <- $r4
	@DEBUG_VALUE: HAL_I2C_Master_Receive_DMA:DevAddress <- $r5
	@DEBUG_VALUE: HAL_I2C_Master_Receive_DMA:Size <- $r3
	@DEBUG_VALUE: HAL_I2C_Master_Receive_DMA:pData <- $r2
	.loc	7 0 8                   @ ../Drivers/STM32F7xx_HAL_Driver/Src/stm32f7xx_hal_i2c.c:0:8
	movs	r3, #255
.Ltmp608:
	mov.w	r8, #16777216
.Ltmp609:
	@DEBUG_VALUE: HAL_I2C_Master_Receive_DMA:xfermode <- 33554432
	.loc	7 1521 22 is_stmt 1     @ ../Drivers/STM32F7xx_HAL_Driver/Src/stm32f7xx_hal_i2c.c:1521:22
	strh	r3, [r4, #40]
	b	.LBB24_9
.Ltmp610:
.LBB24_7:
	@DEBUG_VALUE: HAL_I2C_Master_Receive_DMA:hi2c <- $r4
	@DEBUG_VALUE: HAL_I2C_Master_Receive_DMA:DevAddress <- $r5
	@DEBUG_VALUE: HAL_I2C_Master_Receive_DMA:Size <- $r3
	@DEBUG_VALUE: HAL_I2C_Master_Receive_DMA:pData <- $r2
	.loc	7 1521 30 is_stmt 0     @ ../Drivers/STM32F7xx_HAL_Driver/Src/stm32f7xx_hal_i2c.c:1521:30
	ldrh	r3, [r4, #42]
.Ltmp611:
	@DEBUG_VALUE: HAL_I2C_Master_Receive_DMA:xfermode <- 33554432
	.loc	7 1525 8 is_stmt 1      @ ../Drivers/STM32F7xx_HAL_Driver/Src/stm32f7xx_hal_i2c.c:1525:8
	cmp	r3, #0
.Ltmp612:
	.loc	7 1521 22               @ ../Drivers/STM32F7xx_HAL_Driver/Src/stm32f7xx_hal_i2c.c:1521:22
	strh	r3, [r4, #40]
.Ltmp613:
	.loc	7 1525 8                @ ../Drivers/STM32F7xx_HAL_Driver/Src/stm32f7xx_hal_i2c.c:1525:8
	beq	.LBB24_10
.Ltmp614:
@ %bb.8:
	@DEBUG_VALUE: HAL_I2C_Master_Receive_DMA:hi2c <- $r4
	@DEBUG_VALUE: HAL_I2C_Master_Receive_DMA:DevAddress <- $r5
	@DEBUG_VALUE: HAL_I2C_Master_Receive_DMA:pData <- $r2
	.loc	7 0 8 is_stmt 0         @ ../Drivers/STM32F7xx_HAL_Driver/Src/stm32f7xx_hal_i2c.c:0:8
	mov.w	r8, #33554432
.Ltmp615:
.LBB24_9:
	@DEBUG_VALUE: HAL_I2C_Master_Receive_DMA:hi2c <- $r4
	@DEBUG_VALUE: HAL_I2C_Master_Receive_DMA:DevAddress <- $r5
	@DEBUG_VALUE: HAL_I2C_Master_Receive_DMA:pData <- $r2
	.loc	7 1528 13 is_stmt 1     @ ../Drivers/STM32F7xx_HAL_Driver/Src/stm32f7xx_hal_i2c.c:1528:13
	ldr	r0, [r4, #60]
	.loc	7 1531 39               @ ../Drivers/STM32F7xx_HAL_Driver/Src/stm32f7xx_hal_i2c.c:1531:39
	ldr.w	r12, __arm_cp.24_3
	.loc	7 1528 38               @ ../Drivers/STM32F7xx_HAL_Driver/Src/stm32f7xx_hal_i2c.c:1528:38
	ldr	r6, __arm_cp.24_4
	movs	r7, #0
	.loc	7 1538 65               @ ../Drivers/STM32F7xx_HAL_Driver/Src/stm32f7xx_hal_i2c.c:1538:65
	adds	r1, #36
	.loc	7 1528 38               @ ../Drivers/STM32F7xx_HAL_Driver/Src/stm32f7xx_hal_i2c.c:1528:38
	strd	r6, r7, [r0, #60]
	.loc	7 1531 39               @ ../Drivers/STM32F7xx_HAL_Driver/Src/stm32f7xx_hal_i2c.c:1531:39
	strd	r12, r7, [r0, #76]
	.loc	7 1538 7                @ ../Drivers/STM32F7xx_HAL_Driver/Src/stm32f7xx_hal_i2c.c:1538:7
	bl	HAL_DMA_Start_IT
.Ltmp616:
	.loc	7 1542 7                @ ../Drivers/STM32F7xx_HAL_Driver/Src/stm32f7xx_hal_i2c.c:1542:7
	ldrb.w	r2, [r4, #40]
	mov.w	r0, #9216
	mov	r1, r5
	mov	r3, r8
	str	r0, [sp]
	mov	r0, r4
	bl	I2C_TransferConfig
.Ltmp617:
	.loc	7 1548 7                @ ../Drivers/STM32F7xx_HAL_Driver/Src/stm32f7xx_hal_i2c.c:1548:7
	strb.w	r7, [r4, #64]
.Ltmp618:
	.loc	7 1545 32               @ ../Drivers/STM32F7xx_HAL_Driver/Src/stm32f7xx_hal_i2c.c:1545:32
	ldrh	r0, [r4, #40]
	.loc	7 1545 23 is_stmt 0     @ ../Drivers/STM32F7xx_HAL_Driver/Src/stm32f7xx_hal_i2c.c:1545:23
	ldrh	r1, [r4, #42]
	subs	r0, r1, r0
	.loc	7 1554 7 is_stmt 1      @ ../Drivers/STM32F7xx_HAL_Driver/Src/stm32f7xx_hal_i2c.c:1554:7
	movs	r1, #17
	.loc	7 1545 23               @ ../Drivers/STM32F7xx_HAL_Driver/Src/stm32f7xx_hal_i2c.c:1545:23
	strh	r0, [r4, #42]
	.loc	7 1554 7                @ ../Drivers/STM32F7xx_HAL_Driver/Src/stm32f7xx_hal_i2c.c:1554:7
	mov	r0, r4
	bl	I2C_Enable_IRQ
	.loc	7 1557 13               @ ../Drivers/STM32F7xx_HAL_Driver/Src/stm32f7xx_hal_i2c.c:1557:13
	ldr	r0, [r4]
	.loc	7 1557 27 is_stmt 0     @ ../Drivers/STM32F7xx_HAL_Driver/Src/stm32f7xx_hal_i2c.c:1557:27
	ldr	r1, [r0]
	orr	r1, r1, #32768
	str	r1, [r0]
	b	.LBB24_4
.Ltmp619:
.LBB24_10:
	@DEBUG_VALUE: HAL_I2C_Master_Receive_DMA:hi2c <- $r4
	@DEBUG_VALUE: HAL_I2C_Master_Receive_DMA:DevAddress <- $r5
	@DEBUG_VALUE: HAL_I2C_Master_Receive_DMA:pData <- $r2
	.loc	7 1562 21 is_stmt 1     @ ../Drivers/STM32F7xx_HAL_Driver/Src/stm32f7xx_hal_i2c.c:1562:21
	ldr	r0, __arm_cp.24_2
	.loc	7 1566 7                @ ../Drivers/STM32F7xx_HAL_Driver/Src/stm32f7xx_hal_i2c.c:1566:7
	mov	r1, r5
	movs	r2, #0
.Ltmp620:
	mov.w	r3, #33554432
	movs	r7, #0
	.loc	7 1562 21               @ ../Drivers/STM32F7xx_HAL_Driver/Src/stm32f7xx_hal_i2c.c:1562:21
	str	r0, [r4, #52]
	.loc	7 1566 7                @ ../Drivers/STM32F7xx_HAL_Driver/Src/stm32f7xx_hal_i2c.c:1566:7
	mov.w	r0, #9216
	str	r0, [sp]
	mov	r0, r4
	bl	I2C_TransferConfig
	.loc	7 1577 7                @ ../Drivers/STM32F7xx_HAL_Driver/Src/stm32f7xx_hal_i2c.c:1577:7
	mov	r0, r4
	movs	r1, #1
.Ltmp621:
	.loc	7 1569 7                @ ../Drivers/STM32F7xx_HAL_Driver/Src/stm32f7xx_hal_i2c.c:1569:7
	strb.w	r7, [r4, #64]
.Ltmp622:
	.loc	7 1577 7                @ ../Drivers/STM32F7xx_HAL_Driver/Src/stm32f7xx_hal_i2c.c:1577:7
	bl	I2C_Enable_IRQ
	b	.LBB24_4
.Ltmp623:
	.p2align	2
@ %bb.11:
	.loc	7 0 7 is_stmt 0         @ ../Drivers/STM32F7xx_HAL_Driver/Src/stm32f7xx_hal_i2c.c:0:7
__arm_cp.24_0:
	.long	4294901760              @ 0xffff0000
.Lcpi_end20:
	.size	__arm_cp.24_0, .Lcpi_end20-__arm_cp.24_0
__arm_cp.24_1:
	.long	I2C_Master_ISR_DMA
.Lcpi_end21:
	.size	__arm_cp.24_1, .Lcpi_end21-__arm_cp.24_1
__arm_cp.24_2:
	.long	I2C_Master_ISR_IT
.Lcpi_end22:
	.size	__arm_cp.24_2, .Lcpi_end22-__arm_cp.24_2
__arm_cp.24_3:
	.long	I2C_DMAError
.Lcpi_end23:
	.size	__arm_cp.24_3, .Lcpi_end23-__arm_cp.24_3
__arm_cp.24_4:
	.long	I2C_DMAMasterReceiveCplt
.Lcpi_end24:
	.size	__arm_cp.24_4, .Lcpi_end24-__arm_cp.24_4
.Lfunc_end24:
	.size	HAL_I2C_Master_Receive_DMA, .Lfunc_end24-HAL_I2C_Master_Receive_DMA
	.cfi_endproc
	.cantunwind
	.fnend
                                        @ -- End function
	.section	.text.I2C_DMAMasterReceiveCplt,"ax",%progbits
	.p2align	1               @ -- Begin function I2C_DMAMasterReceiveCplt
	.type	I2C_DMAMasterReceiveCplt,%function
	.code	16                      @ @I2C_DMAMasterReceiveCplt
	.thumb_func
I2C_DMAMasterReceiveCplt:
.Lfunc_begin25:
	.loc	7 4362 0 is_stmt 1      @ ../Drivers/STM32F7xx_HAL_Driver/Src/stm32f7xx_hal_i2c.c:4362:0
	.fnstart
	.cfi_startproc
@ %bb.0:
	.save	{r4, lr}
	push	{r4, lr}
	.cfi_def_cfa_offset 8
	.cfi_offset lr, -4
	.cfi_offset r4, -8
	@DEBUG_VALUE: I2C_DMAMasterReceiveCplt:hdma <- $r0
	@DEBUG_VALUE: I2C_DMAMasterReceiveCplt:hdma <- $r0
.Ltmp624:
	.loc	7 4363 77 prologue_end  @ ../Drivers/STM32F7xx_HAL_Driver/Src/stm32f7xx_hal_i2c.c:4363:77
	ldr	r4, [r0, #56]
.Ltmp625:
	@DEBUG_VALUE: I2C_DMAMasterReceiveCplt:hi2c <- $r4
	.loc	7 4366 9                @ ../Drivers/STM32F7xx_HAL_Driver/Src/stm32f7xx_hal_i2c.c:4366:9
	ldr	r1, [r4]
	.loc	7 4366 23 is_stmt 0     @ ../Drivers/STM32F7xx_HAL_Driver/Src/stm32f7xx_hal_i2c.c:4366:23
	ldr	r0, [r1]
.Ltmp626:
	bic	r0, r0, #32768
	str	r0, [r1]
.Ltmp627:
	.loc	7 4369 12 is_stmt 1     @ ../Drivers/STM32F7xx_HAL_Driver/Src/stm32f7xx_hal_i2c.c:4369:12
	ldrh	r0, [r4, #42]
.Ltmp628:
	.loc	7 4369 6 is_stmt 0      @ ../Drivers/STM32F7xx_HAL_Driver/Src/stm32f7xx_hal_i2c.c:4369:6
	cbz	r0, .LBB25_2
.Ltmp629:
@ %bb.1:
	@DEBUG_VALUE: I2C_DMAMasterReceiveCplt:hi2c <- $r4
	.loc	7 4378 23 is_stmt 1     @ ../Drivers/STM32F7xx_HAL_Driver/Src/stm32f7xx_hal_i2c.c:4378:23
	ldrh	r0, [r4, #40]
	.loc	7 4378 20 is_stmt 0     @ ../Drivers/STM32F7xx_HAL_Driver/Src/stm32f7xx_hal_i2c.c:4378:20
	ldr	r2, [r4, #36]
	.loc	7 4391 63 is_stmt 1     @ ../Drivers/STM32F7xx_HAL_Driver/Src/stm32f7xx_hal_i2c.c:4391:63
	adds	r1, #36
	.loc	7 4378 20               @ ../Drivers/STM32F7xx_HAL_Driver/Src/stm32f7xx_hal_i2c.c:4378:20
	add	r2, r0
	str	r2, [r4, #36]
.Ltmp630:
	.loc	7 4381 14               @ ../Drivers/STM32F7xx_HAL_Driver/Src/stm32f7xx_hal_i2c.c:4381:14
	ldrh	r0, [r4, #42]
.Ltmp631:
	.loc	7 4381 8 is_stmt 0      @ ../Drivers/STM32F7xx_HAL_Driver/Src/stm32f7xx_hal_i2c.c:4381:8
	cmp	r0, #255
.Ltmp632:
	.loc	7 4387 30 is_stmt 1     @ ../Drivers/STM32F7xx_HAL_Driver/Src/stm32f7xx_hal_i2c.c:4387:30
	ite	ls
	ldrhls	r3, [r4, #42]
	movhi	r3, #255
	strh	r3, [r4, #40]
.Ltmp633:
	.loc	7 4391 28               @ ../Drivers/STM32F7xx_HAL_Driver/Src/stm32f7xx_hal_i2c.c:4391:28
	ldr	r0, [r4, #60]
	.loc	7 4391 5 is_stmt 0      @ ../Drivers/STM32F7xx_HAL_Driver/Src/stm32f7xx_hal_i2c.c:4391:5
	bl	HAL_DMA_Start_IT
.Ltmp634:
.LBB25_2:
	@DEBUG_VALUE: I2C_DMAMasterReceiveCplt:hi2c <- $r4
	.loc	7 0 5                   @ ../Drivers/STM32F7xx_HAL_Driver/Src/stm32f7xx_hal_i2c.c:0:5
	mov	r0, r4
	movs	r1, #18
	pop.w	{r4, lr}
.Ltmp635:
	b	I2C_Enable_IRQ
.Lfunc_end25:
	.size	I2C_DMAMasterReceiveCplt, .Lfunc_end25-I2C_DMAMasterReceiveCplt
	.cfi_endproc
	.cantunwind
	.fnend
                                        @ -- End function
	.section	.text.HAL_I2C_Slave_Transmit_DMA,"ax",%progbits
	.hidden	HAL_I2C_Slave_Transmit_DMA @ -- Begin function HAL_I2C_Slave_Transmit_DMA
	.globl	HAL_I2C_Slave_Transmit_DMA
	.p2align	2
	.type	HAL_I2C_Slave_Transmit_DMA,%function
	.code	16                      @ @HAL_I2C_Slave_Transmit_DMA
	.thumb_func
HAL_I2C_Slave_Transmit_DMA:
.Lfunc_begin26:
	.loc	7 1596 0 is_stmt 1      @ ../Drivers/STM32F7xx_HAL_Driver/Src/stm32f7xx_hal_i2c.c:1596:0
	.fnstart
	.cfi_startproc
@ %bb.0:
	.save	{r4, r5, r7, lr}
	push	{r4, r5, r7, lr}
	.cfi_def_cfa_offset 16
	.cfi_offset lr, -4
	.cfi_offset r7, -8
	.cfi_offset r5, -12
	.cfi_offset r4, -16
	@DEBUG_VALUE: HAL_I2C_Slave_Transmit_DMA:hi2c <- $r0
	@DEBUG_VALUE: HAL_I2C_Slave_Transmit_DMA:pData <- $r1
	@DEBUG_VALUE: HAL_I2C_Slave_Transmit_DMA:Size <- $r2
	mov	r4, r0
	@DEBUG_VALUE: HAL_I2C_Slave_Transmit_DMA:Size <- $r2
	@DEBUG_VALUE: HAL_I2C_Slave_Transmit_DMA:pData <- $r1
.Ltmp636:
	@DEBUG_VALUE: HAL_I2C_Slave_Transmit_DMA:hi2c <- $r4
	.loc	7 1597 12 prologue_end  @ ../Drivers/STM32F7xx_HAL_Driver/Src/stm32f7xx_hal_i2c.c:1597:12
	ldrb.w	r0, [r0, #65]
.Ltmp637:
	.loc	7 1597 6 is_stmt 0      @ ../Drivers/STM32F7xx_HAL_Driver/Src/stm32f7xx_hal_i2c.c:1597:6
	cmp	r0, #32
	bne	.LBB26_4
.Ltmp638:
@ %bb.1:
	@DEBUG_VALUE: HAL_I2C_Slave_Transmit_DMA:hi2c <- $r4
	@DEBUG_VALUE: HAL_I2C_Slave_Transmit_DMA:Size <- $r2
	@DEBUG_VALUE: HAL_I2C_Slave_Transmit_DMA:pData <- $r1
	.loc	7 0 6                   @ ../Drivers/STM32F7xx_HAL_Driver/Src/stm32f7xx_hal_i2c.c:0:6
	movs	r5, #1
.Ltmp639:
	.loc	7 1599 24 is_stmt 1     @ ../Drivers/STM32F7xx_HAL_Driver/Src/stm32f7xx_hal_i2c.c:1599:24
	cbz	r1, .LBB26_5
.Ltmp640:
@ %bb.2:
	@DEBUG_VALUE: HAL_I2C_Slave_Transmit_DMA:hi2c <- $r4
	@DEBUG_VALUE: HAL_I2C_Slave_Transmit_DMA:Size <- $r2
	@DEBUG_VALUE: HAL_I2C_Slave_Transmit_DMA:pData <- $r1
	cbz	r2, .LBB26_5
.Ltmp641:
@ %bb.3:
	@DEBUG_VALUE: HAL_I2C_Slave_Transmit_DMA:hi2c <- $r4
	@DEBUG_VALUE: HAL_I2C_Slave_Transmit_DMA:Size <- $r2
	@DEBUG_VALUE: HAL_I2C_Slave_Transmit_DMA:pData <- $r1
	.loc	7 1604 5                @ ../Drivers/STM32F7xx_HAL_Driver/Src/stm32f7xx_hal_i2c.c:1604:5
	ldrb.w	r0, [r4, #64]
.Ltmp642:
	.loc	7 1604 5 is_stmt 0      @ ../Drivers/STM32F7xx_HAL_Driver/Src/stm32f7xx_hal_i2c.c:1604:5
	cmp	r0, #1
	bne	.LBB26_6
.Ltmp643:
.LBB26_4:
	@DEBUG_VALUE: HAL_I2C_Slave_Transmit_DMA:hi2c <- $r4
	@DEBUG_VALUE: HAL_I2C_Slave_Transmit_DMA:Size <- $r2
	@DEBUG_VALUE: HAL_I2C_Slave_Transmit_DMA:pData <- $r1
	.loc	7 0 5                   @ ../Drivers/STM32F7xx_HAL_Driver/Src/stm32f7xx_hal_i2c.c:0:5
	movs	r5, #2
.Ltmp644:
.LBB26_5:
	@DEBUG_VALUE: HAL_I2C_Slave_Transmit_DMA:hi2c <- $r4
	.loc	7 1651 1 is_stmt 1      @ ../Drivers/STM32F7xx_HAL_Driver/Src/stm32f7xx_hal_i2c.c:1651:1
	uxtb	r0, r5
	pop	{r4, r5, r7, pc}
.Ltmp645:
.LBB26_6:
	@DEBUG_VALUE: HAL_I2C_Slave_Transmit_DMA:hi2c <- $r4
	@DEBUG_VALUE: HAL_I2C_Slave_Transmit_DMA:Size <- $r2
	@DEBUG_VALUE: HAL_I2C_Slave_Transmit_DMA:pData <- $r1
	@DEBUG_VALUE: HAL_I2C_Slave_Transmit_DMA:Size <- $r2
	.loc	7 1606 23               @ ../Drivers/STM32F7xx_HAL_Driver/Src/stm32f7xx_hal_i2c.c:1606:23
	movs	r0, #33
	movs	r5, #0
	.loc	7 1621 37               @ ../Drivers/STM32F7xx_HAL_Driver/Src/stm32f7xx_hal_i2c.c:1621:37
	ldr.w	r12, __arm_cp.26_2
	.loc	7 1606 23               @ ../Drivers/STM32F7xx_HAL_Driver/Src/stm32f7xx_hal_i2c.c:1606:23
	strb.w	r0, [r4, #65]
	.loc	7 1607 23               @ ../Drivers/STM32F7xx_HAL_Driver/Src/stm32f7xx_hal_i2c.c:1607:23
	movs	r0, #32
	strb.w	r0, [r4, #66]
.Ltmp646:
	.loc	7 1604 5                @ ../Drivers/STM32F7xx_HAL_Driver/Src/stm32f7xx_hal_i2c.c:1604:5
	movs	r0, #1
.Ltmp647:
	.loc	7 1608 23               @ ../Drivers/STM32F7xx_HAL_Driver/Src/stm32f7xx_hal_i2c.c:1608:23
	str	r5, [r4, #68]
	.loc	7 1612 23               @ ../Drivers/STM32F7xx_HAL_Driver/Src/stm32f7xx_hal_i2c.c:1612:23
	strh	r2, [r4, #42]
	.loc	7 1618 36               @ ../Drivers/STM32F7xx_HAL_Driver/Src/stm32f7xx_hal_i2c.c:1618:36
	ldr	r2, __arm_cp.26_3
.Ltmp648:
	.loc	7 1604 5                @ ../Drivers/STM32F7xx_HAL_Driver/Src/stm32f7xx_hal_i2c.c:1604:5
	strb.w	r0, [r4, #64]
.Ltmp649:
	.loc	7 1615 23               @ ../Drivers/STM32F7xx_HAL_Driver/Src/stm32f7xx_hal_i2c.c:1615:23
	ldr	r0, __arm_cp.26_0
	.loc	7 1611 23               @ ../Drivers/STM32F7xx_HAL_Driver/Src/stm32f7xx_hal_i2c.c:1611:23
	str	r1, [r4, #36]
	.loc	7 1615 23               @ ../Drivers/STM32F7xx_HAL_Driver/Src/stm32f7xx_hal_i2c.c:1615:23
	str	r0, [r4, #52]
	.loc	7 1614 23               @ ../Drivers/STM32F7xx_HAL_Driver/Src/stm32f7xx_hal_i2c.c:1614:23
	ldr	r0, __arm_cp.26_1
	.loc	7 1613 31               @ ../Drivers/STM32F7xx_HAL_Driver/Src/stm32f7xx_hal_i2c.c:1613:31
	ldrh	r3, [r4, #42]
	.loc	7 1614 23               @ ../Drivers/STM32F7xx_HAL_Driver/Src/stm32f7xx_hal_i2c.c:1614:23
	str	r0, [r4, #44]
	.loc	7 1613 23               @ ../Drivers/STM32F7xx_HAL_Driver/Src/stm32f7xx_hal_i2c.c:1613:23
	strh	r3, [r4, #40]
	.loc	7 1618 11               @ ../Drivers/STM32F7xx_HAL_Driver/Src/stm32f7xx_hal_i2c.c:1618:11
	ldr	r0, [r4, #56]
	.loc	7 1618 36 is_stmt 0     @ ../Drivers/STM32F7xx_HAL_Driver/Src/stm32f7xx_hal_i2c.c:1618:36
	strd	r2, r5, [r0, #60]
	.loc	7 1621 37 is_stmt 1     @ ../Drivers/STM32F7xx_HAL_Driver/Src/stm32f7xx_hal_i2c.c:1621:37
	strd	r12, r5, [r0, #76]
	.loc	7 1628 70               @ ../Drivers/STM32F7xx_HAL_Driver/Src/stm32f7xx_hal_i2c.c:1628:70
	ldr	r2, [r4]
	.loc	7 1628 80 is_stmt 0     @ ../Drivers/STM32F7xx_HAL_Driver/Src/stm32f7xx_hal_i2c.c:1628:80
	adds	r2, #40
	.loc	7 1628 5                @ ../Drivers/STM32F7xx_HAL_Driver/Src/stm32f7xx_hal_i2c.c:1628:5
	bl	HAL_DMA_Start_IT
.Ltmp650:
	.loc	7 1631 11 is_stmt 1     @ ../Drivers/STM32F7xx_HAL_Driver/Src/stm32f7xx_hal_i2c.c:1631:11
	ldr	r0, [r4]
	.loc	7 1631 25 is_stmt 0     @ ../Drivers/STM32F7xx_HAL_Driver/Src/stm32f7xx_hal_i2c.c:1631:25
	ldr	r1, [r0, #4]
	bic	r1, r1, #32768
	str	r1, [r0, #4]
	.loc	7 1640 5 is_stmt 1      @ ../Drivers/STM32F7xx_HAL_Driver/Src/stm32f7xx_hal_i2c.c:1640:5
	mov	r0, r4
	movs	r1, #4
.Ltmp651:
	.loc	7 1634 5                @ ../Drivers/STM32F7xx_HAL_Driver/Src/stm32f7xx_hal_i2c.c:1634:5
	strb.w	r5, [r4, #64]
.Ltmp652:
	.loc	7 1640 5                @ ../Drivers/STM32F7xx_HAL_Driver/Src/stm32f7xx_hal_i2c.c:1640:5
	bl	I2C_Enable_IRQ
	.loc	7 1643 11               @ ../Drivers/STM32F7xx_HAL_Driver/Src/stm32f7xx_hal_i2c.c:1643:11
	ldr	r0, [r4]
	.loc	7 1643 25 is_stmt 0     @ ../Drivers/STM32F7xx_HAL_Driver/Src/stm32f7xx_hal_i2c.c:1643:25
	ldr	r1, [r0]
	orr	r1, r1, #16384
	str	r1, [r0]
	b	.LBB26_5
.Ltmp653:
	.p2align	2
@ %bb.7:
	.loc	7 0 25                  @ ../Drivers/STM32F7xx_HAL_Driver/Src/stm32f7xx_hal_i2c.c:0:25
__arm_cp.26_0:
	.long	I2C_Slave_ISR_DMA
.Lcpi_end25:
	.size	__arm_cp.26_0, .Lcpi_end25-__arm_cp.26_0
__arm_cp.26_1:
	.long	4294901760              @ 0xffff0000
.Lcpi_end26:
	.size	__arm_cp.26_1, .Lcpi_end26-__arm_cp.26_1
__arm_cp.26_2:
	.long	I2C_DMAError
.Lcpi_end27:
	.size	__arm_cp.26_2, .Lcpi_end27-__arm_cp.26_2
__arm_cp.26_3:
	.long	I2C_DMASlaveTransmitCplt
.Lcpi_end28:
	.size	__arm_cp.26_3, .Lcpi_end28-__arm_cp.26_3
.Lfunc_end26:
	.size	HAL_I2C_Slave_Transmit_DMA, .Lfunc_end26-HAL_I2C_Slave_Transmit_DMA
	.cfi_endproc
	.cantunwind
	.fnend
                                        @ -- End function
	.section	.text.I2C_Slave_ISR_DMA,"ax",%progbits
	.p2align	1               @ -- Begin function I2C_Slave_ISR_DMA
	.type	I2C_Slave_ISR_DMA,%function
	.code	16                      @ @I2C_Slave_ISR_DMA
	.thumb_func
I2C_Slave_ISR_DMA:
.Lfunc_begin27:
	.loc	7 3585 0 is_stmt 1      @ ../Drivers/STM32F7xx_HAL_Driver/Src/stm32f7xx_hal_i2c.c:3585:0
	.fnstart
	.cfi_startproc
@ %bb.0:
	.save	{r4, lr}
	push	{r4, lr}
	.cfi_def_cfa_offset 8
	.cfi_offset lr, -4
	.cfi_offset r4, -8
	@DEBUG_VALUE: I2C_Slave_ISR_DMA:hi2c <- $r0
	@DEBUG_VALUE: I2C_Slave_ISR_DMA:ITFlags <- $r1
	@DEBUG_VALUE: I2C_Slave_ISR_DMA:ITSources <- $r2
	mov	r4, r0
	@DEBUG_VALUE: I2C_Slave_ISR_DMA:ITSources <- $r2
	@DEBUG_VALUE: I2C_Slave_ISR_DMA:ITFlags <- $r1
.Ltmp654:
	@DEBUG_VALUE: I2C_Slave_ISR_DMA:hi2c <- $r4
	.loc	7 3587 3 prologue_end   @ ../Drivers/STM32F7xx_HAL_Driver/Src/stm32f7xx_hal_i2c.c:3587:3
	ldrb.w	r0, [r0, #64]
.Ltmp655:
	.loc	7 3587 3 is_stmt 0      @ ../Drivers/STM32F7xx_HAL_Driver/Src/stm32f7xx_hal_i2c.c:3587:3
	cmp	r0, #1
	bne	.LBB27_2
.Ltmp656:
@ %bb.1:
	@DEBUG_VALUE: I2C_Slave_ISR_DMA:hi2c <- $r4
	@DEBUG_VALUE: I2C_Slave_ISR_DMA:ITSources <- $r2
	@DEBUG_VALUE: I2C_Slave_ISR_DMA:ITFlags <- $r1
	.loc	7 0 3                   @ ../Drivers/STM32F7xx_HAL_Driver/Src/stm32f7xx_hal_i2c.c:0:3
	movs	r0, #2
	b	.LBB27_9
.Ltmp657:
.LBB27_2:
	@DEBUG_VALUE: I2C_Slave_ISR_DMA:hi2c <- $r4
	@DEBUG_VALUE: I2C_Slave_ISR_DMA:ITSources <- $r2
	@DEBUG_VALUE: I2C_Slave_ISR_DMA:ITFlags <- $r1
	.loc	7 3587 3                @ ../Drivers/STM32F7xx_HAL_Driver/Src/stm32f7xx_hal_i2c.c:3587:3
	movs	r0, #1
	strb.w	r0, [r4, #64]
.Ltmp658:
	.loc	7 3589 41 is_stmt 1     @ ../Drivers/STM32F7xx_HAL_Driver/Src/stm32f7xx_hal_i2c.c:3589:41
	and.w	r0, r2, r1
	tst.w	r0, #16
	bne	.LBB27_5
.Ltmp659:
@ %bb.3:
	@DEBUG_VALUE: I2C_Slave_ISR_DMA:hi2c <- $r4
	@DEBUG_VALUE: I2C_Slave_ISR_DMA:ITSources <- $r2
	@DEBUG_VALUE: I2C_Slave_ISR_DMA:ITFlags <- $r1
	.loc	7 3610 48               @ ../Drivers/STM32F7xx_HAL_Driver/Src/stm32f7xx_hal_i2c.c:3610:48
	lsls	r2, r0, #28
.Ltmp660:
	bmi	.LBB27_7
.Ltmp661:
@ %bb.4:
	@DEBUG_VALUE: I2C_Slave_ISR_DMA:hi2c <- $r4
	@DEBUG_VALUE: I2C_Slave_ISR_DMA:ITFlags <- $r1
	.loc	7 3615 49               @ ../Drivers/STM32F7xx_HAL_Driver/Src/stm32f7xx_hal_i2c.c:3615:49
	lsls	r0, r0, #26
.Ltmp662:
	.loc	7 3618 5                @ ../Drivers/STM32F7xx_HAL_Driver/Src/stm32f7xx_hal_i2c.c:3618:5
	itt	mi
	movmi	r0, r4
	blmi	I2C_ITSlaveCplt
.Ltmp663:
	.loc	7 0 5 is_stmt 0         @ ../Drivers/STM32F7xx_HAL_Driver/Src/stm32f7xx_hal_i2c.c:0:5
	b	.LBB27_8
.Ltmp664:
.LBB27_5:
	@DEBUG_VALUE: I2C_Slave_ISR_DMA:hi2c <- $r4
	@DEBUG_VALUE: I2C_Slave_ISR_DMA:ITSources <- $r2
	@DEBUG_VALUE: I2C_Slave_ISR_DMA:ITFlags <- $r1
	.loc	7 3595 8 is_stmt 1      @ ../Drivers/STM32F7xx_HAL_Driver/Src/stm32f7xx_hal_i2c.c:3595:8
	ldrb.w	r0, [r4, #65]
	movs	r1, #60
.Ltmp665:
	.loc	7 0 8 is_stmt 0         @ ../Drivers/STM32F7xx_HAL_Driver/Src/stm32f7xx_hal_i2c.c:0:8
	movs	r2, #16
.Ltmp666:
	.loc	7 3595 8                @ ../Drivers/STM32F7xx_HAL_Driver/Src/stm32f7xx_hal_i2c.c:3595:8
	cmp	r0, #33
	it	eq
	moveq	r1, #56
	ldr	r0, [r4, r1]
	ldr	r0, [r0]
	ldr	r0, [r0, #4]
	ldr	r1, [r4]
.Ltmp667:
	.loc	7 3595 8                @ ../Drivers/STM32F7xx_HAL_Driver/Src/stm32f7xx_hal_i2c.c:3595:8
	cmp	r0, #0
	str	r2, [r1, #28]
	beq	.LBB27_8
.Ltmp668:
@ %bb.6:
	@DEBUG_VALUE: I2C_Slave_ISR_DMA:hi2c <- $r4
	.loc	7 3607 23 is_stmt 1     @ ../Drivers/STM32F7xx_HAL_Driver/Src/stm32f7xx_hal_i2c.c:3607:23
	ldr	r0, [r4, #68]
	orr	r0, r0, #4
	str	r0, [r4, #68]
	b	.LBB27_8
.Ltmp669:
.LBB27_7:
	@DEBUG_VALUE: I2C_Slave_ISR_DMA:hi2c <- $r4
	@DEBUG_VALUE: I2C_Slave_ISR_DMA:ITFlags <- $r1
	.loc	7 3613 5                @ ../Drivers/STM32F7xx_HAL_Driver/Src/stm32f7xx_hal_i2c.c:3613:5
	ldr	r0, [r4]
	movs	r1, #8
.Ltmp670:
	str	r1, [r0, #28]
.Ltmp671:
.LBB27_8:
	@DEBUG_VALUE: I2C_Slave_ISR_DMA:hi2c <- $r4
	.loc	7 0 5 is_stmt 0         @ ../Drivers/STM32F7xx_HAL_Driver/Src/stm32f7xx_hal_i2c.c:0:5
	movs	r0, #0
.Ltmp672:
	.loc	7 3622 3 is_stmt 1      @ ../Drivers/STM32F7xx_HAL_Driver/Src/stm32f7xx_hal_i2c.c:3622:3
	strb.w	r0, [r4, #64]
.Ltmp673:
.LBB27_9:
	@DEBUG_VALUE: I2C_Slave_ISR_DMA:hi2c <- $r4
	.loc	7 3625 1                @ ../Drivers/STM32F7xx_HAL_Driver/Src/stm32f7xx_hal_i2c.c:3625:1
	uxtb	r0, r0
	pop	{r4, pc}
.Ltmp674:
.Lfunc_end27:
	.size	I2C_Slave_ISR_DMA, .Lfunc_end27-I2C_Slave_ISR_DMA
	.cfi_endproc
	.cantunwind
	.fnend
                                        @ -- End function
	.section	.text.I2C_DMASlaveTransmitCplt,"ax",%progbits
	.p2align	1               @ -- Begin function I2C_DMASlaveTransmitCplt
	.type	I2C_DMASlaveTransmitCplt,%function
	.code	16                      @ @I2C_DMASlaveTransmitCplt
	.thumb_func
I2C_DMASlaveTransmitCplt:
.Lfunc_begin28:
	.loc	7 4347 0                @ ../Drivers/STM32F7xx_HAL_Driver/Src/stm32f7xx_hal_i2c.c:4347:0
	.fnstart
	.cfi_startproc
@ %bb.0:
	@DEBUG_VALUE: I2C_DMASlaveTransmitCplt:hdma <- $r0
	.loc	7 4354 1 prologue_end   @ ../Drivers/STM32F7xx_HAL_Driver/Src/stm32f7xx_hal_i2c.c:4354:1
	bx	lr
.Ltmp675:
.Lfunc_end28:
	.size	I2C_DMASlaveTransmitCplt, .Lfunc_end28-I2C_DMASlaveTransmitCplt
	.cfi_endproc
	.cantunwind
	.fnend
                                        @ -- End function
	.section	.text.HAL_I2C_Slave_Receive_DMA,"ax",%progbits
	.hidden	HAL_I2C_Slave_Receive_DMA @ -- Begin function HAL_I2C_Slave_Receive_DMA
	.globl	HAL_I2C_Slave_Receive_DMA
	.p2align	2
	.type	HAL_I2C_Slave_Receive_DMA,%function
	.code	16                      @ @HAL_I2C_Slave_Receive_DMA
	.thumb_func
HAL_I2C_Slave_Receive_DMA:
.Lfunc_begin29:
	.loc	7 1662 0                @ ../Drivers/STM32F7xx_HAL_Driver/Src/stm32f7xx_hal_i2c.c:1662:0
	.fnstart
	.cfi_startproc
@ %bb.0:
	.save	{r4, r5, r7, lr}
	push	{r4, r5, r7, lr}
	.cfi_def_cfa_offset 16
	.cfi_offset lr, -4
	.cfi_offset r7, -8
	.cfi_offset r5, -12
	.cfi_offset r4, -16
	@DEBUG_VALUE: HAL_I2C_Slave_Receive_DMA:hi2c <- $r0
	@DEBUG_VALUE: HAL_I2C_Slave_Receive_DMA:pData <- $r1
	@DEBUG_VALUE: HAL_I2C_Slave_Receive_DMA:Size <- $r2
	mov	r4, r0
	@DEBUG_VALUE: HAL_I2C_Slave_Receive_DMA:Size <- $r2
.Ltmp676:
	@DEBUG_VALUE: HAL_I2C_Slave_Receive_DMA:pData <- $r12
	@DEBUG_VALUE: HAL_I2C_Slave_Receive_DMA:hi2c <- $r4
	.loc	7 1663 12 prologue_end  @ ../Drivers/STM32F7xx_HAL_Driver/Src/stm32f7xx_hal_i2c.c:1663:12
	ldrb.w	r0, [r0, #65]
	mov	r12, r1
.Ltmp677:
	.loc	7 1663 6 is_stmt 0      @ ../Drivers/STM32F7xx_HAL_Driver/Src/stm32f7xx_hal_i2c.c:1663:6
	cmp	r0, #32
	bne	.LBB29_3
.Ltmp678:
@ %bb.1:
	@DEBUG_VALUE: HAL_I2C_Slave_Receive_DMA:hi2c <- $r4
	@DEBUG_VALUE: HAL_I2C_Slave_Receive_DMA:Size <- $r2
	.loc	7 1665 24 is_stmt 1     @ ../Drivers/STM32F7xx_HAL_Driver/Src/stm32f7xx_hal_i2c.c:1665:24
	cmp.w	r12, #0
	mov.w	r5, #1
	it	ne
	cmpne	r2, #0
	beq	.LBB29_4
.Ltmp679:
@ %bb.2:
	@DEBUG_VALUE: HAL_I2C_Slave_Receive_DMA:hi2c <- $r4
	@DEBUG_VALUE: HAL_I2C_Slave_Receive_DMA:Size <- $r2
	.loc	7 1670 5                @ ../Drivers/STM32F7xx_HAL_Driver/Src/stm32f7xx_hal_i2c.c:1670:5
	ldrb.w	r0, [r4, #64]
.Ltmp680:
	.loc	7 1670 5 is_stmt 0      @ ../Drivers/STM32F7xx_HAL_Driver/Src/stm32f7xx_hal_i2c.c:1670:5
	cmp	r0, #1
	bne	.LBB29_5
.Ltmp681:
.LBB29_3:
	@DEBUG_VALUE: HAL_I2C_Slave_Receive_DMA:hi2c <- $r4
	@DEBUG_VALUE: HAL_I2C_Slave_Receive_DMA:Size <- $r2
	.loc	7 0 5                   @ ../Drivers/STM32F7xx_HAL_Driver/Src/stm32f7xx_hal_i2c.c:0:5
	movs	r5, #2
.Ltmp682:
.LBB29_4:
	@DEBUG_VALUE: HAL_I2C_Slave_Receive_DMA:hi2c <- $r4
	.loc	7 1717 1 is_stmt 1      @ ../Drivers/STM32F7xx_HAL_Driver/Src/stm32f7xx_hal_i2c.c:1717:1
	uxtb	r0, r5
	pop	{r4, r5, r7, pc}
.Ltmp683:
.LBB29_5:
	@DEBUG_VALUE: HAL_I2C_Slave_Receive_DMA:hi2c <- $r4
	@DEBUG_VALUE: HAL_I2C_Slave_Receive_DMA:Size <- $r2
	@DEBUG_VALUE: HAL_I2C_Slave_Receive_DMA:Size <- $r2
	.loc	7 1672 23               @ ../Drivers/STM32F7xx_HAL_Driver/Src/stm32f7xx_hal_i2c.c:1672:23
	movs	r0, #34
	movs	r5, #0
	.loc	7 1687 37               @ ../Drivers/STM32F7xx_HAL_Driver/Src/stm32f7xx_hal_i2c.c:1687:37
	ldr	r1, __arm_cp.29_2
	.loc	7 1672 23               @ ../Drivers/STM32F7xx_HAL_Driver/Src/stm32f7xx_hal_i2c.c:1672:23
	strb.w	r0, [r4, #65]
	.loc	7 1673 23               @ ../Drivers/STM32F7xx_HAL_Driver/Src/stm32f7xx_hal_i2c.c:1673:23
	movs	r0, #32
	strb.w	r0, [r4, #66]
.Ltmp684:
	.loc	7 1670 5                @ ../Drivers/STM32F7xx_HAL_Driver/Src/stm32f7xx_hal_i2c.c:1670:5
	movs	r0, #1
.Ltmp685:
	.loc	7 1674 23               @ ../Drivers/STM32F7xx_HAL_Driver/Src/stm32f7xx_hal_i2c.c:1674:23
	str	r5, [r4, #68]
	.loc	7 1678 23               @ ../Drivers/STM32F7xx_HAL_Driver/Src/stm32f7xx_hal_i2c.c:1678:23
	strh	r2, [r4, #42]
	.loc	7 1684 36               @ ../Drivers/STM32F7xx_HAL_Driver/Src/stm32f7xx_hal_i2c.c:1684:36
	ldr	r2, __arm_cp.29_3
.Ltmp686:
	.loc	7 1670 5                @ ../Drivers/STM32F7xx_HAL_Driver/Src/stm32f7xx_hal_i2c.c:1670:5
	strb.w	r0, [r4, #64]
.Ltmp687:
	.loc	7 1681 23               @ ../Drivers/STM32F7xx_HAL_Driver/Src/stm32f7xx_hal_i2c.c:1681:23
	ldr	r0, __arm_cp.29_0
	.loc	7 1677 23               @ ../Drivers/STM32F7xx_HAL_Driver/Src/stm32f7xx_hal_i2c.c:1677:23
	str.w	r12, [r4, #36]
	.loc	7 1681 23               @ ../Drivers/STM32F7xx_HAL_Driver/Src/stm32f7xx_hal_i2c.c:1681:23
	str	r0, [r4, #52]
	.loc	7 1680 23               @ ../Drivers/STM32F7xx_HAL_Driver/Src/stm32f7xx_hal_i2c.c:1680:23
	ldr	r0, __arm_cp.29_1
	.loc	7 1679 31               @ ../Drivers/STM32F7xx_HAL_Driver/Src/stm32f7xx_hal_i2c.c:1679:31
	ldrh	r3, [r4, #42]
	.loc	7 1680 23               @ ../Drivers/STM32F7xx_HAL_Driver/Src/stm32f7xx_hal_i2c.c:1680:23
	str	r0, [r4, #44]
	.loc	7 1679 23               @ ../Drivers/STM32F7xx_HAL_Driver/Src/stm32f7xx_hal_i2c.c:1679:23
	strh	r3, [r4, #40]
	.loc	7 1684 11               @ ../Drivers/STM32F7xx_HAL_Driver/Src/stm32f7xx_hal_i2c.c:1684:11
	ldr	r0, [r4, #60]
	.loc	7 1684 36 is_stmt 0     @ ../Drivers/STM32F7xx_HAL_Driver/Src/stm32f7xx_hal_i2c.c:1684:36
	strd	r2, r5, [r0, #60]
	.loc	7 1687 37 is_stmt 1     @ ../Drivers/STM32F7xx_HAL_Driver/Src/stm32f7xx_hal_i2c.c:1687:37
	strd	r1, r5, [r0, #76]
	.loc	7 1694 5                @ ../Drivers/STM32F7xx_HAL_Driver/Src/stm32f7xx_hal_i2c.c:1694:5
	mov	r2, r12
	.loc	7 1694 53 is_stmt 0     @ ../Drivers/STM32F7xx_HAL_Driver/Src/stm32f7xx_hal_i2c.c:1694:53
	ldr	r1, [r4]
	.loc	7 1694 63               @ ../Drivers/STM32F7xx_HAL_Driver/Src/stm32f7xx_hal_i2c.c:1694:63
	adds	r1, #36
	.loc	7 1694 5                @ ../Drivers/STM32F7xx_HAL_Driver/Src/stm32f7xx_hal_i2c.c:1694:5
	bl	HAL_DMA_Start_IT
	.loc	7 1697 11 is_stmt 1     @ ../Drivers/STM32F7xx_HAL_Driver/Src/stm32f7xx_hal_i2c.c:1697:11
	ldr	r0, [r4]
	.loc	7 1697 25 is_stmt 0     @ ../Drivers/STM32F7xx_HAL_Driver/Src/stm32f7xx_hal_i2c.c:1697:25
	ldr	r1, [r0, #4]
	bic	r1, r1, #32768
	str	r1, [r0, #4]
	.loc	7 1706 5 is_stmt 1      @ ../Drivers/STM32F7xx_HAL_Driver/Src/stm32f7xx_hal_i2c.c:1706:5
	mov	r0, r4
	movs	r1, #4
.Ltmp688:
	.loc	7 1700 5                @ ../Drivers/STM32F7xx_HAL_Driver/Src/stm32f7xx_hal_i2c.c:1700:5
	strb.w	r5, [r4, #64]
.Ltmp689:
	.loc	7 1706 5                @ ../Drivers/STM32F7xx_HAL_Driver/Src/stm32f7xx_hal_i2c.c:1706:5
	bl	I2C_Enable_IRQ
	.loc	7 1709 11               @ ../Drivers/STM32F7xx_HAL_Driver/Src/stm32f7xx_hal_i2c.c:1709:11
	ldr	r0, [r4]
	.loc	7 1709 25 is_stmt 0     @ ../Drivers/STM32F7xx_HAL_Driver/Src/stm32f7xx_hal_i2c.c:1709:25
	ldr	r1, [r0]
	orr	r1, r1, #32768
	str	r1, [r0]
	b	.LBB29_4
.Ltmp690:
	.p2align	2
@ %bb.6:
	.loc	7 0 25                  @ ../Drivers/STM32F7xx_HAL_Driver/Src/stm32f7xx_hal_i2c.c:0:25
__arm_cp.29_0:
	.long	I2C_Slave_ISR_DMA
.Lcpi_end29:
	.size	__arm_cp.29_0, .Lcpi_end29-__arm_cp.29_0
__arm_cp.29_1:
	.long	4294901760              @ 0xffff0000
.Lcpi_end30:
	.size	__arm_cp.29_1, .Lcpi_end30-__arm_cp.29_1
__arm_cp.29_2:
	.long	I2C_DMAError
.Lcpi_end31:
	.size	__arm_cp.29_2, .Lcpi_end31-__arm_cp.29_2
__arm_cp.29_3:
	.long	I2C_DMASlaveReceiveCplt
.Lcpi_end32:
	.size	__arm_cp.29_3, .Lcpi_end32-__arm_cp.29_3
.Lfunc_end29:
	.size	HAL_I2C_Slave_Receive_DMA, .Lfunc_end29-HAL_I2C_Slave_Receive_DMA
	.cfi_endproc
	.cantunwind
	.fnend
                                        @ -- End function
	.section	.text.I2C_DMASlaveReceiveCplt,"ax",%progbits
	.p2align	1               @ -- Begin function I2C_DMASlaveReceiveCplt
	.type	I2C_DMASlaveReceiveCplt,%function
	.code	16                      @ @I2C_DMASlaveReceiveCplt
	.thumb_func
I2C_DMASlaveReceiveCplt:
.Lfunc_begin30:
	.loc	7 4404 0 is_stmt 1      @ ../Drivers/STM32F7xx_HAL_Driver/Src/stm32f7xx_hal_i2c.c:4404:0
	.fnstart
	.cfi_startproc
@ %bb.0:
	@DEBUG_VALUE: I2C_DMASlaveReceiveCplt:hdma <- $r0
	.loc	7 4411 1 prologue_end   @ ../Drivers/STM32F7xx_HAL_Driver/Src/stm32f7xx_hal_i2c.c:4411:1
	bx	lr
.Ltmp691:
.Lfunc_end30:
	.size	I2C_DMASlaveReceiveCplt, .Lfunc_end30-I2C_DMASlaveReceiveCplt
	.cfi_endproc
	.cantunwind
	.fnend
                                        @ -- End function
	.section	.text.HAL_I2C_Mem_Write,"ax",%progbits
	.hidden	HAL_I2C_Mem_Write       @ -- Begin function HAL_I2C_Mem_Write
	.globl	HAL_I2C_Mem_Write
	.p2align	2
	.type	HAL_I2C_Mem_Write,%function
	.code	16                      @ @HAL_I2C_Mem_Write
	.thumb_func
HAL_I2C_Mem_Write:
.Lfunc_begin31:
	.loc	7 1732 0                @ ../Drivers/STM32F7xx_HAL_Driver/Src/stm32f7xx_hal_i2c.c:1732:0
	.fnstart
	.cfi_startproc
@ %bb.0:
	.save	{r4, r5, r6, r7, r8, r9, r10, r11, lr}
	.pad	#12
	push.w	{r1, r2, r3, r4, r5, r6, r7, r8, r9, r10, r11, lr}
	.cfi_def_cfa_offset 48
	.cfi_offset lr, -4
	.cfi_offset r11, -8
	.cfi_offset r10, -12
	.cfi_offset r9, -16
	.cfi_offset r8, -20
	.cfi_offset r7, -24
	.cfi_offset r6, -28
	.cfi_offset r5, -32
	.cfi_offset r4, -36
	@DEBUG_VALUE: HAL_I2C_Mem_Write:hi2c <- $r0
	@DEBUG_VALUE: HAL_I2C_Mem_Write:DevAddress <- $r1
	@DEBUG_VALUE: HAL_I2C_Mem_Write:MemAddress <- $r2
	@DEBUG_VALUE: HAL_I2C_Mem_Write:MemAddSize <- $r3
	mov	r4, r0
.Ltmp692:
	@DEBUG_VALUE: HAL_I2C_Mem_Write:tickstart <- 0
	@DEBUG_VALUE: HAL_I2C_Mem_Write:Timeout <- [DW_OP_plus_uconst 56] [$sp+0]
	@DEBUG_VALUE: HAL_I2C_Mem_Write:pData <- [DW_OP_plus_uconst 48] [$sp+0]
	@DEBUG_VALUE: HAL_I2C_Mem_Write:MemAddSize <- $r7
	@DEBUG_VALUE: HAL_I2C_Mem_Write:MemAddress <- $r6
	@DEBUG_VALUE: HAL_I2C_Mem_Write:DevAddress <- $r11
	@DEBUG_VALUE: HAL_I2C_Mem_Write:hi2c <- $r4
	.loc	7 1738 12 prologue_end  @ ../Drivers/STM32F7xx_HAL_Driver/Src/stm32f7xx_hal_i2c.c:1738:12
	ldrb.w	r0, [r0, #65]
	mov	r7, r3
.Ltmp693:
	.loc	7 0 12 is_stmt 0        @ ../Drivers/STM32F7xx_HAL_Driver/Src/stm32f7xx_hal_i2c.c:0:12
	mov	r6, r2
.Ltmp694:
	mov	r11, r1
.Ltmp695:
	.loc	7 1738 6                @ ../Drivers/STM32F7xx_HAL_Driver/Src/stm32f7xx_hal_i2c.c:1738:6
	cmp	r0, #32
	bne	.LBB31_4
.Ltmp696:
@ %bb.1:
	@DEBUG_VALUE: HAL_I2C_Mem_Write:hi2c <- $r4
	@DEBUG_VALUE: HAL_I2C_Mem_Write:pData <- [DW_OP_plus_uconst 48] [$sp+0]
	@DEBUG_VALUE: HAL_I2C_Mem_Write:Timeout <- [DW_OP_plus_uconst 56] [$sp+0]
	.loc	7 0 6                   @ ../Drivers/STM32F7xx_HAL_Driver/Src/stm32f7xx_hal_i2c.c:0:6
	ldr	r5, [sp, #48]
	movs	r0, #1
.Ltmp697:
	.loc	7 1740 24 is_stmt 1     @ ../Drivers/STM32F7xx_HAL_Driver/Src/stm32f7xx_hal_i2c.c:1740:24
	cbz	r5, .LBB31_5
.Ltmp698:
@ %bb.2:
	@DEBUG_VALUE: HAL_I2C_Mem_Write:hi2c <- $r4
	@DEBUG_VALUE: HAL_I2C_Mem_Write:pData <- [DW_OP_plus_uconst 48] [$sp+0]
	@DEBUG_VALUE: HAL_I2C_Mem_Write:Timeout <- [DW_OP_plus_uconst 56] [$sp+0]
	.loc	7 0 24 is_stmt 0        @ ../Drivers/STM32F7xx_HAL_Driver/Src/stm32f7xx_hal_i2c.c:0:24
	ldr.w	r10, [sp, #52]
	@DEBUG_VALUE: HAL_I2C_Mem_Write:Size <- $r10
	.loc	7 1740 24               @ ../Drivers/STM32F7xx_HAL_Driver/Src/stm32f7xx_hal_i2c.c:1740:24
	cmp.w	r10, #0
	beq	.LBB31_5
.Ltmp699:
@ %bb.3:
	@DEBUG_VALUE: HAL_I2C_Mem_Write:Size <- $r10
	@DEBUG_VALUE: HAL_I2C_Mem_Write:hi2c <- $r4
	@DEBUG_VALUE: HAL_I2C_Mem_Write:pData <- [DW_OP_plus_uconst 48] [$sp+0]
	@DEBUG_VALUE: HAL_I2C_Mem_Write:Timeout <- [DW_OP_plus_uconst 56] [$sp+0]
	.loc	7 1746 5 is_stmt 1      @ ../Drivers/STM32F7xx_HAL_Driver/Src/stm32f7xx_hal_i2c.c:1746:5
	ldrb.w	r0, [r4, #64]
.Ltmp700:
	.loc	7 1746 5 is_stmt 0      @ ../Drivers/STM32F7xx_HAL_Driver/Src/stm32f7xx_hal_i2c.c:1746:5
	cmp	r0, #1
	bne	.LBB31_6
.Ltmp701:
.LBB31_4:
	@DEBUG_VALUE: HAL_I2C_Mem_Write:hi2c <- $r4
	@DEBUG_VALUE: HAL_I2C_Mem_Write:pData <- [DW_OP_plus_uconst 48] [$sp+0]
	@DEBUG_VALUE: HAL_I2C_Mem_Write:Timeout <- [DW_OP_plus_uconst 56] [$sp+0]
	.loc	7 0 5                   @ ../Drivers/STM32F7xx_HAL_Driver/Src/stm32f7xx_hal_i2c.c:0:5
	movs	r0, #2
.Ltmp702:
.LBB31_5:
	@DEBUG_VALUE: HAL_I2C_Mem_Write:hi2c <- $r4
	@DEBUG_VALUE: HAL_I2C_Mem_Write:pData <- [DW_OP_plus_uconst 48] [$sp+0]
	@DEBUG_VALUE: HAL_I2C_Mem_Write:Timeout <- [DW_OP_plus_uconst 56] [$sp+0]
	.loc	7 1868 1 is_stmt 1      @ ../Drivers/STM32F7xx_HAL_Driver/Src/stm32f7xx_hal_i2c.c:1868:1
	uxtb	r0, r0
	add	sp, #12
.Ltmp703:
	pop.w	{r4, r5, r6, r7, r8, r9, r10, r11, pc}
.Ltmp704:
.LBB31_6:
	@DEBUG_VALUE: HAL_I2C_Mem_Write:Size <- $r10
	@DEBUG_VALUE: HAL_I2C_Mem_Write:hi2c <- $r4
	@DEBUG_VALUE: HAL_I2C_Mem_Write:pData <- [DW_OP_plus_uconst 48] [$sp+0]
	@DEBUG_VALUE: HAL_I2C_Mem_Write:Timeout <- [DW_OP_plus_uconst 56] [$sp+0]
	.loc	7 0 1 is_stmt 0         @ ../Drivers/STM32F7xx_HAL_Driver/Src/stm32f7xx_hal_i2c.c:0:1
	movs	r0, #1
.Ltmp705:
	.loc	7 1746 5 is_stmt 1      @ ../Drivers/STM32F7xx_HAL_Driver/Src/stm32f7xx_hal_i2c.c:1746:5
	strb.w	r0, [r4, #64]
.Ltmp706:
	.loc	7 1749 17               @ ../Drivers/STM32F7xx_HAL_Driver/Src/stm32f7xx_hal_i2c.c:1749:17
	bl	HAL_GetTick
	mov	r9, r0
.Ltmp707:
	@DEBUG_VALUE: HAL_I2C_Mem_Write:tickstart <- $r9
	.loc	7 1751 8                @ ../Drivers/STM32F7xx_HAL_Driver/Src/stm32f7xx_hal_i2c.c:1751:8
	str	r0, [sp]
	mov	r0, r4
	mov.w	r1, #32768
	movs	r2, #1
	movs	r3, #25
	bl	I2C_WaitOnFlagUntilTimeout
.Ltmp708:
	.loc	7 1751 8 is_stmt 0      @ ../Drivers/STM32F7xx_HAL_Driver/Src/stm32f7xx_hal_i2c.c:1751:8
	cbz	r0, .LBB31_8
.Ltmp709:
.LBB31_7:
	@DEBUG_VALUE: HAL_I2C_Mem_Write:tickstart <- $r9
	@DEBUG_VALUE: HAL_I2C_Mem_Write:hi2c <- $r4
	@DEBUG_VALUE: HAL_I2C_Mem_Write:pData <- [DW_OP_plus_uconst 48] [$sp+0]
	@DEBUG_VALUE: HAL_I2C_Mem_Write:Timeout <- [DW_OP_plus_uconst 56] [$sp+0]
	.loc	7 0 8                   @ ../Drivers/STM32F7xx_HAL_Driver/Src/stm32f7xx_hal_i2c.c:0:8
	movs	r0, #3
	b	.LBB31_5
.Ltmp710:
.LBB31_8:
	@DEBUG_VALUE: HAL_I2C_Mem_Write:tickstart <- $r9
	@DEBUG_VALUE: HAL_I2C_Mem_Write:Size <- $r10
	@DEBUG_VALUE: HAL_I2C_Mem_Write:hi2c <- $r4
	@DEBUG_VALUE: HAL_I2C_Mem_Write:pData <- [DW_OP_plus_uconst 48] [$sp+0]
	@DEBUG_VALUE: HAL_I2C_Mem_Write:Timeout <- [DW_OP_plus_uconst 56] [$sp+0]
	@DEBUG_VALUE: HAL_I2C_Mem_Write:DevAddress <- $r11
	@DEBUG_VALUE: HAL_I2C_Mem_Write:MemAddress <- $r6
	@DEBUG_VALUE: HAL_I2C_Mem_Write:MemAddSize <- $r7
	ldr	r1, [sp, #56]
	.loc	7 1756 21 is_stmt 1     @ ../Drivers/STM32F7xx_HAL_Driver/Src/stm32f7xx_hal_i2c.c:1756:21
	movs	r0, #33
	mov.w	r8, #0
.Ltmp711:
	.loc	7 1766 8                @ ../Drivers/STM32F7xx_HAL_Driver/Src/stm32f7xx_hal_i2c.c:1766:8
	mov	r2, r6
	mov	r3, r7
.Ltmp712:
	.loc	7 1756 21               @ ../Drivers/STM32F7xx_HAL_Driver/Src/stm32f7xx_hal_i2c.c:1756:21
	strb.w	r0, [r4, #65]
	.loc	7 1757 21               @ ../Drivers/STM32F7xx_HAL_Driver/Src/stm32f7xx_hal_i2c.c:1757:21
	movs	r0, #64
	strb.w	r0, [r4, #66]
	.loc	7 1758 21               @ ../Drivers/STM32F7xx_HAL_Driver/Src/stm32f7xx_hal_i2c.c:1758:21
	str.w	r8, [r4, #68]
	.loc	7 1761 21               @ ../Drivers/STM32F7xx_HAL_Driver/Src/stm32f7xx_hal_i2c.c:1761:21
	str	r5, [r4, #36]
	.loc	7 1763 21               @ ../Drivers/STM32F7xx_HAL_Driver/Src/stm32f7xx_hal_i2c.c:1763:21
	str.w	r8, [r4, #52]
	.loc	7 1762 21               @ ../Drivers/STM32F7xx_HAL_Driver/Src/stm32f7xx_hal_i2c.c:1762:21
	strh.w	r10, [r4, #42]
.Ltmp713:
	.loc	7 1766 8                @ ../Drivers/STM32F7xx_HAL_Driver/Src/stm32f7xx_hal_i2c.c:1766:8
	mov	r0, r4
	mov	r5, r1
	strd	r1, r9, [sp]
	mov	r1, r11
	bl	I2C_RequestMemoryWrite
.Ltmp714:
	.loc	7 1766 8 is_stmt 0      @ ../Drivers/STM32F7xx_HAL_Driver/Src/stm32f7xx_hal_i2c.c:1766:8
	cbz	r0, .LBB31_10
.Ltmp715:
@ %bb.9:
	@DEBUG_VALUE: HAL_I2C_Mem_Write:tickstart <- $r9
	@DEBUG_VALUE: HAL_I2C_Mem_Write:Size <- $r10
	@DEBUG_VALUE: HAL_I2C_Mem_Write:hi2c <- $r4
	@DEBUG_VALUE: HAL_I2C_Mem_Write:DevAddress <- $r11
	@DEBUG_VALUE: HAL_I2C_Mem_Write:MemAddress <- $r6
	@DEBUG_VALUE: HAL_I2C_Mem_Write:MemAddSize <- $r7
	@DEBUG_VALUE: HAL_I2C_Mem_Write:pData <- [DW_OP_plus_uconst 48] [$sp+0]
	@DEBUG_VALUE: HAL_I2C_Mem_Write:Timeout <- [DW_OP_plus_uconst 56] [$sp+0]
	.loc	7 0 8                   @ ../Drivers/STM32F7xx_HAL_Driver/Src/stm32f7xx_hal_i2c.c:0:8
	strb.w	r8, [r4, #64]
.Ltmp716:
	.loc	7 1768 10 is_stmt 1     @ ../Drivers/STM32F7xx_HAL_Driver/Src/stm32f7xx_hal_i2c.c:1768:10
	movs	r0, #3
.Ltmp717:
	.loc	7 1768 16 is_stmt 0     @ ../Drivers/STM32F7xx_HAL_Driver/Src/stm32f7xx_hal_i2c.c:1768:16
	ldr	r1, [r4, #68]
.Ltmp718:
	.loc	7 1768 10               @ ../Drivers/STM32F7xx_HAL_Driver/Src/stm32f7xx_hal_i2c.c:1768:10
	cmp	r1, #4
	it	eq
	moveq	r0, #1
	add	sp, #12
.Ltmp719:
	pop.w	{r4, r5, r6, r7, r8, r9, r10, r11, pc}
.Ltmp720:
.LBB31_10:
	@DEBUG_VALUE: HAL_I2C_Mem_Write:tickstart <- $r9
	@DEBUG_VALUE: HAL_I2C_Mem_Write:Size <- $r10
	@DEBUG_VALUE: HAL_I2C_Mem_Write:hi2c <- $r4
	@DEBUG_VALUE: HAL_I2C_Mem_Write:DevAddress <- $r11
	@DEBUG_VALUE: HAL_I2C_Mem_Write:MemAddress <- $r6
	@DEBUG_VALUE: HAL_I2C_Mem_Write:MemAddSize <- $r7
	@DEBUG_VALUE: HAL_I2C_Mem_Write:pData <- [DW_OP_plus_uconst 48] [$sp+0]
	@DEBUG_VALUE: HAL_I2C_Mem_Write:Timeout <- [DW_OP_plus_uconst 56] [$sp+0]
	.loc	7 1783 14 is_stmt 1     @ ../Drivers/STM32F7xx_HAL_Driver/Src/stm32f7xx_hal_i2c.c:1783:14
	ldrh	r0, [r4, #42]
.Ltmp721:
	.loc	7 1783 8 is_stmt 0      @ ../Drivers/STM32F7xx_HAL_Driver/Src/stm32f7xx_hal_i2c.c:1783:8
	cmp.w	r0, #256
	blo	.LBB31_12
.Ltmp722:
@ %bb.11:
	@DEBUG_VALUE: HAL_I2C_Mem_Write:tickstart <- $r9
	@DEBUG_VALUE: HAL_I2C_Mem_Write:Size <- $r10
	@DEBUG_VALUE: HAL_I2C_Mem_Write:hi2c <- $r4
	@DEBUG_VALUE: HAL_I2C_Mem_Write:DevAddress <- $r11
	@DEBUG_VALUE: HAL_I2C_Mem_Write:MemAddress <- $r6
	@DEBUG_VALUE: HAL_I2C_Mem_Write:MemAddSize <- $r7
	@DEBUG_VALUE: HAL_I2C_Mem_Write:pData <- [DW_OP_plus_uconst 48] [$sp+0]
	@DEBUG_VALUE: HAL_I2C_Mem_Write:Timeout <- [DW_OP_plus_uconst 56] [$sp+0]
	.loc	7 0 8                   @ ../Drivers/STM32F7xx_HAL_Driver/Src/stm32f7xx_hal_i2c.c:0:8
	movs	r0, #255
.Ltmp723:
	.loc	7 1786 7 is_stmt 1      @ ../Drivers/STM32F7xx_HAL_Driver/Src/stm32f7xx_hal_i2c.c:1786:7
	mov	r1, r11
	movs	r2, #255
	mov.w	r3, #16777216
	.loc	7 1785 22               @ ../Drivers/STM32F7xx_HAL_Driver/Src/stm32f7xx_hal_i2c.c:1785:22
	strh	r0, [r4, #40]
	movs	r0, #0
	.loc	7 1786 7                @ ../Drivers/STM32F7xx_HAL_Driver/Src/stm32f7xx_hal_i2c.c:1786:7
	str	r0, [sp]
	mov	r0, r4
	b	.LBB31_13
.Ltmp724:
.LBB31_12:
	@DEBUG_VALUE: HAL_I2C_Mem_Write:tickstart <- $r9
	@DEBUG_VALUE: HAL_I2C_Mem_Write:Size <- $r10
	@DEBUG_VALUE: HAL_I2C_Mem_Write:hi2c <- $r4
	@DEBUG_VALUE: HAL_I2C_Mem_Write:DevAddress <- $r11
	@DEBUG_VALUE: HAL_I2C_Mem_Write:MemAddress <- $r6
	@DEBUG_VALUE: HAL_I2C_Mem_Write:MemAddSize <- $r7
	@DEBUG_VALUE: HAL_I2C_Mem_Write:pData <- [DW_OP_plus_uconst 48] [$sp+0]
	@DEBUG_VALUE: HAL_I2C_Mem_Write:Timeout <- [DW_OP_plus_uconst 56] [$sp+0]
	.loc	7 1790 30               @ ../Drivers/STM32F7xx_HAL_Driver/Src/stm32f7xx_hal_i2c.c:1790:30
	ldrh	r0, [r4, #42]
	movs	r1, #0
	.loc	7 1791 7                @ ../Drivers/STM32F7xx_HAL_Driver/Src/stm32f7xx_hal_i2c.c:1791:7
	mov.w	r3, #33554432
	.loc	7 1790 22               @ ../Drivers/STM32F7xx_HAL_Driver/Src/stm32f7xx_hal_i2c.c:1790:22
	strh	r0, [r4, #40]
	.loc	7 1791 7                @ ../Drivers/STM32F7xx_HAL_Driver/Src/stm32f7xx_hal_i2c.c:1791:7
	str	r1, [sp]
	uxtb	r2, r0
	mov	r0, r4
	mov	r1, r11
.Ltmp725:
.LBB31_13:
	@DEBUG_VALUE: HAL_I2C_Mem_Write:tickstart <- $r9
	@DEBUG_VALUE: HAL_I2C_Mem_Write:Size <- $r10
	@DEBUG_VALUE: HAL_I2C_Mem_Write:hi2c <- $r4
	@DEBUG_VALUE: HAL_I2C_Mem_Write:DevAddress <- $r11
	@DEBUG_VALUE: HAL_I2C_Mem_Write:MemAddress <- $r6
	@DEBUG_VALUE: HAL_I2C_Mem_Write:MemAddSize <- $r7
	@DEBUG_VALUE: HAL_I2C_Mem_Write:pData <- [DW_OP_plus_uconst 48] [$sp+0]
	@DEBUG_VALUE: HAL_I2C_Mem_Write:Timeout <- [DW_OP_plus_uconst 56] [$sp+0]
	.loc	7 0 7 is_stmt 0         @ ../Drivers/STM32F7xx_HAL_Driver/Src/stm32f7xx_hal_i2c.c:0:7
	bl	I2C_TransferConfig
	movw	r6, #65535
.Ltmp726:
	movs	r7, #0
.Ltmp727:
	mov.w	r10, #255
.Ltmp728:
.LBB31_14:                              @ =>This Inner Loop Header: Depth=1
	@DEBUG_VALUE: HAL_I2C_Mem_Write:tickstart <- $r9
	@DEBUG_VALUE: HAL_I2C_Mem_Write:hi2c <- $r4
	@DEBUG_VALUE: HAL_I2C_Mem_Write:DevAddress <- $r11
	@DEBUG_VALUE: HAL_I2C_Mem_Write:pData <- [DW_OP_plus_uconst 48] [$sp+0]
	@DEBUG_VALUE: HAL_I2C_Mem_Write:Timeout <- [DW_OP_plus_uconst 56] [$sp+0]
	.loc	7 1797 10 is_stmt 1     @ ../Drivers/STM32F7xx_HAL_Driver/Src/stm32f7xx_hal_i2c.c:1797:10
	mov	r0, r4
	mov	r1, r5
	mov	r2, r9
	bl	I2C_WaitOnTXISFlagUntilTimeout
.Ltmp729:
	.loc	7 1797 10 is_stmt 0     @ ../Drivers/STM32F7xx_HAL_Driver/Src/stm32f7xx_hal_i2c.c:1797:10
	cbnz	r0, .LBB31_24
.Ltmp730:
@ %bb.15:                               @   in Loop: Header=BB31_14 Depth=1
	@DEBUG_VALUE: HAL_I2C_Mem_Write:tickstart <- $r9
	@DEBUG_VALUE: HAL_I2C_Mem_Write:hi2c <- $r4
	@DEBUG_VALUE: HAL_I2C_Mem_Write:DevAddress <- $r11
	@DEBUG_VALUE: HAL_I2C_Mem_Write:pData <- [DW_OP_plus_uconst 48] [$sp+0]
	@DEBUG_VALUE: HAL_I2C_Mem_Write:Timeout <- [DW_OP_plus_uconst 56] [$sp+0]
	.loc	7 1810 46 is_stmt 1     @ ../Drivers/STM32F7xx_HAL_Driver/Src/stm32f7xx_hal_i2c.c:1810:46
	ldr	r1, [r4, #36]
	.loc	7 1810 13 is_stmt 0     @ ../Drivers/STM32F7xx_HAL_Driver/Src/stm32f7xx_hal_i2c.c:1810:13
	ldr	r0, [r4]
	.loc	7 1810 46               @ ../Drivers/STM32F7xx_HAL_Driver/Src/stm32f7xx_hal_i2c.c:1810:46
	adds	r2, r1, #1
	str	r2, [r4, #36]
	.loc	7 1810 30               @ ../Drivers/STM32F7xx_HAL_Driver/Src/stm32f7xx_hal_i2c.c:1810:30
	ldrb	r1, [r1]
	.loc	7 1810 28               @ ../Drivers/STM32F7xx_HAL_Driver/Src/stm32f7xx_hal_i2c.c:1810:28
	str	r1, [r0, #40]
	.loc	7 1811 22 is_stmt 1     @ ../Drivers/STM32F7xx_HAL_Driver/Src/stm32f7xx_hal_i2c.c:1811:22
	ldrh	r0, [r4, #42]
	subs	r0, #1
	strh	r0, [r4, #42]
	.loc	7 1812 21               @ ../Drivers/STM32F7xx_HAL_Driver/Src/stm32f7xx_hal_i2c.c:1812:21
	ldrh	r0, [r4, #40]
	subs	r0, #1
.Ltmp731:
	.loc	7 1814 33               @ ../Drivers/STM32F7xx_HAL_Driver/Src/stm32f7xx_hal_i2c.c:1814:33
	tst	r0, r6
.Ltmp732:
	.loc	7 1812 21               @ ../Drivers/STM32F7xx_HAL_Driver/Src/stm32f7xx_hal_i2c.c:1812:21
	strh	r0, [r4, #40]
.Ltmp733:
	.loc	7 1814 33               @ ../Drivers/STM32F7xx_HAL_Driver/Src/stm32f7xx_hal_i2c.c:1814:33
	bne	.LBB31_22
.Ltmp734:
@ %bb.16:                               @   in Loop: Header=BB31_14 Depth=1
	@DEBUG_VALUE: HAL_I2C_Mem_Write:tickstart <- $r9
	@DEBUG_VALUE: HAL_I2C_Mem_Write:hi2c <- $r4
	@DEBUG_VALUE: HAL_I2C_Mem_Write:DevAddress <- $r11
	@DEBUG_VALUE: HAL_I2C_Mem_Write:pData <- [DW_OP_plus_uconst 48] [$sp+0]
	@DEBUG_VALUE: HAL_I2C_Mem_Write:Timeout <- [DW_OP_plus_uconst 56] [$sp+0]
	.loc	7 1814 43 is_stmt 0     @ ../Drivers/STM32F7xx_HAL_Driver/Src/stm32f7xx_hal_i2c.c:1814:43
	ldrh	r0, [r4, #42]
.Ltmp735:
	.loc	7 1814 10               @ ../Drivers/STM32F7xx_HAL_Driver/Src/stm32f7xx_hal_i2c.c:1814:10
	cbz	r0, .LBB31_22
.Ltmp736:
@ %bb.17:                               @   in Loop: Header=BB31_14 Depth=1
	@DEBUG_VALUE: HAL_I2C_Mem_Write:tickstart <- $r9
	@DEBUG_VALUE: HAL_I2C_Mem_Write:hi2c <- $r4
	@DEBUG_VALUE: HAL_I2C_Mem_Write:DevAddress <- $r11
	@DEBUG_VALUE: HAL_I2C_Mem_Write:pData <- [DW_OP_plus_uconst 48] [$sp+0]
	@DEBUG_VALUE: HAL_I2C_Mem_Write:Timeout <- [DW_OP_plus_uconst 56] [$sp+0]
	.loc	7 1817 12 is_stmt 1     @ ../Drivers/STM32F7xx_HAL_Driver/Src/stm32f7xx_hal_i2c.c:1817:12
	mov	r0, r4
	movs	r1, #128
	movs	r2, #0
	mov	r3, r5
	str.w	r9, [sp]
	bl	I2C_WaitOnFlagUntilTimeout
.Ltmp737:
	.loc	7 1817 12 is_stmt 0     @ ../Drivers/STM32F7xx_HAL_Driver/Src/stm32f7xx_hal_i2c.c:1817:12
	cmp	r0, #0
	bne	.LBB31_7
.Ltmp738:
@ %bb.18:                               @   in Loop: Header=BB31_14 Depth=1
	@DEBUG_VALUE: HAL_I2C_Mem_Write:tickstart <- $r9
	@DEBUG_VALUE: HAL_I2C_Mem_Write:hi2c <- $r4
	@DEBUG_VALUE: HAL_I2C_Mem_Write:DevAddress <- $r11
	@DEBUG_VALUE: HAL_I2C_Mem_Write:pData <- [DW_OP_plus_uconst 48] [$sp+0]
	@DEBUG_VALUE: HAL_I2C_Mem_Write:Timeout <- [DW_OP_plus_uconst 56] [$sp+0]
	.loc	7 1822 18 is_stmt 1     @ ../Drivers/STM32F7xx_HAL_Driver/Src/stm32f7xx_hal_i2c.c:1822:18
	ldrh	r0, [r4, #42]
.Ltmp739:
	.loc	7 1822 12 is_stmt 0     @ ../Drivers/STM32F7xx_HAL_Driver/Src/stm32f7xx_hal_i2c.c:1822:12
	cmp.w	r0, #256
	blo	.LBB31_20
.Ltmp740:
@ %bb.19:                               @   in Loop: Header=BB31_14 Depth=1
	@DEBUG_VALUE: HAL_I2C_Mem_Write:tickstart <- $r9
	@DEBUG_VALUE: HAL_I2C_Mem_Write:hi2c <- $r4
	@DEBUG_VALUE: HAL_I2C_Mem_Write:DevAddress <- $r11
	@DEBUG_VALUE: HAL_I2C_Mem_Write:pData <- [DW_OP_plus_uconst 48] [$sp+0]
	@DEBUG_VALUE: HAL_I2C_Mem_Write:Timeout <- [DW_OP_plus_uconst 56] [$sp+0]
	.loc	7 1824 26 is_stmt 1     @ ../Drivers/STM32F7xx_HAL_Driver/Src/stm32f7xx_hal_i2c.c:1824:26
	strh.w	r10, [r4, #40]
	.loc	7 1825 11               @ ../Drivers/STM32F7xx_HAL_Driver/Src/stm32f7xx_hal_i2c.c:1825:11
	str	r7, [sp]
	mov	r0, r4
	mov	r1, r11
	movs	r2, #255
	mov.w	r3, #16777216
	b	.LBB31_21
.Ltmp741:
.LBB31_20:                              @   in Loop: Header=BB31_14 Depth=1
	@DEBUG_VALUE: HAL_I2C_Mem_Write:tickstart <- $r9
	@DEBUG_VALUE: HAL_I2C_Mem_Write:hi2c <- $r4
	@DEBUG_VALUE: HAL_I2C_Mem_Write:DevAddress <- $r11
	@DEBUG_VALUE: HAL_I2C_Mem_Write:pData <- [DW_OP_plus_uconst 48] [$sp+0]
	@DEBUG_VALUE: HAL_I2C_Mem_Write:Timeout <- [DW_OP_plus_uconst 56] [$sp+0]
	.loc	7 1829 34               @ ../Drivers/STM32F7xx_HAL_Driver/Src/stm32f7xx_hal_i2c.c:1829:34
	ldrh	r0, [r4, #42]
	.loc	7 1830 11               @ ../Drivers/STM32F7xx_HAL_Driver/Src/stm32f7xx_hal_i2c.c:1830:11
	mov	r1, r11
	mov.w	r3, #33554432
	.loc	7 1829 26               @ ../Drivers/STM32F7xx_HAL_Driver/Src/stm32f7xx_hal_i2c.c:1829:26
	strh	r0, [r4, #40]
	.loc	7 1830 11               @ ../Drivers/STM32F7xx_HAL_Driver/Src/stm32f7xx_hal_i2c.c:1830:11
	uxtb	r2, r0
	mov	r0, r4
	str	r7, [sp]
.Ltmp742:
.LBB31_21:                              @   in Loop: Header=BB31_14 Depth=1
	@DEBUG_VALUE: HAL_I2C_Mem_Write:tickstart <- $r9
	@DEBUG_VALUE: HAL_I2C_Mem_Write:hi2c <- $r4
	@DEBUG_VALUE: HAL_I2C_Mem_Write:DevAddress <- $r11
	@DEBUG_VALUE: HAL_I2C_Mem_Write:pData <- [DW_OP_plus_uconst 48] [$sp+0]
	@DEBUG_VALUE: HAL_I2C_Mem_Write:Timeout <- [DW_OP_plus_uconst 56] [$sp+0]
	.loc	7 0 11 is_stmt 0        @ ../Drivers/STM32F7xx_HAL_Driver/Src/stm32f7xx_hal_i2c.c:0:11
	bl	I2C_TransferConfig
.Ltmp743:
.LBB31_22:                              @   in Loop: Header=BB31_14 Depth=1
	@DEBUG_VALUE: HAL_I2C_Mem_Write:tickstart <- $r9
	@DEBUG_VALUE: HAL_I2C_Mem_Write:hi2c <- $r4
	@DEBUG_VALUE: HAL_I2C_Mem_Write:DevAddress <- $r11
	@DEBUG_VALUE: HAL_I2C_Mem_Write:pData <- [DW_OP_plus_uconst 48] [$sp+0]
	@DEBUG_VALUE: HAL_I2C_Mem_Write:Timeout <- [DW_OP_plus_uconst 56] [$sp+0]
	.loc	7 1834 18 is_stmt 1     @ ../Drivers/STM32F7xx_HAL_Driver/Src/stm32f7xx_hal_i2c.c:1834:18
	ldrh	r0, [r4, #42]
.Ltmp744:
	.loc	7 1834 5 is_stmt 0      @ ../Drivers/STM32F7xx_HAL_Driver/Src/stm32f7xx_hal_i2c.c:1834:5
	cmp	r0, #0
	bne	.LBB31_14
.Ltmp745:
@ %bb.23:
	@DEBUG_VALUE: HAL_I2C_Mem_Write:tickstart <- $r9
	@DEBUG_VALUE: HAL_I2C_Mem_Write:hi2c <- $r4
	@DEBUG_VALUE: HAL_I2C_Mem_Write:DevAddress <- $r11
	@DEBUG_VALUE: HAL_I2C_Mem_Write:pData <- [DW_OP_plus_uconst 48] [$sp+0]
	@DEBUG_VALUE: HAL_I2C_Mem_Write:Timeout <- [DW_OP_plus_uconst 56] [$sp+0]
	.loc	7 1838 8 is_stmt 1      @ ../Drivers/STM32F7xx_HAL_Driver/Src/stm32f7xx_hal_i2c.c:1838:8
	mov	r0, r4
	mov	r1, r5
	mov	r2, r9
	bl	I2C_WaitOnSTOPFlagUntilTimeout
.Ltmp746:
	.loc	7 1838 8 is_stmt 0      @ ../Drivers/STM32F7xx_HAL_Driver/Src/stm32f7xx_hal_i2c.c:1838:8
	cbz	r0, .LBB31_25
.Ltmp747:
.LBB31_24:
	@DEBUG_VALUE: HAL_I2C_Mem_Write:tickstart <- $r9
	@DEBUG_VALUE: HAL_I2C_Mem_Write:hi2c <- $r4
	@DEBUG_VALUE: HAL_I2C_Mem_Write:DevAddress <- $r11
	@DEBUG_VALUE: HAL_I2C_Mem_Write:pData <- [DW_OP_plus_uconst 48] [$sp+0]
	@DEBUG_VALUE: HAL_I2C_Mem_Write:Timeout <- [DW_OP_plus_uconst 56] [$sp+0]
	.loc	7 0 8                   @ ../Drivers/STM32F7xx_HAL_Driver/Src/stm32f7xx_hal_i2c.c:0:8
	ldr	r1, [r4, #68]
	movs	r0, #3
	cmp	r1, #4
	it	eq
	moveq	r0, #1
	b	.LBB31_5
.Ltmp748:
.LBB31_25:
	@DEBUG_VALUE: HAL_I2C_Mem_Write:tickstart <- $r9
	@DEBUG_VALUE: HAL_I2C_Mem_Write:hi2c <- $r4
	@DEBUG_VALUE: HAL_I2C_Mem_Write:DevAddress <- $r11
	@DEBUG_VALUE: HAL_I2C_Mem_Write:pData <- [DW_OP_plus_uconst 48] [$sp+0]
	@DEBUG_VALUE: HAL_I2C_Mem_Write:Timeout <- [DW_OP_plus_uconst 56] [$sp+0]
	.loc	7 1851 5 is_stmt 1      @ ../Drivers/STM32F7xx_HAL_Driver/Src/stm32f7xx_hal_i2c.c:1851:5
	ldr	r0, [r4]
	movs	r1, #32
	.loc	7 1854 5                @ ../Drivers/STM32F7xx_HAL_Driver/Src/stm32f7xx_hal_i2c.c:1854:5
	ldr	r3, __arm_cp.31_0
	.loc	7 1851 5                @ ../Drivers/STM32F7xx_HAL_Driver/Src/stm32f7xx_hal_i2c.c:1851:5
	str	r1, [r0, #28]
	.loc	7 1854 5                @ ../Drivers/STM32F7xx_HAL_Driver/Src/stm32f7xx_hal_i2c.c:1854:5
	ldr	r2, [r0, #4]
	ands	r2, r3
	str	r2, [r0, #4]
	movs	r0, #0
	.loc	7 1856 17               @ ../Drivers/STM32F7xx_HAL_Driver/Src/stm32f7xx_hal_i2c.c:1856:17
	strb.w	r1, [r4, #65]
.Ltmp749:
	.loc	7 1860 5                @ ../Drivers/STM32F7xx_HAL_Driver/Src/stm32f7xx_hal_i2c.c:1860:5
	strb.w	r0, [r4, #64]
.Ltmp750:
	.loc	7 1857 17               @ ../Drivers/STM32F7xx_HAL_Driver/Src/stm32f7xx_hal_i2c.c:1857:17
	strb.w	r0, [r4, #66]
	b	.LBB31_5
.Ltmp751:
	.p2align	2
@ %bb.26:
	.loc	7 0 17 is_stmt 0        @ ../Drivers/STM32F7xx_HAL_Driver/Src/stm32f7xx_hal_i2c.c:0:17
__arm_cp.31_0:
	.long	4261472256              @ 0xfe00e800
.Lcpi_end33:
	.size	__arm_cp.31_0, .Lcpi_end33-__arm_cp.31_0
.Lfunc_end31:
	.size	HAL_I2C_Mem_Write, .Lfunc_end31-HAL_I2C_Mem_Write
	.cfi_endproc
	.cantunwind
	.fnend
                                        @ -- End function
	.section	.text.I2C_RequestMemoryWrite,"ax",%progbits
	.p2align	1               @ -- Begin function I2C_RequestMemoryWrite
	.type	I2C_RequestMemoryWrite,%function
	.code	16                      @ @I2C_RequestMemoryWrite
	.thumb_func
I2C_RequestMemoryWrite:
.Lfunc_begin32:
	.loc	7 3640 0 is_stmt 1      @ ../Drivers/STM32F7xx_HAL_Driver/Src/stm32f7xx_hal_i2c.c:3640:0
	.fnstart
	.cfi_startproc
@ %bb.0:
	.save	{r4, r5, r6, r7, r8, lr}
	.pad	#8
	push.w	{r2, r3, r4, r5, r6, r7, r8, lr}
	.cfi_def_cfa_offset 32
	.cfi_offset lr, -4
	.cfi_offset r8, -8
	.cfi_offset r7, -12
	.cfi_offset r6, -16
	.cfi_offset r5, -20
	.cfi_offset r4, -24
	@DEBUG_VALUE: I2C_RequestMemoryWrite:hi2c <- $r0
	@DEBUG_VALUE: I2C_RequestMemoryWrite:DevAddress <- $r1
	@DEBUG_VALUE: I2C_RequestMemoryWrite:MemAddress <- $r2
	@DEBUG_VALUE: I2C_RequestMemoryWrite:MemAddSize <- $r3
	mov	r4, r0
	@DEBUG_VALUE: I2C_RequestMemoryWrite:Tickstart <- [DW_OP_plus_uconst 36] [$sp+0]
	@DEBUG_VALUE: I2C_RequestMemoryWrite:Timeout <- [DW_OP_plus_uconst 32] [$sp+0]
.Ltmp752:
	@DEBUG_VALUE: I2C_RequestMemoryWrite:MemAddSize <- $r6
	@DEBUG_VALUE: I2C_RequestMemoryWrite:MemAddress <- $r5
	@DEBUG_VALUE: I2C_RequestMemoryWrite:DevAddress <- $r1
	@DEBUG_VALUE: I2C_RequestMemoryWrite:hi2c <- $r4
	.loc	7 3641 3 prologue_end   @ ../Drivers/STM32F7xx_HAL_Driver/Src/stm32f7xx_hal_i2c.c:3641:3
	mov.w	r0, #8192
	mov	r5, r2
.Ltmp753:
	.loc	7 0 3 is_stmt 0         @ ../Drivers/STM32F7xx_HAL_Driver/Src/stm32f7xx_hal_i2c.c:0:3
	mov	r6, r3
.Ltmp754:
	.loc	7 3641 3                @ ../Drivers/STM32F7xx_HAL_Driver/Src/stm32f7xx_hal_i2c.c:3641:3
	uxtb	r2, r3
	mov.w	r3, #16777216
	str	r0, [sp]
	mov	r0, r4
	@DEBUG_VALUE: I2C_RequestMemoryWrite:DevAddress <- $r1
	bl	I2C_TransferConfig
.Ltmp755:
	.loc	7 0 3                   @ ../Drivers/STM32F7xx_HAL_Driver/Src/stm32f7xx_hal_i2c.c:0:3
	ldrd	r8, r7, [sp, #32]
.Ltmp756:
	.loc	7 3644 6 is_stmt 1      @ ../Drivers/STM32F7xx_HAL_Driver/Src/stm32f7xx_hal_i2c.c:3644:6
	mov	r0, r4
	mov	r1, r8
	mov	r2, r7
	bl	I2C_WaitOnTXISFlagUntilTimeout
.Ltmp757:
	@DEBUG_VALUE: I2C_RequestMemoryWrite:MemAddress <- undef
	.loc	7 3644 6 is_stmt 0      @ ../Drivers/STM32F7xx_HAL_Driver/Src/stm32f7xx_hal_i2c.c:3644:6
	cbz	r0, .LBB32_2
.Ltmp758:
.LBB32_1:
	@DEBUG_VALUE: I2C_RequestMemoryWrite:hi2c <- $r4
	@DEBUG_VALUE: I2C_RequestMemoryWrite:Timeout <- [DW_OP_plus_uconst 32] [$sp+0]
	@DEBUG_VALUE: I2C_RequestMemoryWrite:Tickstart <- [DW_OP_plus_uconst 36] [$sp+0]
	.loc	7 0 6                   @ ../Drivers/STM32F7xx_HAL_Driver/Src/stm32f7xx_hal_i2c.c:0:6
	ldr	r1, [r4, #68]
	movs	r0, #3
	cmp	r1, #4
	it	eq
	moveq	r0, #1
	b	.LBB32_5
.Ltmp759:
.LBB32_2:
	@DEBUG_VALUE: I2C_RequestMemoryWrite:hi2c <- $r4
	@DEBUG_VALUE: I2C_RequestMemoryWrite:Timeout <- [DW_OP_plus_uconst 32] [$sp+0]
	@DEBUG_VALUE: I2C_RequestMemoryWrite:Tickstart <- [DW_OP_plus_uconst 36] [$sp+0]
	.loc	7 3657 6 is_stmt 1      @ ../Drivers/STM32F7xx_HAL_Driver/Src/stm32f7xx_hal_i2c.c:3657:6
	cmp	r6, #1
	beq	.LBB32_4
.Ltmp760:
@ %bb.3:
	@DEBUG_VALUE: I2C_RequestMemoryWrite:hi2c <- $r4
	@DEBUG_VALUE: I2C_RequestMemoryWrite:Timeout <- [DW_OP_plus_uconst 32] [$sp+0]
	@DEBUG_VALUE: I2C_RequestMemoryWrite:Tickstart <- [DW_OP_plus_uconst 36] [$sp+0]
	.loc	7 3666 11               @ ../Drivers/STM32F7xx_HAL_Driver/Src/stm32f7xx_hal_i2c.c:3666:11
	ldr	r0, [r4]
	.loc	7 3666 28 is_stmt 0     @ ../Drivers/STM32F7xx_HAL_Driver/Src/stm32f7xx_hal_i2c.c:3666:28
	lsrs	r1, r5, #8
.Ltmp761:
	.loc	7 3669 8 is_stmt 1      @ ../Drivers/STM32F7xx_HAL_Driver/Src/stm32f7xx_hal_i2c.c:3669:8
	mov	r2, r7
.Ltmp762:
	.loc	7 3666 26               @ ../Drivers/STM32F7xx_HAL_Driver/Src/stm32f7xx_hal_i2c.c:3666:26
	str	r1, [r0, #40]
.Ltmp763:
	.loc	7 3669 8                @ ../Drivers/STM32F7xx_HAL_Driver/Src/stm32f7xx_hal_i2c.c:3669:8
	mov	r0, r4
	mov	r1, r8
	bl	I2C_WaitOnTXISFlagUntilTimeout
.Ltmp764:
	.loc	7 3669 8 is_stmt 0      @ ../Drivers/STM32F7xx_HAL_Driver/Src/stm32f7xx_hal_i2c.c:3669:8
	cmp	r0, #0
	bne	.LBB32_1
.Ltmp765:
.LBB32_4:
	@DEBUG_VALUE: I2C_RequestMemoryWrite:hi2c <- $r4
	@DEBUG_VALUE: I2C_RequestMemoryWrite:Timeout <- [DW_OP_plus_uconst 32] [$sp+0]
	@DEBUG_VALUE: I2C_RequestMemoryWrite:Tickstart <- [DW_OP_plus_uconst 36] [$sp+0]
	.loc	7 0 8                   @ ../Drivers/STM32F7xx_HAL_Driver/Src/stm32f7xx_hal_i2c.c:0:8
	ldr	r0, [r4]
	uxtb	r1, r5
.Ltmp766:
	.loc	7 3686 6 is_stmt 1      @ ../Drivers/STM32F7xx_HAL_Driver/Src/stm32f7xx_hal_i2c.c:3686:6
	movs	r2, #0
	mov	r3, r8
	str	r1, [r0, #40]
	mov	r0, r4
	movs	r1, #128
	str	r7, [sp]
	bl	I2C_WaitOnFlagUntilTimeout
.Ltmp767:
	.loc	7 3686 6 is_stmt 0      @ ../Drivers/STM32F7xx_HAL_Driver/Src/stm32f7xx_hal_i2c.c:3686:6
	cmp	r0, #0
	it	ne
	movne	r0, #3
.Ltmp768:
.LBB32_5:
	@DEBUG_VALUE: I2C_RequestMemoryWrite:hi2c <- $r4
	@DEBUG_VALUE: I2C_RequestMemoryWrite:Timeout <- [DW_OP_plus_uconst 32] [$sp+0]
	@DEBUG_VALUE: I2C_RequestMemoryWrite:Tickstart <- [DW_OP_plus_uconst 36] [$sp+0]
	.loc	7 0 6                   @ ../Drivers/STM32F7xx_HAL_Driver/Src/stm32f7xx_hal_i2c.c:0:6
	add	sp, #8
.Ltmp769:
	pop.w	{r4, r5, r6, r7, r8, pc}
.Ltmp770:
.Lfunc_end32:
	.size	I2C_RequestMemoryWrite, .Lfunc_end32-I2C_RequestMemoryWrite
	.cfi_endproc
	.cantunwind
	.fnend
                                        @ -- End function
	.section	.text.HAL_I2C_Mem_Read,"ax",%progbits
	.hidden	HAL_I2C_Mem_Read        @ -- Begin function HAL_I2C_Mem_Read
	.globl	HAL_I2C_Mem_Read
	.p2align	2
	.type	HAL_I2C_Mem_Read,%function
	.code	16                      @ @HAL_I2C_Mem_Read
	.thumb_func
HAL_I2C_Mem_Read:
.Lfunc_begin33:
	.loc	7 1884 0 is_stmt 1      @ ../Drivers/STM32F7xx_HAL_Driver/Src/stm32f7xx_hal_i2c.c:1884:0
	.fnstart
	.cfi_startproc
@ %bb.0:
	.save	{r4, r5, r6, r7, r8, r9, r10, r11, lr}
	.pad	#12
	push.w	{r1, r2, r3, r4, r5, r6, r7, r8, r9, r10, r11, lr}
	.cfi_def_cfa_offset 48
	.cfi_offset lr, -4
	.cfi_offset r11, -8
	.cfi_offset r10, -12
	.cfi_offset r9, -16
	.cfi_offset r8, -20
	.cfi_offset r7, -24
	.cfi_offset r6, -28
	.cfi_offset r5, -32
	.cfi_offset r4, -36
	@DEBUG_VALUE: HAL_I2C_Mem_Read:hi2c <- $r0
	@DEBUG_VALUE: HAL_I2C_Mem_Read:DevAddress <- $r1
	@DEBUG_VALUE: HAL_I2C_Mem_Read:MemAddress <- $r2
	@DEBUG_VALUE: HAL_I2C_Mem_Read:MemAddSize <- $r3
	mov	r4, r0
.Ltmp771:
	@DEBUG_VALUE: HAL_I2C_Mem_Read:tickstart <- 0
	@DEBUG_VALUE: HAL_I2C_Mem_Read:Timeout <- [DW_OP_plus_uconst 56] [$sp+0]
	@DEBUG_VALUE: HAL_I2C_Mem_Read:pData <- [DW_OP_plus_uconst 48] [$sp+0]
	@DEBUG_VALUE: HAL_I2C_Mem_Read:MemAddSize <- $r7
	@DEBUG_VALUE: HAL_I2C_Mem_Read:MemAddress <- $r6
	@DEBUG_VALUE: HAL_I2C_Mem_Read:DevAddress <- $r11
	@DEBUG_VALUE: HAL_I2C_Mem_Read:hi2c <- $r4
	.loc	7 1890 12 prologue_end  @ ../Drivers/STM32F7xx_HAL_Driver/Src/stm32f7xx_hal_i2c.c:1890:12
	ldrb.w	r0, [r0, #65]
	mov	r7, r3
.Ltmp772:
	.loc	7 0 12 is_stmt 0        @ ../Drivers/STM32F7xx_HAL_Driver/Src/stm32f7xx_hal_i2c.c:0:12
	mov	r6, r2
.Ltmp773:
	mov	r11, r1
.Ltmp774:
	.loc	7 1890 6                @ ../Drivers/STM32F7xx_HAL_Driver/Src/stm32f7xx_hal_i2c.c:1890:6
	cmp	r0, #32
	bne	.LBB33_4
.Ltmp775:
@ %bb.1:
	@DEBUG_VALUE: HAL_I2C_Mem_Read:hi2c <- $r4
	@DEBUG_VALUE: HAL_I2C_Mem_Read:pData <- [DW_OP_plus_uconst 48] [$sp+0]
	@DEBUG_VALUE: HAL_I2C_Mem_Read:Timeout <- [DW_OP_plus_uconst 56] [$sp+0]
	.loc	7 0 6                   @ ../Drivers/STM32F7xx_HAL_Driver/Src/stm32f7xx_hal_i2c.c:0:6
	ldr	r5, [sp, #48]
	movs	r0, #1
.Ltmp776:
	.loc	7 1892 24 is_stmt 1     @ ../Drivers/STM32F7xx_HAL_Driver/Src/stm32f7xx_hal_i2c.c:1892:24
	cbz	r5, .LBB33_5
.Ltmp777:
@ %bb.2:
	@DEBUG_VALUE: HAL_I2C_Mem_Read:hi2c <- $r4
	@DEBUG_VALUE: HAL_I2C_Mem_Read:pData <- [DW_OP_plus_uconst 48] [$sp+0]
	@DEBUG_VALUE: HAL_I2C_Mem_Read:Timeout <- [DW_OP_plus_uconst 56] [$sp+0]
	.loc	7 0 24 is_stmt 0        @ ../Drivers/STM32F7xx_HAL_Driver/Src/stm32f7xx_hal_i2c.c:0:24
	ldr.w	r10, [sp, #52]
	@DEBUG_VALUE: HAL_I2C_Mem_Read:Size <- $r10
	.loc	7 1892 24               @ ../Drivers/STM32F7xx_HAL_Driver/Src/stm32f7xx_hal_i2c.c:1892:24
	cmp.w	r10, #0
	beq	.LBB33_5
.Ltmp778:
@ %bb.3:
	@DEBUG_VALUE: HAL_I2C_Mem_Read:Size <- $r10
	@DEBUG_VALUE: HAL_I2C_Mem_Read:hi2c <- $r4
	@DEBUG_VALUE: HAL_I2C_Mem_Read:pData <- [DW_OP_plus_uconst 48] [$sp+0]
	@DEBUG_VALUE: HAL_I2C_Mem_Read:Timeout <- [DW_OP_plus_uconst 56] [$sp+0]
	.loc	7 1898 5 is_stmt 1      @ ../Drivers/STM32F7xx_HAL_Driver/Src/stm32f7xx_hal_i2c.c:1898:5
	ldrb.w	r0, [r4, #64]
.Ltmp779:
	.loc	7 1898 5 is_stmt 0      @ ../Drivers/STM32F7xx_HAL_Driver/Src/stm32f7xx_hal_i2c.c:1898:5
	cmp	r0, #1
	bne	.LBB33_6
.Ltmp780:
.LBB33_4:
	@DEBUG_VALUE: HAL_I2C_Mem_Read:hi2c <- $r4
	@DEBUG_VALUE: HAL_I2C_Mem_Read:pData <- [DW_OP_plus_uconst 48] [$sp+0]
	@DEBUG_VALUE: HAL_I2C_Mem_Read:Timeout <- [DW_OP_plus_uconst 56] [$sp+0]
	.loc	7 0 5                   @ ../Drivers/STM32F7xx_HAL_Driver/Src/stm32f7xx_hal_i2c.c:0:5
	movs	r0, #2
.Ltmp781:
.LBB33_5:
	@DEBUG_VALUE: HAL_I2C_Mem_Read:hi2c <- $r4
	@DEBUG_VALUE: HAL_I2C_Mem_Read:pData <- [DW_OP_plus_uconst 48] [$sp+0]
	@DEBUG_VALUE: HAL_I2C_Mem_Read:Timeout <- [DW_OP_plus_uconst 56] [$sp+0]
	.loc	7 2013 1 is_stmt 1      @ ../Drivers/STM32F7xx_HAL_Driver/Src/stm32f7xx_hal_i2c.c:2013:1
	uxtb	r0, r0
	add	sp, #12
.Ltmp782:
	pop.w	{r4, r5, r6, r7, r8, r9, r10, r11, pc}
.Ltmp783:
.LBB33_6:
	@DEBUG_VALUE: HAL_I2C_Mem_Read:Size <- $r10
	@DEBUG_VALUE: HAL_I2C_Mem_Read:hi2c <- $r4
	@DEBUG_VALUE: HAL_I2C_Mem_Read:pData <- [DW_OP_plus_uconst 48] [$sp+0]
	@DEBUG_VALUE: HAL_I2C_Mem_Read:Timeout <- [DW_OP_plus_uconst 56] [$sp+0]
	.loc	7 0 1 is_stmt 0         @ ../Drivers/STM32F7xx_HAL_Driver/Src/stm32f7xx_hal_i2c.c:0:1
	movs	r0, #1
.Ltmp784:
	.loc	7 1898 5 is_stmt 1      @ ../Drivers/STM32F7xx_HAL_Driver/Src/stm32f7xx_hal_i2c.c:1898:5
	strb.w	r0, [r4, #64]
.Ltmp785:
	.loc	7 1901 17               @ ../Drivers/STM32F7xx_HAL_Driver/Src/stm32f7xx_hal_i2c.c:1901:17
	bl	HAL_GetTick
	mov	r9, r0
.Ltmp786:
	@DEBUG_VALUE: HAL_I2C_Mem_Read:tickstart <- $r9
	.loc	7 1903 8                @ ../Drivers/STM32F7xx_HAL_Driver/Src/stm32f7xx_hal_i2c.c:1903:8
	str	r0, [sp]
	mov	r0, r4
	mov.w	r1, #32768
	movs	r2, #1
	movs	r3, #25
	bl	I2C_WaitOnFlagUntilTimeout
.Ltmp787:
	.loc	7 1903 8 is_stmt 0      @ ../Drivers/STM32F7xx_HAL_Driver/Src/stm32f7xx_hal_i2c.c:1903:8
	cbz	r0, .LBB33_8
.Ltmp788:
.LBB33_7:
	@DEBUG_VALUE: HAL_I2C_Mem_Read:tickstart <- $r9
	@DEBUG_VALUE: HAL_I2C_Mem_Read:hi2c <- $r4
	@DEBUG_VALUE: HAL_I2C_Mem_Read:pData <- [DW_OP_plus_uconst 48] [$sp+0]
	@DEBUG_VALUE: HAL_I2C_Mem_Read:Timeout <- [DW_OP_plus_uconst 56] [$sp+0]
	.loc	7 0 8                   @ ../Drivers/STM32F7xx_HAL_Driver/Src/stm32f7xx_hal_i2c.c:0:8
	movs	r0, #3
	b	.LBB33_5
.Ltmp789:
.LBB33_8:
	@DEBUG_VALUE: HAL_I2C_Mem_Read:tickstart <- $r9
	@DEBUG_VALUE: HAL_I2C_Mem_Read:Size <- $r10
	@DEBUG_VALUE: HAL_I2C_Mem_Read:hi2c <- $r4
	@DEBUG_VALUE: HAL_I2C_Mem_Read:pData <- [DW_OP_plus_uconst 48] [$sp+0]
	@DEBUG_VALUE: HAL_I2C_Mem_Read:Timeout <- [DW_OP_plus_uconst 56] [$sp+0]
	@DEBUG_VALUE: HAL_I2C_Mem_Read:DevAddress <- $r11
	@DEBUG_VALUE: HAL_I2C_Mem_Read:MemAddress <- $r6
	@DEBUG_VALUE: HAL_I2C_Mem_Read:MemAddSize <- $r7
	ldr	r1, [sp, #56]
	.loc	7 1908 21 is_stmt 1     @ ../Drivers/STM32F7xx_HAL_Driver/Src/stm32f7xx_hal_i2c.c:1908:21
	movs	r0, #34
	mov.w	r8, #0
.Ltmp790:
	.loc	7 1918 8                @ ../Drivers/STM32F7xx_HAL_Driver/Src/stm32f7xx_hal_i2c.c:1918:8
	mov	r2, r6
	mov	r3, r7
.Ltmp791:
	.loc	7 1908 21               @ ../Drivers/STM32F7xx_HAL_Driver/Src/stm32f7xx_hal_i2c.c:1908:21
	strb.w	r0, [r4, #65]
	.loc	7 1909 21               @ ../Drivers/STM32F7xx_HAL_Driver/Src/stm32f7xx_hal_i2c.c:1909:21
	movs	r0, #64
	strb.w	r0, [r4, #66]
	.loc	7 1910 21               @ ../Drivers/STM32F7xx_HAL_Driver/Src/stm32f7xx_hal_i2c.c:1910:21
	str.w	r8, [r4, #68]
	.loc	7 1913 21               @ ../Drivers/STM32F7xx_HAL_Driver/Src/stm32f7xx_hal_i2c.c:1913:21
	str	r5, [r4, #36]
	.loc	7 1915 21               @ ../Drivers/STM32F7xx_HAL_Driver/Src/stm32f7xx_hal_i2c.c:1915:21
	str.w	r8, [r4, #52]
	.loc	7 1914 21               @ ../Drivers/STM32F7xx_HAL_Driver/Src/stm32f7xx_hal_i2c.c:1914:21
	strh.w	r10, [r4, #42]
.Ltmp792:
	.loc	7 1918 8                @ ../Drivers/STM32F7xx_HAL_Driver/Src/stm32f7xx_hal_i2c.c:1918:8
	mov	r0, r4
	mov	r5, r1
	strd	r1, r9, [sp]
	mov	r1, r11
	bl	I2C_RequestMemoryRead
.Ltmp793:
	.loc	7 1918 8 is_stmt 0      @ ../Drivers/STM32F7xx_HAL_Driver/Src/stm32f7xx_hal_i2c.c:1918:8
	cbz	r0, .LBB33_10
.Ltmp794:
@ %bb.9:
	@DEBUG_VALUE: HAL_I2C_Mem_Read:tickstart <- $r9
	@DEBUG_VALUE: HAL_I2C_Mem_Read:Size <- $r10
	@DEBUG_VALUE: HAL_I2C_Mem_Read:hi2c <- $r4
	@DEBUG_VALUE: HAL_I2C_Mem_Read:DevAddress <- $r11
	@DEBUG_VALUE: HAL_I2C_Mem_Read:MemAddress <- $r6
	@DEBUG_VALUE: HAL_I2C_Mem_Read:MemAddSize <- $r7
	@DEBUG_VALUE: HAL_I2C_Mem_Read:pData <- [DW_OP_plus_uconst 48] [$sp+0]
	@DEBUG_VALUE: HAL_I2C_Mem_Read:Timeout <- [DW_OP_plus_uconst 56] [$sp+0]
	.loc	7 0 8                   @ ../Drivers/STM32F7xx_HAL_Driver/Src/stm32f7xx_hal_i2c.c:0:8
	strb.w	r8, [r4, #64]
.Ltmp795:
	.loc	7 1920 10 is_stmt 1     @ ../Drivers/STM32F7xx_HAL_Driver/Src/stm32f7xx_hal_i2c.c:1920:10
	movs	r0, #3
.Ltmp796:
	.loc	7 1920 16 is_stmt 0     @ ../Drivers/STM32F7xx_HAL_Driver/Src/stm32f7xx_hal_i2c.c:1920:16
	ldr	r1, [r4, #68]
.Ltmp797:
	.loc	7 1920 10               @ ../Drivers/STM32F7xx_HAL_Driver/Src/stm32f7xx_hal_i2c.c:1920:10
	cmp	r1, #4
	it	eq
	moveq	r0, #1
	add	sp, #12
.Ltmp798:
	pop.w	{r4, r5, r6, r7, r8, r9, r10, r11, pc}
.Ltmp799:
.LBB33_10:
	@DEBUG_VALUE: HAL_I2C_Mem_Read:tickstart <- $r9
	@DEBUG_VALUE: HAL_I2C_Mem_Read:Size <- $r10
	@DEBUG_VALUE: HAL_I2C_Mem_Read:hi2c <- $r4
	@DEBUG_VALUE: HAL_I2C_Mem_Read:DevAddress <- $r11
	@DEBUG_VALUE: HAL_I2C_Mem_Read:MemAddress <- $r6
	@DEBUG_VALUE: HAL_I2C_Mem_Read:MemAddSize <- $r7
	@DEBUG_VALUE: HAL_I2C_Mem_Read:pData <- [DW_OP_plus_uconst 48] [$sp+0]
	@DEBUG_VALUE: HAL_I2C_Mem_Read:Timeout <- [DW_OP_plus_uconst 56] [$sp+0]
	.loc	7 1936 14 is_stmt 1     @ ../Drivers/STM32F7xx_HAL_Driver/Src/stm32f7xx_hal_i2c.c:1936:14
	ldrh	r0, [r4, #42]
.Ltmp800:
	.loc	7 1936 8 is_stmt 0      @ ../Drivers/STM32F7xx_HAL_Driver/Src/stm32f7xx_hal_i2c.c:1936:8
	cmp.w	r0, #256
	blo	.LBB33_12
.Ltmp801:
@ %bb.11:
	@DEBUG_VALUE: HAL_I2C_Mem_Read:tickstart <- $r9
	@DEBUG_VALUE: HAL_I2C_Mem_Read:Size <- $r10
	@DEBUG_VALUE: HAL_I2C_Mem_Read:hi2c <- $r4
	@DEBUG_VALUE: HAL_I2C_Mem_Read:DevAddress <- $r11
	@DEBUG_VALUE: HAL_I2C_Mem_Read:MemAddress <- $r6
	@DEBUG_VALUE: HAL_I2C_Mem_Read:MemAddSize <- $r7
	@DEBUG_VALUE: HAL_I2C_Mem_Read:pData <- [DW_OP_plus_uconst 48] [$sp+0]
	@DEBUG_VALUE: HAL_I2C_Mem_Read:Timeout <- [DW_OP_plus_uconst 56] [$sp+0]
	.loc	7 0 8                   @ ../Drivers/STM32F7xx_HAL_Driver/Src/stm32f7xx_hal_i2c.c:0:8
	movs	r0, #255
.Ltmp802:
	.loc	7 1939 7 is_stmt 1      @ ../Drivers/STM32F7xx_HAL_Driver/Src/stm32f7xx_hal_i2c.c:1939:7
	mov	r1, r11
	movs	r2, #255
	mov.w	r3, #16777216
	.loc	7 1938 22               @ ../Drivers/STM32F7xx_HAL_Driver/Src/stm32f7xx_hal_i2c.c:1938:22
	strh	r0, [r4, #40]
	.loc	7 1939 7                @ ../Drivers/STM32F7xx_HAL_Driver/Src/stm32f7xx_hal_i2c.c:1939:7
	mov.w	r0, #9216
	str	r0, [sp]
	mov	r0, r4
	b	.LBB33_13
.Ltmp803:
.LBB33_12:
	@DEBUG_VALUE: HAL_I2C_Mem_Read:tickstart <- $r9
	@DEBUG_VALUE: HAL_I2C_Mem_Read:Size <- $r10
	@DEBUG_VALUE: HAL_I2C_Mem_Read:hi2c <- $r4
	@DEBUG_VALUE: HAL_I2C_Mem_Read:DevAddress <- $r11
	@DEBUG_VALUE: HAL_I2C_Mem_Read:MemAddress <- $r6
	@DEBUG_VALUE: HAL_I2C_Mem_Read:MemAddSize <- $r7
	@DEBUG_VALUE: HAL_I2C_Mem_Read:pData <- [DW_OP_plus_uconst 48] [$sp+0]
	@DEBUG_VALUE: HAL_I2C_Mem_Read:Timeout <- [DW_OP_plus_uconst 56] [$sp+0]
	.loc	7 1943 30               @ ../Drivers/STM32F7xx_HAL_Driver/Src/stm32f7xx_hal_i2c.c:1943:30
	ldrh	r0, [r4, #42]
	.loc	7 1944 7                @ ../Drivers/STM32F7xx_HAL_Driver/Src/stm32f7xx_hal_i2c.c:1944:7
	mov.w	r1, #9216
	mov.w	r3, #33554432
	.loc	7 1943 22               @ ../Drivers/STM32F7xx_HAL_Driver/Src/stm32f7xx_hal_i2c.c:1943:22
	strh	r0, [r4, #40]
	.loc	7 1944 7                @ ../Drivers/STM32F7xx_HAL_Driver/Src/stm32f7xx_hal_i2c.c:1944:7
	str	r1, [sp]
	uxtb	r2, r0
	mov	r0, r4
	mov	r1, r11
.Ltmp804:
.LBB33_13:
	@DEBUG_VALUE: HAL_I2C_Mem_Read:tickstart <- $r9
	@DEBUG_VALUE: HAL_I2C_Mem_Read:Size <- $r10
	@DEBUG_VALUE: HAL_I2C_Mem_Read:hi2c <- $r4
	@DEBUG_VALUE: HAL_I2C_Mem_Read:DevAddress <- $r11
	@DEBUG_VALUE: HAL_I2C_Mem_Read:MemAddress <- $r6
	@DEBUG_VALUE: HAL_I2C_Mem_Read:MemAddSize <- $r7
	@DEBUG_VALUE: HAL_I2C_Mem_Read:pData <- [DW_OP_plus_uconst 48] [$sp+0]
	@DEBUG_VALUE: HAL_I2C_Mem_Read:Timeout <- [DW_OP_plus_uconst 56] [$sp+0]
	.loc	7 0 7 is_stmt 0         @ ../Drivers/STM32F7xx_HAL_Driver/Src/stm32f7xx_hal_i2c.c:0:7
	bl	I2C_TransferConfig
	movs	r6, #0
.Ltmp805:
	movw	r7, #65535
.Ltmp806:
	mov.w	r10, #255
.Ltmp807:
.LBB33_14:                              @ =>This Inner Loop Header: Depth=1
	@DEBUG_VALUE: HAL_I2C_Mem_Read:tickstart <- $r9
	@DEBUG_VALUE: HAL_I2C_Mem_Read:hi2c <- $r4
	@DEBUG_VALUE: HAL_I2C_Mem_Read:DevAddress <- $r11
	@DEBUG_VALUE: HAL_I2C_Mem_Read:pData <- [DW_OP_plus_uconst 48] [$sp+0]
	@DEBUG_VALUE: HAL_I2C_Mem_Read:Timeout <- [DW_OP_plus_uconst 56] [$sp+0]
	.loc	7 1950 10 is_stmt 1     @ ../Drivers/STM32F7xx_HAL_Driver/Src/stm32f7xx_hal_i2c.c:1950:10
	mov	r0, r4
	movs	r1, #4
	movs	r2, #0
	mov	r3, r5
	str.w	r9, [sp]
	bl	I2C_WaitOnFlagUntilTimeout
.Ltmp808:
	.loc	7 1950 10 is_stmt 0     @ ../Drivers/STM32F7xx_HAL_Driver/Src/stm32f7xx_hal_i2c.c:1950:10
	cmp	r0, #0
	bne	.LBB33_7
.Ltmp809:
@ %bb.15:                               @   in Loop: Header=BB33_14 Depth=1
	@DEBUG_VALUE: HAL_I2C_Mem_Read:tickstart <- $r9
	@DEBUG_VALUE: HAL_I2C_Mem_Read:hi2c <- $r4
	@DEBUG_VALUE: HAL_I2C_Mem_Read:DevAddress <- $r11
	@DEBUG_VALUE: HAL_I2C_Mem_Read:pData <- [DW_OP_plus_uconst 48] [$sp+0]
	@DEBUG_VALUE: HAL_I2C_Mem_Read:Timeout <- [DW_OP_plus_uconst 56] [$sp+0]
	.loc	7 1956 35 is_stmt 1     @ ../Drivers/STM32F7xx_HAL_Driver/Src/stm32f7xx_hal_i2c.c:1956:35
	ldr	r0, [r4]
	.loc	7 1956 45 is_stmt 0     @ ../Drivers/STM32F7xx_HAL_Driver/Src/stm32f7xx_hal_i2c.c:1956:45
	ldr	r0, [r0, #36]
	.loc	7 1956 23               @ ../Drivers/STM32F7xx_HAL_Driver/Src/stm32f7xx_hal_i2c.c:1956:23
	ldr	r1, [r4, #36]
	adds	r2, r1, #1
	str	r2, [r4, #36]
	.loc	7 1956 27               @ ../Drivers/STM32F7xx_HAL_Driver/Src/stm32f7xx_hal_i2c.c:1956:27
	strb	r0, [r1]
	.loc	7 1957 21 is_stmt 1     @ ../Drivers/STM32F7xx_HAL_Driver/Src/stm32f7xx_hal_i2c.c:1957:21
	ldrh	r0, [r4, #40]
	subs	r0, #1
	strh	r0, [r4, #40]
.Ltmp810:
	.loc	7 1960 33               @ ../Drivers/STM32F7xx_HAL_Driver/Src/stm32f7xx_hal_i2c.c:1960:33
	tst	r0, r7
.Ltmp811:
	.loc	7 1958 22               @ ../Drivers/STM32F7xx_HAL_Driver/Src/stm32f7xx_hal_i2c.c:1958:22
	ldrh	r1, [r4, #42]
	sub.w	r1, r1, #1
	strh	r1, [r4, #42]
.Ltmp812:
	.loc	7 1960 33               @ ../Drivers/STM32F7xx_HAL_Driver/Src/stm32f7xx_hal_i2c.c:1960:33
	bne	.LBB33_22
.Ltmp813:
@ %bb.16:                               @   in Loop: Header=BB33_14 Depth=1
	@DEBUG_VALUE: HAL_I2C_Mem_Read:tickstart <- $r9
	@DEBUG_VALUE: HAL_I2C_Mem_Read:hi2c <- $r4
	@DEBUG_VALUE: HAL_I2C_Mem_Read:DevAddress <- $r11
	@DEBUG_VALUE: HAL_I2C_Mem_Read:pData <- [DW_OP_plus_uconst 48] [$sp+0]
	@DEBUG_VALUE: HAL_I2C_Mem_Read:Timeout <- [DW_OP_plus_uconst 56] [$sp+0]
	.loc	7 1960 43 is_stmt 0     @ ../Drivers/STM32F7xx_HAL_Driver/Src/stm32f7xx_hal_i2c.c:1960:43
	ldrh	r0, [r4, #42]
.Ltmp814:
	.loc	7 1960 10               @ ../Drivers/STM32F7xx_HAL_Driver/Src/stm32f7xx_hal_i2c.c:1960:10
	cbz	r0, .LBB33_22
.Ltmp815:
@ %bb.17:                               @   in Loop: Header=BB33_14 Depth=1
	@DEBUG_VALUE: HAL_I2C_Mem_Read:tickstart <- $r9
	@DEBUG_VALUE: HAL_I2C_Mem_Read:hi2c <- $r4
	@DEBUG_VALUE: HAL_I2C_Mem_Read:DevAddress <- $r11
	@DEBUG_VALUE: HAL_I2C_Mem_Read:pData <- [DW_OP_plus_uconst 48] [$sp+0]
	@DEBUG_VALUE: HAL_I2C_Mem_Read:Timeout <- [DW_OP_plus_uconst 56] [$sp+0]
	.loc	7 1963 12 is_stmt 1     @ ../Drivers/STM32F7xx_HAL_Driver/Src/stm32f7xx_hal_i2c.c:1963:12
	mov	r0, r4
	movs	r1, #128
	movs	r2, #0
	mov	r3, r5
	str.w	r9, [sp]
	bl	I2C_WaitOnFlagUntilTimeout
.Ltmp816:
	.loc	7 1963 12 is_stmt 0     @ ../Drivers/STM32F7xx_HAL_Driver/Src/stm32f7xx_hal_i2c.c:1963:12
	cmp	r0, #0
	bne	.LBB33_7
