	.text
	.syntax unified
	.eabi_attribute	67, "2.09"	@ Tag_conformance
	.cpu	cortex-m7
	.eabi_attribute	6, 13	@ Tag_CPU_arch
	.eabi_attribute	7, 77	@ Tag_CPU_arch_profile
	.eabi_attribute	8, 0	@ Tag_ARM_ISA_use
	.eabi_attribute	9, 2	@ Tag_THUMB_ISA_use
	.fpu	fpv5-sp-d16
	.eabi_attribute	27, 1	@ Tag_ABI_HardFP_use
	.eabi_attribute	36, 1	@ Tag_FP_HP_extension
	.eabi_attribute	34, 1	@ Tag_CPU_unaligned_access
	.eabi_attribute	17, 1	@ Tag_ABI_PCS_GOT_use
	.eabi_attribute	20, 2	@ Tag_ABI_FP_denormal
	.eabi_attribute	21, 0	@ Tag_ABI_FP_exceptions
	.eabi_attribute	23, 1	@ Tag_ABI_FP_number_model
	.eabi_attribute	24, 1	@ Tag_ABI_align_needed
	.eabi_attribute	25, 1	@ Tag_ABI_align_preserved
	.eabi_attribute	28, 1	@ Tag_ABI_VFP_args
	.eabi_attribute	38, 1	@ Tag_ABI_FP_16bit_format
	.eabi_attribute	18, 2	@ Tag_ABI_PCS_wchar_t
	.eabi_attribute	26, 1	@ Tag_ABI_enum_size
	.eabi_attribute	14, 0	@ Tag_ABI_PCS_R9_use
	.file	"stm32f7xx_hal_cortex.c"
	.file	1 "../Drivers/CMSIS/Device/ST/STM32F7xx/Include" "stm32f746xx.h"
	.file	2 "../Drivers/CMSIS/Device/ST/STM32F7xx/Include" "stm32f7xx.h"
	.file	3 "C:\\Keil\\ARM\\ARMCLANG\\Bin\\..\\include" "stdint.h"
	.file	4 "C:/Keil/ARM/PACK/ARM/CMSIS/5.3.0/CMSIS/Include" "core_cm7.h"
	.section	.text.HAL_NVIC_SetPriorityGrouping,"ax",%progbits
	.hidden	HAL_NVIC_SetPriorityGrouping @ -- Begin function HAL_NVIC_SetPriorityGrouping
	.globl	HAL_NVIC_SetPriorityGrouping
	.p2align	2
	.type	HAL_NVIC_SetPriorityGrouping,%function
	.code	16                      @ @HAL_NVIC_SetPriorityGrouping
	.thumb_func
HAL_NVIC_SetPriorityGrouping:
.Lfunc_begin0:
	.file	5 "../Drivers/STM32F7xx_HAL_Driver/Src" "stm32f7xx_hal_cortex.c"
	.loc	5 160 0                 @ ../Drivers/STM32F7xx_HAL_Driver/Src/stm32f7xx_hal_cortex.c:160:0
	.fnstart
	.cfi_sections .debug_frame
	.cfi_startproc
@ %bb.0:
	@DEBUG_VALUE: HAL_NVIC_SetPriorityGrouping:PriorityGroup <- $r0
	@DEBUG_VALUE: __NVIC_SetPriorityGrouping:PriorityGroup <- $r0
	ldr	r1, __arm_cp.0_0
	@DEBUG_VALUE: __NVIC_SetPriorityGrouping:PriorityGroup <- $r0
	@DEBUG_VALUE: HAL_NVIC_SetPriorityGrouping:PriorityGroup <- $r0
.Ltmp0:
	.loc	4 1860 13 prologue_end  @ C:/Keil/ARM/PACK/ARM/CMSIS/5.3.0/CMSIS/Include\core_cm7.h:1860:13
	movw	r3, #63743
	.loc	4 1859 22               @ C:/Keil/ARM/PACK/ARM/CMSIS/5.3.0/CMSIS/Include\core_cm7.h:1859:22
	ldr	r2, [r1]
.Ltmp1:
	@DEBUG_VALUE: __NVIC_SetPriorityGrouping:reg_value <- $r2
	.loc	4 1860 13               @ C:/Keil/ARM/PACK/ARM/CMSIS/5.3.0/CMSIS/Include\core_cm7.h:1860:13
	ands	r2, r3
.Ltmp2:
	@DEBUG_VALUE: __NVIC_SetPriorityGrouping:reg_value <- $r2
	.loc	4 1862 62               @ C:/Keil/ARM/PACK/ARM/CMSIS/5.3.0/CMSIS/Include\core_cm7.h:1862:62
	bfi	r2, r0, #8, #3
.Ltmp3:
	ldr	r0, __arm_cp.0_1
.Ltmp4:
	orrs	r0, r2
.Ltmp5:
	@DEBUG_VALUE: __NVIC_SetPriorityGrouping:reg_value <- $r0
	.loc	4 1864 14               @ C:/Keil/ARM/PACK/ARM/CMSIS/5.3.0/CMSIS/Include\core_cm7.h:1864:14
	str	r0, [r1]
.Ltmp6:
	.loc	5 166 1                 @ ../Drivers/STM32F7xx_HAL_Driver/Src/stm32f7xx_hal_cortex.c:166:1
	bx	lr
.Ltmp7:
	.p2align	2
@ %bb.1:
	.loc	5 0 1 is_stmt 0         @ ../Drivers/STM32F7xx_HAL_Driver/Src/stm32f7xx_hal_cortex.c:0:1
__arm_cp.0_0:
	.long	3758157068              @ 0xe000ed0c
.Lcpi_end0:
	.size	__arm_cp.0_0, .Lcpi_end0-__arm_cp.0_0
__arm_cp.0_1:
	.long	100270080               @ 0x5fa0000
.Lcpi_end1:
	.size	__arm_cp.0_1, .Lcpi_end1-__arm_cp.0_1
.Lfunc_end0:
	.size	HAL_NVIC_SetPriorityGrouping, .Lfunc_end0-HAL_NVIC_SetPriorityGrouping
	.cfi_endproc
	.cantunwind
	.fnend
                                        @ -- End function
	.section	.text.HAL_NVIC_SetPriority,"ax",%progbits
	.hidden	HAL_NVIC_SetPriority    @ -- Begin function HAL_NVIC_SetPriority
	.globl	HAL_NVIC_SetPriority
	.p2align	2
	.type	HAL_NVIC_SetPriority,%function
	.code	16                      @ @HAL_NVIC_SetPriority
	.thumb_func
HAL_NVIC_SetPriority:
.Lfunc_begin1:
	.loc	5 182 0 is_stmt 1       @ ../Drivers/STM32F7xx_HAL_Driver/Src/stm32f7xx_hal_cortex.c:182:0
	.fnstart
	.cfi_startproc
@ %bb.0:
	.save	{r4, lr}
	push	{r4, lr}
	.cfi_def_cfa_offset 8
	.cfi_offset lr, -4
	.cfi_offset r4, -8
	@DEBUG_VALUE: HAL_NVIC_SetPriority:IRQn <- $r0
	@DEBUG_VALUE: HAL_NVIC_SetPriority:IRQn <- $r0
	@DEBUG_VALUE: HAL_NVIC_SetPriority:PreemptPriority <- $r1
	@DEBUG_VALUE: HAL_NVIC_SetPriority:PreemptPriority <- $r1
	@DEBUG_VALUE: HAL_NVIC_SetPriority:SubPriority <- $r2
	@DEBUG_VALUE: HAL_NVIC_SetPriority:SubPriority <- $r2
.Ltmp8:
	@DEBUG_VALUE: NVIC_EncodePriority:PreemptPriority <- $r1
	@DEBUG_VALUE: NVIC_EncodePriority:SubPriority <- $r2
	.loc	4 1875 28 prologue_end  @ C:/Keil/ARM/PACK/ARM/CMSIS/5.3.0/CMSIS/Include\core_cm7.h:1875:28
	ldr	r3, __arm_cp.1_0
.Ltmp9:
	@DEBUG_VALUE: HAL_NVIC_SetPriority:prioritygroup <- 0
	ldr	r3, [r3]
	.loc	4 1875 60 is_stmt 0     @ C:/Keil/ARM/PACK/ARM/CMSIS/5.3.0/CMSIS/Include\core_cm7.h:1875:60
	ubfx	lr, r3, #8, #3
.Ltmp10:
	@DEBUG_VALUE: NVIC_EncodePriority:PriorityGroupTmp <- $lr
	@DEBUG_VALUE: NVIC_EncodePriority:PriorityGroup <- $lr
	@DEBUG_VALUE: HAL_NVIC_SetPriority:prioritygroup <- $lr
	@DEBUG_VALUE: NVIC_EncodePriority:SubPriority <- $r2
	@DEBUG_VALUE: NVIC_EncodePriority:PreemptPriority <- $r1
	.loc	4 2067 44 is_stmt 1     @ C:/Keil/ARM/PACK/ARM/CMSIS/5.3.0/CMSIS/Include\core_cm7.h:2067:44
	add.w	r12, lr, #4
	.loc	4 2067 147 is_stmt 0    @ C:/Keil/ARM/PACK/ARM/CMSIS/5.3.0/CMSIS/Include\core_cm7.h:2067:147
	sub.w	r4, lr, #3
	.loc	4 2066 31 is_stmt 1     @ C:/Keil/ARM/PACK/ARM/CMSIS/5.3.0/CMSIS/Include\core_cm7.h:2066:31
	eor	r3, lr, #7
	.loc	4 2067 25               @ C:/Keil/ARM/PACK/ARM/CMSIS/5.3.0/CMSIS/Include\core_cm7.h:2067:25
	cmp.w	r12, #7
	.loc	4 2070 48               @ C:/Keil/ARM/PACK/ARM/CMSIS/5.3.0/CMSIS/Include\core_cm7.h:2070:48
	mov.w	r12, #1
	.loc	4 2067 25               @ C:/Keil/ARM/PACK/ARM/CMSIS/5.3.0/CMSIS/Include\core_cm7.h:2067:25
	it	lo
	movlo	r4, #0
.Ltmp11:
	@DEBUG_VALUE: NVIC_EncodePriority:SubPriorityBits <- $r4
	.loc	4 2066 25               @ C:/Keil/ARM/PACK/ARM/CMSIS/5.3.0/CMSIS/Include\core_cm7.h:2066:25
	cmp	r3, #4
	it	hs
	movhs	r3, #4
.Ltmp12:
	@DEBUG_VALUE: NVIC_EncodePriority:PreemptPriorityBits <- $r3
	.loc	4 2070 48               @ C:/Keil/ARM/PACK/ARM/CMSIS/5.3.0/CMSIS/Include\core_cm7.h:2070:48
	lsl.w	r3, r12, r3
.Ltmp13:
	.loc	4 2070 74 is_stmt 0     @ C:/Keil/ARM/PACK/ARM/CMSIS/5.3.0/CMSIS/Include\core_cm7.h:2070:74
	subs	r3, #1
	.loc	4 2070 30               @ C:/Keil/ARM/PACK/ARM/CMSIS/5.3.0/CMSIS/Include\core_cm7.h:2070:30
	ands	r1, r3
.Ltmp14:
	.loc	4 2071 48 is_stmt 1     @ C:/Keil/ARM/PACK/ARM/CMSIS/5.3.0/CMSIS/Include\core_cm7.h:2071:48
	lsl.w	r3, r12, r4
	.loc	4 2071 74 is_stmt 0     @ C:/Keil/ARM/PACK/ARM/CMSIS/5.3.0/CMSIS/Include\core_cm7.h:2071:74
	subs	r3, #1
	.loc	4 2070 82 is_stmt 1     @ C:/Keil/ARM/PACK/ARM/CMSIS/5.3.0/CMSIS/Include\core_cm7.h:2070:82
	lsls	r1, r4
	.loc	4 2071 30               @ C:/Keil/ARM/PACK/ARM/CMSIS/5.3.0/CMSIS/Include\core_cm7.h:2071:30
	ands	r2, r3
.Ltmp15:
	.loc	4 2070 102              @ C:/Keil/ARM/PACK/ARM/CMSIS/5.3.0/CMSIS/Include\core_cm7.h:2070:102
	orrs	r1, r2
.Ltmp16:
	@DEBUG_VALUE: HAL_NVIC_SetPriority:IRQn <- $r0
	.loc	5 191 3                 @ ../Drivers/STM32F7xx_HAL_Driver/Src/stm32f7xx_hal_cortex.c:191:3
	pop.w	{r4, lr}
.Ltmp17:
	b	__NVIC_SetPriority
.Ltmp18:
	.p2align	2
@ %bb.1:
	.loc	5 0 3 is_stmt 0         @ ../Drivers/STM32F7xx_HAL_Driver/Src/stm32f7xx_hal_cortex.c:0:3
__arm_cp.1_0:
	.long	3758157068              @ 0xe000ed0c
.Lcpi_end2:
	.size	__arm_cp.1_0, .Lcpi_end2-__arm_cp.1_0
.Lfunc_end1:
	.size	HAL_NVIC_SetPriority, .Lfunc_end1-HAL_NVIC_SetPriority
	.cfi_endproc
	.cantunwind
	.fnend
                                        @ -- End function
	.section	.text.__NVIC_SetPriority,"ax",%progbits
	.p2align	2               @ -- Begin function __NVIC_SetPriority
	.type	__NVIC_SetPriority,%function
	.code	16                      @ @__NVIC_SetPriority
	.thumb_func
__NVIC_SetPriority:
.Lfunc_begin2:
	.loc	4 2014 0 is_stmt 1      @ C:/Keil/ARM/PACK/ARM/CMSIS/5.3.0/CMSIS/Include\core_cm7.h:2014:0
	.fnstart
	.cfi_startproc
@ %bb.0:
	.save	{r4, lr}
	push	{r4, lr}
	.cfi_def_cfa_offset 8
	.cfi_offset lr, -4
	.cfi_offset r4, -8
	@DEBUG_VALUE: __NVIC_SetPriority:IRQn <- $r0
	@DEBUG_VALUE: __NVIC_SetPriority:IRQn <- $r0
	@DEBUG_VALUE: __NVIC_SetPriority:priority <- $r1
	@DEBUG_VALUE: __NVIC_SetPriority:priority <- $r1
.Ltmp19:
	.loc	4 2021 5 prologue_end   @ C:/Keil/ARM/PACK/ARM/CMSIS/5.3.0/CMSIS/Include\core_cm7.h:2021:5
	ldr	r4, __arm_cp.2_1
.Ltmp20:
	.loc	4 2017 5                @ C:/Keil/ARM/PACK/ARM/CMSIS/5.3.0/CMSIS/Include\core_cm7.h:2017:5
	ldr	r2, __arm_cp.2_0
.Ltmp21:
	.loc	4 2021 33               @ C:/Keil/ARM/PACK/ARM/CMSIS/5.3.0/CMSIS/Include\core_cm7.h:2021:33
	and	r3, r0, #15
.Ltmp22:
	.loc	4 2015 7                @ C:/Keil/ARM/PACK/ARM/CMSIS/5.3.0/CMSIS/Include\core_cm7.h:2015:7
	cmp.w	r0, #-1
.Ltmp23:
	.loc	4 2021 5                @ C:/Keil/ARM/PACK/ARM/CMSIS/5.3.0/CMSIS/Include\core_cm7.h:2021:5
	add	r3, r4
.Ltmp24:
	.loc	4 2015 7                @ C:/Keil/ARM/PACK/ARM/CMSIS/5.3.0/CMSIS/Include\core_cm7.h:2015:7
	it	gt
	addgt	r3, r0, r2
	lsls	r0, r1, #4
.Ltmp25:
	.loc	4 0 7 is_stmt 0         @ C:/Keil/ARM/PACK/ARM/CMSIS/5.3.0/CMSIS/Include\core_cm7.h:0:7
	strb	r0, [r3]
	.loc	4 2023 1 is_stmt 1      @ C:/Keil/ARM/PACK/ARM/CMSIS/5.3.0/CMSIS/Include\core_cm7.h:2023:1
	pop	{r4, pc}
.Ltmp26:
	.p2align	2
@ %bb.1:
	.loc	4 0 1 is_stmt 0         @ C:/Keil/ARM/PACK/ARM/CMSIS/5.3.0/CMSIS/Include\core_cm7.h:0:1
__arm_cp.2_0:
	.long	3758154752              @ 0xe000e400
.Lcpi_end3:
	.size	__arm_cp.2_0, .Lcpi_end3-__arm_cp.2_0
__arm_cp.2_1:
	.long	3758157076              @ 0xe000ed14
.Lcpi_end4:
	.size	__arm_cp.2_1, .Lcpi_end4-__arm_cp.2_1
.Lfunc_end2:
	.size	__NVIC_SetPriority, .Lfunc_end2-__NVIC_SetPriority
	.cfi_endproc
	.cantunwind
	.fnend
                                        @ -- End function
	.section	.text.HAL_NVIC_EnableIRQ,"ax",%progbits
	.hidden	HAL_NVIC_EnableIRQ      @ -- Begin function HAL_NVIC_EnableIRQ
	.globl	HAL_NVIC_EnableIRQ
	.p2align	2
	.type	HAL_NVIC_EnableIRQ,%function
	.code	16                      @ @HAL_NVIC_EnableIRQ
	.thumb_func
HAL_NVIC_EnableIRQ:
.Lfunc_begin3:
	.loc	5 204 0 is_stmt 1       @ ../Drivers/STM32F7xx_HAL_Driver/Src/stm32f7xx_hal_cortex.c:204:0
	.fnstart
	.cfi_startproc
@ %bb.0:
	@DEBUG_VALUE: HAL_NVIC_EnableIRQ:IRQn <- $r0
	@DEBUG_VALUE: HAL_NVIC_EnableIRQ:IRQn <- $r0
	@DEBUG_VALUE: __NVIC_EnableIRQ:IRQn <- $r0
	@DEBUG_VALUE: __NVIC_EnableIRQ:IRQn <- $r0
	.loc	4 1887 7 prologue_end   @ C:/Keil/ARM/PACK/ARM/CMSIS/5.3.0/CMSIS/Include\core_cm7.h:1887:7
	cmp	r0, #0
	blt	.LBB3_2
.Ltmp27:
@ %bb.1:
	@DEBUG_VALUE: __NVIC_EnableIRQ:IRQn <- $r0
	@DEBUG_VALUE: HAL_NVIC_EnableIRQ:IRQn <- $r0
	.loc	4 1889 81               @ C:/Keil/ARM/PACK/ARM/CMSIS/5.3.0/CMSIS/Include\core_cm7.h:1889:81
	and	r1, r0, #31
	.loc	4 1889 60 is_stmt 0     @ C:/Keil/ARM/PACK/ARM/CMSIS/5.3.0/CMSIS/Include\core_cm7.h:1889:60
	movs	r2, #1
	.loc	4 1889 34               @ C:/Keil/ARM/PACK/ARM/CMSIS/5.3.0/CMSIS/Include\core_cm7.h:1889:34
	lsrs	r0, r0, #5
.Ltmp28:
	.loc	4 1889 60               @ C:/Keil/ARM/PACK/ARM/CMSIS/5.3.0/CMSIS/Include\core_cm7.h:1889:60
	lsl.w	r1, r2, r1
	.loc	4 1889 5                @ C:/Keil/ARM/PACK/ARM/CMSIS/5.3.0/CMSIS/Include\core_cm7.h:1889:5
	ldr	r2, __arm_cp.3_0
	.loc	4 1889 43               @ C:/Keil/ARM/PACK/ARM/CMSIS/5.3.0/CMSIS/Include\core_cm7.h:1889:43
	str.w	r1, [r2, r0, lsl #2]
.Ltmp29:
.LBB3_2:
	.loc	5 210 1 is_stmt 1       @ ../Drivers/STM32F7xx_HAL_Driver/Src/stm32f7xx_hal_cortex.c:210:1
	bx	lr
.Ltmp30:
	.p2align	2
@ %bb.3:
	.loc	5 0 1 is_stmt 0         @ ../Drivers/STM32F7xx_HAL_Driver/Src/stm32f7xx_hal_cortex.c:0:1
__arm_cp.3_0:
	.long	3758153984              @ 0xe000e100
.Lcpi_end5:
	.size	__arm_cp.3_0, .Lcpi_end5-__arm_cp.3_0
.Lfunc_end3:
	.size	HAL_NVIC_EnableIRQ, .Lfunc_end3-HAL_NVIC_EnableIRQ
	.cfi_endproc
	.cantunwind
	.fnend
                                        @ -- End function
	.section	.text.HAL_NVIC_DisableIRQ,"ax",%progbits
	.hidden	HAL_NVIC_DisableIRQ     @ -- Begin function HAL_NVIC_DisableIRQ
	.globl	HAL_NVIC_DisableIRQ
	.p2align	2
	.type	HAL_NVIC_DisableIRQ,%function
	.code	16                      @ @HAL_NVIC_DisableIRQ
	.thumb_func
HAL_NVIC_DisableIRQ:
.Lfunc_begin4:
	.loc	5 220 0 is_stmt 1       @ ../Drivers/STM32F7xx_HAL_Driver/Src/stm32f7xx_hal_cortex.c:220:0
	.fnstart
	.cfi_startproc
@ %bb.0:
	@DEBUG_VALUE: HAL_NVIC_DisableIRQ:IRQn <- $r0
	@DEBUG_VALUE: HAL_NVIC_DisableIRQ:IRQn <- $r0
	@DEBUG_VALUE: __NVIC_DisableIRQ:IRQn <- $r0
	@DEBUG_VALUE: __NVIC_DisableIRQ:IRQn <- $r0
	.loc	4 1923 7 prologue_end   @ C:/Keil/ARM/PACK/ARM/CMSIS/5.3.0/CMSIS/Include\core_cm7.h:1923:7
	cmp	r0, #0
	blt	.LBB4_2
.Ltmp31:
@ %bb.1:
	@DEBUG_VALUE: __NVIC_DisableIRQ:IRQn <- $r0
	@DEBUG_VALUE: HAL_NVIC_DisableIRQ:IRQn <- $r0
	.loc	4 1925 81               @ C:/Keil/ARM/PACK/ARM/CMSIS/5.3.0/CMSIS/Include\core_cm7.h:1925:81
	and	r1, r0, #31
	.loc	4 1925 60 is_stmt 0     @ C:/Keil/ARM/PACK/ARM/CMSIS/5.3.0/CMSIS/Include\core_cm7.h:1925:60
	movs	r2, #1
	.loc	4 1925 34               @ C:/Keil/ARM/PACK/ARM/CMSIS/5.3.0/CMSIS/Include\core_cm7.h:1925:34
	lsrs	r0, r0, #5
.Ltmp32:
	.loc	4 1925 60               @ C:/Keil/ARM/PACK/ARM/CMSIS/5.3.0/CMSIS/Include\core_cm7.h:1925:60
	lsl.w	r1, r2, r1
	.loc	4 1925 5                @ C:/Keil/ARM/PACK/ARM/CMSIS/5.3.0/CMSIS/Include\core_cm7.h:1925:5
	ldr	r2, __arm_cp.4_0
	.loc	4 1925 43               @ C:/Keil/ARM/PACK/ARM/CMSIS/5.3.0/CMSIS/Include\core_cm7.h:1925:43
	str.w	r1, [r2, r0, lsl #2]
	.loc	4 1926 5 is_stmt 1      @ C:/Keil/ARM/PACK/ARM/CMSIS/5.3.0/CMSIS/Include\core_cm7.h:1926:5
	dsb	sy
	.loc	4 1927 5                @ C:/Keil/ARM/PACK/ARM/CMSIS/5.3.0/CMSIS/Include\core_cm7.h:1927:5
	isb	sy
.Ltmp33:
.LBB4_2:
	.loc	5 226 1                 @ ../Drivers/STM32F7xx_HAL_Driver/Src/stm32f7xx_hal_cortex.c:226:1
	bx	lr
.Ltmp34:
	.p2align	2
@ %bb.3:
	.loc	5 0 1 is_stmt 0         @ ../Drivers/STM32F7xx_HAL_Driver/Src/stm32f7xx_hal_cortex.c:0:1
__arm_cp.4_0:
	.long	3758154112              @ 0xe000e180
.Lcpi_end6:
	.size	__arm_cp.4_0, .Lcpi_end6-__arm_cp.4_0
.Lfunc_end4:
	.size	HAL_NVIC_DisableIRQ, .Lfunc_end4-HAL_NVIC_DisableIRQ
	.cfi_endproc
	.cantunwind
	.fnend
                                        @ -- End function
	.section	.text.HAL_NVIC_SystemReset,"ax",%progbits
	.hidden	HAL_NVIC_SystemReset    @ -- Begin function HAL_NVIC_SystemReset
	.globl	HAL_NVIC_SystemReset
	.p2align	1
	.type	HAL_NVIC_SystemReset,%function
	.code	16                      @ @HAL_NVIC_SystemReset
	.thumb_func
HAL_NVIC_SystemReset:
.Lfunc_begin5:
	.loc	5 233 0 is_stmt 1       @ ../Drivers/STM32F7xx_HAL_Driver/Src/stm32f7xx_hal_cortex.c:233:0
	.fnstart
	.cfi_startproc
@ %bb.0:
	.loc	5 235 3 prologue_end    @ ../Drivers/STM32F7xx_HAL_Driver/Src/stm32f7xx_hal_cortex.c:235:3
	bl	__NVIC_SystemReset
.Ltmp35:
.Lfunc_end5:
	.size	HAL_NVIC_SystemReset, .Lfunc_end5-HAL_NVIC_SystemReset
	.cfi_endproc
	.cantunwind
	.fnend
                                        @ -- End function
	.section	.text.__NVIC_SystemReset,"ax",%progbits
	.p2align	2               @ -- Begin function __NVIC_SystemReset
	.type	__NVIC_SystemReset,%function
	.code	16                      @ @__NVIC_SystemReset
	.thumb_func
__NVIC_SystemReset:
.Lfunc_begin6:
	.loc	4 2137 0                @ C:/Keil/ARM/PACK/ARM/CMSIS/5.3.0/CMSIS/Include\core_cm7.h:2137:0
	.fnstart
	.cfi_startproc
@ %bb.0:
	ldr	r0, __arm_cp.6_0
.Ltmp36:
	.loc	4 2138 3 prologue_end   @ C:/Keil/ARM/PACK/ARM/CMSIS/5.3.0/CMSIS/Include\core_cm7.h:2138:3
	dsb	sy
	.loc	4 2141 66               @ C:/Keil/ARM/PACK/ARM/CMSIS/5.3.0/CMSIS/Include\core_cm7.h:2141:66
	ldr	r2, __arm_cp.6_1
	.loc	4 2141 34 is_stmt 0     @ C:/Keil/ARM/PACK/ARM/CMSIS/5.3.0/CMSIS/Include\core_cm7.h:2141:34
	ldr	r1, [r0]
	.loc	4 2141 40               @ C:/Keil/ARM/PACK/ARM/CMSIS/5.3.0/CMSIS/Include\core_cm7.h:2141:40
	and	r1, r1, #1792
	.loc	4 2141 66               @ C:/Keil/ARM/PACK/ARM/CMSIS/5.3.0/CMSIS/Include\core_cm7.h:2141:66
	orrs	r1, r2
	.loc	4 2140 15 is_stmt 1     @ C:/Keil/ARM/PACK/ARM/CMSIS/5.3.0/CMSIS/Include\core_cm7.h:2140:15
	str	r1, [r0]
	.loc	4 2143 3                @ C:/Keil/ARM/PACK/ARM/CMSIS/5.3.0/CMSIS/Include\core_cm7.h:2143:3
	dsb	sy
.LBB6_1:                                @ =>This Inner Loop Header: Depth=1
.Ltmp37:
	.loc	4 2147 5                @ C:/Keil/ARM/PACK/ARM/CMSIS/5.3.0/CMSIS/Include\core_cm7.h:2147:5
	nop
.Ltmp38:
	.loc	4 2145 3                @ C:/Keil/ARM/PACK/ARM/CMSIS/5.3.0/CMSIS/Include\core_cm7.h:2145:3
	b	.LBB6_1
.Ltmp39:
	.p2align	2
@ %bb.2:
	.loc	4 0 3 is_stmt 0         @ C:/Keil/ARM/PACK/ARM/CMSIS/5.3.0/CMSIS/Include\core_cm7.h:0:3
__arm_cp.6_0:
	.long	3758157068              @ 0xe000ed0c
.Lcpi_end7:
	.size	__arm_cp.6_0, .Lcpi_end7-__arm_cp.6_0
__arm_cp.6_1:
	.long	100270084               @ 0x5fa0004
.Lcpi_end8:
	.size	__arm_cp.6_1, .Lcpi_end8-__arm_cp.6_1
.Lfunc_end6:
	.size	__NVIC_SystemReset, .Lfunc_end6-__NVIC_SystemReset
	.cfi_endproc
	.cantunwind
	.fnend
                                        @ -- End function
	.section	.text.HAL_SYSTICK_Config,"ax",%progbits
	.hidden	HAL_SYSTICK_Config      @ -- Begin function HAL_SYSTICK_Config
	.globl	HAL_SYSTICK_Config
	.p2align	2
	.type	HAL_SYSTICK_Config,%function
	.code	16                      @ @HAL_SYSTICK_Config
	.thumb_func
HAL_SYSTICK_Config:
.Lfunc_begin7:
	.loc	5 246 0 is_stmt 1       @ ../Drivers/STM32F7xx_HAL_Driver/Src/stm32f7xx_hal_cortex.c:246:0
	.fnstart
	.cfi_startproc
@ %bb.0:
	@DEBUG_VALUE: HAL_SYSTICK_Config:TicksNumb <- $r0
	@DEBUG_VALUE: HAL_SYSTICK_Config:TicksNumb <- $r0
	@DEBUG_VALUE: SysTick_Config:ticks <- $r0
	@DEBUG_VALUE: SysTick_Config:ticks <- $r0
	.loc	4 2555 14 prologue_end  @ C:/Keil/ARM/PACK/ARM/CMSIS/5.3.0/CMSIS/Include\core_cm7.h:2555:14
	subs	r1, r0, #1
.Ltmp40:
	.loc	4 2555 7 is_stmt 0      @ C:/Keil/ARM/PACK/ARM/CMSIS/5.3.0/CMSIS/Include\core_cm7.h:2555:7
	movs	r0, #0
.Ltmp41:
	cmp.w	r0, r1, lsr #24
	itt	ne
	movne	r0, #1
.Ltmp42:
	.loc	5 247 4 is_stmt 1       @ ../Drivers/STM32F7xx_HAL_Driver/Src/stm32f7xx_hal_cortex.c:247:4
	bxne	lr
	ldr	r2, __arm_cp.7_0
.Ltmp43:
	.loc	4 2021 47               @ C:/Keil/ARM/PACK/ARM/CMSIS/5.3.0/CMSIS/Include\core_cm7.h:2021:47
	movs	r3, #240
.Ltmp44:
	@DEBUG_VALUE: __NVIC_SetPriority:priority <- 15
	@DEBUG_VALUE: __NVIC_SetPriority:IRQn <- -1
	.loc	4 2560 18               @ C:/Keil/ARM/PACK/ARM/CMSIS/5.3.0/CMSIS/Include\core_cm7.h:2560:18
	str	r1, [r2, #4]
.Ltmp45:
	.loc	4 2021 47               @ C:/Keil/ARM/PACK/ARM/CMSIS/5.3.0/CMSIS/Include\core_cm7.h:2021:47
	ldr	r1, __arm_cp.7_1
	strb	r3, [r1]
.Ltmp46:
	.loc	4 2563 18               @ C:/Keil/ARM/PACK/ARM/CMSIS/5.3.0/CMSIS/Include\core_cm7.h:2563:18
	movs	r1, #7
	.loc	4 2562 18               @ C:/Keil/ARM/PACK/ARM/CMSIS/5.3.0/CMSIS/Include\core_cm7.h:2562:18
	str	r0, [r2, #8]
	.loc	4 2563 18               @ C:/Keil/ARM/PACK/ARM/CMSIS/5.3.0/CMSIS/Include\core_cm7.h:2563:18
	str	r1, [r2]
.Ltmp47:
	.loc	5 247 4                 @ ../Drivers/STM32F7xx_HAL_Driver/Src/stm32f7xx_hal_cortex.c:247:4
	bx	lr
.Ltmp48:
	.p2align	2
@ %bb.1:
	.loc	5 0 4 is_stmt 0         @ ../Drivers/STM32F7xx_HAL_Driver/Src/stm32f7xx_hal_cortex.c:0:4
__arm_cp.7_0:
	.long	3758153744              @ 0xe000e010
.Lcpi_end9:
	.size	__arm_cp.7_0, .Lcpi_end9-__arm_cp.7_0
__arm_cp.7_1:
	.long	3758157091              @ 0xe000ed23
.Lcpi_end10:
	.size	__arm_cp.7_1, .Lcpi_end10-__arm_cp.7_1
.Lfunc_end7:
	.size	HAL_SYSTICK_Config, .Lfunc_end7-HAL_SYSTICK_Config
	.cfi_endproc
	.cantunwind
	.fnend
                                        @ -- End function
	.section	.text.HAL_MPU_Disable,"ax",%progbits
	.hidden	HAL_MPU_Disable         @ -- Begin function HAL_MPU_Disable
	.globl	HAL_MPU_Disable
	.p2align	2
	.type	HAL_MPU_Disable,%function
	.code	16                      @ @HAL_MPU_Disable
	.thumb_func
HAL_MPU_Disable:
.Lfunc_begin8:
	.loc	5 275 0 is_stmt 1       @ ../Drivers/STM32F7xx_HAL_Driver/Src/stm32f7xx_hal_cortex.c:275:0
	.fnstart
	.cfi_startproc
@ %bb.0:
	ldr	r0, __arm_cp.8_0
.Ltmp49:
	.loc	5 277 3 prologue_end    @ ../Drivers/STM32F7xx_HAL_Driver/Src/stm32f7xx_hal_cortex.c:277:3
	dmb	sy
	.loc	5 280 14                @ ../Drivers/STM32F7xx_HAL_Driver/Src/stm32f7xx_hal_cortex.c:280:14
	ldr	r1, [r0]
	bic	r1, r1, #65536
	str	r1, [r0]
	movs	r1, #0
	.loc	5 283 13                @ ../Drivers/STM32F7xx_HAL_Driver/Src/stm32f7xx_hal_cortex.c:283:13
	str	r1, [r0, #112]
	.loc	5 284 1                 @ ../Drivers/STM32F7xx_HAL_Driver/Src/stm32f7xx_hal_cortex.c:284:1
	bx	lr
.Ltmp50:
	.p2align	2
@ %bb.1:
	.loc	5 0 1 is_stmt 0         @ ../Drivers/STM32F7xx_HAL_Driver/Src/stm32f7xx_hal_cortex.c:0:1
__arm_cp.8_0:
	.long	3758157092              @ 0xe000ed24
.Lcpi_end11:
	.size	__arm_cp.8_0, .Lcpi_end11-__arm_cp.8_0
.Lfunc_end8:
	.size	HAL_MPU_Disable, .Lfunc_end8-HAL_MPU_Disable
	.cfi_endproc
	.cantunwind
	.fnend
                                        @ -- End function
	.section	.text.HAL_MPU_Enable,"ax",%progbits
	.hidden	HAL_MPU_Enable          @ -- Begin function HAL_MPU_Enable
	.globl	HAL_MPU_Enable
	.p2align	2
	.type	HAL_MPU_Enable,%function
	.code	16                      @ @HAL_MPU_Enable
	.thumb_func
HAL_MPU_Enable:
.Lfunc_begin9:
	.loc	5 298 0 is_stmt 1       @ ../Drivers/STM32F7xx_HAL_Driver/Src/stm32f7xx_hal_cortex.c:298:0
	.fnstart
	.cfi_startproc
@ %bb.0:
	@DEBUG_VALUE: HAL_MPU_Enable:MPU_Control <- $r0
	@DEBUG_VALUE: HAL_MPU_Enable:MPU_Control <- $r0
	ldr	r1, __arm_cp.9_0
.Ltmp51:
	.loc	5 300 27 prologue_end   @ ../Drivers/STM32F7xx_HAL_Driver/Src/stm32f7xx_hal_cortex.c:300:27
	orr	r0, r0, #1
.Ltmp52:
	.loc	5 300 13 is_stmt 0      @ ../Drivers/STM32F7xx_HAL_Driver/Src/stm32f7xx_hal_cortex.c:300:13
	str	r0, [r1, #112]
	.loc	5 303 14 is_stmt 1      @ ../Drivers/STM32F7xx_HAL_Driver/Src/stm32f7xx_hal_cortex.c:303:14
	ldr	r0, [r1]
	orr	r0, r0, #65536
	str	r0, [r1]
	.loc	5 306 3                 @ ../Drivers/STM32F7xx_HAL_Driver/Src/stm32f7xx_hal_cortex.c:306:3
	dsb	sy
	.loc	5 307 3                 @ ../Drivers/STM32F7xx_HAL_Driver/Src/stm32f7xx_hal_cortex.c:307:3
	isb	sy
	.loc	5 308 1                 @ ../Drivers/STM32F7xx_HAL_Driver/Src/stm32f7xx_hal_cortex.c:308:1
	bx	lr
.Ltmp53:
	.p2align	2
@ %bb.1:
	.loc	5 0 1 is_stmt 0         @ ../Drivers/STM32F7xx_HAL_Driver/Src/stm32f7xx_hal_cortex.c:0:1
__arm_cp.9_0:
	.long	3758157092              @ 0xe000ed24
.Lcpi_end12:
	.size	__arm_cp.9_0, .Lcpi_end12-__arm_cp.9_0
.Lfunc_end9:
	.size	HAL_MPU_Enable, .Lfunc_end9-HAL_MPU_Enable
	.cfi_endproc
	.cantunwind
	.fnend
                                        @ -- End function
	.section	.text.HAL_MPU_ConfigRegion,"ax",%progbits
	.hidden	HAL_MPU_ConfigRegion    @ -- Begin function HAL_MPU_ConfigRegion
	.globl	HAL_MPU_ConfigRegion
	.p2align	2
	.type	HAL_MPU_ConfigRegion,%function
	.code	16                      @ @HAL_MPU_ConfigRegion
	.thumb_func
HAL_MPU_ConfigRegion:
.Lfunc_begin10:
	.loc	5 317 0 is_stmt 1       @ ../Drivers/STM32F7xx_HAL_Driver/Src/stm32f7xx_hal_cortex.c:317:0
	.fnstart
	.cfi_startproc
@ %bb.0:
	.save	{r4, r5, r7, lr}
	push	{r4, r5, r7, lr}
	.cfi_def_cfa_offset 16
	.cfi_offset lr, -4
	.cfi_offset r7, -8
	.cfi_offset r5, -12
	.cfi_offset r4, -16
	@DEBUG_VALUE: HAL_MPU_ConfigRegion:MPU_Init <- $r0
	@DEBUG_VALUE: HAL_MPU_ConfigRegion:MPU_Init <- $r0
.Ltmp54:
	.loc	5 323 14 prologue_end   @ ../Drivers/STM32F7xx_HAL_Driver/Src/stm32f7xx_hal_cortex.c:323:14
	ldrb	r2, [r0, #1]
	ldr	r5, __arm_cp.10_0
	.loc	5 323 12 is_stmt 0      @ ../Drivers/STM32F7xx_HAL_Driver/Src/stm32f7xx_hal_cortex.c:323:12
	str	r2, [r5]
.Ltmp55:
	.loc	5 325 18 is_stmt 1      @ ../Drivers/STM32F7xx_HAL_Driver/Src/stm32f7xx_hal_cortex.c:325:18
	ldrb	r2, [r0]
.Ltmp56:
	.loc	5 325 7 is_stmt 0       @ ../Drivers/STM32F7xx_HAL_Driver/Src/stm32f7xx_hal_cortex.c:325:7
	cbz	r2, .LBB10_2
.Ltmp57:
@ %bb.1:
	@DEBUG_VALUE: HAL_MPU_ConfigRegion:MPU_Init <- $r0
	.loc	5 337 27 is_stmt 1      @ ../Drivers/STM32F7xx_HAL_Driver/Src/stm32f7xx_hal_cortex.c:337:27
	ldr	r3, [r0, #4]
	.loc	5 337 15 is_stmt 0      @ ../Drivers/STM32F7xx_HAL_Driver/Src/stm32f7xx_hal_cortex.c:337:15
	str	r3, [r5, #4]
	.loc	5 338 18 is_stmt 1      @ ../Drivers/STM32F7xx_HAL_Driver/Src/stm32f7xx_hal_cortex.c:338:18
	ldrb	r3, [r0, #12]
	.loc	5 339 18                @ ../Drivers/STM32F7xx_HAL_Driver/Src/stm32f7xx_hal_cortex.c:339:18
	ldrb	r4, [r0, #11]
	.loc	5 340 18                @ ../Drivers/STM32F7xx_HAL_Driver/Src/stm32f7xx_hal_cortex.c:340:18
	ldrb	r1, [r0, #10]
	.loc	5 345 18                @ ../Drivers/STM32F7xx_HAL_Driver/Src/stm32f7xx_hal_cortex.c:345:18
	ldrb.w	r12, [r0, #8]
	.loc	5 338 84                @ ../Drivers/STM32F7xx_HAL_Driver/Src/stm32f7xx_hal_cortex.c:338:84
	orr.w	r2, r2, r3, lsl #28
	.loc	5 344 18                @ ../Drivers/STM32F7xx_HAL_Driver/Src/stm32f7xx_hal_cortex.c:344:18
	ldrb	r3, [r0, #9]
	.loc	5 339 84                @ ../Drivers/STM32F7xx_HAL_Driver/Src/stm32f7xx_hal_cortex.c:339:84
	orr.w	r2, r2, r4, lsl #24
	.loc	5 340 84                @ ../Drivers/STM32F7xx_HAL_Driver/Src/stm32f7xx_hal_cortex.c:340:84
	orr.w	r1, r2, r1, lsl #19
	.loc	5 341 18                @ ../Drivers/STM32F7xx_HAL_Driver/Src/stm32f7xx_hal_cortex.c:341:18
	ldrb	r2, [r0, #13]
	.loc	5 341 84 is_stmt 0      @ ../Drivers/STM32F7xx_HAL_Driver/Src/stm32f7xx_hal_cortex.c:341:84
	orr.w	r1, r1, r2, lsl #18
	.loc	5 342 18 is_stmt 1      @ ../Drivers/STM32F7xx_HAL_Driver/Src/stm32f7xx_hal_cortex.c:342:18
	ldrb	r2, [r0, #14]
	.loc	5 343 18                @ ../Drivers/STM32F7xx_HAL_Driver/Src/stm32f7xx_hal_cortex.c:343:18
	ldrb	r0, [r0, #15]
.Ltmp58:
	.loc	5 342 84                @ ../Drivers/STM32F7xx_HAL_Driver/Src/stm32f7xx_hal_cortex.c:342:84
	orr.w	r1, r1, r2, lsl #17
	.loc	5 343 84                @ ../Drivers/STM32F7xx_HAL_Driver/Src/stm32f7xx_hal_cortex.c:343:84
	orr.w	r0, r1, r0, lsl #16
	.loc	5 344 84                @ ../Drivers/STM32F7xx_HAL_Driver/Src/stm32f7xx_hal_cortex.c:344:84
	orr.w	r0, r0, r3, lsl #8
	.loc	5 345 84                @ ../Drivers/STM32F7xx_HAL_Driver/Src/stm32f7xx_hal_cortex.c:345:84
	orr.w	r0, r0, r12, lsl #1
	b	.LBB10_3
.Ltmp59:
.LBB10_2:
	@DEBUG_VALUE: HAL_MPU_ConfigRegion:MPU_Init <- $r0
	.loc	5 0 84 is_stmt 0        @ ../Drivers/STM32F7xx_HAL_Driver/Src/stm32f7xx_hal_cortex.c:0:84
	movs	r0, #0
.Ltmp60:
	.loc	5 350 15 is_stmt 1      @ ../Drivers/STM32F7xx_HAL_Driver/Src/stm32f7xx_hal_cortex.c:350:15
	str	r0, [r5, #4]
.Ltmp61:
.LBB10_3:
	.loc	5 0 15 is_stmt 0        @ ../Drivers/STM32F7xx_HAL_Driver/Src/stm32f7xx_hal_cortex.c:0:15
	str	r0, [r5, #8]
	.loc	5 353 1 is_stmt 1       @ ../Drivers/STM32F7xx_HAL_Driver/Src/stm32f7xx_hal_cortex.c:353:1
	pop	{r4, r5, r7, pc}
.Ltmp62:
	.p2align	2
@ %bb.4:
	.loc	5 0 1 is_stmt 0         @ ../Drivers/STM32F7xx_HAL_Driver/Src/stm32f7xx_hal_cortex.c:0:1
__arm_cp.10_0:
	.long	3758157208              @ 0xe000ed98
.Lcpi_end13:
	.size	__arm_cp.10_0, .Lcpi_end13-__arm_cp.10_0
.Lfunc_end10:
	.size	HAL_MPU_ConfigRegion, .Lfunc_end10-HAL_MPU_ConfigRegion
	.cfi_endproc
	.cantunwind
	.fnend
                                        @ -- End function
	.section	.text.HAL_NVIC_GetPriorityGrouping,"ax",%progbits
	.hidden	HAL_NVIC_GetPriorityGrouping @ -- Begin function HAL_NVIC_GetPriorityGrouping
	.globl	HAL_NVIC_GetPriorityGrouping
	.p2align	2
	.type	HAL_NVIC_GetPriorityGrouping,%function
	.code	16                      @ @HAL_NVIC_GetPriorityGrouping
	.thumb_func
HAL_NVIC_GetPriorityGrouping:
.Lfunc_begin11:
	.loc	5 361 0 is_stmt 1       @ ../Drivers/STM32F7xx_HAL_Driver/Src/stm32f7xx_hal_cortex.c:361:0
	.fnstart
	.cfi_startproc
@ %bb.0:
	.loc	4 1875 28 prologue_end  @ C:/Keil/ARM/PACK/ARM/CMSIS/5.3.0/CMSIS/Include\core_cm7.h:1875:28
	ldr	r0, __arm_cp.11_0
	ldr	r0, [r0]
	.loc	4 1875 60 is_stmt 0     @ C:/Keil/ARM/PACK/ARM/CMSIS/5.3.0/CMSIS/Include\core_cm7.h:1875:60
	ubfx	r0, r0, #8, #3
.Ltmp63:
	.loc	5 363 3 is_stmt 1       @ ../Drivers/STM32F7xx_HAL_Driver/Src/stm32f7xx_hal_cortex.c:363:3
	bx	lr
.Ltmp64:
	.p2align	2
@ %bb.1:
	.loc	5 0 3 is_stmt 0         @ ../Drivers/STM32F7xx_HAL_Driver/Src/stm32f7xx_hal_cortex.c:0:3
__arm_cp.11_0:
	.long	3758157068              @ 0xe000ed0c
.Lcpi_end14:
	.size	__arm_cp.11_0, .Lcpi_end14-__arm_cp.11_0
.Lfunc_end11:
	.size	HAL_NVIC_GetPriorityGrouping, .Lfunc_end11-HAL_NVIC_GetPriorityGrouping
	.cfi_endproc
	.cantunwind
	.fnend
                                        @ -- End function
	.section	.text.HAL_NVIC_GetPriority,"ax",%progbits
	.hidden	HAL_NVIC_GetPriority    @ -- Begin function HAL_NVIC_GetPriority
	.globl	HAL_NVIC_GetPriority
	.p2align	2
	.type	HAL_NVIC_GetPriority,%function
	.code	16                      @ @HAL_NVIC_GetPriority
	.thumb_func
HAL_NVIC_GetPriority:
.Lfunc_begin12:
	.loc	5 388 0 is_stmt 1       @ ../Drivers/STM32F7xx_HAL_Driver/Src/stm32f7xx_hal_cortex.c:388:0
	.fnstart
	.cfi_startproc
@ %bb.0:
	.save	{r4, r5, r6, lr}
	push	{r4, r5, r6, lr}
	.cfi_def_cfa_offset 16
	.cfi_offset lr, -4
	.cfi_offset r6, -8
	.cfi_offset r5, -12
	.cfi_offset r4, -16
	@DEBUG_VALUE: HAL_NVIC_GetPriority:IRQn <- $r0
	@DEBUG_VALUE: HAL_NVIC_GetPriority:IRQn <- $r0
	@DEBUG_VALUE: HAL_NVIC_GetPriority:PriorityGroup <- $r1
	@DEBUG_VALUE: HAL_NVIC_GetPriority:PriorityGroup <- $r1
	@DEBUG_VALUE: HAL_NVIC_GetPriority:pPreemptPriority <- $r2
	@DEBUG_VALUE: HAL_NVIC_GetPriority:pPreemptPriority <- $r2
	@DEBUG_VALUE: HAL_NVIC_GetPriority:pSubPriority <- $r3
	@DEBUG_VALUE: HAL_NVIC_GetPriority:pSubPriority <- $r3
.Ltmp65:
	@DEBUG_VALUE: __NVIC_GetPriority:IRQn <- $r0
	@DEBUG_VALUE: __NVIC_GetPriority:IRQn <- $r0
	@DEBUG_VALUE: NVIC_DecodePriority:PriorityGroup <- $r1
	@DEBUG_VALUE: NVIC_DecodePriority:pPreemptPriority <- $r2
	@DEBUG_VALUE: NVIC_DecodePriority:pSubPriority <- $r3
	.loc	4 2044 23 prologue_end  @ C:/Keil/ARM/PACK/ARM/CMSIS/5.3.0/CMSIS/Include\core_cm7.h:2044:23
	ldr	r6, __arm_cp.12_1
.Ltmp66:
	.loc	4 2040 23               @ C:/Keil/ARM/PACK/ARM/CMSIS/5.3.0/CMSIS/Include\core_cm7.h:2040:23
	ldr	r5, __arm_cp.12_0
.Ltmp67:
	.loc	4 2044 51               @ C:/Keil/ARM/PACK/ARM/CMSIS/5.3.0/CMSIS/Include\core_cm7.h:2044:51
	and	r4, r0, #15
.Ltmp68:
	.loc	4 2038 7                @ C:/Keil/ARM/PACK/ARM/CMSIS/5.3.0/CMSIS/Include\core_cm7.h:2038:7
	cmp.w	r0, #-1
.Ltmp69:
	.loc	4 2089 46               @ C:/Keil/ARM/PACK/ARM/CMSIS/5.3.0/CMSIS/Include\core_cm7.h:2089:46
	and	r1, r1, #7
.Ltmp70:
	@DEBUG_VALUE: NVIC_DecodePriority:PriorityGroupTmp <- $r1
	.loc	4 2044 23               @ C:/Keil/ARM/PACK/ARM/CMSIS/5.3.0/CMSIS/Include\core_cm7.h:2044:23
	add	r6, r4
.Ltmp71:
	.loc	4 2094 147              @ C:/Keil/ARM/PACK/ARM/CMSIS/5.3.0/CMSIS/Include\core_cm7.h:2094:147
	sub.w	r4, r1, #3
.Ltmp72:
	.loc	4 2038 7                @ C:/Keil/ARM/PACK/ARM/CMSIS/5.3.0/CMSIS/Include\core_cm7.h:2038:7
	it	gt
	addgt	r6, r0, r5
.Ltmp73:
	.loc	4 2094 44               @ C:/Keil/ARM/PACK/ARM/CMSIS/5.3.0/CMSIS/Include\core_cm7.h:2094:44
	adds	r5, r1, #4
	.loc	4 2093 31               @ C:/Keil/ARM/PACK/ARM/CMSIS/5.3.0/CMSIS/Include\core_cm7.h:2093:31
	eor	r1, r1, #7
.Ltmp74:
	.loc	4 0 31 is_stmt 0        @ C:/Keil/ARM/PACK/ARM/CMSIS/5.3.0/CMSIS/Include\core_cm7.h:0:31
	ldrb	r0, [r6]
.Ltmp75:
	.loc	4 2094 25 is_stmt 1     @ C:/Keil/ARM/PACK/ARM/CMSIS/5.3.0/CMSIS/Include\core_cm7.h:2094:25
	cmp	r5, #7
	.loc	4 2096 71               @ C:/Keil/ARM/PACK/ARM/CMSIS/5.3.0/CMSIS/Include\core_cm7.h:2096:71
	mov.w	r5, #1
	.loc	4 2094 25               @ C:/Keil/ARM/PACK/ARM/CMSIS/5.3.0/CMSIS/Include\core_cm7.h:2094:25
	it	lo
	movlo	r4, #0
.Ltmp76:
	@DEBUG_VALUE: NVIC_DecodePriority:SubPriorityBits <- $r4
	.loc	4 2093 25               @ C:/Keil/ARM/PACK/ARM/CMSIS/5.3.0/CMSIS/Include\core_cm7.h:2093:25
	cmp	r1, #4
	it	hs
	movhs	r1, #4
.Ltmp77:
	@DEBUG_VALUE: NVIC_DecodePriority:PreemptPriorityBits <- $r1
	.loc	4 2096 71               @ C:/Keil/ARM/PACK/ARM/CMSIS/5.3.0/CMSIS/Include\core_cm7.h:2096:71
	lsl.w	r1, r5, r1
.Ltmp78:
	.loc	4 0 71 is_stmt 0        @ C:/Keil/ARM/PACK/ARM/CMSIS/5.3.0/CMSIS/Include\core_cm7.h:0:71
	lsrs	r6, r0, #4
.Ltmp79:
	@DEBUG_VALUE: NVIC_DecodePriority:Priority <- $r6
	@DEBUG_VALUE: NVIC_DecodePriority:pSubPriority <- $r3
	@DEBUG_VALUE: NVIC_DecodePriority:pPreemptPriority <- $r2
	@DEBUG_VALUE: NVIC_DecodePriority:PriorityGroup <- $r1
	.loc	4 2096 97               @ C:/Keil/ARM/PACK/ARM/CMSIS/5.3.0/CMSIS/Include\core_cm7.h:2096:97
	subs	r1, #1
.Ltmp80:
	.loc	4 2096 33               @ C:/Keil/ARM/PACK/ARM/CMSIS/5.3.0/CMSIS/Include\core_cm7.h:2096:33
	lsrs	r6, r4
.Ltmp81:
	.loc	4 2096 53               @ C:/Keil/ARM/PACK/ARM/CMSIS/5.3.0/CMSIS/Include\core_cm7.h:2096:53
	ands	r1, r6
	.loc	4 2096 21               @ C:/Keil/ARM/PACK/ARM/CMSIS/5.3.0/CMSIS/Include\core_cm7.h:2096:21
	str	r1, [r2]
	.loc	4 2097 71 is_stmt 1     @ C:/Keil/ARM/PACK/ARM/CMSIS/5.3.0/CMSIS/Include\core_cm7.h:2097:71
	lsl.w	r1, r5, r4
	.loc	4 2097 97 is_stmt 0     @ C:/Keil/ARM/PACK/ARM/CMSIS/5.3.0/CMSIS/Include\core_cm7.h:2097:97
	adds	r1, #15
	.loc	4 2097 53               @ C:/Keil/ARM/PACK/ARM/CMSIS/5.3.0/CMSIS/Include\core_cm7.h:2097:53
	and.w	r0, r1, r0, lsr #4
	.loc	4 2097 21               @ C:/Keil/ARM/PACK/ARM/CMSIS/5.3.0/CMSIS/Include\core_cm7.h:2097:21
	str	r0, [r3]
.Ltmp82:
	.loc	5 393 1 is_stmt 1       @ ../Drivers/STM32F7xx_HAL_Driver/Src/stm32f7xx_hal_cortex.c:393:1
	pop	{r4, r5, r6, pc}
.Ltmp83:
	.p2align	2
@ %bb.1:
	.loc	5 0 1 is_stmt 0         @ ../Drivers/STM32F7xx_HAL_Driver/Src/stm32f7xx_hal_cortex.c:0:1
__arm_cp.12_0:
	.long	3758154752              @ 0xe000e400
.Lcpi_end15:
	.size	__arm_cp.12_0, .Lcpi_end15-__arm_cp.12_0
__arm_cp.12_1:
	.long	3758157076              @ 0xe000ed14
.Lcpi_end16:
	.size	__arm_cp.12_1, .Lcpi_end16-__arm_cp.12_1
.Lfunc_end12:
	.size	HAL_NVIC_GetPriority, .Lfunc_end12-HAL_NVIC_GetPriority
	.cfi_endproc
	.cantunwind
	.fnend
                                        @ -- End function
	.section	.text.HAL_NVIC_SetPendingIRQ,"ax",%progbits
	.hidden	HAL_NVIC_SetPendingIRQ  @ -- Begin function HAL_NVIC_SetPendingIRQ
	.globl	HAL_NVIC_SetPendingIRQ
	.p2align	2
	.type	HAL_NVIC_SetPendingIRQ,%function
	.code	16                      @ @HAL_NVIC_SetPendingIRQ
	.thumb_func
HAL_NVIC_SetPendingIRQ:
.Lfunc_begin13:
	.loc	5 403 0 is_stmt 1       @ ../Drivers/STM32F7xx_HAL_Driver/Src/stm32f7xx_hal_cortex.c:403:0
	.fnstart
	.cfi_startproc
@ %bb.0:
	@DEBUG_VALUE: HAL_NVIC_SetPendingIRQ:IRQn <- $r0
	@DEBUG_VALUE: HAL_NVIC_SetPendingIRQ:IRQn <- $r0
	@DEBUG_VALUE: __NVIC_SetPendingIRQ:IRQn <- $r0
	@DEBUG_VALUE: __NVIC_SetPendingIRQ:IRQn <- $r0
	.loc	4 1961 7 prologue_end   @ C:/Keil/ARM/PACK/ARM/CMSIS/5.3.0/CMSIS/Include\core_cm7.h:1961:7
	cmp	r0, #0
	blt	.LBB13_2
.Ltmp84:
@ %bb.1:
	@DEBUG_VALUE: __NVIC_SetPendingIRQ:IRQn <- $r0
	@DEBUG_VALUE: HAL_NVIC_SetPendingIRQ:IRQn <- $r0
	.loc	4 1963 81               @ C:/Keil/ARM/PACK/ARM/CMSIS/5.3.0/CMSIS/Include\core_cm7.h:1963:81
	and	r1, r0, #31
	.loc	4 1963 60 is_stmt 0     @ C:/Keil/ARM/PACK/ARM/CMSIS/5.3.0/CMSIS/Include\core_cm7.h:1963:60
	movs	r2, #1
	.loc	4 1963 34               @ C:/Keil/ARM/PACK/ARM/CMSIS/5.3.0/CMSIS/Include\core_cm7.h:1963:34
	lsrs	r0, r0, #5
.Ltmp85:
	.loc	4 1963 60               @ C:/Keil/ARM/PACK/ARM/CMSIS/5.3.0/CMSIS/Include\core_cm7.h:1963:60
	lsl.w	r1, r2, r1
	.loc	4 1963 5                @ C:/Keil/ARM/PACK/ARM/CMSIS/5.3.0/CMSIS/Include\core_cm7.h:1963:5
	ldr	r2, __arm_cp.13_0
	.loc	4 1963 43               @ C:/Keil/ARM/PACK/ARM/CMSIS/5.3.0/CMSIS/Include\core_cm7.h:1963:43
	str.w	r1, [r2, r0, lsl #2]
.Ltmp86:
.LBB13_2:
	.loc	5 409 1 is_stmt 1       @ ../Drivers/STM32F7xx_HAL_Driver/Src/stm32f7xx_hal_cortex.c:409:1
	bx	lr
.Ltmp87:
	.p2align	2
@ %bb.3:
	.loc	5 0 1 is_stmt 0         @ ../Drivers/STM32F7xx_HAL_Driver/Src/stm32f7xx_hal_cortex.c:0:1
__arm_cp.13_0:
	.long	3758154240              @ 0xe000e200
.Lcpi_end17:
	.size	__arm_cp.13_0, .Lcpi_end17-__arm_cp.13_0
.Lfunc_end13:
	.size	HAL_NVIC_SetPendingIRQ, .Lfunc_end13-HAL_NVIC_SetPendingIRQ
	.cfi_endproc
	.cantunwind
	.fnend
                                        @ -- End function
	.section	.text.HAL_NVIC_GetPendingIRQ,"ax",%progbits
	.hidden	HAL_NVIC_GetPendingIRQ  @ -- Begin function HAL_NVIC_GetPendingIRQ
	.globl	HAL_NVIC_GetPendingIRQ
	.p2align	2
	.type	HAL_NVIC_GetPendingIRQ,%function
	.code	16                      @ @HAL_NVIC_GetPendingIRQ
	.thumb_func
HAL_NVIC_GetPendingIRQ:
.Lfunc_begin14:
	.loc	5 421 0 is_stmt 1       @ ../Drivers/STM32F7xx_HAL_Driver/Src/stm32f7xx_hal_cortex.c:421:0
	.fnstart
	.cfi_startproc
@ %bb.0:
	@DEBUG_VALUE: HAL_NVIC_GetPendingIRQ:IRQn <- $r0
	@DEBUG_VALUE: HAL_NVIC_GetPendingIRQ:IRQn <- $r0
	@DEBUG_VALUE: __NVIC_GetPendingIRQ:IRQn <- $r0
	@DEBUG_VALUE: __NVIC_GetPendingIRQ:IRQn <- $r0
	.loc	4 1942 7 prologue_end   @ C:/Keil/ARM/PACK/ARM/CMSIS/5.3.0/CMSIS/Include\core_cm7.h:1942:7
	cmp	r0, #0
	blt	.LBB14_2
.Ltmp88:
@ %bb.1:
	@DEBUG_VALUE: __NVIC_GetPendingIRQ:IRQn <- $r0
	@DEBUG_VALUE: HAL_NVIC_GetPendingIRQ:IRQn <- $r0
	.loc	4 1944 25               @ C:/Keil/ARM/PACK/ARM/CMSIS/5.3.0/CMSIS/Include\core_cm7.h:1944:25
	ldr	r2, __arm_cp.14_0
	.loc	4 1944 54 is_stmt 0     @ C:/Keil/ARM/PACK/ARM/CMSIS/5.3.0/CMSIS/Include\core_cm7.h:1944:54
	lsrs	r1, r0, #5
	.loc	4 1944 91               @ C:/Keil/ARM/PACK/ARM/CMSIS/5.3.0/CMSIS/Include\core_cm7.h:1944:91
	and	r0, r0, #31
.Ltmp89:
	.loc	4 1944 25               @ C:/Keil/ARM/PACK/ARM/CMSIS/5.3.0/CMSIS/Include\core_cm7.h:1944:25
	ldr.w	r1, [r2, r1, lsl #2]
	movs	r2, #1
	.loc	4 1944 70               @ C:/Keil/ARM/PACK/ARM/CMSIS/5.3.0/CMSIS/Include\core_cm7.h:1944:70
	lsl.w	r0, r2, r0
	.loc	4 1944 63               @ C:/Keil/ARM/PACK/ARM/CMSIS/5.3.0/CMSIS/Include\core_cm7.h:1944:63
	ands	r0, r1
	.loc	4 1944 103              @ C:/Keil/ARM/PACK/ARM/CMSIS/5.3.0/CMSIS/Include\core_cm7.h:1944:103
	it	ne
	movne	r0, #1
.Ltmp90:
	.loc	5 426 3 is_stmt 1       @ ../Drivers/STM32F7xx_HAL_Driver/Src/stm32f7xx_hal_cortex.c:426:3
	bx	lr
.LBB14_2:
.Ltmp91:
	@DEBUG_VALUE: HAL_NVIC_GetPendingIRQ:IRQn <- $r0
	.loc	5 0 3 is_stmt 0         @ ../Drivers/STM32F7xx_HAL_Driver/Src/stm32f7xx_hal_cortex.c:0:3
	movs	r0, #0
.Ltmp92:
	.loc	5 426 3                 @ ../Drivers/STM32F7xx_HAL_Driver/Src/stm32f7xx_hal_cortex.c:426:3
	bx	lr
.Ltmp93:
	.p2align	2
@ %bb.3:
	.loc	5 0 3                   @ ../Drivers/STM32F7xx_HAL_Driver/Src/stm32f7xx_hal_cortex.c:0:3
__arm_cp.14_0:
	.long	3758154240              @ 0xe000e200
.Lcpi_end18:
	.size	__arm_cp.14_0, .Lcpi_end18-__arm_cp.14_0
.Lfunc_end14:
	.size	HAL_NVIC_GetPendingIRQ, .Lfunc_end14-HAL_NVIC_GetPendingIRQ
	.cfi_endproc
	.cantunwind
	.fnend
                                        @ -- End function
	.section	.text.HAL_NVIC_ClearPendingIRQ,"ax",%progbits
	.hidden	HAL_NVIC_ClearPendingIRQ @ -- Begin function HAL_NVIC_ClearPendingIRQ
	.globl	HAL_NVIC_ClearPendingIRQ
	.p2align	2
	.type	HAL_NVIC_ClearPendingIRQ,%function
	.code	16                      @ @HAL_NVIC_ClearPendingIRQ
	.thumb_func
HAL_NVIC_ClearPendingIRQ:
.Lfunc_begin15:
	.loc	5 437 0 is_stmt 1       @ ../Drivers/STM32F7xx_HAL_Driver/Src/stm32f7xx_hal_cortex.c:437:0
	.fnstart
	.cfi_startproc
@ %bb.0:
	@DEBUG_VALUE: HAL_NVIC_ClearPendingIRQ:IRQn <- $r0
	@DEBUG_VALUE: HAL_NVIC_ClearPendingIRQ:IRQn <- $r0
	@DEBUG_VALUE: __NVIC_ClearPendingIRQ:IRQn <- $r0
	@DEBUG_VALUE: __NVIC_ClearPendingIRQ:IRQn <- $r0
	.loc	4 1976 7 prologue_end   @ C:/Keil/ARM/PACK/ARM/CMSIS/5.3.0/CMSIS/Include\core_cm7.h:1976:7
	cmp	r0, #0
	blt	.LBB15_2
.Ltmp94:
@ %bb.1:
	@DEBUG_VALUE: __NVIC_ClearPendingIRQ:IRQn <- $r0
	@DEBUG_VALUE: HAL_NVIC_ClearPendingIRQ:IRQn <- $r0
	.loc	4 1978 81               @ C:/Keil/ARM/PACK/ARM/CMSIS/5.3.0/CMSIS/Include\core_cm7.h:1978:81
	and	r1, r0, #31
	.loc	4 1978 60 is_stmt 0     @ C:/Keil/ARM/PACK/ARM/CMSIS/5.3.0/CMSIS/Include\core_cm7.h:1978:60
	movs	r2, #1
	.loc	4 1978 34               @ C:/Keil/ARM/PACK/ARM/CMSIS/5.3.0/CMSIS/Include\core_cm7.h:1978:34
	lsrs	r0, r0, #5
.Ltmp95:
	.loc	4 1978 60               @ C:/Keil/ARM/PACK/ARM/CMSIS/5.3.0/CMSIS/Include\core_cm7.h:1978:60
	lsl.w	r1, r2, r1
	.loc	4 1978 5                @ C:/Keil/ARM/PACK/ARM/CMSIS/5.3.0/CMSIS/Include\core_cm7.h:1978:5
	ldr	r2, __arm_cp.15_0
	.loc	4 1978 43               @ C:/Keil/ARM/PACK/ARM/CMSIS/5.3.0/CMSIS/Include\core_cm7.h:1978:43
	str.w	r1, [r2, r0, lsl #2]
.Ltmp96:
.LBB15_2:
	.loc	5 443 1 is_stmt 1       @ ../Drivers/STM32F7xx_HAL_Driver/Src/stm32f7xx_hal_cortex.c:443:1
	bx	lr
.Ltmp97:
	.p2align	2
@ %bb.3:
	.loc	5 0 1 is_stmt 0         @ ../Drivers/STM32F7xx_HAL_Driver/Src/stm32f7xx_hal_cortex.c:0:1
__arm_cp.15_0:
	.long	3758154368              @ 0xe000e280
.Lcpi_end19:
	.size	__arm_cp.15_0, .Lcpi_end19-__arm_cp.15_0
.Lfunc_end15:
	.size	HAL_NVIC_ClearPendingIRQ, .Lfunc_end15-HAL_NVIC_ClearPendingIRQ
	.cfi_endproc
	.cantunwind
	.fnend
                                        @ -- End function
	.section	.text.HAL_NVIC_GetActive,"ax",%progbits
	.hidden	HAL_NVIC_GetActive      @ -- Begin function HAL_NVIC_GetActive
	.globl	HAL_NVIC_GetActive
	.p2align	2
	.type	HAL_NVIC_GetActive,%function
	.code	16                      @ @HAL_NVIC_GetActive
	.thumb_func
HAL_NVIC_GetActive:
.Lfunc_begin16:
	.loc	5 454 0 is_stmt 1       @ ../Drivers/STM32F7xx_HAL_Driver/Src/stm32f7xx_hal_cortex.c:454:0
	.fnstart
	.cfi_startproc
@ %bb.0:
	@DEBUG_VALUE: HAL_NVIC_GetActive:IRQn <- $r0
	@DEBUG_VALUE: HAL_NVIC_GetActive:IRQn <- $r0
	@DEBUG_VALUE: __NVIC_GetActive:IRQn <- $r0
	@DEBUG_VALUE: __NVIC_GetActive:IRQn <- $r0
	.loc	4 1993 7 prologue_end   @ C:/Keil/ARM/PACK/ARM/CMSIS/5.3.0/CMSIS/Include\core_cm7.h:1993:7
	cmp	r0, #0
	blt	.LBB16_2
.Ltmp98:
@ %bb.1:
	@DEBUG_VALUE: __NVIC_GetActive:IRQn <- $r0
	@DEBUG_VALUE: HAL_NVIC_GetActive:IRQn <- $r0
	.loc	4 1995 25               @ C:/Keil/ARM/PACK/ARM/CMSIS/5.3.0/CMSIS/Include\core_cm7.h:1995:25
	ldr	r2, __arm_cp.16_0
	.loc	4 1995 54 is_stmt 0     @ C:/Keil/ARM/PACK/ARM/CMSIS/5.3.0/CMSIS/Include\core_cm7.h:1995:54
	lsrs	r1, r0, #5
	.loc	4 1995 91               @ C:/Keil/ARM/PACK/ARM/CMSIS/5.3.0/CMSIS/Include\core_cm7.h:1995:91
	and	r0, r0, #31
.Ltmp99:
	.loc	4 1995 25               @ C:/Keil/ARM/PACK/ARM/CMSIS/5.3.0/CMSIS/Include\core_cm7.h:1995:25
	ldr.w	r1, [r2, r1, lsl #2]
	movs	r2, #1
	.loc	4 1995 70               @ C:/Keil/ARM/PACK/ARM/CMSIS/5.3.0/CMSIS/Include\core_cm7.h:1995:70
	lsl.w	r0, r2, r0
	.loc	4 1995 63               @ C:/Keil/ARM/PACK/ARM/CMSIS/5.3.0/CMSIS/Include\core_cm7.h:1995:63
	ands	r0, r1
	.loc	4 1995 103              @ C:/Keil/ARM/PACK/ARM/CMSIS/5.3.0/CMSIS/Include\core_cm7.h:1995:103
	it	ne
	movne	r0, #1
.Ltmp100:
	.loc	5 459 3 is_stmt 1       @ ../Drivers/STM32F7xx_HAL_Driver/Src/stm32f7xx_hal_cortex.c:459:3
	bx	lr
.LBB16_2:
.Ltmp101:
	@DEBUG_VALUE: HAL_NVIC_GetActive:IRQn <- $r0
	.loc	5 0 3 is_stmt 0         @ ../Drivers/STM32F7xx_HAL_Driver/Src/stm32f7xx_hal_cortex.c:0:3
	movs	r0, #0
.Ltmp102:
	.loc	5 459 3                 @ ../Drivers/STM32F7xx_HAL_Driver/Src/stm32f7xx_hal_cortex.c:459:3
	bx	lr
.Ltmp103:
	.p2align	2
@ %bb.3:
	.loc	5 0 3                   @ ../Drivers/STM32F7xx_HAL_Driver/Src/stm32f7xx_hal_cortex.c:0:3
__arm_cp.16_0:
	.long	3758154496              @ 0xe000e300
.Lcpi_end20:
	.size	__arm_cp.16_0, .Lcpi_end20-__arm_cp.16_0
.Lfunc_end16:
	.size	HAL_NVIC_GetActive, .Lfunc_end16-HAL_NVIC_GetActive
	.cfi_endproc
	.cantunwind
	.fnend
                                        @ -- End function
	.section	.text.HAL_SYSTICK_CLKSourceConfig,"ax",%progbits
	.hidden	HAL_SYSTICK_CLKSourceConfig @ -- Begin function HAL_SYSTICK_CLKSourceConfig
	.globl	HAL_SYSTICK_CLKSourceConfig
	.p2align	2
	.type	HAL_SYSTICK_CLKSourceConfig,%function
	.code	16                      @ @HAL_SYSTICK_CLKSourceConfig
	.thumb_func
HAL_SYSTICK_CLKSourceConfig:
.Lfunc_begin17:
	.loc	5 471 0 is_stmt 1       @ ../Drivers/STM32F7xx_HAL_Driver/Src/stm32f7xx_hal_cortex.c:471:0
	.fnstart
	.cfi_startproc
@ %bb.0:
	@DEBUG_VALUE: HAL_SYSTICK_CLKSourceConfig:CLKSource <- $r0
	ldr	r1, __arm_cp.17_0
.Ltmp104:
	.loc	5 474 7 prologue_end    @ ../Drivers/STM32F7xx_HAL_Driver/Src/stm32f7xx_hal_cortex.c:474:7
	cmp	r0, #4
	ldr	r2, [r1]
	@DEBUG_VALUE: HAL_SYSTICK_CLKSourceConfig:CLKSource <- $r0
.Ltmp105:
	.loc	5 480 19                @ ../Drivers/STM32F7xx_HAL_Driver/Src/stm32f7xx_hal_cortex.c:480:19
	bic	r3, r2, #4
.Ltmp106:
	.loc	5 474 7                 @ ../Drivers/STM32F7xx_HAL_Driver/Src/stm32f7xx_hal_cortex.c:474:7
	it	eq
	orreq	r3, r2, #4
	str	r3, [r1]
	.loc	5 482 1                 @ ../Drivers/STM32F7xx_HAL_Driver/Src/stm32f7xx_hal_cortex.c:482:1
	bx	lr
.Ltmp107:
	.p2align	2
@ %bb.1:
	.loc	5 0 1 is_stmt 0         @ ../Drivers/STM32F7xx_HAL_Driver/Src/stm32f7xx_hal_cortex.c:0:1
__arm_cp.17_0:
	.long	3758153744              @ 0xe000e010
.Lcpi_end21:
	.size	__arm_cp.17_0, .Lcpi_end21-__arm_cp.17_0
.Lfunc_end17:
	.size	HAL_SYSTICK_CLKSourceConfig, .Lfunc_end17-HAL_SYSTICK_CLKSourceConfig
	.cfi_endproc
	.cantunwind
	.fnend
                                        @ -- End function
	.section	.text.HAL_SYSTICK_IRQHandler,"ax",%progbits
	.hidden	HAL_SYSTICK_IRQHandler  @ -- Begin function HAL_SYSTICK_IRQHandler
	.globl	HAL_SYSTICK_IRQHandler
	.p2align	1
	.type	HAL_SYSTICK_IRQHandler,%function
	.code	16                      @ @HAL_SYSTICK_IRQHandler
	.thumb_func
HAL_SYSTICK_IRQHandler:
.Lfunc_begin18:
	.loc	5 489 0 is_stmt 1       @ ../Drivers/STM32F7xx_HAL_Driver/Src/stm32f7xx_hal_cortex.c:489:0
	.fnstart
	.cfi_startproc
@ %bb.0:
	.loc	5 490 3 prologue_end    @ ../Drivers/STM32F7xx_HAL_Driver/Src/stm32f7xx_hal_cortex.c:490:3
	b	HAL_SYSTICK_Callback
.Ltmp108:
.Lfunc_end18:
	.size	HAL_SYSTICK_IRQHandler, .Lfunc_end18-HAL_SYSTICK_IRQHandler
	.cfi_endproc
	.cantunwind
	.fnend
                                        @ -- End function
	.section	.text.HAL_SYSTICK_Callback,"ax",%progbits
	.hidden	HAL_SYSTICK_Callback    @ -- Begin function HAL_SYSTICK_Callback
	.weak	HAL_SYSTICK_Callback
	.p2align	1
	.type	HAL_SYSTICK_Callback,%function
	.code	16                      @ @HAL_SYSTICK_Callback
	.thumb_func
HAL_SYSTICK_Callback:
.Lfunc_begin19:
	.loc	5 498 0                 @ ../Drivers/STM32F7xx_HAL_Driver/Src/stm32f7xx_hal_cortex.c:498:0
	.fnstart
	.cfi_startproc
@ %bb.0:
	.loc	5 502 1 prologue_end    @ ../Drivers/STM32F7xx_HAL_Driver/Src/stm32f7xx_hal_cortex.c:502:1
	bx	lr
.Ltmp109:
.Lfunc_end19:
	.size	HAL_SYSTICK_Callback, .Lfunc_end19-HAL_SYSTICK_Callback
	.cfi_endproc
	.cantunwind
	.fnend
                                        @ -- End function
	.file	6 "../Drivers/STM32F7xx_HAL_Driver/Inc" "stm32f7xx_hal_cortex.h"
	.section	".note.GNU-stack","",%progbits
	.eabi_attribute	30, 4	@ Tag_ABI_optimization_goals
	.ARM_attribute	16, 1	@ Tag_AV_eba