	.text
	.syntax unified
	.eabi_attribute	67, "2.09"	@ Tag_conformance
	.cpu	cortex-m7
	.eabi_attribute	6, 13	@ Tag_CPU_arch
	.eabi_attribute	7, 77	@ Tag_CPU_arch_profile
	.eabi_attribute	8, 0	@ Tag_ARM_ISA_use
	.eabi_attribute	9, 2	@ Tag_THUMB_ISA_use
	.fpu	fpv5-sp-d16
	.eabi_attribute	27, 1	@ Tag_ABI_HardFP_use
	.eabi_attribute	36, 1	@ Tag_FP_HP_extension
	.eabi_attribute	34, 1	@ Tag_CPU_unaligned_access
	.eabi_attribute	17, 1	@ Tag_ABI_PCS_GOT_use
	.eabi_attribute	20, 2	@ Tag_ABI_FP_denormal
	.eabi_attribute	21, 0	@ Tag_ABI_FP_exceptions
	.eabi_attribute	23, 1	@ Tag_ABI_FP_number_model
	.eabi_attribute	24, 1	@ Tag_ABI_align_needed
	.eabi_attribute	25, 1	@ Tag_ABI_align_preserved
	.eabi_attribute	28, 1	@ Tag_ABI_VFP_args
	.eabi_attribute	38, 1	@ Tag_ABI_FP_16bit_format
	.eabi_attribute	18, 2	@ Tag_ABI_PCS_wchar_t
	.eabi_attribute	26, 1	@ Tag_ABI_enum_size
	.eabi_attribute	14, 0	@ Tag_ABI_PCS_R9_use
	.file	"stm32f7xx_hal_sai.c"
	.file	1 "../Drivers/STM32F7xx_HAL_Driver/Inc" "stm32f7xx_hal_def.h"
	.file	2 "../Drivers/STM32F7xx_HAL_Driver/Inc" "stm32f7xx_hal_dma.h"
	.file	3 "../Drivers/STM32F7xx_HAL_Driver/Inc" "stm32f7xx_hal_sai.h"
	.file	4 "../Drivers/CMSIS/Device/ST/STM32F7xx/Include" "stm32f7xx.h"
	.file	5 "../Drivers/STM32F7xx_HAL_Driver/Src" "stm32f7xx_hal_sai.c"
	.file	6 "C:\\Keil\\ARM\\ARMCLANG\\Bin\\..\\include" "stdint.h"
	.file	7 "../Drivers/CMSIS/Device/ST/STM32F7xx/Include" "stm32f746xx.h"
	.section	.text.HAL_SAI_InitProtocol,"ax",%progbits
	.hidden	HAL_SAI_InitProtocol    @ -- Begin function HAL_SAI_InitProtocol
	.globl	HAL_SAI_InitProtocol
	.p2align	2
	.type	HAL_SAI_InitProtocol,%function
	.code	16                      @ @HAL_SAI_InitProtocol
	.thumb_func
HAL_SAI_InitProtocol:
.Lfunc_begin0:
	.loc	5 282 0                 @ ../Drivers/STM32F7xx_HAL_Driver/Src/stm32f7xx_hal_sai.c:282:0
	.fnstart
	.cfi_sections .debug_frame
	.cfi_startproc
@ %bb.0:
	.save	{r4, lr}
	push	{r4, lr}
	.cfi_def_cfa_offset 8
	.cfi_offset lr, -4
	.cfi_offset r4, -8
	@DEBUG_VALUE: HAL_SAI_InitProtocol:hsai <- $r0
	@DEBUG_VALUE: HAL_SAI_InitProtocol:hsai <- $r0
	@DEBUG_VALUE: HAL_SAI_InitProtocol:protocol <- $r1
	@DEBUG_VALUE: HAL_SAI_InitProtocol:protocol <- $r1
	@DEBUG_VALUE: HAL_SAI_InitProtocol:datasize <- $r2
	@DEBUG_VALUE: HAL_SAI_InitProtocol:datasize <- $r2
	@DEBUG_VALUE: HAL_SAI_InitProtocol:nbslot <- $r3
	@DEBUG_VALUE: HAL_SAI_InitProtocol:nbslot <- $r3
.Ltmp0:
	@DEBUG_VALUE: SAI_InitPCM:hsai <- $r0
	@DEBUG_VALUE: SAI_InitPCM:hsai <- $r0
	@DEBUG_VALUE: SAI_InitPCM:nbslot <- $r3
	@DEBUG_VALUE: SAI_InitPCM:nbslot <- $r3
	@DEBUG_VALUE: SAI_InitPCM:protocol <- $r1
	@DEBUG_VALUE: SAI_InitPCM:protocol <- $r1
	@DEBUG_VALUE: SAI_InitPCM:datasize <- $r2
	@DEBUG_VALUE: SAI_InitPCM:datasize <- $r2
	@DEBUG_VALUE: SAI_InitI2S:hsai <- $r0
	@DEBUG_VALUE: SAI_InitI2S:hsai <- $r0
	@DEBUG_VALUE: SAI_InitI2S:nbslot <- $r3
	@DEBUG_VALUE: SAI_InitI2S:nbslot <- $r3
	@DEBUG_VALUE: SAI_InitI2S:protocol <- $r1
	@DEBUG_VALUE: SAI_InitI2S:protocol <- $r1
	@DEBUG_VALUE: SAI_InitI2S:datasize <- $r2
	@DEBUG_VALUE: SAI_InitI2S:datasize <- $r2
	@DEBUG_VALUE: HAL_SAI_InitProtocol:status <- 0
	.loc	5 289 3 prologue_end    @ ../Drivers/STM32F7xx_HAL_Driver/Src/stm32f7xx_hal_sai.c:289:3
	cmp	r1, #3
	bhs	.LBB0_7
.Ltmp1:
@ %bb.1:
	@DEBUG_VALUE: SAI_InitI2S:datasize <- $r2
	@DEBUG_VALUE: SAI_InitI2S:protocol <- $r1
	@DEBUG_VALUE: SAI_InitI2S:nbslot <- $r3
	@DEBUG_VALUE: SAI_InitI2S:hsai <- $r0
	@DEBUG_VALUE: HAL_SAI_InitProtocol:nbslot <- $r3
	@DEBUG_VALUE: HAL_SAI_InitProtocol:datasize <- $r2
	@DEBUG_VALUE: HAL_SAI_InitProtocol:protocol <- $r1
	@DEBUG_VALUE: HAL_SAI_InitProtocol:hsai <- $r0
	.loc	5 0 3 is_stmt 0         @ ../Drivers/STM32F7xx_HAL_Driver/Src/stm32f7xx_hal_sai.c:0:3
	mov.w	r12, #0
.Ltmp2:
	.loc	5 1643 34 is_stmt 1     @ ../Drivers/STM32F7xx_HAL_Driver/Src/stm32f7xx_hal_sai.c:1643:34
	mov.w	r4, #65536
	.loc	5 1633 34               @ ../Drivers/STM32F7xx_HAL_Driver/Src/stm32f7xx_hal_sai.c:1633:34
	str.w	r12, [r0, #56]
	.loc	5 1632 34               @ ../Drivers/STM32F7xx_HAL_Driver/Src/stm32f7xx_hal_sai.c:1632:34
	str.w	r12, [r0, #48]
.Ltmp3:
	.loc	5 1635 18               @ ../Drivers/STM32F7xx_HAL_Driver/Src/stm32f7xx_hal_sai.c:1635:18
	ldr.w	lr, [r0, #4]
	.loc	5 1635 50 is_stmt 0     @ ../Drivers/STM32F7xx_HAL_Driver/Src/stm32f7xx_hal_sai.c:1635:50
	orr	lr, lr, #2
	cmp.w	lr, #2
	mov.w	lr, #0
	it	ne
	movne.w	lr, #1
.Ltmp4:
	.loc	5 1643 34 is_stmt 1     @ ../Drivers/STM32F7xx_HAL_Driver/Src/stm32f7xx_hal_sai.c:1643:34
	str	r4, [r0, #72]
	.loc	5 1649 6                @ ../Drivers/STM32F7xx_HAL_Driver/Src/stm32f7xx_hal_sai.c:1649:6
	tst.w	r3, #1
	.loc	5 1644 34               @ ../Drivers/STM32F7xx_HAL_Driver/Src/stm32f7xx_hal_sai.c:1644:34
	movw	r4, #65535
	str.w	lr, [r0, #60]
	.loc	5 1645 34               @ ../Drivers/STM32F7xx_HAL_Driver/Src/stm32f7xx_hal_sai.c:1645:34
	str.w	r12, [r0, #84]
	.loc	5 1646 34               @ ../Drivers/STM32F7xx_HAL_Driver/Src/stm32f7xx_hal_sai.c:1646:34
	strd	r3, r4, [r0, #92]
	.loc	5 1649 6                @ ../Drivers/STM32F7xx_HAL_Driver/Src/stm32f7xx_hal_sai.c:1649:6
	bne	.LBB0_16
.Ltmp5:
@ %bb.2:
	@DEBUG_VALUE: SAI_InitI2S:datasize <- $r2
	@DEBUG_VALUE: SAI_InitI2S:protocol <- $r1
	@DEBUG_VALUE: SAI_InitI2S:nbslot <- $r3
	@DEBUG_VALUE: SAI_InitI2S:hsai <- $r0
	@DEBUG_VALUE: HAL_SAI_InitProtocol:nbslot <- $r3
	@DEBUG_VALUE: HAL_SAI_InitProtocol:datasize <- $r2
	@DEBUG_VALUE: HAL_SAI_InitProtocol:protocol <- $r1
	@DEBUG_VALUE: HAL_SAI_InitProtocol:hsai <- $r0
	cmp	r1, #2
	bhi	.LBB0_16
.Ltmp6:
@ %bb.3:
	@DEBUG_VALUE: SAI_InitI2S:datasize <- $r2
	@DEBUG_VALUE: SAI_InitI2S:protocol <- $r1
	@DEBUG_VALUE: SAI_InitI2S:nbslot <- $r3
	@DEBUG_VALUE: SAI_InitI2S:hsai <- $r0
	@DEBUG_VALUE: HAL_SAI_InitProtocol:nbslot <- $r3
	@DEBUG_VALUE: HAL_SAI_InitProtocol:datasize <- $r2
	@DEBUG_VALUE: HAL_SAI_InitProtocol:protocol <- $r1
	@DEBUG_VALUE: HAL_SAI_InitProtocol:hsai <- $r0
	.loc	5 1654 3                @ ../Drivers/STM32F7xx_HAL_Driver/Src/stm32f7xx_hal_sai.c:1654:3
	adr	r4, .LCPI0_0
	.loc	5 1670 3                @ ../Drivers/STM32F7xx_HAL_Driver/Src/stm32f7xx_hal_sai.c:1670:3
	cmp	r2, #3
	.loc	5 1654 3                @ ../Drivers/STM32F7xx_HAL_Driver/Src/stm32f7xx_hal_sai.c:1654:3
	ldr.w	r4, [r4, r1, lsl #2]
	str	r4, [r0, #80]
	adr	r4, .LCPI0_1
	ldr.w	r4, [r4, r1, lsl #2]
	str	r4, [r0, #76]
	.loc	5 1670 3                @ ../Drivers/STM32F7xx_HAL_Driver/Src/stm32f7xx_hal_sai.c:1670:3
	bhi	.LBB0_16
.Ltmp7:
@ %bb.4:
	@DEBUG_VALUE: HAL_SAI_InitProtocol:nbslot <- $r3
	@DEBUG_VALUE: HAL_SAI_InitProtocol:datasize <- $r2
	@DEBUG_VALUE: HAL_SAI_InitProtocol:protocol <- $r1
	@DEBUG_VALUE: HAL_SAI_InitProtocol:hsai <- $r0
	.loc	5 0 3 is_stmt 0         @ ../Drivers/STM32F7xx_HAL_Driver/Src/stm32f7xx_hal_sai.c:0:3
.LCPI0_2:
	tbb	[pc, r2]
.Ltmp8:
@ %bb.5:
.LJTI0_1:
	.byte	(.LBB0_6-(.LCPI0_2+4))/2
	.byte	(.LBB0_17-(.LCPI0_2+4))/2
	.byte	(.LBB0_18-(.LCPI0_2+4))/2
	.byte	(.LBB0_19-(.LCPI0_2+4))/2
	.p2align	1
.LBB0_6:
.Ltmp9:
	@DEBUG_VALUE: HAL_SAI_InitProtocol:nbslot <- $r3
	@DEBUG_VALUE: HAL_SAI_InitProtocol:datasize <- $r2
	@DEBUG_VALUE: HAL_SAI_InitProtocol:protocol <- $r1
	@DEBUG_VALUE: HAL_SAI_InitProtocol:hsai <- $r0
	.loc	5 1673 25 is_stmt 1     @ ../Drivers/STM32F7xx_HAL_Driver/Src/stm32f7xx_hal_sai.c:1673:25
	movs	r4, #128
	.loc	5 1674 45               @ ../Drivers/STM32F7xx_HAL_Driver/Src/stm32f7xx_hal_sai.c:1674:45
	lsrs	r3, r3, #1
.Ltmp10:
	.loc	5 0 45 is_stmt 0        @ ../Drivers/STM32F7xx_HAL_Driver/Src/stm32f7xx_hal_sai.c:0:45
	mov.w	r12, #64
	.loc	5 1673 25 is_stmt 1     @ ../Drivers/STM32F7xx_HAL_Driver/Src/stm32f7xx_hal_sai.c:1673:25
	str	r4, [r0, #52]
	.loc	5 1674 37               @ ../Drivers/STM32F7xx_HAL_Driver/Src/stm32f7xx_hal_sai.c:1674:37
	lsls	r4, r3, #5
	.loc	5 1675 43               @ ../Drivers/STM32F7xx_HAL_Driver/Src/stm32f7xx_hal_sai.c:1675:43
	lsls	r3, r3, #4
	b	.LBB0_22
.Ltmp11:
.LBB0_7:
	@DEBUG_VALUE: HAL_SAI_InitProtocol:nbslot <- $r3
	@DEBUG_VALUE: HAL_SAI_InitProtocol:datasize <- $r2
	@DEBUG_VALUE: HAL_SAI_InitProtocol:protocol <- $r1
	@DEBUG_VALUE: HAL_SAI_InitProtocol:hsai <- $r0
	.loc	5 289 3                 @ ../Drivers/STM32F7xx_HAL_Driver/Src/stm32f7xx_hal_sai.c:289:3
	sub.w	r12, r1, #3
	cmp.w	r12, #2
	bhs	.LBB0_16
.Ltmp12:
@ %bb.8:
	@DEBUG_VALUE: HAL_SAI_InitProtocol:nbslot <- $r3
	@DEBUG_VALUE: HAL_SAI_InitProtocol:datasize <- $r2
	@DEBUG_VALUE: HAL_SAI_InitProtocol:protocol <- $r1
	@DEBUG_VALUE: HAL_SAI_InitProtocol:hsai <- $r0
	.loc	5 0 3 is_stmt 0         @ ../Drivers/STM32F7xx_HAL_Driver/Src/stm32f7xx_hal_sai.c:0:3
	mov.w	r12, #0
.Ltmp13:
	.loc	5 1726 34 is_stmt 1     @ ../Drivers/STM32F7xx_HAL_Driver/Src/stm32f7xx_hal_sai.c:1726:34
	str.w	r12, [r0, #56]
	.loc	5 1725 34               @ ../Drivers/STM32F7xx_HAL_Driver/Src/stm32f7xx_hal_sai.c:1725:34
	str.w	r12, [r0, #48]
.Ltmp14:
	.loc	5 1728 18               @ ../Drivers/STM32F7xx_HAL_Driver/Src/stm32f7xx_hal_sai.c:1728:18
	ldr	r4, [r0, #4]
	.loc	5 1728 50 is_stmt 0     @ ../Drivers/STM32F7xx_HAL_Driver/Src/stm32f7xx_hal_sai.c:1728:50
	orr	r4, r4, #2
	cmp	r4, #2
.Ltmp15:
	.loc	5 1737 34 is_stmt 1     @ ../Drivers/STM32F7xx_HAL_Driver/Src/stm32f7xx_hal_sai.c:1737:34
	mov.w	r4, #131072
	ite	ne
	movne.w	lr, #0
	moveq.w	lr, #1
	.loc	5 1743 3                @ ../Drivers/STM32F7xx_HAL_Driver/Src/stm32f7xx_hal_sai.c:1743:3
	cmp	r1, #4
	str.w	lr, [r0, #60]
	.loc	5 1736 34               @ ../Drivers/STM32F7xx_HAL_Driver/Src/stm32f7xx_hal_sai.c:1736:34
	strd	r12, r4, [r0, #72]
	.loc	5 1738 34               @ ../Drivers/STM32F7xx_HAL_Driver/Src/stm32f7xx_hal_sai.c:1738:34
	mov.w	lr, #262144
	.loc	5 1741 34               @ ../Drivers/STM32F7xx_HAL_Driver/Src/stm32f7xx_hal_sai.c:1741:34
	movw	r4, #65535
	.loc	5 1738 34               @ ../Drivers/STM32F7xx_HAL_Driver/Src/stm32f7xx_hal_sai.c:1738:34
	strd	lr, r12, [r0, #80]
	.loc	5 1740 34               @ ../Drivers/STM32F7xx_HAL_Driver/Src/stm32f7xx_hal_sai.c:1740:34
	strd	r3, r4, [r0, #92]
	beq	.LBB0_11
.Ltmp16:
@ %bb.9:
	@DEBUG_VALUE: HAL_SAI_InitProtocol:nbslot <- $r3
	@DEBUG_VALUE: HAL_SAI_InitProtocol:datasize <- $r2
	@DEBUG_VALUE: HAL_SAI_InitProtocol:protocol <- $r1
	@DEBUG_VALUE: HAL_SAI_InitProtocol:hsai <- $r0
	.loc	5 1743 3                @ ../Drivers/STM32F7xx_HAL_Driver/Src/stm32f7xx_hal_sai.c:1743:3
	cmp	r1, #3
	bne	.LBB0_16
.Ltmp17:
@ %bb.10:
	@DEBUG_VALUE: HAL_SAI_InitProtocol:nbslot <- $r3
	@DEBUG_VALUE: HAL_SAI_InitProtocol:datasize <- $r2
	@DEBUG_VALUE: HAL_SAI_InitProtocol:protocol <- $r1
	@DEBUG_VALUE: HAL_SAI_InitProtocol:hsai <- $r0
	.loc	5 0 3 is_stmt 0         @ ../Drivers/STM32F7xx_HAL_Driver/Src/stm32f7xx_hal_sai.c:0:3
	movs	r1, #13
.Ltmp18:
	b	.LBB0_12
.Ltmp19:
.LBB0_11:
	@DEBUG_VALUE: HAL_SAI_InitProtocol:nbslot <- $r3
	@DEBUG_VALUE: HAL_SAI_InitProtocol:datasize <- $r2
	@DEBUG_VALUE: HAL_SAI_InitProtocol:protocol <- $r1
	@DEBUG_VALUE: HAL_SAI_InitProtocol:hsai <- $r0
	movs	r1, #1
.Ltmp20:
.LBB0_12:
	@DEBUG_VALUE: HAL_SAI_InitProtocol:nbslot <- $r3
	@DEBUG_VALUE: HAL_SAI_InitProtocol:datasize <- $r2
	@DEBUG_VALUE: HAL_SAI_InitProtocol:hsai <- $r0
	.loc	5 1755 3 is_stmt 1      @ ../Drivers/STM32F7xx_HAL_Driver/Src/stm32f7xx_hal_sai.c:1755:3
	cmp	r2, #3
	str	r1, [r0, #68]
	bhi	.LBB0_16
.Ltmp21:
@ %bb.13:
	@DEBUG_VALUE: HAL_SAI_InitProtocol:nbslot <- $r3
	@DEBUG_VALUE: HAL_SAI_InitProtocol:datasize <- $r2
	@DEBUG_VALUE: HAL_SAI_InitProtocol:hsai <- $r0
	.loc	5 0 3 is_stmt 0         @ ../Drivers/STM32F7xx_HAL_Driver/Src/stm32f7xx_hal_sai.c:0:3
.LCPI0_3:
	tbb	[pc, r2]
.Ltmp22:
@ %bb.14:
.LJTI0_0:
	.byte	(.LBB0_15-(.LCPI0_3+4))/2
	.byte	(.LBB0_25-(.LCPI0_3+4))/2
	.byte	(.LBB0_26-(.LCPI0_3+4))/2
	.byte	(.LBB0_27-(.LCPI0_3+4))/2
	.p2align	1
.LBB0_15:
.Ltmp23:
	@DEBUG_VALUE: HAL_SAI_InitProtocol:nbslot <- $r3
	@DEBUG_VALUE: HAL_SAI_InitProtocol:datasize <- $r2
	@DEBUG_VALUE: HAL_SAI_InitProtocol:hsai <- $r0
	.loc	5 1758 25 is_stmt 1     @ ../Drivers/STM32F7xx_HAL_Driver/Src/stm32f7xx_hal_sai.c:1758:25
	movs	r1, #128
	str	r1, [r0, #52]
	movs	r1, #64
	.loc	5 1760 29               @ ../Drivers/STM32F7xx_HAL_Driver/Src/stm32f7xx_hal_sai.c:1760:29
	str	r1, [r0, #88]
	.loc	5 1759 38               @ ../Drivers/STM32F7xx_HAL_Driver/Src/stm32f7xx_hal_sai.c:1759:38
	lsls	r1, r3, #4
	b	.LBB0_30
.Ltmp24:
.LBB0_16:
	@DEBUG_VALUE: HAL_SAI_InitProtocol:nbslot <- $r3
	@DEBUG_VALUE: HAL_SAI_InitProtocol:datasize <- $r2
	@DEBUG_VALUE: HAL_SAI_InitProtocol:hsai <- $r0
	@DEBUG_VALUE: HAL_SAI_InitProtocol:status <- 1
	.loc	5 310 3                 @ ../Drivers/STM32F7xx_HAL_Driver/Src/stm32f7xx_hal_sai.c:310:3
	movs	r0, #1
	pop	{r4, pc}
.Ltmp25:
.LBB0_17:
	@DEBUG_VALUE: HAL_SAI_InitProtocol:nbslot <- $r3
	@DEBUG_VALUE: HAL_SAI_InitProtocol:datasize <- $r2
	@DEBUG_VALUE: HAL_SAI_InitProtocol:protocol <- $r1
	@DEBUG_VALUE: HAL_SAI_InitProtocol:hsai <- $r0
	.loc	5 1680 45               @ ../Drivers/STM32F7xx_HAL_Driver/Src/stm32f7xx_hal_sai.c:1680:45
	lsrs	r3, r3, #1
.Ltmp26:
	.loc	5 0 45 is_stmt 0        @ ../Drivers/STM32F7xx_HAL_Driver/Src/stm32f7xx_hal_sai.c:0:45
	mov.w	r12, #128
	.loc	5 1680 37               @ ../Drivers/STM32F7xx_HAL_Driver/Src/stm32f7xx_hal_sai.c:1680:37
	lsls	r4, r3, #6
	.loc	5 1679 25 is_stmt 1     @ ../Drivers/STM32F7xx_HAL_Driver/Src/stm32f7xx_hal_sai.c:1679:25
	str.w	r12, [r0, #52]
	b	.LBB0_21
.Ltmp27:
.LBB0_18:
	@DEBUG_VALUE: HAL_SAI_InitProtocol:nbslot <- $r3
	@DEBUG_VALUE: HAL_SAI_InitProtocol:datasize <- $r2
	@DEBUG_VALUE: HAL_SAI_InitProtocol:protocol <- $r1
	@DEBUG_VALUE: HAL_SAI_InitProtocol:hsai <- $r0
	.loc	5 1685 25               @ ../Drivers/STM32F7xx_HAL_Driver/Src/stm32f7xx_hal_sai.c:1685:25
	movs	r4, #192
	b	.LBB0_20
.Ltmp28:
.LBB0_19:
	@DEBUG_VALUE: HAL_SAI_InitProtocol:nbslot <- $r3
	@DEBUG_VALUE: HAL_SAI_InitProtocol:datasize <- $r2
	@DEBUG_VALUE: HAL_SAI_InitProtocol:protocol <- $r1
	@DEBUG_VALUE: HAL_SAI_InitProtocol:hsai <- $r0
	.loc	5 1691 25               @ ../Drivers/STM32F7xx_HAL_Driver/Src/stm32f7xx_hal_sai.c:1691:25
	movs	r4, #224
.Ltmp29:
.LBB0_20:
	@DEBUG_VALUE: HAL_SAI_InitProtocol:nbslot <- $r3
	@DEBUG_VALUE: HAL_SAI_InitProtocol:datasize <- $r2
	@DEBUG_VALUE: HAL_SAI_InitProtocol:protocol <- $r1
	@DEBUG_VALUE: HAL_SAI_InitProtocol:hsai <- $r0
	.loc	5 0 25 is_stmt 0        @ ../Drivers/STM32F7xx_HAL_Driver/Src/stm32f7xx_hal_sai.c:0:25
	lsrs	r3, r3, #1
.Ltmp30:
	str	r4, [r0, #52]
	mov.w	r12, #128
	lsls	r4, r3, #6
.Ltmp31:
.LBB0_21:
	@DEBUG_VALUE: HAL_SAI_InitProtocol:datasize <- $r2
	@DEBUG_VALUE: HAL_SAI_InitProtocol:protocol <- $r1
	@DEBUG_VALUE: HAL_SAI_InitProtocol:hsai <- $r0
	lsls	r3, r3, #5
.Ltmp32:
.LBB0_22:
	@DEBUG_VALUE: HAL_SAI_InitProtocol:datasize <- $r2
	@DEBUG_VALUE: HAL_SAI_InitProtocol:protocol <- $r1
	@DEBUG_VALUE: HAL_SAI_InitProtocol:hsai <- $r0
	str	r4, [r0, #64]
	.loc	5 1699 6 is_stmt 1      @ ../Drivers/STM32F7xx_HAL_Driver/Src/stm32f7xx_hal_sai.c:1699:6
	cmp	r1, #2
	str.w	r12, [r0, #88]
	str	r3, [r0, #68]
	bne	.LBB0_31
.Ltmp33:
@ %bb.23:
	@DEBUG_VALUE: HAL_SAI_InitProtocol:datasize <- $r2
	@DEBUG_VALUE: HAL_SAI_InitProtocol:protocol <- $r1
	@DEBUG_VALUE: HAL_SAI_InitProtocol:hsai <- $r0
	.loc	5 1701 9                @ ../Drivers/STM32F7xx_HAL_Driver/Src/stm32f7xx_hal_sai.c:1701:9
	cmp	r2, #2
	beq	.LBB0_32
.Ltmp34:
@ %bb.24:
	@DEBUG_VALUE: HAL_SAI_InitProtocol:datasize <- $r2
	@DEBUG_VALUE: HAL_SAI_InitProtocol:protocol <- $r1
	@DEBUG_VALUE: HAL_SAI_InitProtocol:hsai <- $r0
	cmp	r2, #1
.Ltmp35:
	.loc	5 1703 37               @ ../Drivers/STM32F7xx_HAL_Driver/Src/stm32f7xx_hal_sai.c:1703:37
	itt	eq
	moveq	r1, #16
.Ltmp36:
	streq	r1, [r0, #84]
	b	.LBB0_31
.Ltmp37:
.LBB0_25:
	@DEBUG_VALUE: HAL_SAI_InitProtocol:nbslot <- $r3
	@DEBUG_VALUE: HAL_SAI_InitProtocol:datasize <- $r2
	@DEBUG_VALUE: HAL_SAI_InitProtocol:hsai <- $r0
	.loc	5 1763 25               @ ../Drivers/STM32F7xx_HAL_Driver/Src/stm32f7xx_hal_sai.c:1763:25
	movs	r1, #128
	str	r1, [r0, #52]
	b	.LBB0_29
.Ltmp38:
.LBB0_26:
	@DEBUG_VALUE: HAL_SAI_InitProtocol:nbslot <- $r3
	@DEBUG_VALUE: HAL_SAI_InitProtocol:datasize <- $r2
	@DEBUG_VALUE: HAL_SAI_InitProtocol:hsai <- $r0
	.loc	5 1768 25               @ ../Drivers/STM32F7xx_HAL_Driver/Src/stm32f7xx_hal_sai.c:1768:25
	movs	r1, #192
	b	.LBB0_28
.Ltmp39:
.LBB0_27:
	@DEBUG_VALUE: HAL_SAI_InitProtocol:nbslot <- $r3
	@DEBUG_VALUE: HAL_SAI_InitProtocol:datasize <- $r2
	@DEBUG_VALUE: HAL_SAI_InitProtocol:hsai <- $r0
	.loc	5 1773 25               @ ../Drivers/STM32F7xx_HAL_Driver/Src/stm32f7xx_hal_sai.c:1773:25
	movs	r1, #224
.Ltmp40:
.LBB0_28:
	@DEBUG_VALUE: HAL_SAI_InitProtocol:nbslot <- $r3
	@DEBUG_VALUE: HAL_SAI_InitProtocol:datasize <- $r2
	@DEBUG_VALUE: HAL_SAI_InitProtocol:hsai <- $r0
	.loc	5 0 25 is_stmt 0        @ ../Drivers/STM32F7xx_HAL_Driver/Src/stm32f7xx_hal_sai.c:0:25
	str	r1, [r0, #52]
	movs	r1, #128
.Ltmp41:
.LBB0_29:
	@DEBUG_VALUE: HAL_SAI_InitProtocol:nbslot <- $r3
	@DEBUG_VALUE: HAL_SAI_InitProtocol:datasize <- $r2
	@DEBUG_VALUE: HAL_SAI_InitProtocol:hsai <- $r0
	str	r1, [r0, #88]
	lsls	r1, r3, #5
.Ltmp42:
.LBB0_30:
	@DEBUG_VALUE: HAL_SAI_InitProtocol:nbslot <- $r3
	@DEBUG_VALUE: HAL_SAI_InitProtocol:datasize <- $r2
	@DEBUG_VALUE: HAL_SAI_InitProtocol:hsai <- $r0
	str	r1, [r0, #64]
.Ltmp43:
.LBB0_31:
	@DEBUG_VALUE: HAL_SAI_InitProtocol:datasize <- $r2
	@DEBUG_VALUE: HAL_SAI_InitProtocol:hsai <- $r0
	.loc	5 307 14 is_stmt 1      @ ../Drivers/STM32F7xx_HAL_Driver/Src/stm32f7xx_hal_sai.c:307:14
	pop.w	{r4, lr}
	b	HAL_SAI_Init
.Ltmp44:
.LBB0_32:
	@DEBUG_VALUE: HAL_SAI_InitProtocol:datasize <- $r2
	@DEBUG_VALUE: HAL_SAI_InitProtocol:protocol <- $r1
	@DEBUG_VALUE: HAL_SAI_InitProtocol:hsai <- $r0
	.loc	5 1707 37               @ ../Drivers/STM32F7xx_HAL_Driver/Src/stm32f7xx_hal_sai.c:1707:37
	movs	r1, #8
.Ltmp45:
	str	r1, [r0, #84]
	b	.LBB0_31
.Ltmp46:
	.p2align	2
@ %bb.33:
	.loc	5 0 37 is_stmt 0        @ ../Drivers/STM32F7xx_HAL_Driver/Src/stm32f7xx_hal_sai.c:0:37
.LCPI0_0:
.Lswitch.table.HAL_SAI_InitProtocol.1:
	.long	262144                  @ 0x40000
	.long	0                       @ 0x0
	.long	0                       @ 0x0
.LCPI0_1:
.Lswitch.table.HAL_SAI_InitProtocol:
	.long	0                       @ 0x0
	.long	131072                  @ 0x20000
	.long	131072                  @ 0x20000
.Lfunc_end0:
	.size	HAL_SAI_InitProtocol, .Lfunc_end0-HAL_SAI_InitProtocol
	.cfi_endproc
	.cantunwind
	.fnend
                                        @ -- End function
	.section	.text.HAL_SAI_Init,"ax",%progbits
	.hidden	HAL_SAI_Init            @ -- Begin function HAL_SAI_Init
	.globl	HAL_SAI_Init
	.p2align	2
	.type	HAL_SAI_Init,%function
	.code	16                      @ @HAL_SAI_Init
	.thumb_func
HAL_SAI_Init:
.Lfunc_begin1:
	.loc	5 321 0 is_stmt 1       @ ../Drivers/STM32F7xx_HAL_Driver/Src/stm32f7xx_hal_sai.c:321:0
	.fnstart
	.cfi_startproc
@ %bb.0:
	.save	{r4, r5, r6, lr}
	push	{r4, r5, r6, lr}
	.cfi_def_cfa_offset 16
	.cfi_offset lr, -4
	.cfi_offset r6, -8
	.cfi_offset r5, -12
	.cfi_offset r4, -16
	@DEBUG_VALUE: HAL_SAI_Init:hsai <- $r0
	mov	r4, r0
.Ltmp47:
	@DEBUG_VALUE: HAL_SAI_Init:syncen_bits <- 0
	@DEBUG_VALUE: HAL_SAI_Init:ckstr_bits <- 0
	@DEBUG_VALUE: HAL_SAI_Init:tmpregisterGCR <- 0
	@DEBUG_VALUE: HAL_SAI_Init:hsai <- $r4
	.loc	5 327 6 prologue_end    @ ../Drivers/STM32F7xx_HAL_Driver/Src/stm32f7xx_hal_sai.c:327:6
	cbz	r0, .LBB1_6
.Ltmp48:
@ %bb.1:
	@DEBUG_VALUE: HAL_SAI_Init:hsai <- $r4
	.loc	5 364 12                @ ../Drivers/STM32F7xx_HAL_Driver/Src/stm32f7xx_hal_sai.c:364:12
	ldrb.w	r0, [r4, #125]
.Ltmp49:
	.loc	5 364 6 is_stmt 0       @ ../Drivers/STM32F7xx_HAL_Driver/Src/stm32f7xx_hal_sai.c:364:6
	cbnz	r0, .LBB1_3
.Ltmp50:
@ %bb.2:
	@DEBUG_VALUE: HAL_SAI_Init:hsai <- $r4
	.loc	5 367 16 is_stmt 1      @ ../Drivers/STM32F7xx_HAL_Driver/Src/stm32f7xx_hal_sai.c:367:16
	movs	r0, #0
	strb.w	r0, [r4, #124]
	.loc	5 370 5                 @ ../Drivers/STM32F7xx_HAL_Driver/Src/stm32f7xx_hal_sai.c:370:5
	mov	r0, r4
	bl	HAL_SAI_MspInit
.Ltmp51:
.LBB1_3:
	@DEBUG_VALUE: HAL_SAI_Init:hsai <- $r4
	.loc	5 0 5 is_stmt 0         @ ../Drivers/STM32F7xx_HAL_Driver/Src/stm32f7xx_hal_sai.c:0:5
	movs	r0, #2
	.loc	5 373 15 is_stmt 1      @ ../Drivers/STM32F7xx_HAL_Driver/Src/stm32f7xx_hal_sai.c:373:15
	strb.w	r0, [r4, #125]
	.loc	5 376 3                 @ ../Drivers/STM32F7xx_HAL_Driver/Src/stm32f7xx_hal_sai.c:376:3
	mov	r0, r4
	bl	SAI_Disable
	.loc	5 395 21                @ ../Drivers/STM32F7xx_HAL_Driver/Src/stm32f7xx_hal_sai.c:395:21
	ldrd	r1, r2, [r4, #8]
	.loc	5 380 21                @ ../Drivers/STM32F7xx_HAL_Driver/Src/stm32f7xx_hal_sai.c:380:21
	subs	r0, r2, #1
	.loc	5 380 3 is_stmt 0       @ ../Drivers/STM32F7xx_HAL_Driver/Src/stm32f7xx_hal_sai.c:380:3
	cmp	r2, #2
	.loc	5 380 21                @ ../Drivers/STM32F7xx_HAL_Driver/Src/stm32f7xx_hal_sai.c:380:21
	clz	r0, r0
	lsr.w	r0, r0, #5
	.loc	5 380 3                 @ ../Drivers/STM32F7xx_HAL_Driver/Src/stm32f7xx_hal_sai.c:380:3
	lsl.w	r0, r0, #4
	it	eq
	moveq	r0, #32
.Ltmp52:
	@DEBUG_VALUE: HAL_SAI_Init:tmpregisterGCR <- $r0
	.loc	5 395 3 is_stmt 1       @ ../Drivers/STM32F7xx_HAL_Driver/Src/stm32f7xx_hal_sai.c:395:3
	cmp	r1, #3
	beq	.LBB1_7
.Ltmp53:
@ %bb.4:
	@DEBUG_VALUE: HAL_SAI_Init:tmpregisterGCR <- $r0
	@DEBUG_VALUE: HAL_SAI_Init:hsai <- $r4
	cmp	r1, #2
	beq	.LBB1_8
.Ltmp54:
@ %bb.5:
	@DEBUG_VALUE: HAL_SAI_Init:tmpregisterGCR <- $r0
	@DEBUG_VALUE: HAL_SAI_Init:hsai <- $r4
	cmp	r1, #1
	ite	eq
	moveq.w	r5, #1024
.Ltmp55:
	@DEBUG_VALUE: HAL_SAI_Init:syncen_bits <- 1024
	.loc	5 0 3 is_stmt 0         @ ../Drivers/STM32F7xx_HAL_Driver/Src/stm32f7xx_hal_sai.c:0:3
	movne	r5, #0
	b	.LBB1_9
.Ltmp56:
.LBB1_6:
	@DEBUG_VALUE: HAL_SAI_Init:hsai <- $r4
	movs	r0, #1
	.loc	5 514 1 is_stmt 1       @ ../Drivers/STM32F7xx_HAL_Driver/Src/stm32f7xx_hal_sai.c:514:1
	pop	{r4, r5, r6, pc}
.Ltmp57:
.LBB1_7:
	@DEBUG_VALUE: HAL_SAI_Init:tmpregisterGCR <- $r0
	@DEBUG_VALUE: HAL_SAI_Init:hsai <- $r4
	@DEBUG_VALUE: HAL_SAI_Init:syncen_bits <- 2048
	.loc	5 415 24                @ ../Drivers/STM32F7xx_HAL_Driver/Src/stm32f7xx_hal_sai.c:415:24
	orr	r0, r0, #1
.Ltmp58:
.LBB1_8:
	@DEBUG_VALUE: HAL_SAI_Init:hsai <- $r4
	@DEBUG_VALUE: HAL_SAI_Init:tmpregisterGCR <- $r0
	.loc	5 0 24 is_stmt 0        @ ../Drivers/STM32F7xx_HAL_Driver/Src/stm32f7xx_hal_sai.c:0:24
	mov.w	r5, #2048
.Ltmp59:
.LBB1_9:
	@DEBUG_VALUE: HAL_SAI_Init:tmpregisterGCR <- $r0
	@DEBUG_VALUE: HAL_SAI_Init:hsai <- $r4
	.loc	5 422 13 is_stmt 1      @ ../Drivers/STM32F7xx_HAL_Driver/Src/stm32f7xx_hal_sai.c:422:13
	ldr	r1, [r4]
	.loc	5 422 39 is_stmt 0      @ ../Drivers/STM32F7xx_HAL_Driver/Src/stm32f7xx_hal_sai.c:422:39
	ldr	r3, __arm_cp.1_0
	ldr	r6, __arm_cp.1_1
	orr	r2, r1, #32
	cmp	r2, r3
.Ltmp60:
	.loc	5 428 15 is_stmt 1      @ ../Drivers/STM32F7xx_HAL_Driver/Src/stm32f7xx_hal_sai.c:428:15
	ite	ne
	strne.w	r0, [r6, #1024]
.Ltmp61:
	.loc	5 424 15                @ ../Drivers/STM32F7xx_HAL_Driver/Src/stm32f7xx_hal_sai.c:424:15
	streq	r0, [r6]
.Ltmp62:
	.loc	5 431 17                @ ../Drivers/STM32F7xx_HAL_Driver/Src/stm32f7xx_hal_sai.c:431:17
	ldr	r0, [r4, #28]
.Ltmp63:
	.loc	5 431 6 is_stmt 0       @ ../Drivers/STM32F7xx_HAL_Driver/Src/stm32f7xx_hal_sai.c:431:6
	cbz	r0, .LBB1_14
.Ltmp64:
@ %bb.10:
	@DEBUG_VALUE: HAL_SAI_Init:hsai <- $r4
	.loc	5 436 42 is_stmt 1      @ ../Drivers/STM32F7xx_HAL_Driver/Src/stm32f7xx_hal_sai.c:436:42
	cmp	r2, r3
.Ltmp65:
	@DEBUG_VALUE: freq <- 0
	bne	.LBB1_12
.Ltmp66:
@ %bb.11:
	@DEBUG_VALUE: HAL_SAI_Init:hsai <- $r4
	.loc	5 438 14                @ ../Drivers/STM32F7xx_HAL_Driver/Src/stm32f7xx_hal_sai.c:438:14
	mov.w	r0, #524288
	bl	HAL_RCCEx_GetPeriphCLKFreq
.Ltmp67:
	@DEBUG_VALUE: freq <- $r0
	.loc	5 440 15                @ ../Drivers/STM32F7xx_HAL_Driver/Src/stm32f7xx_hal_sai.c:440:15
	ldr	r1, [r4]
	b	.LBB1_13
.Ltmp68:
.LBB1_12:
	@DEBUG_VALUE: HAL_SAI_Init:hsai <- $r4
	.loc	5 0 15 is_stmt 0        @ ../Drivers/STM32F7xx_HAL_Driver/Src/stm32f7xx_hal_sai.c:0:15
	movs	r0, #0
.Ltmp69:
.LBB1_13:
	@DEBUG_VALUE: HAL_SAI_Init:hsai <- $r4
	.loc	5 440 42                @ ../Drivers/STM32F7xx_HAL_Driver/Src/stm32f7xx_hal_sai.c:440:42
	ldr	r2, __arm_cp.1_2
	orr	r1, r1, #32
	cmp	r1, r2
.Ltmp70:
	.loc	5 442 14 is_stmt 1      @ ../Drivers/STM32F7xx_HAL_Driver/Src/stm32f7xx_hal_sai.c:442:14
	itt	eq
	moveq.w	r0, #1048576
	bleq	HAL_RCCEx_GetPeriphCLKFreq
.Ltmp71:
	@DEBUG_VALUE: freq <- $r0
	.loc	5 450 40                @ ../Drivers/STM32F7xx_HAL_Driver/Src/stm32f7xx_hal_sai.c:450:40
	ldr	r1, [r4, #28]
	.loc	5 450 20 is_stmt 0      @ ../Drivers/STM32F7xx_HAL_Driver/Src/stm32f7xx_hal_sai.c:450:20
	add.w	r0, r0, r0, lsl #2
.Ltmp72:
	lsls	r0, r0, #1
	.loc	5 450 59                @ ../Drivers/STM32F7xx_HAL_Driver/Src/stm32f7xx_hal_sai.c:450:59
	lsls	r1, r1, #9
	.loc	5 450 26                @ ../Drivers/STM32F7xx_HAL_Driver/Src/stm32f7xx_hal_sai.c:450:26
	udiv	r0, r0, r1
.Ltmp73:
	@DEBUG_VALUE: tmpval <- $r0
	.loc	5 450 20                @ ../Drivers/STM32F7xx_HAL_Driver/Src/stm32f7xx_hal_sai.c:450:20
	movs	r1, #10
	.loc	5 451 32 is_stmt 1      @ ../Drivers/STM32F7xx_HAL_Driver/Src/stm32f7xx_hal_sai.c:451:32
	udiv	r1, r0, r1
	add.w	r2, r1, r1, lsl #2
	sub.w	r0, r0, r2, lsl #1
.Ltmp74:
	.loc	5 454 8                 @ ../Drivers/STM32F7xx_HAL_Driver/Src/stm32f7xx_hal_sai.c:454:8
	cmp	r0, #8
	it	hi
	addhi	r1, #1
	str	r1, [r4, #32]
.Ltmp75:
.LBB1_14:
	@DEBUG_VALUE: HAL_SAI_Init:hsai <- $r4
	.loc	5 461 18                @ ../Drivers/STM32F7xx_HAL_Driver/Src/stm32f7xx_hal_sai.c:461:18
	ldr	r1, [r4, #4]
	.loc	5 461 50 is_stmt 0      @ ../Drivers/STM32F7xx_HAL_Driver/Src/stm32f7xx_hal_sai.c:461:50
	orr	r0, r1, #2
	cmp	r0, #2
	bne	.LBB1_16
.Ltmp76:
@ %bb.15:
	@DEBUG_VALUE: HAL_SAI_Init:hsai <- $r4
	.loc	5 463 30 is_stmt 1      @ ../Drivers/STM32F7xx_HAL_Driver/Src/stm32f7xx_hal_sai.c:463:30
	ldr	r0, [r4, #60]
	.loc	5 463 18 is_stmt 0      @ ../Drivers/STM32F7xx_HAL_Driver/Src/stm32f7xx_hal_sai.c:463:18
	mov.w	r2, #512
	cmp	r0, #1
	it	eq
	moveq	r2, #0
.Ltmp77:
	@DEBUG_VALUE: HAL_SAI_Init:ckstr_bits <- $r2
	.loc	5 0 18                  @ ../Drivers/STM32F7xx_HAL_Driver/Src/stm32f7xx_hal_sai.c:0:18
	b	.LBB1_17
.Ltmp78:
.LBB1_16:
	@DEBUG_VALUE: HAL_SAI_Init:hsai <- $r4
	.loc	5 467 30 is_stmt 1      @ ../Drivers/STM32F7xx_HAL_Driver/Src/stm32f7xx_hal_sai.c:467:30
	ldr	r0, [r4, #60]
	subs	r0, #1
	clz	r0, r0
	lsrs	r0, r0, #5
	.loc	5 467 18 is_stmt 0      @ ../Drivers/STM32F7xx_HAL_Driver/Src/stm32f7xx_hal_sai.c:467:18
	lsls	r2, r0, #9
.Ltmp79:
	@DEBUG_VALUE: HAL_SAI_Init:ckstr_bits <- $r2
.LBB1_17:
	@DEBUG_VALUE: HAL_SAI_Init:ckstr_bits <- $r2
	@DEBUG_VALUE: HAL_SAI_Init:hsai <- $r4
	@DEBUG_VALUE: HAL_SAI_Init:ckstr_bits <- $r2
	@DEBUG_VALUE: HAL_SAI_Init:syncen_bits <- $r5
	.loc	5 472 9 is_stmt 1       @ ../Drivers/STM32F7xx_HAL_Driver/Src/stm32f7xx_hal_sai.c:472:9
	ldr	r0, [r4]
	.loc	5 472 22 is_stmt 0      @ ../Drivers/STM32F7xx_HAL_Driver/Src/stm32f7xx_hal_sai.c:472:22
	ldr	r6, __arm_cp.1_3
	.loc	5 477 46 is_stmt 1      @ ../Drivers/STM32F7xx_HAL_Driver/Src/stm32f7xx_hal_sai.c:477:46
	orrs	r1, r5
	.loc	5 494 68                @ ../Drivers/STM32F7xx_HAL_Driver/Src/stm32f7xx_hal_sai.c:494:68
	mvn	r12, #255
	.loc	5 477 68                @ ../Drivers/STM32F7xx_HAL_Driver/Src/stm32f7xx_hal_sai.c:477:68
	orrs	r1, r2
	.loc	5 472 22                @ ../Drivers/STM32F7xx_HAL_Driver/Src/stm32f7xx_hal_sai.c:472:22
	ldr	r3, [r0]
	ands	r3, r6
	str	r3, [r0]
	.loc	5 477 59                @ ../Drivers/STM32F7xx_HAL_Driver/Src/stm32f7xx_hal_sai.c:477:59
	ldr	r2, [r4, #48]
.Ltmp80:
	.loc	5 478 45                @ ../Drivers/STM32F7xx_HAL_Driver/Src/stm32f7xx_hal_sai.c:478:45
	orrs	r1, r2
	.loc	5 478 36 is_stmt 0      @ ../Drivers/STM32F7xx_HAL_Driver/Src/stm32f7xx_hal_sai.c:478:36
	ldr	r2, [r4, #52]
	.loc	5 478 68                @ ../Drivers/STM32F7xx_HAL_Driver/Src/stm32f7xx_hal_sai.c:478:68
	orrs	r1, r2
	.loc	5 478 58                @ ../Drivers/STM32F7xx_HAL_Driver/Src/stm32f7xx_hal_sai.c:478:58
	ldr	r2, [r4, #56]
	.loc	5 479 36 is_stmt 1      @ ../Drivers/STM32F7xx_HAL_Driver/Src/stm32f7xx_hal_sai.c:479:36
	orrs	r1, r2
	.loc	5 480 64                @ ../Drivers/STM32F7xx_HAL_Driver/Src/stm32f7xx_hal_sai.c:480:64
	ldrd	r2, r3, [r4, #16]
	.loc	5 481 60                @ ../Drivers/STM32F7xx_HAL_Driver/Src/stm32f7xx_hal_sai.c:481:60
	ldrd	r6, r5, [r4, #32]
.Ltmp81:
	.loc	5 479 50                @ ../Drivers/STM32F7xx_HAL_Driver/Src/stm32f7xx_hal_sai.c:479:50
	orrs	r1, r5
	.loc	5 480 51                @ ../Drivers/STM32F7xx_HAL_Driver/Src/stm32f7xx_hal_sai.c:480:51
	orrs	r1, r2
	.loc	5 477 22                @ ../Drivers/STM32F7xx_HAL_Driver/Src/stm32f7xx_hal_sai.c:477:22
	ldr	r2, [r0]
	.loc	5 480 76                @ ../Drivers/STM32F7xx_HAL_Driver/Src/stm32f7xx_hal_sai.c:480:76
	orrs	r1, r3
	.loc	5 481 46                @ ../Drivers/STM32F7xx_HAL_Driver/Src/stm32f7xx_hal_sai.c:481:46
	orr.w	r1, r1, r6, lsl #20
	.loc	5 490 43                @ ../Drivers/STM32F7xx_HAL_Driver/Src/stm32f7xx_hal_sai.c:490:43
	add.w	r6, r4, #64
	.loc	5 477 22                @ ../Drivers/STM32F7xx_HAL_Driver/Src/stm32f7xx_hal_sai.c:477:22
	orrs	r1, r2
	.loc	5 484 22                @ ../Drivers/STM32F7xx_HAL_Driver/Src/stm32f7xx_hal_sai.c:484:22
	movw	r2, #57359
	.loc	5 477 22                @ ../Drivers/STM32F7xx_HAL_Driver/Src/stm32f7xx_hal_sai.c:477:22
	str	r1, [r0]
	.loc	5 484 22                @ ../Drivers/STM32F7xx_HAL_Driver/Src/stm32f7xx_hal_sai.c:484:22
	ldr	r1, [r0, #4]
	bics	r1, r2
	str	r1, [r0, #4]
	.loc	5 485 38                @ ../Drivers/STM32F7xx_HAL_Driver/Src/stm32f7xx_hal_sai.c:485:38
	ldr	r1, [r4, #24]
	.loc	5 485 65 is_stmt 0      @ ../Drivers/STM32F7xx_HAL_Driver/Src/stm32f7xx_hal_sai.c:485:65
	ldrd	r2, r3, [r4, #40]
	.loc	5 485 52                @ ../Drivers/STM32F7xx_HAL_Driver/Src/stm32f7xx_hal_sai.c:485:52
	orrs	r1, r2
	.loc	5 485 22                @ ../Drivers/STM32F7xx_HAL_Driver/Src/stm32f7xx_hal_sai.c:485:22
	ldr	r2, [r0, #4]
	.loc	5 485 80                @ ../Drivers/STM32F7xx_HAL_Driver/Src/stm32f7xx_hal_sai.c:485:80
	orrs	r1, r3
	.loc	5 485 22                @ ../Drivers/STM32F7xx_HAL_Driver/Src/stm32f7xx_hal_sai.c:485:22
	orrs	r1, r2
	.loc	5 488 23 is_stmt 1      @ ../Drivers/STM32F7xx_HAL_Driver/Src/stm32f7xx_hal_sai.c:488:23
	ldr	r2, __arm_cp.1_4
	.loc	5 485 22                @ ../Drivers/STM32F7xx_HAL_Driver/Src/stm32f7xx_hal_sai.c:485:22
	str	r1, [r0, #4]
	.loc	5 488 23                @ ../Drivers/STM32F7xx_HAL_Driver/Src/stm32f7xx_hal_sai.c:488:23
	ldr	r1, [r0, #8]
	ands	r1, r2
	str	r1, [r0, #8]
	.loc	5 490 43                @ ../Drivers/STM32F7xx_HAL_Driver/Src/stm32f7xx_hal_sai.c:490:43
	ldm	r6, {r1, r2, r3, r6}
	.loc	5 491 43                @ ../Drivers/STM32F7xx_HAL_Driver/Src/stm32f7xx_hal_sai.c:491:43
	ldr	r5, [r4, #80]
	.loc	5 490 55                @ ../Drivers/STM32F7xx_HAL_Driver/Src/stm32f7xx_hal_sai.c:490:55
	subs	r1, #1
	.loc	5 494 68                @ ../Drivers/STM32F7xx_HAL_Driver/Src/stm32f7xx_hal_sai.c:494:68
	add.w	r2, r12, r2, lsl #8
	.loc	5 490 60                @ ../Drivers/STM32F7xx_HAL_Driver/Src/stm32f7xx_hal_sai.c:490:60
	orrs	r1, r5
	.loc	5 491 52                @ ../Drivers/STM32F7xx_HAL_Driver/Src/stm32f7xx_hal_sai.c:491:52
	orrs	r1, r3
	.loc	5 490 23                @ ../Drivers/STM32F7xx_HAL_Driver/Src/stm32f7xx_hal_sai.c:490:23
	ldr	r3, [r0, #8]
	.loc	5 492 56                @ ../Drivers/STM32F7xx_HAL_Driver/Src/stm32f7xx_hal_sai.c:492:56
	orrs	r1, r6
	.loc	5 501 43                @ ../Drivers/STM32F7xx_HAL_Driver/Src/stm32f7xx_hal_sai.c:501:43
	add.w	r6, r4, #84
	.loc	5 493 56                @ ../Drivers/STM32F7xx_HAL_Driver/Src/stm32f7xx_hal_sai.c:493:56
	orrs	r1, r3
	.loc	5 490 23                @ ../Drivers/STM32F7xx_HAL_Driver/Src/stm32f7xx_hal_sai.c:490:23
	orrs	r1, r2
	.loc	5 498 24                @ ../Drivers/STM32F7xx_HAL_Driver/Src/stm32f7xx_hal_sai.c:498:24
	movw	r2, #61472
	.loc	5 490 23                @ ../Drivers/STM32F7xx_HAL_Driver/Src/stm32f7xx_hal_sai.c:490:23
	str	r1, [r0, #8]
	.loc	5 498 24                @ ../Drivers/STM32F7xx_HAL_Driver/Src/stm32f7xx_hal_sai.c:498:24
	ldr	r1, [r0, #12]
	ands	r1, r2
	str	r1, [r0, #12]
	.loc	5 501 43                @ ../Drivers/STM32F7xx_HAL_Driver/Src/stm32f7xx_hal_sai.c:501:43
	ldm	r6, {r1, r2, r3, r6}
	.loc	5 501 58 is_stmt 0      @ ../Drivers/STM32F7xx_HAL_Driver/Src/stm32f7xx_hal_sai.c:501:58
	orrs	r1, r2
	.loc	5 501 24                @ ../Drivers/STM32F7xx_HAL_Driver/Src/stm32f7xx_hal_sai.c:501:24
	ldr	r2, [r0, #12]
	.loc	5 502 98 is_stmt 1      @ ../Drivers/STM32F7xx_HAL_Driver/Src/stm32f7xx_hal_sai.c:502:98
	add.w	r3, r12, r3, lsl #8
	.loc	5 502 27 is_stmt 0      @ ../Drivers/STM32F7xx_HAL_Driver/Src/stm32f7xx_hal_sai.c:502:27
	orr.w	r1, r1, r6, lsl #16
	.loc	5 502 63                @ ../Drivers/STM32F7xx_HAL_Driver/Src/stm32f7xx_hal_sai.c:502:63
	orrs	r1, r2
	.loc	5 501 24 is_stmt 1      @ ../Drivers/STM32F7xx_HAL_Driver/Src/stm32f7xx_hal_sai.c:501:24
	orrs	r1, r3
	str	r1, [r0, #12]
	movs	r0, #0
	.loc	5 508 14                @ ../Drivers/STM32F7xx_HAL_Driver/Src/stm32f7xx_hal_sai.c:508:14
	movs	r1, #1
	.loc	5 505 19                @ ../Drivers/STM32F7xx_HAL_Driver/Src/stm32f7xx_hal_sai.c:505:19
	str.w	r0, [r4, #128]
.Ltmp82:
	.loc	5 511 3                 @ ../Drivers/STM32F7xx_HAL_Driver/Src/stm32f7xx_hal_sai.c:511:3
	strb.w	r0, [r4, #124]
.Ltmp83:
	.loc	5 508 14                @ ../Drivers/STM32F7xx_HAL_Driver/Src/stm32f7xx_hal_sai.c:508:14
	strb.w	r1, [r4, #125]
	.loc	5 514 1                 @ ../Drivers/STM32F7xx_HAL_Driver/Src/stm32f7xx_hal_sai.c:514:1
	pop	{r4, r5, r6, pc}
.Ltmp84:
	.p2align	2
@ %bb.18:
	.loc	5 0 1 is_stmt 0         @ ../Drivers/STM32F7xx_HAL_Driver/Src/stm32f7xx_hal_sai.c:0:1
__arm_cp.1_0:
	.long	1073829924              @ 0x40015824
.Lcpi_end0:
	.size	__arm_cp.1_0, .Lcpi_end0-__arm_cp.1_0
__arm_cp.1_1:
	.long	1073829888              @ 0x40015800
.Lcpi_end1:
	.size	__arm_cp.1_1, .Lcpi_end1-__arm_cp.1_1
__arm_cp.1_2:
	.long	1073830948              @ 0x40015c24
.Lcpi_end2:
	.size	__arm_cp.1_2, .Lcpi_end2-__arm_cp.1_2
__arm_cp.1_3:
	.long	4278566928              @ 0xff05c010
.Lcpi_end3:
	.size	__arm_cp.1_3, .Lcpi_end3-__arm_cp.1_3
__arm_cp.1_4:
	.long	4294475776              @ 0xfff88000
.Lcpi_end4:
	.size	__arm_cp.1_4, .Lcpi_end4-__arm_cp.1_4
.Lfunc_end1:
	.size	HAL_SAI_Init, .Lfunc_end1-HAL_SAI_Init
	.cfi_endproc
	.cantunwind
	.fnend
                                        @ -- End function
	.section	.text.HAL_SAI_MspInit,"ax",%progbits
	.hidden	HAL_SAI_MspInit         @ -- Begin function HAL_SAI_MspInit
	.weak	HAL_SAI_MspInit
	.p2align	1
	.type	HAL_SAI_MspInit,%function
	.code	16                      @ @HAL_SAI_MspInit
	.thumb_func
HAL_SAI_MspInit:
.Lfunc_begin2:
	.loc	5 564 0 is_stmt 1       @ ../Drivers/STM32F7xx_HAL_Driver/Src/stm32f7xx_hal_sai.c:564:0
	.fnstart
	.cfi_startproc
@ %bb.0:
	@DEBUG_VALUE: HAL_SAI_MspInit:hsai <- $r0
	.loc	5 571 1 prologue_end    @ ../Drivers/STM32F7xx_HAL_Driver/Src/stm32f7xx_hal_sai.c:571:1
	bx	lr
.Ltmp85:
.Lfunc_end2:
	.size	HAL_SAI_MspInit, .Lfunc_end2-HAL_SAI_MspInit
	.cfi_endproc
	.cantunwind
	.fnend
                                        @ -- End function
	.section	.text.SAI_Disable,"ax",%progbits
	.p2align	2               @ -- Begin function SAI_Disable
	.type	SAI_Disable,%function
	.code	16                      @ @SAI_Disable
	.thumb_func
SAI_Disable:
.Lfunc_begin3:
	.loc	5 1854 0                @ ../Drivers/STM32F7xx_HAL_Driver/Src/stm32f7xx_hal_sai.c:1854:0
	.fnstart
	.cfi_startproc
@ %bb.0:
	@DEBUG_VALUE: SAI_Disable:hsai <- $r0
	@DEBUG_VALUE: SAI_Disable:hsai <- $r0
	.loc	5 1855 52 prologue_end  @ ../Drivers/STM32F7xx_HAL_Driver/Src/stm32f7xx_hal_sai.c:1855:52
	ldr	r1, __arm_cp.3_0
	ldr	r2, [r1]
.Ltmp86:
	@DEBUG_VALUE: SAI_Disable:status <- 0
	.loc	5 1859 3                @ ../Drivers/STM32F7xx_HAL_Driver/Src/stm32f7xx_hal_sai.c:1859:3
	ldr	r1, [r0]
	ldr	r3, [r1]
	bic	r3, r3, #65536
	str	r3, [r1]
	.loc	5 1855 70               @ ../Drivers/STM32F7xx_HAL_Driver/Src/stm32f7xx_hal_sai.c:1855:70
	movw	r3, #7000
	udiv	r2, r2, r3
	.loc	5 1861 3                @ ../Drivers/STM32F7xx_HAL_Driver/Src/stm32f7xx_hal_sai.c:1861:3
	mvn.w	r2, r2, lsl #2
	b	.LBB3_2
.LBB3_1:                                @   in Loop: Header=BB3_2 Depth=1
	@DEBUG_VALUE: SAI_Disable:hsai <- $r0
	.loc	5 1871 28               @ ../Drivers/STM32F7xx_HAL_Driver/Src/stm32f7xx_hal_sai.c:1871:28
	ldr	r3, [r1]
.Ltmp87:
	.loc	5 1871 3 is_stmt 0      @ ../Drivers/STM32F7xx_HAL_Driver/Src/stm32f7xx_hal_sai.c:1871:3
	tst.w	r3, #65536
	it	eq
	bxeq	lr
.LBB3_2:                                @ =>This Inner Loop Header: Depth=1
	@DEBUG_VALUE: SAI_Disable:hsai <- $r0
.Ltmp88:
	.loc	5 1864 17 is_stmt 1     @ ../Drivers/STM32F7xx_HAL_Driver/Src/stm32f7xx_hal_sai.c:1864:17
	adds	r2, #1
.Ltmp89:
	.loc	5 1864 9 is_stmt 0      @ ../Drivers/STM32F7xx_HAL_Driver/Src/stm32f7xx_hal_sai.c:1864:9
	bne	.LBB3_1
@ %bb.3:
	@DEBUG_VALUE: SAI_Disable:hsai <- $r0
.Ltmp90:
	.loc	5 1867 23 is_stmt 1     @ ../Drivers/STM32F7xx_HAL_Driver/Src/stm32f7xx_hal_sai.c:1867:23
	ldr.w	r1, [r0, #128]
	orr	r1, r1, #64
	str.w	r1, [r0, #128]
.Ltmp91:
	@DEBUG_VALUE: SAI_Disable:status <- 3
	.loc	5 0 23 is_stmt 0        @ ../Drivers/STM32F7xx_HAL_Driver/Src/stm32f7xx_hal_sai.c:0:23
	bx	lr
.Ltmp92:
	.p2align	2
@ %bb.4:
__arm_cp.3_0:
	.long	SystemCoreClock
.Lcpi_end5:
	.size	__arm_cp.3_0, .Lcpi_end5-__arm_cp.3_0
.Lfunc_end3:
	.size	SAI_Disable, .Lfunc_end3-SAI_Disable
	.cfi_endproc
	.cantunwind
	.fnend
                                        @ -- End function
	.section	.text.HAL_SAI_DeInit,"ax",%progbits
	.hidden	HAL_SAI_DeInit          @ -- Begin function HAL_SAI_DeInit
	.globl	HAL_SAI_DeInit
	.p2align	1
	.type	HAL_SAI_DeInit,%function
	.code	16                      @ @HAL_SAI_DeInit
	.thumb_func
HAL_SAI_DeInit:
.Lfunc_begin4:
	.loc	5 523 0 is_stmt 1       @ ../Drivers/STM32F7xx_HAL_Driver/Src/stm32f7xx_hal_sai.c:523:0
	.fnstart
	.cfi_startproc
@ %bb.0:
	.save	{r4, r5, r7, lr}
	push	{r4, r5, r7, lr}
	.cfi_def_cfa_offset 16
	.cfi_offset lr, -4
	.cfi_offset r7, -8
	.cfi_offset r5, -12
	.cfi_offset r4, -16
	@DEBUG_VALUE: HAL_SAI_DeInit:hsai <- $r0
	mov	r5, r0
.Ltmp93:
	@DEBUG_VALUE: HAL_SAI_DeInit:hsai <- $r5
	.loc	5 525 6 prologue_end    @ ../Drivers/STM32F7xx_HAL_Driver/Src/stm32f7xx_hal_sai.c:525:6
	cbz	r0, .LBB4_2
.Ltmp94:
@ %bb.1:
	@DEBUG_VALUE: HAL_SAI_DeInit:hsai <- $r5
	.loc	5 530 15                @ ../Drivers/STM32F7xx_HAL_Driver/Src/stm32f7xx_hal_sai.c:530:15
	movs	r0, #2
	movs	r4, #0
	.loc	5 534 25                @ ../Drivers/STM32F7xx_HAL_Driver/Src/stm32f7xx_hal_sai.c:534:25
	mov.w	r1, #-1
	.loc	5 530 15                @ ../Drivers/STM32F7xx_HAL_Driver/Src/stm32f7xx_hal_sai.c:530:15
	strb.w	r0, [r5, #125]
	.loc	5 533 9                 @ ../Drivers/STM32F7xx_HAL_Driver/Src/stm32f7xx_hal_sai.c:533:9
	ldr	r0, [r5]
	.loc	5 533 23 is_stmt 0      @ ../Drivers/STM32F7xx_HAL_Driver/Src/stm32f7xx_hal_sai.c:533:23
	str	r4, [r0, #16]
	.loc	5 534 25 is_stmt 1      @ ../Drivers/STM32F7xx_HAL_Driver/Src/stm32f7xx_hal_sai.c:534:25
	str	r1, [r0, #24]
	.loc	5 537 3                 @ ../Drivers/STM32F7xx_HAL_Driver/Src/stm32f7xx_hal_sai.c:537:3
	mov	r0, r5
	bl	SAI_Disable
	.loc	5 540 3                 @ ../Drivers/STM32F7xx_HAL_Driver/Src/stm32f7xx_hal_sai.c:540:3
	ldr	r0, [r5]
	ldr	r1, [r0, #4]
	orr	r1, r1, #8
	str	r1, [r0, #4]
	.loc	5 543 3                 @ ../Drivers/STM32F7xx_HAL_Driver/Src/stm32f7xx_hal_sai.c:543:3
	mov	r0, r5
	bl	HAL_SAI_MspDeInit
	.loc	5 546 19                @ ../Drivers/STM32F7xx_HAL_Driver/Src/stm32f7xx_hal_sai.c:546:19
	str.w	r4, [r5, #128]
.Ltmp95:
	.loc	5 552 3                 @ ../Drivers/STM32F7xx_HAL_Driver/Src/stm32f7xx_hal_sai.c:552:3
	strb.w	r4, [r5, #124]
.Ltmp96:
	.loc	5 549 15                @ ../Drivers/STM32F7xx_HAL_Driver/Src/stm32f7xx_hal_sai.c:549:15
	strb.w	r4, [r5, #125]
	b	.LBB4_3
.Ltmp97:
.LBB4_2:
	@DEBUG_VALUE: HAL_SAI_DeInit:hsai <- $r5
	.loc	5 0 15 is_stmt 0        @ ../Drivers/STM32F7xx_HAL_Driver/Src/stm32f7xx_hal_sai.c:0:15
	movs	r4, #1
.Ltmp98:
.LBB4_3:
	@DEBUG_VALUE: HAL_SAI_DeInit:hsai <- $r5
	.loc	5 555 1 is_stmt 1       @ ../Drivers/STM32F7xx_HAL_Driver/Src/stm32f7xx_hal_sai.c:555:1
	mov	r0, r4
	pop	{r4, r5, r7, pc}
.Ltmp99:
.Lfunc_end4:
	.size	HAL_SAI_DeInit, .Lfunc_end4-HAL_SAI_DeInit
	.cfi_endproc
	.cantunwind
	.fnend
                                        @ -- End function
	.section	.text.HAL_SAI_MspDeInit,"ax",%progbits
	.hidden	HAL_SAI_MspDeInit       @ -- Begin function HAL_SAI_MspDeInit
	.weak	HAL_SAI_MspDeInit
	.p2align	1
	.type	HAL_SAI_MspDeInit,%function
	.code	16                      @ @HAL_SAI_MspDeInit
	.thumb_func
HAL_SAI_MspDeInit:
.Lfunc_begin5:
	.loc	5 580 0                 @ ../Drivers/STM32F7xx_HAL_Driver/Src/stm32f7xx_hal_sai.c:580:0
	.fnstart
	.cfi_startproc
@ %bb.0:
	@DEBUG_VALUE: HAL_SAI_MspDeInit:hsai <- $r0
	.loc	5 587 1 prologue_end    @ ../Drivers/STM32F7xx_HAL_Driver/Src/stm32f7xx_hal_sai.c:587:1
	bx	lr
.Ltmp100:
.Lfunc_end5:
	.size	HAL_SAI_MspDeInit, .Lfunc_end5-HAL_SAI_MspDeInit
	.cfi_endproc
	.cantunwind
	.fnend
                                        @ -- End function
	.section	.text.HAL_SAI_Transmit,"ax",%progbits
	.hidden	HAL_SAI_Transmit        @ -- Begin function HAL_SAI_Transmit
	.globl	HAL_SAI_Transmit
	.p2align	1
	.type	HAL_SAI_Transmit,%function
	.code	16                      @ @HAL_SAI_Transmit
	.thumb_func
HAL_SAI_Transmit:
.Lfunc_begin6:
	.loc	5 645 0                 @ ../Drivers/STM32F7xx_HAL_Driver/Src/stm32f7xx_hal_sai.c:645:0
	.fnstart
	.cfi_startproc
@ %bb.0:
	.save	{r4, r5, r6, r7, r8, r9, lr}
	.pad	#4
	push.w	{r3, r4, r5, r6, r7, r8, r9, lr}
	.cfi_def_cfa_offset 32
	.cfi_offset lr, -4
	.cfi_offset r9, -8
	.cfi_offset r8, -12
	.cfi_offset r7, -16
	.cfi_offset r6, -20
	.cfi_offset r5, -24
	.cfi_offset r4, -28
	@DEBUG_VALUE: HAL_SAI_Transmit:hsai <- $r0
	@DEBUG_VALUE: HAL_SAI_Transmit:pData <- $r1
	@DEBUG_VALUE: HAL_SAI_Transmit:Size <- $r2
	@DEBUG_VALUE: HAL_SAI_Transmit:Timeout <- $r3
	mov	r9, r3
	mov	r6, r2
	mov	r7, r1
	mov	r4, r0
.Ltmp101:
	@DEBUG_VALUE: HAL_SAI_Transmit:Timeout <- $r9
	@DEBUG_VALUE: HAL_SAI_Transmit:Size <- $r6
	@DEBUG_VALUE: HAL_SAI_Transmit:pData <- $r7
	@DEBUG_VALUE: HAL_SAI_Transmit:hsai <- $r4
	movs	r5, #1
.Ltmp102:
	.loc	5 646 24 prologue_end   @ ../Drivers/STM32F7xx_HAL_Driver/Src/stm32f7xx_hal_sai.c:646:24
	bl	HAL_GetTick
	mov	r8, r0
.Ltmp103:
	@DEBUG_VALUE: HAL_SAI_Transmit:tickstart <- $r8
	.loc	5 648 23                @ ../Drivers/STM32F7xx_HAL_Driver/Src/stm32f7xx_hal_sai.c:648:23
	cbz	r7, .LBB6_5
.Ltmp104:
@ %bb.1:
	@DEBUG_VALUE: HAL_SAI_Transmit:tickstart <- $r8
	@DEBUG_VALUE: HAL_SAI_Transmit:hsai <- $r4
	@DEBUG_VALUE: HAL_SAI_Transmit:pData <- $r7
	@DEBUG_VALUE: HAL_SAI_Transmit:Size <- $r6
	@DEBUG_VALUE: HAL_SAI_Transmit:Timeout <- $r9
	cbz	r6, .LBB6_5
.Ltmp105:
@ %bb.2:
	@DEBUG_VALUE: HAL_SAI_Transmit:tickstart <- $r8
	@DEBUG_VALUE: HAL_SAI_Transmit:hsai <- $r4
	@DEBUG_VALUE: HAL_SAI_Transmit:pData <- $r7
	@DEBUG_VALUE: HAL_SAI_Transmit:Size <- $r6
	@DEBUG_VALUE: HAL_SAI_Transmit:Timeout <- $r9
	.loc	5 653 12                @ ../Drivers/STM32F7xx_HAL_Driver/Src/stm32f7xx_hal_sai.c:653:12
	ldrb.w	r0, [r4, #125]
.Ltmp106:
	.loc	5 653 6 is_stmt 0       @ ../Drivers/STM32F7xx_HAL_Driver/Src/stm32f7xx_hal_sai.c:653:6
	cmp	r0, #1
	bne	.LBB6_4
.Ltmp107:
@ %bb.3:
	@DEBUG_VALUE: HAL_SAI_Transmit:tickstart <- $r8
	@DEBUG_VALUE: HAL_SAI_Transmit:hsai <- $r4
	@DEBUG_VALUE: HAL_SAI_Transmit:pData <- $r7
	@DEBUG_VALUE: HAL_SAI_Transmit:Size <- $r6
	@DEBUG_VALUE: HAL_SAI_Transmit:Timeout <- $r9
	.loc	5 656 5 is_stmt 1       @ ../Drivers/STM32F7xx_HAL_Driver/Src/stm32f7xx_hal_sai.c:656:5
	ldrb.w	r0, [r4, #124]
.Ltmp108:
	.loc	5 656 5 is_stmt 0       @ ../Drivers/STM32F7xx_HAL_Driver/Src/stm32f7xx_hal_sai.c:656:5
	cmp	r0, #1
	bne	.LBB6_6
.Ltmp109:
.LBB6_4:
	@DEBUG_VALUE: HAL_SAI_Transmit:tickstart <- $r8
	@DEBUG_VALUE: HAL_SAI_Transmit:hsai <- $r4
	@DEBUG_VALUE: HAL_SAI_Transmit:pData <- $r7
	@DEBUG_VALUE: HAL_SAI_Transmit:Size <- $r6
	@DEBUG_VALUE: HAL_SAI_Transmit:Timeout <- $r9
	.loc	5 0 5                   @ ../Drivers/STM32F7xx_HAL_Driver/Src/stm32f7xx_hal_sai.c:0:5
	movs	r5, #2
.Ltmp110:
.LBB6_5:
	@DEBUG_VALUE: HAL_SAI_Transmit:tickstart <- $r8
	@DEBUG_VALUE: HAL_SAI_Transmit:hsai <- $r4
	@DEBUG_VALUE: HAL_SAI_Transmit:pData <- $r7
	@DEBUG_VALUE: HAL_SAI_Transmit:Timeout <- $r9
	.loc	5 733 1 is_stmt 1       @ ../Drivers/STM32F7xx_HAL_Driver/Src/stm32f7xx_hal_sai.c:733:1
	uxtb	r0, r5
	add	sp, #4
	pop.w	{r4, r5, r6, r7, r8, r9, pc}
.Ltmp111:
.LBB6_6:
	@DEBUG_VALUE: HAL_SAI_Transmit:tickstart <- $r8
	@DEBUG_VALUE: HAL_SAI_Transmit:hsai <- $r4
	@DEBUG_VALUE: HAL_SAI_Transmit:pData <- $r7
	@DEBUG_VALUE: HAL_SAI_Transmit:Size <- $r6
	@DEBUG_VALUE: HAL_SAI_Transmit:Timeout <- $r9
	@DEBUG_VALUE: HAL_SAI_Transmit:Size <- $r6
	.loc	5 661 17                @ ../Drivers/STM32F7xx_HAL_Driver/Src/stm32f7xx_hal_sai.c:661:17
	movs	r0, #18
	strb.w	r0, [r4, #125]
	movs	r0, #1
	.loc	5 658 20                @ ../Drivers/STM32F7xx_HAL_Driver/Src/stm32f7xx_hal_sai.c:658:20
	strh.w	r6, [r4, #104]
.Ltmp112:
	.loc	5 656 5                 @ ../Drivers/STM32F7xx_HAL_Driver/Src/stm32f7xx_hal_sai.c:656:5
	strb.w	r0, [r4, #124]
	movs	r0, #0
.Ltmp113:
	.loc	5 659 21                @ ../Drivers/STM32F7xx_HAL_Driver/Src/stm32f7xx_hal_sai.c:659:21
	strh.w	r6, [r4, #106]
	.loc	5 660 20                @ ../Drivers/STM32F7xx_HAL_Driver/Src/stm32f7xx_hal_sai.c:660:20
	str	r7, [r4, #100]
	.loc	5 662 21                @ ../Drivers/STM32F7xx_HAL_Driver/Src/stm32f7xx_hal_sai.c:662:21
	str.w	r0, [r4, #128]
.Ltmp114:
	.loc	5 665 15                @ ../Drivers/STM32F7xx_HAL_Driver/Src/stm32f7xx_hal_sai.c:665:15
	ldr	r0, [r4]
	.loc	5 665 25 is_stmt 0      @ ../Drivers/STM32F7xx_HAL_Driver/Src/stm32f7xx_hal_sai.c:665:25
	ldr	r0, [r0]
.Ltmp115:
	.loc	5 665 8                 @ ../Drivers/STM32F7xx_HAL_Driver/Src/stm32f7xx_hal_sai.c:665:8
	tst.w	r0, #65536
	bne	.LBB6_8
.Ltmp116:
@ %bb.7:
	@DEBUG_VALUE: HAL_SAI_Transmit:tickstart <- $r8
	@DEBUG_VALUE: HAL_SAI_Transmit:hsai <- $r4
	@DEBUG_VALUE: HAL_SAI_Transmit:pData <- $r7
	@DEBUG_VALUE: HAL_SAI_Transmit:Size <- $r6
	@DEBUG_VALUE: HAL_SAI_Transmit:Timeout <- $r9
	.loc	5 668 7 is_stmt 1       @ ../Drivers/STM32F7xx_HAL_Driver/Src/stm32f7xx_hal_sai.c:668:7
	mov	r0, r4
	bl	SAI_FillFifo
	.loc	5 670 7                 @ ../Drivers/STM32F7xx_HAL_Driver/Src/stm32f7xx_hal_sai.c:670:7
	ldr	r0, [r4]
	ldr	r1, [r0]
	orr	r1, r1, #65536
	str	r1, [r0]
.Ltmp117:
.LBB6_8:
	@DEBUG_VALUE: HAL_SAI_Transmit:tickstart <- $r8
	@DEBUG_VALUE: HAL_SAI_Transmit:hsai <- $r4
	@DEBUG_VALUE: HAL_SAI_Transmit:pData <- $r7
	@DEBUG_VALUE: HAL_SAI_Transmit:Size <- $r6
	@DEBUG_VALUE: HAL_SAI_Transmit:Timeout <- $r9
	.loc	5 0 7 is_stmt 0         @ ../Drivers/STM32F7xx_HAL_Driver/Src/stm32f7xx_hal_sai.c:0:7
	add.w	r6, r9, #1
.Ltmp118:
	b	.LBB6_21
.Ltmp119:
.LBB6_9:                                @   in Loop: Header=BB6_21 Depth=1
	@DEBUG_VALUE: HAL_SAI_Transmit:tickstart <- $r8
	@DEBUG_VALUE: HAL_SAI_Transmit:hsai <- $r4
	@DEBUG_VALUE: HAL_SAI_Transmit:pData <- $r7
	@DEBUG_VALUE: HAL_SAI_Transmit:Timeout <- $r9
	.loc	5 676 17 is_stmt 1      @ ../Drivers/STM32F7xx_HAL_Driver/Src/stm32f7xx_hal_sai.c:676:17
	ldr	r0, [r4]
	.loc	5 676 27 is_stmt 0      @ ../Drivers/STM32F7xx_HAL_Driver/Src/stm32f7xx_hal_sai.c:676:27
	ldr	r2, [r0, #20]
	.loc	5 676 30                @ ../Drivers/STM32F7xx_HAL_Driver/Src/stm32f7xx_hal_sai.c:676:30
	and	r2, r2, #458752
.Ltmp120:
	.loc	5 676 10                @ ../Drivers/STM32F7xx_HAL_Driver/Src/stm32f7xx_hal_sai.c:676:10
	cmp.w	r2, #327680
	bne	.LBB6_13
.Ltmp121:
@ %bb.10:                               @   in Loop: Header=BB6_21 Depth=1
	@DEBUG_VALUE: HAL_SAI_Transmit:tickstart <- $r8
	@DEBUG_VALUE: HAL_SAI_Transmit:hsai <- $r4
	@DEBUG_VALUE: HAL_SAI_Transmit:pData <- $r7
	@DEBUG_VALUE: HAL_SAI_Transmit:Timeout <- $r9
	.loc	5 697 39 is_stmt 1      @ ../Drivers/STM32F7xx_HAL_Driver/Src/stm32f7xx_hal_sai.c:697:39
	cbz	r6, .LBB6_21
.Ltmp122:
@ %bb.11:                               @   in Loop: Header=BB6_21 Depth=1
	@DEBUG_VALUE: HAL_SAI_Transmit:tickstart <- $r8
	@DEBUG_VALUE: HAL_SAI_Transmit:hsai <- $r4
	@DEBUG_VALUE: HAL_SAI_Transmit:pData <- $r7
	@DEBUG_VALUE: HAL_SAI_Transmit:Timeout <- $r9
	cmp.w	r9, #0
	beq	.LBB6_24
.Ltmp123:
@ %bb.12:                               @   in Loop: Header=BB6_21 Depth=1
	@DEBUG_VALUE: HAL_SAI_Transmit:tickstart <- $r8
	@DEBUG_VALUE: HAL_SAI_Transmit:hsai <- $r4
	@DEBUG_VALUE: HAL_SAI_Transmit:pData <- $r7
	@DEBUG_VALUE: HAL_SAI_Transmit:Timeout <- $r9
	.loc	5 697 61 is_stmt 0      @ ../Drivers/STM32F7xx_HAL_Driver/Src/stm32f7xx_hal_sai.c:697:61
	bl	HAL_GetTick
	.loc	5 697 75                @ ../Drivers/STM32F7xx_HAL_Driver/Src/stm32f7xx_hal_sai.c:697:75
	sub.w	r0, r0, r8
.Ltmp124:
	.loc	5 697 12                @ ../Drivers/STM32F7xx_HAL_Driver/Src/stm32f7xx_hal_sai.c:697:12
	cmp	r0, r9
	bls	.LBB6_21
	b	.LBB6_23
.Ltmp125:
.LBB6_13:                               @   in Loop: Header=BB6_21 Depth=1
	@DEBUG_VALUE: HAL_SAI_Transmit:tickstart <- $r8
	@DEBUG_VALUE: HAL_SAI_Transmit:hsai <- $r4
	@DEBUG_VALUE: HAL_SAI_Transmit:pData <- $r7
	@DEBUG_VALUE: HAL_SAI_Transmit:Timeout <- $r9
	.loc	5 678 24 is_stmt 1      @ ../Drivers/STM32F7xx_HAL_Driver/Src/stm32f7xx_hal_sai.c:678:24
	ldr	r3, [r4, #52]
	.loc	5 678 52 is_stmt 0      @ ../Drivers/STM32F7xx_HAL_Driver/Src/stm32f7xx_hal_sai.c:678:52
	cmp	r3, #64
	bne	.LBB6_16
.Ltmp126:
@ %bb.14:                               @   in Loop: Header=BB6_21 Depth=1
	@DEBUG_VALUE: HAL_SAI_Transmit:tickstart <- $r8
	@DEBUG_VALUE: HAL_SAI_Transmit:hsai <- $r4
	@DEBUG_VALUE: HAL_SAI_Transmit:pData <- $r7
	@DEBUG_VALUE: HAL_SAI_Transmit:Timeout <- $r9
	.loc	5 678 67                @ ../Drivers/STM32F7xx_HAL_Driver/Src/stm32f7xx_hal_sai.c:678:67
	ldr	r3, [r4, #40]
	ldr	r2, [r4, #100]
.Ltmp127:
	.loc	5 678 12                @ ../Drivers/STM32F7xx_HAL_Driver/Src/stm32f7xx_hal_sai.c:678:12
	cbnz	r3, .LBB6_17
.Ltmp128:
@ %bb.15:                               @   in Loop: Header=BB6_21 Depth=1
	@DEBUG_VALUE: HAL_SAI_Transmit:tickstart <- $r8
	@DEBUG_VALUE: HAL_SAI_Transmit:hsai <- $r4
	@DEBUG_VALUE: HAL_SAI_Transmit:pData <- $r7
	@DEBUG_VALUE: HAL_SAI_Transmit:Timeout <- $r9
	.loc	5 680 48 is_stmt 1      @ ../Drivers/STM32F7xx_HAL_Driver/Src/stm32f7xx_hal_sai.c:680:48
	adds	r3, r2, #1
	str	r3, [r4, #100]
	.loc	5 680 32 is_stmt 0      @ ../Drivers/STM32F7xx_HAL_Driver/Src/stm32f7xx_hal_sai.c:680:32
	ldrb	r2, [r2]
	.loc	5 680 30                @ ../Drivers/STM32F7xx_HAL_Driver/Src/stm32f7xx_hal_sai.c:680:30
	str	r2, [r0, #28]
	b	.LBB6_20
.Ltmp129:
.LBB6_16:                               @   in Loop: Header=BB6_21 Depth=1
	@DEBUG_VALUE: HAL_SAI_Transmit:tickstart <- $r8
	@DEBUG_VALUE: HAL_SAI_Transmit:hsai <- $r4
	@DEBUG_VALUE: HAL_SAI_Transmit:pData <- $r7
	@DEBUG_VALUE: HAL_SAI_Transmit:Timeout <- $r9
	.loc	5 0 30                  @ ../Drivers/STM32F7xx_HAL_Driver/Src/stm32f7xx_hal_sai.c:0:30
	ldr	r2, [r4, #100]
	.loc	5 682 17 is_stmt 1      @ ../Drivers/STM32F7xx_HAL_Driver/Src/stm32f7xx_hal_sai.c:682:17
	cmp	r3, #128
	bhi	.LBB6_18
.Ltmp130:
.LBB6_17:                               @   in Loop: Header=BB6_21 Depth=1
	@DEBUG_VALUE: HAL_SAI_Transmit:tickstart <- $r8
	@DEBUG_VALUE: HAL_SAI_Transmit:hsai <- $r4
	@DEBUG_VALUE: HAL_SAI_Transmit:pData <- $r7
	@DEBUG_VALUE: HAL_SAI_Transmit:Timeout <- $r9
	.loc	5 684 32                @ ../Drivers/STM32F7xx_HAL_Driver/Src/stm32f7xx_hal_sai.c:684:32
	ldrh	r3, [r2], #2
	b	.LBB6_19
.Ltmp131:
.LBB6_18:                               @   in Loop: Header=BB6_21 Depth=1
	@DEBUG_VALUE: HAL_SAI_Transmit:tickstart <- $r8
	@DEBUG_VALUE: HAL_SAI_Transmit:hsai <- $r4
	@DEBUG_VALUE: HAL_SAI_Transmit:pData <- $r7
	@DEBUG_VALUE: HAL_SAI_Transmit:Timeout <- $r9
	.loc	5 689 32                @ ../Drivers/STM32F7xx_HAL_Driver/Src/stm32f7xx_hal_sai.c:689:32
	ldm	r2!, {r3}
.Ltmp132:
.LBB6_19:                               @   in Loop: Header=BB6_21 Depth=1
	@DEBUG_VALUE: HAL_SAI_Transmit:tickstart <- $r8
	@DEBUG_VALUE: HAL_SAI_Transmit:hsai <- $r4
	@DEBUG_VALUE: HAL_SAI_Transmit:pData <- $r7
	@DEBUG_VALUE: HAL_SAI_Transmit:Timeout <- $r9
	.loc	5 0 32 is_stmt 0        @ ../Drivers/STM32F7xx_HAL_Driver/Src/stm32f7xx_hal_sai.c:0:32
	str	r3, [r0, #28]
	str	r2, [r4, #100]
.Ltmp133:
.LBB6_20:                               @   in Loop: Header=BB6_21 Depth=1
	@DEBUG_VALUE: HAL_SAI_Transmit:tickstart <- $r8
	@DEBUG_VALUE: HAL_SAI_Transmit:hsai <- $r4
	@DEBUG_VALUE: HAL_SAI_Transmit:pData <- $r7
	@DEBUG_VALUE: HAL_SAI_Transmit:Timeout <- $r9
	.loc	5 692 24 is_stmt 1      @ ../Drivers/STM32F7xx_HAL_Driver/Src/stm32f7xx_hal_sai.c:692:24
	subs	r0, r1, #1
	strh.w	r0, [r4, #106]
.Ltmp134:
.LBB6_21:                               @ =>This Inner Loop Header: Depth=1
	@DEBUG_VALUE: HAL_SAI_Transmit:tickstart <- $r8
	@DEBUG_VALUE: HAL_SAI_Transmit:hsai <- $r4
	@DEBUG_VALUE: HAL_SAI_Transmit:pData <- $r7
	@DEBUG_VALUE: HAL_SAI_Transmit:Timeout <- $r9
	.loc	5 673 17                @ ../Drivers/STM32F7xx_HAL_Driver/Src/stm32f7xx_hal_sai.c:673:17
	ldrh.w	r1, [r4, #106]
	.loc	5 673 5 is_stmt 0       @ ../Drivers/STM32F7xx_HAL_Driver/Src/stm32f7xx_hal_sai.c:673:5
	cmp	r1, #0
	bne	.LBB6_9
.Ltmp135:
@ %bb.22:
	@DEBUG_VALUE: HAL_SAI_Transmit:tickstart <- $r8
	@DEBUG_VALUE: HAL_SAI_Transmit:hsai <- $r4
	@DEBUG_VALUE: HAL_SAI_Transmit:pData <- $r7
	@DEBUG_VALUE: HAL_SAI_Transmit:Timeout <- $r9
	.loc	5 0 5                   @ ../Drivers/STM32F7xx_HAL_Driver/Src/stm32f7xx_hal_sai.c:0:5
	movs	r5, #0
	.loc	5 722 17 is_stmt 1      @ ../Drivers/STM32F7xx_HAL_Driver/Src/stm32f7xx_hal_sai.c:722:17
	movs	r0, #1
.Ltmp136:
	.loc	5 725 5                 @ ../Drivers/STM32F7xx_HAL_Driver/Src/stm32f7xx_hal_sai.c:725:5
	strb.w	r5, [r4, #124]
.Ltmp137:
	.loc	5 722 17                @ ../Drivers/STM32F7xx_HAL_Driver/Src/stm32f7xx_hal_sai.c:722:17
	strb.w	r0, [r4, #125]
	b	.LBB6_5
.Ltmp138:
.LBB6_23:
	@DEBUG_VALUE: HAL_SAI_Transmit:tickstart <- $r8
	@DEBUG_VALUE: HAL_SAI_Transmit:hsai <- $r4
	@DEBUG_VALUE: HAL_SAI_Transmit:pData <- $r7
	@DEBUG_VALUE: HAL_SAI_Transmit:Timeout <- $r9
	.loc	5 703 17                @ ../Drivers/STM32F7xx_HAL_Driver/Src/stm32f7xx_hal_sai.c:703:17
	ldr	r0, [r4]
.Ltmp139:
.LBB6_24:
	@DEBUG_VALUE: HAL_SAI_Transmit:tickstart <- $r8
	@DEBUG_VALUE: HAL_SAI_Transmit:hsai <- $r4
	@DEBUG_VALUE: HAL_SAI_Transmit:pData <- $r7
	@DEBUG_VALUE: HAL_SAI_Transmit:Timeout <- $r9
	.loc	5 700 27                @ ../Drivers/STM32F7xx_HAL_Driver/Src/stm32f7xx_hal_sai.c:700:27
	ldr.w	r1, [r4, #128]
	orr	r1, r1, #64
	str.w	r1, [r4, #128]
	.loc	5 703 33                @ ../Drivers/STM32F7xx_HAL_Driver/Src/stm32f7xx_hal_sai.c:703:33
	mov.w	r1, #-1
	str	r1, [r0, #24]
	.loc	5 706 11                @ ../Drivers/STM32F7xx_HAL_Driver/Src/stm32f7xx_hal_sai.c:706:11
	mov	r0, r4
	bl	SAI_Disable
	.loc	5 709 11                @ ../Drivers/STM32F7xx_HAL_Driver/Src/stm32f7xx_hal_sai.c:709:11
	ldr	r0, [r4]
	movs	r5, #1
	ldr	r1, [r0, #4]
	orr	r1, r1, #8
	str	r1, [r0, #4]
.Ltmp140:
	.loc	5 715 11                @ ../Drivers/STM32F7xx_HAL_Driver/Src/stm32f7xx_hal_sai.c:715:11
	movs	r0, #0
	strb.w	r0, [r4, #124]
.Ltmp141:
	.loc	5 712 23                @ ../Drivers/STM32F7xx_HAL_Driver/Src/stm32f7xx_hal_sai.c:712:23
	strb.w	r5, [r4, #125]
	b	.LBB6_5
.Ltmp142:
.Lfunc_end6:
	.size	HAL_SAI_Transmit, .Lfunc_end6-HAL_SAI_Transmit
	.cfi_endproc
	.cantunwind
	.fnend
                                        @ -- End function
	.section	.text.SAI_FillFifo,"ax",%progbits
	.p2align	1               @ -- Begin function SAI_FillFifo
	.type	SAI_FillFifo,%function
	.code	16                      @ @SAI_FillFifo
	.thumb_func
SAI_FillFifo:
.Lfunc_begin7:
	.loc	5 1791 0                @ ../Drivers/STM32F7xx_HAL_Driver/Src/stm32f7xx_hal_sai.c:1791:0
	.fnstart
	.cfi_startproc
@ %bb.0:
	.save	{r7, lr}
	push	{r7, lr}
	.cfi_def_cfa_offset 8
	.cfi_offset lr, -4
	.cfi_offset r7, -8
	@DEBUG_VALUE: SAI_FillFifo:hsai <- $r0
	@DEBUG_VALUE: SAI_FillFifo:hsai <- $r0
.Ltmp143:
	.loc	5 1793 17 prologue_end  @ ../Drivers/STM32F7xx_HAL_Driver/Src/stm32f7xx_hal_sai.c:1793:17
	ldr.w	r12, [r0]
.LBB7_1:                                @ =>This Inner Loop Header: Depth=1
	@DEBUG_VALUE: SAI_FillFifo:hsai <- $r0
	.loc	5 1793 27 is_stmt 0     @ ../Drivers/STM32F7xx_HAL_Driver/Src/stm32f7xx_hal_sai.c:1793:27
	ldr.w	r1, [r12, #20]
	.loc	5 1793 30               @ ../Drivers/STM32F7xx_HAL_Driver/Src/stm32f7xx_hal_sai.c:1793:30
	and	r1, r1, #458752
	.loc	5 1793 70               @ ../Drivers/STM32F7xx_HAL_Driver/Src/stm32f7xx_hal_sai.c:1793:70
	cmp.w	r1, #327680
	.loc	5 1793 80               @ ../Drivers/STM32F7xx_HAL_Driver/Src/stm32f7xx_hal_sai.c:1793:80
	itt	ne
	ldrhne.w	r2, [r0, #106]
	.loc	5 1793 3                @ ../Drivers/STM32F7xx_HAL_Driver/Src/stm32f7xx_hal_sai.c:1793:3
	cmpne	r2, #0
	beq	.LBB7_11
@ %bb.2:                                @   in Loop: Header=BB7_1 Depth=1
	@DEBUG_VALUE: SAI_FillFifo:hsai <- $r0
.Ltmp144:
	.loc	5 1795 20 is_stmt 1     @ ../Drivers/STM32F7xx_HAL_Driver/Src/stm32f7xx_hal_sai.c:1795:20
	ldr	r1, [r0, #52]
	.loc	5 1795 48 is_stmt 0     @ ../Drivers/STM32F7xx_HAL_Driver/Src/stm32f7xx_hal_sai.c:1795:48
	cmp	r1, #64
	bne	.LBB7_5
@ %bb.3:                                @   in Loop: Header=BB7_1 Depth=1
	@DEBUG_VALUE: SAI_FillFifo:hsai <- $r0
	.loc	5 1795 63               @ ../Drivers/STM32F7xx_HAL_Driver/Src/stm32f7xx_hal_sai.c:1795:63
	ldr	r1, [r0, #40]
.Ltmp145:
	.loc	5 1795 8                @ ../Drivers/STM32F7xx_HAL_Driver/Src/stm32f7xx_hal_sai.c:1795:8
	cbz	r1, .LBB7_10
@ %bb.4:                                @   in Loop: Header=BB7_1 Depth=1
	@DEBUG_VALUE: SAI_FillFifo:hsai <- $r0
	.loc	5 0 8                   @ ../Drivers/STM32F7xx_HAL_Driver/Src/stm32f7xx_hal_sai.c:0:8
	ldr.w	lr, [r0, #100]
	ldr.w	r1, [lr]
	str.w	r1, [r12, #28]
	b	.LBB7_6
.LBB7_5:                                @   in Loop: Header=BB7_1 Depth=1
	@DEBUG_VALUE: SAI_FillFifo:hsai <- $r0
	ldr.w	lr, [r0, #100]
.Ltmp146:
	.loc	5 1799 13 is_stmt 1     @ ../Drivers/STM32F7xx_HAL_Driver/Src/stm32f7xx_hal_sai.c:1799:13
	cmp	r1, #128
	ldr.w	r3, [lr]
	str.w	r3, [r12, #28]
	bhi	.LBB7_7
.LBB7_6:                                @   in Loop: Header=BB7_1 Depth=1
	@DEBUG_VALUE: SAI_FillFifo:hsai <- $r0
.Ltmp147:
	.loc	5 1802 21               @ ../Drivers/STM32F7xx_HAL_Driver/Src/stm32f7xx_hal_sai.c:1802:21
	add.w	r1, lr, #2
	b	.LBB7_8
.Ltmp148:
.LBB7_7:                                @   in Loop: Header=BB7_1 Depth=1
	@DEBUG_VALUE: SAI_FillFifo:hsai <- $r0
	.loc	5 1807 21               @ ../Drivers/STM32F7xx_HAL_Driver/Src/stm32f7xx_hal_sai.c:1807:21
	add.w	r1, lr, #4
.Ltmp149:
.LBB7_8:                                @   in Loop: Header=BB7_1 Depth=1
	@DEBUG_VALUE: SAI_FillFifo:hsai <- $r0
	.loc	5 0 21 is_stmt 0        @ ../Drivers/STM32F7xx_HAL_Driver/Src/stm32f7xx_hal_sai.c:0:21
	str	r1, [r0, #100]
.LBB7_9:                                @   in Loop: Header=BB7_1 Depth=1
	@DEBUG_VALUE: SAI_FillFifo:hsai <- $r0
	.loc	5 1809 20 is_stmt 1     @ ../Drivers/STM32F7xx_HAL_Driver/Src/stm32f7xx_hal_sai.c:1809:20
	subs	r1, r2, #1
	strh.w	r1, [r0, #106]
	b	.LBB7_1
.LBB7_10:                               @   in Loop: Header=BB7_1 Depth=1
	@DEBUG_VALUE: SAI_FillFifo:hsai <- $r0
.Ltmp150:
	.loc	5 1797 44               @ ../Drivers/STM32F7xx_HAL_Driver/Src/stm32f7xx_hal_sai.c:1797:44
	ldr	r1, [r0, #100]
	adds	r3, r1, #1
	str	r3, [r0, #100]
	.loc	5 1797 28 is_stmt 0     @ ../Drivers/STM32F7xx_HAL_Driver/Src/stm32f7xx_hal_sai.c:1797:28
	ldrb	r1, [r1]
	.loc	5 1797 26               @ ../Drivers/STM32F7xx_HAL_Driver/Src/stm32f7xx_hal_sai.c:1797:26
	str.w	r1, [r12, #28]
	b	.LBB7_9
.Ltmp151:
.LBB7_11:
	@DEBUG_VALUE: SAI_FillFifo:hsai <- $r0
	.loc	5 1811 1 is_stmt 1      @ ../Drivers/STM32F7xx_HAL_Driver/Src/stm32f7xx_hal_sai.c:1811:1
	pop	{r7, pc}
.Ltmp152:
.Lfunc_end7:
	.size	SAI_FillFifo, .Lfunc_end7-SAI_FillFifo
	.cfi_endproc
	.cantunwind
	.fnend
                                        @ -- End function
	.section	.text.HAL_SAI_Receive,"ax",%progbits
	.hidden	HAL_SAI_Receive         @ -- Begin function HAL_SAI_Receive
	.globl	HAL_SAI_Receive
	.p2align	1
	.type	HAL_SAI_Receive,%function
	.code	16                      @ @HAL_SAI_Receive
	.thumb_func
HAL_SAI_Receive:
.Lfunc_begin8:
	.loc	5 745 0                 @ ../Drivers/STM32F7xx_HAL_Driver/Src/stm32f7xx_hal_sai.c:745:0
	.fnstart
	.cfi_startproc
@ %bb.0:
	.save	{r4, r5, r6, r7, r8, r9, lr}
	.pad	#4
	push.w	{r3, r4, r5, r6, r7, r8, r9, lr}
	.cfi_def_cfa_offset 32
	.cfi_offset lr, -4
	.cfi_offset r9, -8
	.cfi_offset r8, -12
	.cfi_offset r7, -16
	.cfi_offset r6, -20
	.cfi_offset r5, -24
	.cfi_offset r4, -28
	@DEBUG_VALUE: HAL_SAI_Receive:hsai <- $r0
	@DEBUG_VALUE: HAL_SAI_Receive:pData <- $r1
	@DEBUG_VALUE: HAL_SAI_Receive:Size <- $r2
	@DEBUG_VALUE: HAL_SAI_Receive:Timeout <- $r3
	mov	r9, r3
	mov	r7, r2
	mov	r6, r1
	mov	r4, r0
.Ltmp153:
	@DEBUG_VALUE: HAL_SAI_Receive:Timeout <- $r9
	@DEBUG_VALUE: HAL_SAI_Receive:Size <- $r7
	@DEBUG_VALUE: HAL_SAI_Receive:pData <- $r6
	@DEBUG_VALUE: HAL_SAI_Receive:hsai <- $r4
	movs	r5, #1
.Ltmp154:
	.loc	5 746 24 prologue_end   @ ../Drivers/STM32F7xx_HAL_Driver/Src/stm32f7xx_hal_sai.c:746:24
	bl	HAL_GetTick
	mov	r8, r0
.Ltmp155:
	@DEBUG_VALUE: HAL_SAI_Receive:tickstart <- $r8
	.loc	5 748 23                @ ../Drivers/STM32F7xx_HAL_Driver/Src/stm32f7xx_hal_sai.c:748:23
	cbz	r6, .LBB8_5
.Ltmp156:
@ %bb.1:
	@DEBUG_VALUE: HAL_SAI_Receive:tickstart <- $r8
	@DEBUG_VALUE: HAL_SAI_Receive:hsai <- $r4
	@DEBUG_VALUE: HAL_SAI_Receive:pData <- $r6
	@DEBUG_VALUE: HAL_SAI_Receive:Size <- $r7
	@DEBUG_VALUE: HAL_SAI_Receive:Timeout <- $r9
	cbz	r7, .LBB8_5
.Ltmp157:
@ %bb.2:
	@DEBUG_VALUE: HAL_SAI_Receive:tickstart <- $r8
	@DEBUG_VALUE: HAL_SAI_Receive:hsai <- $r4
	@DEBUG_VALUE: HAL_SAI_Receive:pData <- $r6
	@DEBUG_VALUE: HAL_SAI_Receive:Size <- $r7
	@DEBUG_VALUE: HAL_SAI_Receive:Timeout <- $r9
	.loc	5 753 12                @ ../Drivers/STM32F7xx_HAL_Driver/Src/stm32f7xx_hal_sai.c:753:12
	ldrb.w	r0, [r4, #125]
.Ltmp158:
	.loc	5 753 6 is_stmt 0       @ ../Drivers/STM32F7xx_HAL_Driver/Src/stm32f7xx_hal_sai.c:753:6
	cmp	r0, #1
	bne	.LBB8_4
.Ltmp159:
@ %bb.3:
	@DEBUG_VALUE: HAL_SAI_Receive:tickstart <- $r8
	@DEBUG_VALUE: HAL_SAI_Receive:hsai <- $r4
	@DEBUG_VALUE: HAL_SAI_Receive:pData <- $r6
	@DEBUG_VALUE: HAL_SAI_Receive:Size <- $r7
	@DEBUG_VALUE: HAL_SAI_Receive:Timeout <- $r9
	.loc	5 756 5 is_stmt 1       @ ../Drivers/STM32F7xx_HAL_Driver/Src/stm32f7xx_hal_sai.c:756:5
	ldrb.w	r0, [r4, #124]
.Ltmp160:
	.loc	5 756 5 is_stmt 0       @ ../Drivers/STM32F7xx_HAL_Driver/Src/stm32f7xx_hal_sai.c:756:5
	cmp	r0, #1
	bne	.LBB8_6
.Ltmp161:
.LBB8_4:
	@DEBUG_VALUE: HAL_SAI_Receive:tickstart <- $r8
	@DEBUG_VALUE: HAL_SAI_Receive:hsai <- $r4
	@DEBUG_VALUE: HAL_SAI_Receive:pData <- $r6
	@DEBUG_VALUE: HAL_SAI_Receive:Size <- $r7
	@DEBUG_VALUE: HAL_SAI_Receive:Timeout <- $r9
	.loc	5 0 5                   @ ../Drivers/STM32F7xx_HAL_Driver/Src/stm32f7xx_hal_sai.c:0:5
	movs	r5, #2
.Ltmp162:
.LBB8_5:
	@DEBUG_VALUE: HAL_SAI_Receive:tickstart <- $r8
	@DEBUG_VALUE: HAL_SAI_Receive:hsai <- $r4
	@DEBUG_VALUE: HAL_SAI_Receive:Size <- $r7
	@DEBUG_VALUE: HAL_SAI_Receive:Timeout <- $r9
	.loc	5 831 1 is_stmt 1       @ ../Drivers/STM32F7xx_HAL_Driver/Src/stm32f7xx_hal_sai.c:831:1
	uxtb	r0, r5
	add	sp, #4
	pop.w	{r4, r5, r6, r7, r8, r9, pc}
.Ltmp163:
.LBB8_6:
	@DEBUG_VALUE: HAL_SAI_Receive:tickstart <- $r8
	@DEBUG_VALUE: HAL_SAI_Receive:hsai <- $r4
	@DEBUG_VALUE: HAL_SAI_Receive:pData <- $r6
	@DEBUG_VALUE: HAL_SAI_Receive:Size <- $r7
	@DEBUG_VALUE: HAL_SAI_Receive:Timeout <- $r9
	@DEBUG_VALUE: HAL_SAI_Receive:Size <- $r7
	.loc	5 761 17                @ ../Drivers/STM32F7xx_HAL_Driver/Src/stm32f7xx_hal_sai.c:761:17
	movs	r0, #34
	strb.w	r0, [r4, #125]
	movs	r0, #1
	.loc	5 758 20                @ ../Drivers/STM32F7xx_HAL_Driver/Src/stm32f7xx_hal_sai.c:758:20
	str	r6, [r4, #100]
	add.w	r6, r9, #1
.Ltmp164:
	.loc	5 756 5                 @ ../Drivers/STM32F7xx_HAL_Driver/Src/stm32f7xx_hal_sai.c:756:5
	strb.w	r0, [r4, #124]
	movs	r0, #0
.Ltmp165:
	.loc	5 759 20                @ ../Drivers/STM32F7xx_HAL_Driver/Src/stm32f7xx_hal_sai.c:759:20
	strh.w	r7, [r4, #104]
	.loc	5 760 21                @ ../Drivers/STM32F7xx_HAL_Driver/Src/stm32f7xx_hal_sai.c:760:21
	strh.w	r7, [r4, #106]
	.loc	5 762 21                @ ../Drivers/STM32F7xx_HAL_Driver/Src/stm32f7xx_hal_sai.c:762:21
	str.w	r0, [r4, #128]
.Ltmp166:
	.loc	5 765 15                @ ../Drivers/STM32F7xx_HAL_Driver/Src/stm32f7xx_hal_sai.c:765:15
	ldr	r0, [r4]
	.loc	5 765 25 is_stmt 0      @ ../Drivers/STM32F7xx_HAL_Driver/Src/stm32f7xx_hal_sai.c:765:25
	ldr	r1, [r0]
.Ltmp167:
	.loc	5 765 8                 @ ../Drivers/STM32F7xx_HAL_Driver/Src/stm32f7xx_hal_sai.c:765:8
	tst.w	r1, #65536
.Ltmp168:
	.loc	5 768 7 is_stmt 1       @ ../Drivers/STM32F7xx_HAL_Driver/Src/stm32f7xx_hal_sai.c:768:7
	ittt	eq
	ldreq	r1, [r0]
	orreq	r1, r1, #65536
	streq	r1, [r0]
	b	.LBB8_20
.Ltmp169:
.LBB8_7:                                @   in Loop: Header=BB8_20 Depth=1
	@DEBUG_VALUE: HAL_SAI_Receive:tickstart <- $r8
	@DEBUG_VALUE: HAL_SAI_Receive:hsai <- $r4
	@DEBUG_VALUE: HAL_SAI_Receive:Size <- $r7
	@DEBUG_VALUE: HAL_SAI_Receive:Timeout <- $r9
	.loc	5 774 17                @ ../Drivers/STM32F7xx_HAL_Driver/Src/stm32f7xx_hal_sai.c:774:17
	ldr	r0, [r4]
	.loc	5 774 27 is_stmt 0      @ ../Drivers/STM32F7xx_HAL_Driver/Src/stm32f7xx_hal_sai.c:774:27
	ldr	r1, [r0, #20]
.Ltmp170:
	.loc	5 774 10                @ ../Drivers/STM32F7xx_HAL_Driver/Src/stm32f7xx_hal_sai.c:774:10
	tst.w	r1, #458752
	bne	.LBB8_12
.Ltmp171:
@ %bb.8:                                @   in Loop: Header=BB8_20 Depth=1
	@DEBUG_VALUE: HAL_SAI_Receive:tickstart <- $r8
	@DEBUG_VALUE: HAL_SAI_Receive:hsai <- $r4
	@DEBUG_VALUE: HAL_SAI_Receive:Size <- $r7
	@DEBUG_VALUE: HAL_SAI_Receive:Timeout <- $r9
	.loc	5 795 39 is_stmt 1      @ ../Drivers/STM32F7xx_HAL_Driver/Src/stm32f7xx_hal_sai.c:795:39
	cbz	r6, .LBB8_20
.Ltmp172:
@ %bb.9:                                @   in Loop: Header=BB8_20 Depth=1
	@DEBUG_VALUE: HAL_SAI_Receive:tickstart <- $r8
	@DEBUG_VALUE: HAL_SAI_Receive:hsai <- $r4
	@DEBUG_VALUE: HAL_SAI_Receive:Size <- $r7
	@DEBUG_VALUE: HAL_SAI_Receive:Timeout <- $r9
	cmp.w	r9, #0
	beq	.LBB8_23
.Ltmp173:
@ %bb.10:                               @   in Loop: Header=BB8_20 Depth=1
	@DEBUG_VALUE: HAL_SAI_Receive:tickstart <- $r8
	@DEBUG_VALUE: HAL_SAI_Receive:hsai <- $r4
	@DEBUG_VALUE: HAL_SAI_Receive:Size <- $r7
	@DEBUG_VALUE: HAL_SAI_Receive:Timeout <- $r9
	.loc	5 795 61 is_stmt 0      @ ../Drivers/STM32F7xx_HAL_Driver/Src/stm32f7xx_hal_sai.c:795:61
	bl	HAL_GetTick
	.loc	5 795 75                @ ../Drivers/STM32F7xx_HAL_Driver/Src/stm32f7xx_hal_sai.c:795:75
	sub.w	r0, r0, r8
.Ltmp174:
	.loc	5 795 12                @ ../Drivers/STM32F7xx_HAL_Driver/Src/stm32f7xx_hal_sai.c:795:12
	cmp	r0, r9
	bhi	.LBB8_22
.Ltmp175:
@ %bb.11:                               @   in Loop: Header=BB8_20 Depth=1
	@DEBUG_VALUE: HAL_SAI_Receive:tickstart <- $r8
	@DEBUG_VALUE: HAL_SAI_Receive:hsai <- $r4
	@DEBUG_VALUE: HAL_SAI_Receive:Size <- $r7
	@DEBUG_VALUE: HAL_SAI_Receive:Timeout <- $r9
	.loc	5 772 17 is_stmt 1      @ ../Drivers/STM32F7xx_HAL_Driver/Src/stm32f7xx_hal_sai.c:772:17
	ldrh.w	r7, [r4, #106]
.Ltmp176:
	.loc	5 0 17 is_stmt 0        @ ../Drivers/STM32F7xx_HAL_Driver/Src/stm32f7xx_hal_sai.c:0:17
	b	.LBB8_20
.Ltmp177:
.LBB8_12:                               @   in Loop: Header=BB8_20 Depth=1
	@DEBUG_VALUE: HAL_SAI_Receive:tickstart <- $r8
	@DEBUG_VALUE: HAL_SAI_Receive:hsai <- $r4
	@DEBUG_VALUE: HAL_SAI_Receive:Size <- $r7
	@DEBUG_VALUE: HAL_SAI_Receive:Timeout <- $r9
	.loc	5 776 24 is_stmt 1      @ ../Drivers/STM32F7xx_HAL_Driver/Src/stm32f7xx_hal_sai.c:776:24
	ldr	r1, [r4, #52]
	.loc	5 776 52 is_stmt 0      @ ../Drivers/STM32F7xx_HAL_Driver/Src/stm32f7xx_hal_sai.c:776:52
	cmp	r1, #64
	bne	.LBB8_15
.Ltmp178:
@ %bb.13:                               @   in Loop: Header=BB8_20 Depth=1
	@DEBUG_VALUE: HAL_SAI_Receive:tickstart <- $r8
	@DEBUG_VALUE: HAL_SAI_Receive:hsai <- $r4
	@DEBUG_VALUE: HAL_SAI_Receive:Size <- $r7
	@DEBUG_VALUE: HAL_SAI_Receive:Timeout <- $r9
	.loc	5 776 67                @ ../Drivers/STM32F7xx_HAL_Driver/Src/stm32f7xx_hal_sai.c:776:67
	ldr	r1, [r4, #40]
	ldr	r0, [r0, #28]
.Ltmp179:
	.loc	5 776 12                @ ../Drivers/STM32F7xx_HAL_Driver/Src/stm32f7xx_hal_sai.c:776:12
	cbnz	r1, .LBB8_16
.Ltmp180:
@ %bb.14:                               @   in Loop: Header=BB8_20 Depth=1
	@DEBUG_VALUE: HAL_SAI_Receive:tickstart <- $r8
	@DEBUG_VALUE: HAL_SAI_Receive:hsai <- $r4
	@DEBUG_VALUE: HAL_SAI_Receive:Size <- $r7
	@DEBUG_VALUE: HAL_SAI_Receive:Timeout <- $r9
	.loc	5 778 27 is_stmt 1      @ ../Drivers/STM32F7xx_HAL_Driver/Src/stm32f7xx_hal_sai.c:778:27
	ldr	r1, [r4, #100]
	adds	r2, r1, #1
	str	r2, [r4, #100]
	.loc	5 778 31 is_stmt 0      @ ../Drivers/STM32F7xx_HAL_Driver/Src/stm32f7xx_hal_sai.c:778:31
	strb	r0, [r1]
	b	.LBB8_19
.Ltmp181:
.LBB8_15:                               @   in Loop: Header=BB8_20 Depth=1
	@DEBUG_VALUE: HAL_SAI_Receive:tickstart <- $r8
	@DEBUG_VALUE: HAL_SAI_Receive:hsai <- $r4
	@DEBUG_VALUE: HAL_SAI_Receive:Size <- $r7
	@DEBUG_VALUE: HAL_SAI_Receive:Timeout <- $r9
	.loc	5 0 31                  @ ../Drivers/STM32F7xx_HAL_Driver/Src/stm32f7xx_hal_sai.c:0:31
	ldr	r0, [r0, #28]
	.loc	5 780 17 is_stmt 1      @ ../Drivers/STM32F7xx_HAL_Driver/Src/stm32f7xx_hal_sai.c:780:17
	cmp	r1, #128
	bhi	.LBB8_17
.Ltmp182:
.LBB8_16:                               @   in Loop: Header=BB8_20 Depth=1
	@DEBUG_VALUE: HAL_SAI_Receive:tickstart <- $r8
	@DEBUG_VALUE: HAL_SAI_Receive:hsai <- $r4
	@DEBUG_VALUE: HAL_SAI_Receive:Size <- $r7
	@DEBUG_VALUE: HAL_SAI_Receive:Timeout <- $r9
	.loc	5 782 30                @ ../Drivers/STM32F7xx_HAL_Driver/Src/stm32f7xx_hal_sai.c:782:30
	ldr	r1, [r4, #100]
	.loc	5 782 40 is_stmt 0      @ ../Drivers/STM32F7xx_HAL_Driver/Src/stm32f7xx_hal_sai.c:782:40
	strh	r0, [r1], #2
	b	.LBB8_18
.Ltmp183:
.LBB8_17:                               @   in Loop: Header=BB8_20 Depth=1
	@DEBUG_VALUE: HAL_SAI_Receive:tickstart <- $r8
	@DEBUG_VALUE: HAL_SAI_Receive:hsai <- $r4
	@DEBUG_VALUE: HAL_SAI_Receive:Size <- $r7
	@DEBUG_VALUE: HAL_SAI_Receive:Timeout <- $r9
	.loc	5 787 30 is_stmt 1      @ ../Drivers/STM32F7xx_HAL_Driver/Src/stm32f7xx_hal_sai.c:787:30
	ldr	r1, [r4, #100]
	.loc	5 787 40 is_stmt 0      @ ../Drivers/STM32F7xx_HAL_Driver/Src/stm32f7xx_hal_sai.c:787:40
	stm	r1!, {r0}
.Ltmp184:
.LBB8_18:                               @   in Loop: Header=BB8_20 Depth=1
	@DEBUG_VALUE: HAL_SAI_Receive:tickstart <- $r8
	@DEBUG_VALUE: HAL_SAI_Receive:hsai <- $r4
	@DEBUG_VALUE: HAL_SAI_Receive:Size <- $r7
	@DEBUG_VALUE: HAL_SAI_Receive:Timeout <- $r9
	.loc	5 0 40                  @ ../Drivers/STM32F7xx_HAL_Driver/Src/stm32f7xx_hal_sai.c:0:40
	str	r1, [r4, #100]
.Ltmp185:
.LBB8_19:                               @   in Loop: Header=BB8_20 Depth=1
	@DEBUG_VALUE: HAL_SAI_Receive:tickstart <- $r8
	@DEBUG_VALUE: HAL_SAI_Receive:hsai <- $r4
	@DEBUG_VALUE: HAL_SAI_Receive:Size <- $r7
	@DEBUG_VALUE: HAL_SAI_Receive:Timeout <- $r9
	.loc	5 790 24 is_stmt 1      @ ../Drivers/STM32F7xx_HAL_Driver/Src/stm32f7xx_hal_sai.c:790:24
	ldrh.w	r0, [r4, #106]
	subs	r7, r0, #1
.Ltmp186:
	strh.w	r7, [r4, #106]
.Ltmp187:
.LBB8_20:                               @ =>This Inner Loop Header: Depth=1
	@DEBUG_VALUE: HAL_SAI_Receive:tickstart <- $r8
	@DEBUG_VALUE: HAL_SAI_Receive:hsai <- $r4
	@DEBUG_VALUE: HAL_SAI_Receive:Size <- $r7
	@DEBUG_VALUE: HAL_SAI_Receive:Timeout <- $r9
	.loc	5 772 5                 @ ../Drivers/STM32F7xx_HAL_Driver/Src/stm32f7xx_hal_sai.c:772:5
	lsls	r0, r7, #16
	bne	.LBB8_7
.Ltmp188:
@ %bb.21:
	@DEBUG_VALUE: HAL_SAI_Receive:tickstart <- $r8
	@DEBUG_VALUE: HAL_SAI_Receive:hsai <- $r4
	@DEBUG_VALUE: HAL_SAI_Receive:Size <- $r7
	@DEBUG_VALUE: HAL_SAI_Receive:Timeout <- $r9
	.loc	5 0 5 is_stmt 0         @ ../Drivers/STM32F7xx_HAL_Driver/Src/stm32f7xx_hal_sai.c:0:5
	movs	r5, #0
	.loc	5 820 17 is_stmt 1      @ ../Drivers/STM32F7xx_HAL_Driver/Src/stm32f7xx_hal_sai.c:820:17
	movs	r0, #1
.Ltmp189:
	.loc	5 823 5                 @ ../Drivers/STM32F7xx_HAL_Driver/Src/stm32f7xx_hal_sai.c:823:5
	strb.w	r5, [r4, #124]
.Ltmp190:
	.loc	5 820 17                @ ../Drivers/STM32F7xx_HAL_Driver/Src/stm32f7xx_hal_sai.c:820:17
	strb.w	r0, [r4, #125]
	b	.LBB8_5
.Ltmp191:
.LBB8_22:
	@DEBUG_VALUE: HAL_SAI_Receive:tickstart <- $r8
	@DEBUG_VALUE: HAL_SAI_Receive:hsai <- $r4
	@DEBUG_VALUE: HAL_SAI_Receive:Size <- $r7
	@DEBUG_VALUE: HAL_SAI_Receive:Timeout <- $r9
	.loc	5 801 17                @ ../Drivers/STM32F7xx_HAL_Driver/Src/stm32f7xx_hal_sai.c:801:17
	ldr	r0, [r4]
.Ltmp192:
.LBB8_23:
	@DEBUG_VALUE: HAL_SAI_Receive:tickstart <- $r8
	@DEBUG_VALUE: HAL_SAI_Receive:hsai <- $r4
	@DEBUG_VALUE: HAL_SAI_Receive:Size <- $r7
	@DEBUG_VALUE: HAL_SAI_Receive:Timeout <- $r9
	.loc	5 798 27                @ ../Drivers/STM32F7xx_HAL_Driver/Src/stm32f7xx_hal_sai.c:798:27
	ldr.w	r1, [r4, #128]
	orr	r1, r1, #64
	str.w	r1, [r4, #128]
	.loc	5 801 33                @ ../Drivers/STM32F7xx_HAL_Driver/Src/stm32f7xx_hal_sai.c:801:33
	mov.w	r1, #-1
	str	r1, [r0, #24]
	.loc	5 804 11                @ ../Drivers/STM32F7xx_HAL_Driver/Src/stm32f7xx_hal_sai.c:804:11
	mov	r0, r4
	bl	SAI_Disable
	.loc	5 807 11                @ ../Drivers/STM32F7xx_HAL_Driver/Src/stm32f7xx_hal_sai.c:807:11
	ldr	r0, [r4]
	movs	r5, #1
	ldr	r1, [r0, #4]
	orr	r1, r1, #8
	str	r1, [r0, #4]
.Ltmp193:
	.loc	5 813 11                @ ../Drivers/STM32F7xx_HAL_Driver/Src/stm32f7xx_hal_sai.c:813:11
	movs	r0, #0
	strb.w	r0, [r4, #124]
.Ltmp194:
	.loc	5 810 23                @ ../Drivers/STM32F7xx_HAL_Driver/Src/stm32f7xx_hal_sai.c:810:23
	strb.w	r5, [r4, #125]
	b	.LBB8_5
.Ltmp195:
.Lfunc_end8:
	.size	HAL_SAI_Receive, .Lfunc_end8-HAL_SAI_Receive
	.cfi_endproc
	.cantunwind
	.fnend
                                        @ -- End function
	.section	.text.HAL_SAI_Transmit_IT,"ax",%progbits
	.hidden	HAL_SAI_Transmit_IT     @ -- Begin function HAL_SAI_Transmit_IT
	.globl	HAL_SAI_Transmit_IT
	.p2align	2
	.type	HAL_SAI_Transmit_IT,%function
	.code	16                      @ @HAL_SAI_Transmit_IT
	.thumb_func
HAL_SAI_Transmit_IT:
.Lfunc_begin9:
	.loc	5 842 0                 @ ../Drivers/STM32F7xx_HAL_Driver/Src/stm32f7xx_hal_sai.c:842:0
	.fnstart
	.cfi_startproc
@ %bb.0:
	.save	{r4, lr}
	push	{r4, lr}
	.cfi_def_cfa_offset 8
	.cfi_offset lr, -4
	.cfi_offset r4, -8
	@DEBUG_VALUE: HAL_SAI_Transmit_IT:hsai <- $r0
	@DEBUG_VALUE: HAL_SAI_Transmit_IT:pData <- $r1
	@DEBUG_VALUE: HAL_SAI_Transmit_IT:Size <- $r2
	mov	r4, r0
	movs	r0, #1
.Ltmp196:
	@DEBUG_VALUE: HAL_SAI_Transmit_IT:Size <- $r2
	@DEBUG_VALUE: HAL_SAI_Transmit_IT:pData <- $r1
	@DEBUG_VALUE: HAL_SAI_Transmit_IT:hsai <- $r4
	.loc	5 843 22 prologue_end   @ ../Drivers/STM32F7xx_HAL_Driver/Src/stm32f7xx_hal_sai.c:843:22
	cmp	r1, #0
	beq	.LBB9_12
.Ltmp197:
@ %bb.1:
	@DEBUG_VALUE: HAL_SAI_Transmit_IT:hsai <- $r4
	@DEBUG_VALUE: HAL_SAI_Transmit_IT:Size <- $r2
	@DEBUG_VALUE: HAL_SAI_Transmit_IT:pData <- $r1
	cbz	r2, .LBB9_12
.Ltmp198:
@ %bb.2:
	@DEBUG_VALUE: HAL_SAI_Transmit_IT:hsai <- $r4
	@DEBUG_VALUE: HAL_SAI_Transmit_IT:Size <- $r2
	@DEBUG_VALUE: HAL_SAI_Transmit_IT:pData <- $r1
	.loc	5 848 12                @ ../Drivers/STM32F7xx_HAL_Driver/Src/stm32f7xx_hal_sai.c:848:12
	ldrb.w	r0, [r4, #125]
.Ltmp199:
	.loc	5 848 6 is_stmt 0       @ ../Drivers/STM32F7xx_HAL_Driver/Src/stm32f7xx_hal_sai.c:848:6
	cmp	r0, #1
	bne	.LBB9_4
.Ltmp200:
@ %bb.3:
	@DEBUG_VALUE: HAL_SAI_Transmit_IT:hsai <- $r4
	@DEBUG_VALUE: HAL_SAI_Transmit_IT:Size <- $r2
	@DEBUG_VALUE: HAL_SAI_Transmit_IT:pData <- $r1
	.loc	5 851 5 is_stmt 1       @ ../Drivers/STM32F7xx_HAL_Driver/Src/stm32f7xx_hal_sai.c:851:5
	ldrb.w	r0, [r4, #124]
.Ltmp201:
	.loc	5 851 5 is_stmt 0       @ ../Drivers/STM32F7xx_HAL_Driver/Src/stm32f7xx_hal_sai.c:851:5
	cmp	r0, #1
	bne	.LBB9_5
.Ltmp202:
.LBB9_4:
	@DEBUG_VALUE: HAL_SAI_Transmit_IT:hsai <- $r4
	@DEBUG_VALUE: HAL_SAI_Transmit_IT:Size <- $r2
	@DEBUG_VALUE: HAL_SAI_Transmit_IT:pData <- $r1
	.loc	5 0 5                   @ ../Drivers/STM32F7xx_HAL_Driver/Src/stm32f7xx_hal_sai.c:0:5
	movs	r0, #2
	b	.LBB9_12
.Ltmp203:
.LBB9_5:
	@DEBUG_VALUE: HAL_SAI_Transmit_IT:hsai <- $r4
	@DEBUG_VALUE: HAL_SAI_Transmit_IT:Size <- $r2
	@DEBUG_VALUE: HAL_SAI_Transmit_IT:pData <- $r1
	@DEBUG_VALUE: HAL_SAI_Transmit_IT:Size <- $r2
	movs	r0, #0
	.loc	5 856 21 is_stmt 1      @ ../Drivers/STM32F7xx_HAL_Driver/Src/stm32f7xx_hal_sai.c:856:21
	str.w	r0, [r4, #128]
	movs	r0, #1
	.loc	5 853 20                @ ../Drivers/STM32F7xx_HAL_Driver/Src/stm32f7xx_hal_sai.c:853:20
	str	r1, [r4, #100]
.Ltmp204:
	.loc	5 851 5                 @ ../Drivers/STM32F7xx_HAL_Driver/Src/stm32f7xx_hal_sai.c:851:5
	strb.w	r0, [r4, #124]
.Ltmp205:
	.loc	5 857 17                @ ../Drivers/STM32F7xx_HAL_Driver/Src/stm32f7xx_hal_sai.c:857:17
	movs	r0, #18
	.loc	5 854 20                @ ../Drivers/STM32F7xx_HAL_Driver/Src/stm32f7xx_hal_sai.c:854:20
	strh.w	r2, [r4, #104]
	.loc	5 855 21                @ ../Drivers/STM32F7xx_HAL_Driver/Src/stm32f7xx_hal_sai.c:855:21
	strh.w	r2, [r4, #106]
	.loc	5 857 17                @ ../Drivers/STM32F7xx_HAL_Driver/Src/stm32f7xx_hal_sai.c:857:17
	strb.w	r0, [r4, #125]
.Ltmp206:
	.loc	5 859 20                @ ../Drivers/STM32F7xx_HAL_Driver/Src/stm32f7xx_hal_sai.c:859:20
	ldr	r1, [r4, #52]
.Ltmp207:
	.loc	5 859 48 is_stmt 0      @ ../Drivers/STM32F7xx_HAL_Driver/Src/stm32f7xx_hal_sai.c:859:48
	cmp	r1, #64
	bne	.LBB9_8
.Ltmp208:
@ %bb.6:
	@DEBUG_VALUE: HAL_SAI_Transmit_IT:hsai <- $r4
	@DEBUG_VALUE: HAL_SAI_Transmit_IT:Size <- $r2
	.loc	5 859 63                @ ../Drivers/STM32F7xx_HAL_Driver/Src/stm32f7xx_hal_sai.c:859:63
	ldr	r1, [r4, #40]
	add.w	r0, r4, #120
.Ltmp209:
	.loc	5 859 8                 @ ../Drivers/STM32F7xx_HAL_Driver/Src/stm32f7xx_hal_sai.c:859:8
	cbnz	r1, .LBB9_9
.Ltmp210:
@ %bb.7:
	@DEBUG_VALUE: HAL_SAI_Transmit_IT:hsai <- $r4
	@DEBUG_VALUE: HAL_SAI_Transmit_IT:Size <- $r2
	.loc	5 861 37 is_stmt 1      @ ../Drivers/STM32F7xx_HAL_Driver/Src/stm32f7xx_hal_sai.c:861:37
	ldr	r1, __arm_cp.9_2
	b	.LBB9_11
.Ltmp211:
.LBB9_8:
	@DEBUG_VALUE: HAL_SAI_Transmit_IT:hsai <- $r4
	@DEBUG_VALUE: HAL_SAI_Transmit_IT:Size <- $r2
	.loc	5 0 37 is_stmt 0        @ ../Drivers/STM32F7xx_HAL_Driver/Src/stm32f7xx_hal_sai.c:0:37
	add.w	r0, r4, #120
	.loc	5 863 13 is_stmt 1      @ ../Drivers/STM32F7xx_HAL_Driver/Src/stm32f7xx_hal_sai.c:863:13
	cmp	r1, #128
	bhi	.LBB9_10
.Ltmp212:
.LBB9_9:
	@DEBUG_VALUE: HAL_SAI_Transmit_IT:hsai <- $r4
	@DEBUG_VALUE: HAL_SAI_Transmit_IT:Size <- $r2
	.loc	5 865 37                @ ../Drivers/STM32F7xx_HAL_Driver/Src/stm32f7xx_hal_sai.c:865:37
	ldr	r1, __arm_cp.9_1
	b	.LBB9_11
.Ltmp213:
.LBB9_10:
	@DEBUG_VALUE: HAL_SAI_Transmit_IT:hsai <- $r4
	@DEBUG_VALUE: HAL_SAI_Transmit_IT:Size <- $r2
	.loc	5 869 37                @ ../Drivers/STM32F7xx_HAL_Driver/Src/stm32f7xx_hal_sai.c:869:37
	ldr	r1, __arm_cp.9_0
.Ltmp214:
.LBB9_11:
	@DEBUG_VALUE: HAL_SAI_Transmit_IT:hsai <- $r4
	@DEBUG_VALUE: HAL_SAI_Transmit_IT:Size <- $r2
	.loc	5 0 37 is_stmt 0        @ ../Drivers/STM32F7xx_HAL_Driver/Src/stm32f7xx_hal_sai.c:0:37
	str	r1, [r0]
	.loc	5 873 5 is_stmt 1       @ ../Drivers/STM32F7xx_HAL_Driver/Src/stm32f7xx_hal_sai.c:873:5
	mov	r0, r4
	bl	SAI_FillFifo
.Ltmp215:
	.loc	5 876 5                 @ ../Drivers/STM32F7xx_HAL_Driver/Src/stm32f7xx_hal_sai.c:876:5
	mov	r0, r4
	movs	r1, #1
	bl	SAI_InterruptFlag
	ldr	r1, [r4]
	ldr	r2, [r1, #16]
	orrs	r0, r2
	str	r0, [r1, #16]
.Ltmp216:
	.loc	5 879 25                @ ../Drivers/STM32F7xx_HAL_Driver/Src/stm32f7xx_hal_sai.c:879:25
	ldr	r0, [r1]
.Ltmp217:
	.loc	5 879 8 is_stmt 0       @ ../Drivers/STM32F7xx_HAL_Driver/Src/stm32f7xx_hal_sai.c:879:8
	tst.w	r0, #65536
.Ltmp218:
	.loc	5 882 7 is_stmt 1       @ ../Drivers/STM32F7xx_HAL_Driver/Src/stm32f7xx_hal_sai.c:882:7
	ittt	eq
	ldreq	r0, [r1]
	orreq	r0, r0, #65536
	streq	r0, [r1]
	movs	r0, #0
.Ltmp219:
	.loc	5 885 5                 @ ../Drivers/STM32F7xx_HAL_Driver/Src/stm32f7xx_hal_sai.c:885:5
	strb.w	r0, [r4, #124]
.Ltmp220:
.LBB9_12:
	@DEBUG_VALUE: HAL_SAI_Transmit_IT:hsai <- $r4
	.loc	5 893 1                 @ ../Drivers/STM32F7xx_HAL_Driver/Src/stm32f7xx_hal_sai.c:893:1
	uxtb	r0, r0
	pop	{r4, pc}
.Ltmp221:
	.p2align	2
@ %bb.13:
	.loc	5 0 1 is_stmt 0         @ ../Drivers/STM32F7xx_HAL_Driver/Src/stm32f7xx_hal_sai.c:0:1
__arm_cp.9_0:
	.long	SAI_Transmit_IT32Bit
.Lcpi_end6:
	.size	__arm_cp.9_0, .Lcpi_end6-__arm_cp.9_0
__arm_cp.9_1:
	.long	SAI_Transmit_IT16Bit
.Lcpi_end7:
	.size	__arm_cp.9_1, .Lcpi_end7-__arm_cp.9_1
__arm_cp.9_2:
	.long	SAI_Transmit_IT8Bit
.Lcpi_end8:
	.size	__arm_cp.9_2, .Lcpi_end8-__arm_cp.9_2
.Lfunc_end9:
	.size	HAL_SAI_Transmit_IT, .Lfunc_end9-HAL_SAI_Transmit_IT
	.cfi_endproc
	.cantunwind
	.fnend
                                        @ -- End function
	.section	.text.SAI_Transmit_IT8Bit,"ax",%progbits
	.p2align	1               @ -- Begin function SAI_Transmit_IT8Bit
	.type	SAI_Transmit_IT8Bit,%function
	.code	16                      @ @SAI_Transmit_IT8Bit
	.thumb_func
SAI_Transmit_IT8Bit:
.Lfunc_begin10:
	.loc	5 1883 0 is_stmt 1      @ ../Drivers/STM32F7xx_HAL_Driver/Src/stm32f7xx_hal_sai.c:1883:0
	.fnstart
	.cfi_startproc
@ %bb.0:
	.save	{r4, r5, r7, lr}
	push	{r4, r5, r7, lr}
	.cfi_def_cfa_offset 16
	.cfi_offset lr, -4
	.cfi_offset r7, -8
	.cfi_offset r5, -12
	.cfi_offset r4, -16
	@DEBUG_VALUE: SAI_Transmit_IT8Bit:hsai <- $r0
	mov	r4, r0
.Ltmp222:
	@DEBUG_VALUE: SAI_Transmit_IT8Bit:hsai <- $r4
	.loc	5 1884 12 prologue_end  @ ../Drivers/STM32F7xx_HAL_Driver/Src/stm32f7xx_hal_sai.c:1884:12
	ldrh.w	r0, [r0, #106]
.Ltmp223:
	.loc	5 1884 6 is_stmt 0      @ ../Drivers/STM32F7xx_HAL_Driver/Src/stm32f7xx_hal_sai.c:1884:6
	cbz	r0, .LBB10_2
.Ltmp224:
@ %bb.1:
	@DEBUG_VALUE: SAI_Transmit_IT8Bit:hsai <- $r4
	.loc	5 1895 42 is_stmt 1     @ ../Drivers/STM32F7xx_HAL_Driver/Src/stm32f7xx_hal_sai.c:1895:42
	ldr	r2, [r4, #100]
	.loc	5 1895 11 is_stmt 0     @ ../Drivers/STM32F7xx_HAL_Driver/Src/stm32f7xx_hal_sai.c:1895:11
	ldr	r1, [r4]
	.loc	5 1896 20 is_stmt 1     @ ../Drivers/STM32F7xx_HAL_Driver/Src/stm32f7xx_hal_sai.c:1896:20
	subs	r0, #1
	.loc	5 1895 42               @ ../Drivers/STM32F7xx_HAL_Driver/Src/stm32f7xx_hal_sai.c:1895:42
	adds	r3, r2, #1
	str	r3, [r4, #100]
	.loc	5 1895 26 is_stmt 0     @ ../Drivers/STM32F7xx_HAL_Driver/Src/stm32f7xx_hal_sai.c:1895:26
	ldrb	r2, [r2]
	.loc	5 1895 24               @ ../Drivers/STM32F7xx_HAL_Driver/Src/stm32f7xx_hal_sai.c:1895:24
	str	r2, [r1, #28]
	.loc	5 1896 20 is_stmt 1     @ ../Drivers/STM32F7xx_HAL_Driver/Src/stm32f7xx_hal_sai.c:1896:20
	strh.w	r0, [r4, #106]
.Ltmp225:
	.loc	5 1898 1                @ ../Drivers/STM32F7xx_HAL_Driver/Src/stm32f7xx_hal_sai.c:1898:1
	pop	{r4, r5, r7, pc}
.Ltmp226:
.LBB10_2:
	@DEBUG_VALUE: SAI_Transmit_IT8Bit:hsai <- $r4
	.loc	5 1888 5                @ ../Drivers/STM32F7xx_HAL_Driver/Src/stm32f7xx_hal_sai.c:1888:5
	mov	r0, r4
	movs	r1, #1
	movs	r5, #1
	bl	SAI_InterruptFlag
	ldr	r1, [r4]
	ldr	r2, [r1, #16]
	bic.w	r0, r2, r0
	str	r0, [r1, #16]
	.loc	5 1889 17               @ ../Drivers/STM32F7xx_HAL_Driver/Src/stm32f7xx_hal_sai.c:1889:17
	strb.w	r5, [r4, #125]
	.loc	5 1890 5                @ ../Drivers/STM32F7xx_HAL_Driver/Src/stm32f7xx_hal_sai.c:1890:5
	mov	r0, r4
	pop.w	{r4, r5, r7, lr}
.Ltmp227:
	b	HAL_SAI_TxCpltCallback
.Ltmp228:
.Lfunc_end10:
	.size	SAI_Transmit_IT8Bit, .Lfunc_end10-SAI_Transmit_IT8Bit
	.cfi_endproc
	.cantunwind
	.fnend
                                        @ -- End function
	.section	.text.SAI_Transmit_IT16Bit,"ax",%progbits
	.p2align	1               @ -- Begin function SAI_Transmit_IT16Bit
	.type	SAI_Transmit_IT16Bit,%function
	.code	16                      @ @SAI_Transmit_IT16Bit
	.thumb_func
SAI_Transmit_IT16Bit:
.Lfunc_begin11:
	.loc	5 1907 0                @ ../Drivers/STM32F7xx_HAL_Driver/Src/stm32f7xx_hal_sai.c:1907:0
	.fnstart
	.cfi_startproc
@ %bb.0:
	.save	{r4, r5, r7, lr}
	push	{r4, r5, r7, lr}
	.cfi_def_cfa_offset 16
	.cfi_offset lr, -4
	.cfi_offset r7, -8
	.cfi_offset r5, -12
	.cfi_offset r4, -16
	@DEBUG_VALUE: SAI_Transmit_IT16Bit:hsai <- $r0
	mov	r4, r0
.Ltmp229:
	@DEBUG_VALUE: SAI_Transmit_IT16Bit:hsai <- $r4
	.loc	5 1908 12 prologue_end  @ ../Drivers/STM32F7xx_HAL_Driver/Src/stm32f7xx_hal_sai.c:1908:12
	ldrh.w	r0, [r0, #106]
.Ltmp230:
	.loc	5 1908 6 is_stmt 0      @ ../Drivers/STM32F7xx_HAL_Driver/Src/stm32f7xx_hal_sai.c:1908:6
	cbz	r0, .LBB11_2
.Ltmp231:
@ %bb.1:
	@DEBUG_VALUE: SAI_Transmit_IT16Bit:hsai <- $r4
	.loc	5 1919 45 is_stmt 1     @ ../Drivers/STM32F7xx_HAL_Driver/Src/stm32f7xx_hal_sai.c:1919:45
	ldr	r2, [r4, #100]
	.loc	5 1919 11 is_stmt 0     @ ../Drivers/STM32F7xx_HAL_Driver/Src/stm32f7xx_hal_sai.c:1919:11
	ldr	r1, [r4]
	.loc	5 1921 20 is_stmt 1     @ ../Drivers/STM32F7xx_HAL_Driver/Src/stm32f7xx_hal_sai.c:1921:20
	subs	r0, #1
	.loc	5 1919 26               @ ../Drivers/STM32F7xx_HAL_Driver/Src/stm32f7xx_hal_sai.c:1919:26
	ldrh	r3, [r2], #2
	.loc	5 1919 24 is_stmt 0     @ ../Drivers/STM32F7xx_HAL_Driver/Src/stm32f7xx_hal_sai.c:1919:24
	str	r3, [r1, #28]
	.loc	5 1921 20 is_stmt 1     @ ../Drivers/STM32F7xx_HAL_Driver/Src/stm32f7xx_hal_sai.c:1921:20
	strh.w	r0, [r4, #106]
	.loc	5 1920 19               @ ../Drivers/STM32F7xx_HAL_Driver/Src/stm32f7xx_hal_sai.c:1920:19
	str	r2, [r4, #100]
.Ltmp232:
	.loc	5 1923 1                @ ../Drivers/STM32F7xx_HAL_Driver/Src/stm32f7xx_hal_sai.c:1923:1
	pop	{r4, r5, r7, pc}
.Ltmp233:
.LBB11_2:
	@DEBUG_VALUE: SAI_Transmit_IT16Bit:hsai <- $r4
	.loc	5 1912 5                @ ../Drivers/STM32F7xx_HAL_Driver/Src/stm32f7xx_hal_sai.c:1912:5
	mov	r0, r4
	movs	r1, #1
	movs	r5, #1
	bl	SAI_InterruptFlag
	ldr	r1, [r4]
	ldr	r2, [r1, #16]
	bic.w	r0, r2, r0
	str	r0, [r1, #16]
	.loc	5 1913 17               @ ../Drivers/STM32F7xx_HAL_Driver/Src/stm32f7xx_hal_sai.c:1913:17
	strb.w	r5, [r4, #125]
	.loc	5 1914 5                @ ../Drivers/STM32F7xx_HAL_Driver/Src/stm32f7xx_hal_sai.c:1914:5
	mov	r0, r4
	pop.w	{r4, r5, r7, lr}
.Ltmp234:
	b	HAL_SAI_TxCpltCallback
.Ltmp235:
.Lfunc_end11:
	.size	SAI_Transmit_IT16Bit, .Lfunc_end11-SAI_Transmit_IT16Bit
	.cfi_endproc
	.cantunwind
	.fnend
                                        @ -- End function
	.section	.text.SAI_Transmit_IT32Bit,"ax",%progbits
	.p2align	1               @ -- Begin function SAI_Transmit_IT32Bit
	.type	SAI_Transmit_IT32Bit,%function
	.code	16                      @ @SAI_Transmit_IT32Bit
	.thumb_func
SAI_Transmit_IT32Bit:
.Lfunc_begin12:
	.loc	5 1932 0                @ ../Drivers/STM32F7xx_HAL_Driver/Src/stm32f7xx_hal_sai.c:1932:0
	.fnstart
	.cfi_startproc
@ %bb.0:
	.save	{r4, r5, r7, lr}
	push	{r4, r5, r7, lr}
	.cfi_def_cfa_offset 16
	.cfi_offset lr, -4
	.cfi_offset r7, -8
	.cfi_offset r5, -12
	.cfi_offset r4, -16
	@DEBUG_VALUE: SAI_Transmit_IT32Bit:hsai <- $r0
	mov	r4, r0
.Ltmp236:
	@DEBUG_VALUE: SAI_Transmit_IT32Bit:hsai <- $r4
	.loc	5 1933 12 prologue_end  @ ../Drivers/STM32F7xx_HAL_Driver/Src/stm32f7xx_hal_sai.c:1933:12
	ldrh.w	r0, [r0, #106]
.Ltmp237:
	.loc	5 1933 6 is_stmt 0      @ ../Drivers/STM32F7xx_HAL_Driver/Src/stm32f7xx_hal_sai.c:1933:6
	cbz	r0, .LBB12_2
.Ltmp238:
@ %bb.1:
	@DEBUG_VALUE: SAI_Transmit_IT32Bit:hsai <- $r4
	.loc	5 1944 45 is_stmt 1     @ ../Drivers/STM32F7xx_HAL_Driver/Src/stm32f7xx_hal_sai.c:1944:45
	ldr	r2, [r4, #100]
	.loc	5 1944 11 is_stmt 0     @ ../Drivers/STM32F7xx_HAL_Driver/Src/stm32f7xx_hal_sai.c:1944:11
	ldr	r1, [r4]
	.loc	5 1946 20 is_stmt 1     @ ../Drivers/STM32F7xx_HAL_Driver/Src/stm32f7xx_hal_sai.c:1946:20
	subs	r0, #1
	.loc	5 1944 26               @ ../Drivers/STM32F7xx_HAL_Driver/Src/stm32f7xx_hal_sai.c:1944:26
	ldm	r2!, {r3}
	.loc	5 1944 24 is_stmt 0     @ ../Drivers/STM32F7xx_HAL_Driver/Src/stm32f7xx_hal_sai.c:1944:24
	str	r3, [r1, #28]
	.loc	5 1946 20 is_stmt 1     @ ../Drivers/STM32F7xx_HAL_Driver/Src/stm32f7xx_hal_sai.c:1946:20
	strh.w	r0, [r4, #106]
	.loc	5 1945 19               @ ../Drivers/STM32F7xx_HAL_Driver/Src/stm32f7xx_hal_sai.c:1945:19
	str	r2, [r4, #100]
.Ltmp239:
	.loc	5 1948 1                @ ../Drivers/STM32F7xx_HAL_Driver/Src/stm32f7xx_hal_sai.c:1948:1
	pop	{r4, r5, r7, pc}
.Ltmp240:
.LBB12_2:
	@DEBUG_VALUE: SAI_Transmit_IT32Bit:hsai <- $r4
	.loc	5 1937 5                @ ../Drivers/STM32F7xx_HAL_Driver/Src/stm32f7xx_hal_sai.c:1937:5
	mov	r0, r4
	movs	r1, #1
	movs	r5, #1
	bl	SAI_InterruptFlag
	ldr	r1, [r4]
	ldr	r2, [r1, #16]
	bic.w	r0, r2, r0
	str	r0, [r1, #16]
	.loc	5 1938 17               @ ../Drivers/STM32F7xx_HAL_Driver/Src/stm32f7xx_hal_sai.c:1938:17
	strb.w	r5, [r4, #125]
	.loc	5 1939 5                @ ../Drivers/STM32F7xx_HAL_Driver/Src/stm32f7xx_hal_sai.c:1939:5
	mov	r0, r4
	pop.w	{r4, r5, r7, lr}
.Ltmp241:
	b	HAL_SAI_TxCpltCallback
.Ltmp242:
.Lfunc_end12:
	.size	SAI_Transmit_IT32Bit, .Lfunc_end12-SAI_Transmit_IT32Bit
	.cfi_endproc
	.cantunwind
	.fnend
                                        @ -- End function
	.section	.text.SAI_InterruptFlag,"ax",%progbits
	.p2align	1               @ -- Begin function SAI_InterruptFlag
	.type	SAI_InterruptFlag,%function
	.code	16                      @ @SAI_InterruptFlag
	.thumb_func
SAI_InterruptFlag:
.Lfunc_begin13:
	.loc	5 1821 0                @ ../Drivers/STM32F7xx_HAL_Driver/Src/stm32f7xx_hal_sai.c:1821:0
	.fnstart
	.cfi_startproc
@ %bb.0:
	@DEBUG_VALUE: SAI_InterruptFlag:hsai <- $r0
	@DEBUG_VALUE: SAI_InterruptFlag:mode <- $r1
	movs	r2, #1
.Ltmp243:
	@DEBUG_VALUE: SAI_InterruptFlag:tmpIT <- 1
	@DEBUG_VALUE: SAI_InterruptFlag:mode <- $r1
	@DEBUG_VALUE: SAI_InterruptFlag:hsai <- $r0
	.loc	5 1824 6 prologue_end   @ ../Drivers/STM32F7xx_HAL_Driver/Src/stm32f7xx_hal_sai.c:1824:6
	cmp	r1, #1
	it	eq
	moveq	r2, #9
.Ltmp244:
	@DEBUG_VALUE: SAI_InterruptFlag:tmpIT <- $r2
	.loc	5 0 6 is_stmt 0         @ ../Drivers/STM32F7xx_HAL_Driver/Src/stm32f7xx_hal_sai.c:0:6
	ldr	r1, [r0, #4]
.Ltmp245:
	.loc	5 1829 18 is_stmt 1     @ ../Drivers/STM32F7xx_HAL_Driver/Src/stm32f7xx_hal_sai.c:1829:18
	ldr	r0, [r0, #48]
.Ltmp246:
	.loc	5 1829 49 is_stmt 0     @ ../Drivers/STM32F7xx_HAL_Driver/Src/stm32f7xx_hal_sai.c:1829:49
	cmp	r0, #8
	.loc	5 1830 49 is_stmt 1     @ ../Drivers/STM32F7xx_HAL_Driver/Src/stm32f7xx_hal_sai.c:1830:49
	ittt	eq
	orreq	r0, r1, #2
	cmpeq	r0, #3
.Ltmp247:
	.loc	5 1832 10               @ ../Drivers/STM32F7xx_HAL_Driver/Src/stm32f7xx_hal_sai.c:1832:10
	orreq	r2, r2, #16
.Ltmp248:
	@DEBUG_VALUE: SAI_InterruptFlag:tmpIT <- $r2
	.loc	5 1835 49               @ ../Drivers/STM32F7xx_HAL_Driver/Src/stm32f7xx_hal_sai.c:1835:49
	bic	r0, r1, #1
	movs	r1, #4
	cmp	r0, #2
	it	eq
	moveq	r1, #96
	orr.w	r0, r1, r2
.Ltmp249:
	@DEBUG_VALUE: SAI_InterruptFlag:tmpIT <- $r0
	.loc	5 1844 3                @ ../Drivers/STM32F7xx_HAL_Driver/Src/stm32f7xx_hal_sai.c:1844:3
	bx	lr
.Ltmp250:
.Lfunc_end13:
	.size	SAI_InterruptFlag, .Lfunc_end13-SAI_InterruptFlag
	.cfi_endproc
	.cantunwind
	.fnend
                                        @ -- End function
	.section	.text.HAL_SAI_Receive_IT,"ax",%progbits
	.hidden	HAL_SAI_Receive_IT      @ -- Begin function HAL_SAI_Receive_IT
	.globl	HAL_SAI_Receive_IT
	.p2align	2
	.type	HAL_SAI_Receive_IT,%function
	.code	16                      @ @HAL_SAI_Receive_IT
	.thumb_func
HAL_SAI_Receive_IT:
.Lfunc_begin14:
	.loc	5 904 0                 @ ../Drivers/STM32F7xx_HAL_Driver/Src/stm32f7xx_hal_sai.c:904:0
	.fnstart
	.cfi_startproc
@ %bb.0:
	.save	{r4, lr}
	push	{r4, lr}
	.cfi_def_cfa_offset 8
	.cfi_offset lr, -4
	.cfi_offset r4, -8
	@DEBUG_VALUE: HAL_SAI_Receive_IT:hsai <- $r0
	@DEBUG_VALUE: HAL_SAI_Receive_IT:pData <- $r1
	@DEBUG_VALUE: HAL_SAI_Receive_IT:Size <- $r2
	mov	r4, r0
	movs	r0, #1
.Ltmp251:
	@DEBUG_VALUE: HAL_SAI_Receive_IT:Size <- $r2
	@DEBUG_VALUE: HAL_SAI_Receive_IT:pData <- $r1
	@DEBUG_VALUE: HAL_SAI_Receive_IT:hsai <- $r4
	.loc	5 905 22 prologue_end   @ ../Drivers/STM32F7xx_HAL_Driver/Src/stm32f7xx_hal_sai.c:905:22
	cbz	r1, .LBB14_12
.Ltmp252:
@ %bb.1:
	@DEBUG_VALUE: HAL_SAI_Receive_IT:hsai <- $r4
	@DEBUG_VALUE: HAL_SAI_Receive_IT:Size <- $r2
	@DEBUG_VALUE: HAL_SAI_Receive_IT:pData <- $r1
	cbz	r2, .LBB14_12
.Ltmp253:
@ %bb.2:
	@DEBUG_VALUE: HAL_SAI_Receive_IT:hsai <- $r4
	@DEBUG_VALUE: HAL_SAI_Receive_IT:Size <- $r2
	@DEBUG_VALUE: HAL_SAI_Receive_IT:pData <- $r1
	.loc	5 910 12                @ ../Drivers/STM32F7xx_HAL_Driver/Src/stm32f7xx_hal_sai.c:910:12
	ldrb.w	r0, [r4, #125]
.Ltmp254:
	.loc	5 910 6 is_stmt 0       @ ../Drivers/STM32F7xx_HAL_Driver/Src/stm32f7xx_hal_sai.c:910:6
	cmp	r0, #1
	bne	.LBB14_4
.Ltmp255:
@ %bb.3:
	@DEBUG_VALUE: HAL_SAI_Receive_IT:hsai <- $r4
	@DEBUG_VALUE: HAL_SAI_Receive_IT:Size <- $r2
	@DEBUG_VALUE: HAL_SAI_Receive_IT:pData <- $r1
	.loc	5 913 5 is_stmt 1       @ ../Drivers/STM32F7xx_HAL_Driver/Src/stm32f7xx_hal_sai.c:913:5
	ldrb.w	r0, [r4, #124]
.Ltmp256:
	.loc	5 913 5 is_stmt 0       @ ../Drivers/STM32F7xx_HAL_Driver/Src/stm32f7xx_hal_sai.c:913:5
	cmp	r0, #1
	bne	.LBB14_5
.Ltmp257:
.LBB14_4:
	@DEBUG_VALUE: HAL_SAI_Receive_IT:hsai <- $r4
	@DEBUG_VALUE: HAL_SAI_Receive_IT:Size <- $r2
	@DEBUG_VALUE: HAL_SAI_Receive_IT:pData <- $r1
	.loc	5 0 5                   @ ../Drivers/STM32F7xx_HAL_Driver/Src/stm32f7xx_hal_sai.c:0:5
	movs	r0, #2
	b	.LBB14_12
.Ltmp258:
.LBB14_5:
	@DEBUG_VALUE: HAL_SAI_Receive_IT:hsai <- $r4
	@DEBUG_VALUE: HAL_SAI_Receive_IT:Size <- $r2
	@DEBUG_VALUE: HAL_SAI_Receive_IT:pData <- $r1
	@DEBUG_VALUE: HAL_SAI_Receive_IT:Size <- $r2
	movs	r0, #0
	.loc	5 918 21 is_stmt 1      @ ../Drivers/STM32F7xx_HAL_Driver/Src/stm32f7xx_hal_sai.c:918:21
	str.w	r0, [r4, #128]
	movs	r0, #1
	.loc	5 915 20                @ ../Drivers/STM32F7xx_HAL_Driver/Src/stm32f7xx_hal_sai.c:915:20
	str	r1, [r4, #100]
.Ltmp259:
	.loc	5 913 5                 @ ../Drivers/STM32F7xx_HAL_Driver/Src/stm32f7xx_hal_sai.c:913:5
	strb.w	r0, [r4, #124]
.Ltmp260:
	.loc	5 919 17                @ ../Drivers/STM32F7xx_HAL_Driver/Src/stm32f7xx_hal_sai.c:919:17
	movs	r0, #34
	.loc	5 916 20                @ ../Drivers/STM32F7xx_HAL_Driver/Src/stm32f7xx_hal_sai.c:916:20
	strh.w	r2, [r4, #104]
	.loc	5 917 21                @ ../Drivers/STM32F7xx_HAL_Driver/Src/stm32f7xx_hal_sai.c:917:21
	strh.w	r2, [r4, #106]
	.loc	5 919 17                @ ../Drivers/STM32F7xx_HAL_Driver/Src/stm32f7xx_hal_sai.c:919:17
	strb.w	r0, [r4, #125]
.Ltmp261:
	.loc	5 921 20                @ ../Drivers/STM32F7xx_HAL_Driver/Src/stm32f7xx_hal_sai.c:921:20
	ldr	r1, [r4, #52]
.Ltmp262:
	.loc	5 921 48 is_stmt 0      @ ../Drivers/STM32F7xx_HAL_Driver/Src/stm32f7xx_hal_sai.c:921:48
	cmp	r1, #64
	bne	.LBB14_8
.Ltmp263:
@ %bb.6:
	@DEBUG_VALUE: HAL_SAI_Receive_IT:hsai <- $r4
	@DEBUG_VALUE: HAL_SAI_Receive_IT:Size <- $r2
	.loc	5 921 63                @ ../Drivers/STM32F7xx_HAL_Driver/Src/stm32f7xx_hal_sai.c:921:63
	ldr	r1, [r4, #40]
	add.w	r0, r4, #120
.Ltmp264:
	.loc	5 921 8                 @ ../Drivers/STM32F7xx_HAL_Driver/Src/stm32f7xx_hal_sai.c:921:8
	cbnz	r1, .LBB14_9
.Ltmp265:
@ %bb.7:
	@DEBUG_VALUE: HAL_SAI_Receive_IT:hsai <- $r4
	@DEBUG_VALUE: HAL_SAI_Receive_IT:Size <- $r2
	.loc	5 923 37 is_stmt 1      @ ../Drivers/STM32F7xx_HAL_Driver/Src/stm32f7xx_hal_sai.c:923:37
	ldr	r1, __arm_cp.14_2
	b	.LBB14_11
.Ltmp266:
.LBB14_8:
	@DEBUG_VALUE: HAL_SAI_Receive_IT:hsai <- $r4
	@DEBUG_VALUE: HAL_SAI_Receive_IT:Size <- $r2
	.loc	5 0 37 is_stmt 0        @ ../Drivers/STM32F7xx_HAL_Driver/Src/stm32f7xx_hal_sai.c:0:37
	add.w	r0, r4, #120
	.loc	5 925 13 is_stmt 1      @ ../Drivers/STM32F7xx_HAL_Driver/Src/stm32f7xx_hal_sai.c:925:13
	cmp	r1, #128
	bhi	.LBB14_10
.Ltmp267:
.LBB14_9:
	@DEBUG_VALUE: HAL_SAI_Receive_IT:hsai <- $r4
	@DEBUG_VALUE: HAL_SAI_Receive_IT:Size <- $r2
	.loc	5 927 37                @ ../Drivers/STM32F7xx_HAL_Driver/Src/stm32f7xx_hal_sai.c:927:37
	ldr	r1, __arm_cp.14_1
	b	.LBB14_11
.Ltmp268:
.LBB14_10:
	@DEBUG_VALUE: HAL_SAI_Receive_IT:hsai <- $r4
	@DEBUG_VALUE: HAL_SAI_Receive_IT:Size <- $r2
	.loc	5 931 37                @ ../Drivers/STM32F7xx_HAL_Driver/Src/stm32f7xx_hal_sai.c:931:37
	ldr	r1, __arm_cp.14_0
.Ltmp269:
.LBB14_11:
	@DEBUG_VALUE: HAL_SAI_Receive_IT:hsai <- $r4
	@DEBUG_VALUE: HAL_SAI_Receive_IT:Size <- $r2
	.loc	5 0 37 is_stmt 0        @ ../Drivers/STM32F7xx_HAL_Driver/Src/stm32f7xx_hal_sai.c:0:37
	str	r1, [r0]
	.loc	5 935 5 is_stmt 1       @ ../Drivers/STM32F7xx_HAL_Driver/Src/stm32f7xx_hal_sai.c:935:5
	mov	r0, r4
	movs	r1, #1
	bl	SAI_InterruptFlag
.Ltmp270:
	ldr	r1, [r4]
	ldr	r2, [r1, #16]
	orrs	r0, r2
	str	r0, [r1, #16]
.Ltmp271:
	.loc	5 938 25                @ ../Drivers/STM32F7xx_HAL_Driver/Src/stm32f7xx_hal_sai.c:938:25
	ldr	r0, [r1]
.Ltmp272:
	.loc	5 938 8 is_stmt 0       @ ../Drivers/STM32F7xx_HAL_Driver/Src/stm32f7xx_hal_sai.c:938:8
	tst.w	r0, #65536
.Ltmp273:
	.loc	5 941 7 is_stmt 1       @ ../Drivers/STM32F7xx_HAL_Driver/Src/stm32f7xx_hal_sai.c:941:7
	ittt	eq
	ldreq	r0, [r1]
	orreq	r0, r0, #65536
	streq	r0, [r1]
	movs	r0, #0
.Ltmp274:
	.loc	5 945 5                 @ ../Drivers/STM32F7xx_HAL_Driver/Src/stm32f7xx_hal_sai.c:945:5
	strb.w	r0, [r4, #124]
.Ltmp275:
.LBB14_12:
	@DEBUG_VALUE: HAL_SAI_Receive_IT:hsai <- $r4
	.loc	5 953 1                 @ ../Drivers/STM32F7xx_HAL_Driver/Src/stm32f7xx_hal_sai.c:953:1
	uxtb	r0, r0
	pop	{r4, pc}
.Ltmp276:
	.p2align	2
@ %bb.13:
	.loc	5 0 1 is_stmt 0         @ ../Drivers/STM32F7xx_HAL_Driver/Src/stm32f7xx_hal_sai.c:0:1
__arm_cp.14_0:
	.long	SAI_Receive_IT32Bit
.Lcpi_end9:
	.size	__arm_cp.14_0, .Lcpi_end9-__arm_cp.14_0
__arm_cp.14_1:
	.long	SAI_Receive_IT16Bit
.Lcpi_end10:
	.size	__arm_cp.14_1, .Lcpi_end10-__arm_cp.14_1
__arm_cp.14_2:
	.long	SAI_Receive_IT8Bit
.Lcpi_end11:
	.size	__arm_cp.14_2, .Lcpi_end11-__arm_cp.14_2
.Lfunc_end14:
	.size	HAL_SAI_Receive_IT, .Lfunc_end14-HAL_SAI_Receive_IT
	.cfi_endproc
	.cantunwind
	.fnend
                                        @ -- End function
	.section	.text.SAI_Receive_IT8Bit,"ax",%progbits
	.p2align	1               @ -- Begin function SAI_Receive_IT8Bit
	.type	SAI_Receive_IT8Bit,%function
	.code	16                      @ @SAI_Receive_IT8Bit
	.thumb_func
SAI_Receive_IT8Bit:
.Lfunc_begin15:
	.loc	5 1957 0 is_stmt 1      @ ../Drivers/STM32F7xx_HAL_Driver/Src/stm32f7xx_hal_sai.c:1957:0
	.fnstart
	.cfi_startproc
@ %bb.0:
	.save	{r4, r5, r7, lr}
	push	{r4, r5, r7, lr}
	.cfi_def_cfa_offset 16
	.cfi_offset lr, -4
	.cfi_offset r7, -8
	.cfi_offset r5, -12
	.cfi_offset r4, -16
	@DEBUG_VALUE: SAI_Receive_IT8Bit:hsai <- $r0
	mov	r4, r0
.Ltmp277:
	@DEBUG_VALUE: SAI_Receive_IT8Bit:hsai <- $r4
	.loc	5 1959 31 prologue_end  @ ../Drivers/STM32F7xx_HAL_Driver/Src/stm32f7xx_hal_sai.c:1959:31
	ldr	r0, [r0]
	.loc	5 1959 41 is_stmt 0     @ ../Drivers/STM32F7xx_HAL_Driver/Src/stm32f7xx_hal_sai.c:1959:41
	ldr	r0, [r0, #28]
	.loc	5 1959 19               @ ../Drivers/STM32F7xx_HAL_Driver/Src/stm32f7xx_hal_sai.c:1959:19
	ldr	r1, [r4, #100]
	adds	r2, r1, #1
	str	r2, [r4, #100]
	.loc	5 1959 23               @ ../Drivers/STM32F7xx_HAL_Driver/Src/stm32f7xx_hal_sai.c:1959:23
	strb	r0, [r1]
	movw	r1, #65535
	.loc	5 1960 18 is_stmt 1     @ ../Drivers/STM32F7xx_HAL_Driver/Src/stm32f7xx_hal_sai.c:1960:18
	ldrh.w	r0, [r4, #106]
	subs	r0, #1
	.loc	5 1963 6                @ ../Drivers/STM32F7xx_HAL_Driver/Src/stm32f7xx_hal_sai.c:1963:6
	tst	r0, r1
	.loc	5 1960 18               @ ../Drivers/STM32F7xx_HAL_Driver/Src/stm32f7xx_hal_sai.c:1960:18
	strh.w	r0, [r4, #106]
	.loc	5 1974 1                @ ../Drivers/STM32F7xx_HAL_Driver/Src/stm32f7xx_hal_sai.c:1974:1
	it	ne
	popne	{r4, r5, r7, pc}
.Ltmp278:
	.loc	5 1966 5                @ ../Drivers/STM32F7xx_HAL_Driver/Src/stm32f7xx_hal_sai.c:1966:5
	mov	r0, r4
	movs	r1, #1
	movs	r5, #1
	bl	SAI_InterruptFlag
	ldr	r1, [r4]
	ldr	r2, [r1, #16]
	bic.w	r0, r2, r0
	str	r0, [r1, #16]
	.loc	5 1969 5                @ ../Drivers/STM32F7xx_HAL_Driver/Src/stm32f7xx_hal_sai.c:1969:5
	str	r5, [r1, #24]
	.loc	5 1971 17               @ ../Drivers/STM32F7xx_HAL_Driver/Src/stm32f7xx_hal_sai.c:1971:17
	strb.w	r5, [r4, #125]
	.loc	5 1972 5                @ ../Drivers/STM32F7xx_HAL_Driver/Src/stm32f7xx_hal_sai.c:1972:5
	mov	r0, r4
	pop.w	{r4, r5, r7, lr}
	b	HAL_SAI_RxCpltCallback
.Ltmp279:
.Lfunc_end15:
	.size	SAI_Receive_IT8Bit, .Lfunc_end15-SAI_Receive_IT8Bit
	.cfi_endproc
	.cantunwind
	.fnend
                                        @ -- End function
	.section	.text.SAI_Receive_IT16Bit,"ax",%progbits
	.p2align	1               @ -- Begin function SAI_Receive_IT16Bit
	.type	SAI_Receive_IT16Bit,%function
	.code	16                      @ @SAI_Receive_IT16Bit
	.thumb_func
SAI_Receive_IT16Bit:
.Lfunc_begin16:
	.loc	5 1983 0                @ ../Drivers/STM32F7xx_HAL_Driver/Src/stm32f7xx_hal_sai.c:1983:0
	.fnstart
	.cfi_startproc
@ %bb.0:
	.save	{r4, r5, r6, lr}
	push	{r4, r5, r6, lr}
	.cfi_def_cfa_offset 16
	.cfi_offset lr, -4
	.cfi_offset r6, -8
	.cfi_offset r5, -12
	.cfi_offset r4, -16
	@DEBUG_VALUE: SAI_Receive_IT16Bit:hsai <- $r0
.Ltmp280:
	.loc	5 1985 38 prologue_end  @ ../Drivers/STM32F7xx_HAL_Driver/Src/stm32f7xx_hal_sai.c:1985:38
	ldr	r5, [r0]
	mov	r4, r0
.Ltmp281:
	@DEBUG_VALUE: SAI_Receive_IT16Bit:hsai <- $r4
	.loc	5 1985 48 is_stmt 0     @ ../Drivers/STM32F7xx_HAL_Driver/Src/stm32f7xx_hal_sai.c:1985:48
	ldr	r0, [r5, #28]
	.loc	5 1985 21               @ ../Drivers/STM32F7xx_HAL_Driver/Src/stm32f7xx_hal_sai.c:1985:21
	ldr	r1, [r4, #100]
	.loc	5 1985 30               @ ../Drivers/STM32F7xx_HAL_Driver/Src/stm32f7xx_hal_sai.c:1985:30
	strh	r0, [r1], #2
	.loc	5 1986 17 is_stmt 1     @ ../Drivers/STM32F7xx_HAL_Driver/Src/stm32f7xx_hal_sai.c:1986:17
	str	r1, [r4, #100]
	movw	r1, #65535
	.loc	5 1987 18               @ ../Drivers/STM32F7xx_HAL_Driver/Src/stm32f7xx_hal_sai.c:1987:18
	ldrh.w	r0, [r4, #106]
	subs	r0, #1
	.loc	5 1990 6                @ ../Drivers/STM32F7xx_HAL_Driver/Src/stm32f7xx_hal_sai.c:1990:6
	tst	r0, r1
	.loc	5 1987 18               @ ../Drivers/STM32F7xx_HAL_Driver/Src/stm32f7xx_hal_sai.c:1987:18
	strh.w	r0, [r4, #106]
	.loc	5 2001 1                @ ../Drivers/STM32F7xx_HAL_Driver/Src/stm32f7xx_hal_sai.c:2001:1
	it	ne
	popne	{r4, r5, r6, pc}
.Ltmp282:
	.loc	5 1993 5                @ ../Drivers/STM32F7xx_HAL_Driver/Src/stm32f7xx_hal_sai.c:1993:5
	mov	r0, r4
	movs	r1, #1
	movs	r6, #1
	bl	SAI_InterruptFlag
	ldr	r1, [r5, #16]
	bic.w	r0, r1, r0
	str	r0, [r5, #16]
	.loc	5 1996 5                @ ../Drivers/STM32F7xx_HAL_Driver/Src/stm32f7xx_hal_sai.c:1996:5
	str	r6, [r5, #24]
	.loc	5 1998 17               @ ../Drivers/STM32F7xx_HAL_Driver/Src/stm32f7xx_hal_sai.c:1998:17
	strb.w	r6, [r4, #125]
	.loc	5 1999 5                @ ../Drivers/STM32F7xx_HAL_Driver/Src/stm32f7xx_hal_sai.c:1999:5
	mov	r0, r4
	pop.w	{r4, r5, r6, lr}
	b	HAL_SAI_RxCpltCallback
.Ltmp283:
.Lfunc_end16:
	.size	SAI_Receive_IT16Bit, .Lfunc_end16-SAI_Receive_IT16Bit
	.cfi_endproc
	.cantunwind
	.fnend
                                        @ -- End function
	.section	.text.SAI_Receive_IT32Bit,"ax",%progbits
	.p2align	1               @ -- Begin function SAI_Receive_IT32Bit
	.type	SAI_Receive_IT32Bit,%function
	.code	16                      @ @SAI_Receive_IT32Bit
	.thumb_func
SAI_Receive_IT32Bit:
.Lfunc_begin17:
	.loc	5 2009 0                @ ../Drivers/STM32F7xx_HAL_Driver/Src/stm32f7xx_hal_sai.c:2009:0
	.fnstart
	.cfi_startproc
@ %bb.0:
	.save	{r4, r5, r6, lr}
	push	{r4, r5, r6, lr}
	.cfi_def_cfa_offset 16
	.cfi_offset lr, -4
	.cfi_offset r6, -8
	.cfi_offset r5, -12
	.cfi_offset r4, -16
	@DEBUG_VALUE: SAI_Receive_IT32Bit:hsai <- $r0
.Ltmp284:
	.loc	5 2011 38 prologue_end  @ ../Drivers/STM32F7xx_HAL_Driver/Src/stm32f7xx_hal_sai.c:2011:38
	ldr	r5, [r0]
	mov	r4, r0
.Ltmp285:
	@DEBUG_VALUE: SAI_Receive_IT32Bit:hsai <- $r4
	.loc	5 2011 48 is_stmt 0     @ ../Drivers/STM32F7xx_HAL_Driver/Src/stm32f7xx_hal_sai.c:2011:48
	ldr	r0, [r5, #28]
	.loc	5 2011 21               @ ../Drivers/STM32F7xx_HAL_Driver/Src/stm32f7xx_hal_sai.c:2011:21
	ldr	r1, [r4, #100]
	.loc	5 2011 30               @ ../Drivers/STM32F7xx_HAL_Driver/Src/stm32f7xx_hal_sai.c:2011:30
	stm	r1!, {r0}
	.loc	5 2012 17 is_stmt 1     @ ../Drivers/STM32F7xx_HAL_Driver/Src/stm32f7xx_hal_sai.c:2012:17
	str	r1, [r4, #100]
	movw	r1, #65535
	.loc	5 2013 18               @ ../Drivers/STM32F7xx_HAL_Driver/Src/stm32f7xx_hal_sai.c:2013:18
	ldrh.w	r0, [r4, #106]
	subs	r0, #1
	.loc	5 2016 6                @ ../Drivers/STM32F7xx_HAL_Driver/Src/stm32f7xx_hal_sai.c:2016:6
	tst	r0, r1
	.loc	5 2013 18               @ ../Drivers/STM32F7xx_HAL_Driver/Src/stm32f7xx_hal_sai.c:2013:18
	strh.w	r0, [r4, #106]
	.loc	5 2027 1                @ ../Drivers/STM32F7xx_HAL_Driver/Src/stm32f7xx_hal_sai.c:2027:1
	it	ne
	popne	{r4, r5, r6, pc}
.Ltmp286:
	.loc	5 2019 5                @ ../Drivers/STM32F7xx_HAL_Driver/Src/stm32f7xx_hal_sai.c:2019:5
	mov	r0, r4
	movs	r1, #1
	movs	r6, #1
	bl	SAI_InterruptFlag
	ldr	r1, [r5, #16]
	bic.w	r0, r1, r0
	str	r0, [r5, #16]
	.loc	5 2022 5                @ ../Drivers/STM32F7xx_HAL_Driver/Src/stm32f7xx_hal_sai.c:2022:5
	str	r6, [r5, #24]
	.loc	5 2024 17               @ ../Drivers/STM32F7xx_HAL_Driver/Src/stm32f7xx_hal_sai.c:2024:17
	strb.w	r6, [r4, #125]
	.loc	5 2025 5                @ ../Drivers/STM32F7xx_HAL_Driver/Src/stm32f7xx_hal_sai.c:2025:5
	mov	r0, r4
	pop.w	{r4, r5, r6, lr}
	b	HAL_SAI_RxCpltCallback
.Ltmp287:
.Lfunc_end17:
	.size	SAI_Receive_IT32Bit, .Lfunc_end17-SAI_Receive_IT32Bit
	.cfi_endproc
	.cantunwind
	.fnend
                                        @ -- End function
	.section	.text.HAL_SAI_DMAPause,"ax",%progbits
	.hidden	HAL_SAI_DMAPause        @ -- Begin function HAL_SAI_DMAPause
	.globl	HAL_SAI_DMAPause
	.p2align	1
	.type	HAL_SAI_DMAPause,%function
	.code	16                      @ @HAL_SAI_DMAPause
	.thumb_func
HAL_SAI_DMAPause:
.Lfunc_begin18:
	.loc	5 962 0                 @ ../Drivers/STM32F7xx_HAL_Driver/Src/stm32f7xx_hal_sai.c:962:0
	.fnstart
	.cfi_startproc
@ %bb.0:
	@DEBUG_VALUE: HAL_SAI_DMAPause:hsai <- $r0
	@DEBUG_VALUE: HAL_SAI_DMAPause:hsai <- $r0
	.loc	5 964 3 prologue_end    @ ../Drivers/STM32F7xx_HAL_Driver/Src/stm32f7xx_hal_sai.c:964:3
	ldrb.w	r1, [r0, #124]
.Ltmp288:
	.loc	5 964 3 is_stmt 0       @ ../Drivers/STM32F7xx_HAL_Driver/Src/stm32f7xx_hal_sai.c:964:3
	cmp	r1, #1
	bne	.LBB18_2
.Ltmp289:
@ %bb.1:
	@DEBUG_VALUE: HAL_SAI_DMAPause:hsai <- $r0
	.loc	5 0 3                   @ ../Drivers/STM32F7xx_HAL_Driver/Src/stm32f7xx_hal_sai.c:0:3
	movs	r1, #2
	b	.LBB18_3
.LBB18_2:
	@DEBUG_VALUE: HAL_SAI_DMAPause:hsai <- $r0
	.loc	5 967 9 is_stmt 1       @ ../Drivers/STM32F7xx_HAL_Driver/Src/stm32f7xx_hal_sai.c:967:9
	ldr	r1, [r0]
	.loc	5 967 23 is_stmt 0      @ ../Drivers/STM32F7xx_HAL_Driver/Src/stm32f7xx_hal_sai.c:967:23
	ldr	r2, [r1]
	bic	r2, r2, #131072
	str	r2, [r1]
	movs	r1, #0
.Ltmp290:
	.loc	5 970 3 is_stmt 1       @ ../Drivers/STM32F7xx_HAL_Driver/Src/stm32f7xx_hal_sai.c:970:3
	strb.w	r1, [r0, #124]
.Ltmp291:
.LBB18_3:
	@DEBUG_VALUE: HAL_SAI_DMAPause:hsai <- $r0
	.loc	5 973 1                 @ ../Drivers/STM32F7xx_HAL_Driver/Src/stm32f7xx_hal_sai.c:973:1
	uxtb	r0, r1
	bx	lr
.Ltmp292:
.Lfunc_end18:
	.size	HAL_SAI_DMAPause, .Lfunc_end18-HAL_SAI_DMAPause
	.cfi_endproc
	.cantunwind
	.fnend
                                        @ -- End function
	.section	.text.HAL_SAI_DMAResume,"ax",%progbits
	.hidden	HAL_SAI_DMAResume       @ -- Begin function HAL_SAI_DMAResume
	.globl	HAL_SAI_DMAResume
	.p2align	1
	.type	HAL_SAI_DMAResume,%function
	.code	16                      @ @HAL_SAI_DMAResume
	.thumb_func
HAL_SAI_DMAResume:
.Lfunc_begin19:
	.loc	5 982 0                 @ ../Drivers/STM32F7xx_HAL_Driver/Src/stm32f7xx_hal_sai.c:982:0
	.fnstart
	.cfi_startproc
@ %bb.0:
	@DEBUG_VALUE: HAL_SAI_DMAResume:hsai <- $r0
	@DEBUG_VALUE: HAL_SAI_DMAResume:hsai <- $r0
	.loc	5 984 3 prologue_end    @ ../Drivers/STM32F7xx_HAL_Driver/Src/stm32f7xx_hal_sai.c:984:3
	ldrb.w	r1, [r0, #124]
.Ltmp293:
	.loc	5 984 3 is_stmt 0       @ ../Drivers/STM32F7xx_HAL_Driver/Src/stm32f7xx_hal_sai.c:984:3
	cmp	r1, #1
	bne	.LBB19_2
@ %bb.1:
	@DEBUG_VALUE: HAL_SAI_DMAResume:hsai <- $r0
	.loc	5 0 3                   @ ../Drivers/STM32F7xx_HAL_Driver/Src/stm32f7xx_hal_sai.c:0:3
	movs	r1, #2
	b	.LBB19_3
.LBB19_2:
	@DEBUG_VALUE: HAL_SAI_DMAResume:hsai <- $r0
	movs	r1, #1
.Ltmp294:
	.loc	5 984 3                 @ ../Drivers/STM32F7xx_HAL_Driver/Src/stm32f7xx_hal_sai.c:984:3
	strb.w	r1, [r0, #124]
.Ltmp295:
	.loc	5 987 9 is_stmt 1       @ ../Drivers/STM32F7xx_HAL_Driver/Src/stm32f7xx_hal_sai.c:987:9
	ldr	r1, [r0]
	.loc	5 987 23 is_stmt 0      @ ../Drivers/STM32F7xx_HAL_Driver/Src/stm32f7xx_hal_sai.c:987:23
	ldr	r2, [r1]
	orr	r2, r2, #131072
	str	r2, [r1]
.Ltmp296:
	.loc	5 990 24 is_stmt 1      @ ../Drivers/STM32F7xx_HAL_Driver/Src/stm32f7xx_hal_sai.c:990:24
	ldr	r2, [r1]
.Ltmp297:
	.loc	5 990 7 is_stmt 0       @ ../Drivers/STM32F7xx_HAL_Driver/Src/stm32f7xx_hal_sai.c:990:7
	tst.w	r2, #65536
.Ltmp298:
	.loc	5 993 5 is_stmt 1       @ ../Drivers/STM32F7xx_HAL_Driver/Src/stm32f7xx_hal_sai.c:993:5
	ittt	eq
	ldreq	r2, [r1]
	orreq	r2, r2, #65536
	streq	r2, [r1]
	movs	r1, #0
.Ltmp299:
	.loc	5 997 3                 @ ../Drivers/STM32F7xx_HAL_Driver/Src/stm32f7xx_hal_sai.c:997:3
	strb.w	r1, [r0, #124]
.Ltmp300:
.LBB19_3:
	@DEBUG_VALUE: HAL_SAI_DMAResume:hsai <- $r0
	.loc	5 1000 1                @ ../Drivers/STM32F7xx_HAL_Driver/Src/stm32f7xx_hal_sai.c:1000:1
	uxtb	r0, r1
	bx	lr
.Ltmp301:
.Lfunc_end19:
	.size	HAL_SAI_DMAResume, .Lfunc_end19-HAL_SAI_DMAResume
	.cfi_endproc
	.cantunwind
	.fnend
                                        @ -- End function
	.section	.text.HAL_SAI_DMAStop,"ax",%progbits
	.hidden	HAL_SAI_DMAStop         @ -- Begin function HAL_SAI_DMAStop
	.globl	HAL_SAI_DMAStop
	.p2align	1
	.type	HAL_SAI_DMAStop,%function
	.code	16                      @ @HAL_SAI_DMAStop
	.thumb_func
HAL_SAI_DMAStop:
.Lfunc_begin20:
	.loc	5 1009 0                @ ../Drivers/STM32F7xx_HAL_Driver/Src/stm32f7xx_hal_sai.c:1009:0
	.fnstart
	.cfi_startproc
@ %bb.0:
	.save	{r4, lr}
	push	{r4, lr}
	.cfi_def_cfa_offset 8
	.cfi_offset lr, -4
	.cfi_offset r4, -8
	@DEBUG_VALUE: HAL_SAI_DMAStop:hsai <- $r0
	mov	r4, r0
.Ltmp302:
	@DEBUG_VALUE: HAL_SAI_DMAStop:hsai <- $r4
	.loc	5 1011 3 prologue_end   @ ../Drivers/STM32F7xx_HAL_Driver/Src/stm32f7xx_hal_sai.c:1011:3
	ldrb.w	r0, [r0, #124]
.Ltmp303:
	.loc	5 1011 3 is_stmt 0      @ ../Drivers/STM32F7xx_HAL_Driver/Src/stm32f7xx_hal_sai.c:1011:3
	cmp	r0, #1
	bne	.LBB20_2
.Ltmp304:
@ %bb.1:
	@DEBUG_VALUE: HAL_SAI_DMAStop:hsai <- $r4
	.loc	5 0 3                   @ ../Drivers/STM32F7xx_HAL_Driver/Src/stm32f7xx_hal_sai.c:0:3
	movs	r0, #2
	b	.LBB20_8
.Ltmp305:
.LBB20_2:
	@DEBUG_VALUE: HAL_SAI_DMAStop:hsai <- $r4
	.loc	5 1011 3                @ ../Drivers/STM32F7xx_HAL_Driver/Src/stm32f7xx_hal_sai.c:1011:3
	movs	r0, #1
	strb.w	r0, [r4, #124]
.Ltmp306:
	.loc	5 1014 9 is_stmt 1      @ ../Drivers/STM32F7xx_HAL_Driver/Src/stm32f7xx_hal_sai.c:1014:9
	ldr	r0, [r4]
	.loc	5 1014 23 is_stmt 0     @ ../Drivers/STM32F7xx_HAL_Driver/Src/stm32f7xx_hal_sai.c:1014:23
	ldr	r1, [r0]
	bic	r1, r1, #131072
	str	r1, [r0]
.Ltmp307:
	.loc	5 1017 12 is_stmt 1     @ ../Drivers/STM32F7xx_HAL_Driver/Src/stm32f7xx_hal_sai.c:1017:12
	ldr	r0, [r4, #108]
.Ltmp308:
	.loc	5 1017 6 is_stmt 0      @ ../Drivers/STM32F7xx_HAL_Driver/Src/stm32f7xx_hal_sai.c:1017:6
	cbz	r0, .LBB20_4
.Ltmp309:
@ %bb.3:
	@DEBUG_VALUE: HAL_SAI_DMAStop:hsai <- $r4
	.loc	5 1019 8 is_stmt 1      @ ../Drivers/STM32F7xx_HAL_Driver/Src/stm32f7xx_hal_sai.c:1019:8
	bl	HAL_DMA_Abort
.Ltmp310:
	.loc	5 1019 8 is_stmt 0      @ ../Drivers/STM32F7xx_HAL_Driver/Src/stm32f7xx_hal_sai.c:1019:8
	cbnz	r0, .LBB20_6
.Ltmp311:
.LBB20_4:
	@DEBUG_VALUE: HAL_SAI_DMAStop:hsai <- $r4
	.loc	5 1025 12 is_stmt 1     @ ../Drivers/STM32F7xx_HAL_Driver/Src/stm32f7xx_hal_sai.c:1025:12
	ldr	r0, [r4, #112]
.Ltmp312:
	.loc	5 1025 6 is_stmt 0      @ ../Drivers/STM32F7xx_HAL_Driver/Src/stm32f7xx_hal_sai.c:1025:6
	cbz	r0, .LBB20_7
.Ltmp313:
@ %bb.5:
	@DEBUG_VALUE: HAL_SAI_DMAStop:hsai <- $r4
	.loc	5 1027 8 is_stmt 1      @ ../Drivers/STM32F7xx_HAL_Driver/Src/stm32f7xx_hal_sai.c:1027:8
	bl	HAL_DMA_Abort
.Ltmp314:
	.loc	5 1027 8 is_stmt 0      @ ../Drivers/STM32F7xx_HAL_Driver/Src/stm32f7xx_hal_sai.c:1027:8
	cbz	r0, .LBB20_7
.Ltmp315:
.LBB20_6:
	@DEBUG_VALUE: HAL_SAI_DMAStop:hsai <- $r4
	.loc	5 0 8                   @ ../Drivers/STM32F7xx_HAL_Driver/Src/stm32f7xx_hal_sai.c:0:8
	movs	r0, #1
	b	.LBB20_8
.Ltmp316:
.LBB20_7:
	@DEBUG_VALUE: HAL_SAI_DMAStop:hsai <- $r4
	.loc	5 1034 3 is_stmt 1      @ ../Drivers/STM32F7xx_HAL_Driver/Src/stm32f7xx_hal_sai.c:1034:3
	mov	r0, r4
	bl	SAI_Disable
	.loc	5 1037 3                @ ../Drivers/STM32F7xx_HAL_Driver/Src/stm32f7xx_hal_sai.c:1037:3
	ldr	r0, [r4]
	ldr	r1, [r0, #4]
	orr	r1, r1, #8
	str	r1, [r0, #4]
	movs	r0, #0
	.loc	5 1039 15               @ ../Drivers/STM32F7xx_HAL_Driver/Src/stm32f7xx_hal_sai.c:1039:15
	movs	r1, #1
.Ltmp317:
	.loc	5 1042 3                @ ../Drivers/STM32F7xx_HAL_Driver/Src/stm32f7xx_hal_sai.c:1042:3
	strb.w	r0, [r4, #124]
.Ltmp318:
	.loc	5 1039 15               @ ../Drivers/STM32F7xx_HAL_Driver/Src/stm32f7xx_hal_sai.c:1039:15
	strb.w	r1, [r4, #125]
.Ltmp319:
.LBB20_8:
	@DEBUG_VALUE: HAL_SAI_DMAStop:hsai <- $r4
	.loc	5 1045 1                @ ../Drivers/STM32F7xx_HAL_Driver/Src/stm32f7xx_hal_sai.c:1045:1
	uxtb	r0, r0
	pop	{r4, pc}
.Ltmp320:
.Lfunc_end20:
	.size	HAL_SAI_DMAStop, .Lfunc_end20-HAL_SAI_DMAStop
	.cfi_endproc
	.cantunwind
	.fnend
                                        @ -- End function
	.section	.text.HAL_SAI_Abort,"ax",%progbits
	.hidden	HAL_SAI_Abort           @ -- Begin function HAL_SAI_Abort
	.globl	HAL_SAI_Abort
	.p2align	1
	.type	HAL_SAI_Abort,%function
	.code	16                      @ @HAL_SAI_Abort
	.thumb_func
HAL_SAI_Abort:
.Lfunc_begin21:
	.loc	5 1054 0                @ ../Drivers/STM32F7xx_HAL_Driver/Src/stm32f7xx_hal_sai.c:1054:0
	.fnstart
	.cfi_startproc
@ %bb.0:
	.save	{r4, r5, r6, lr}
	push	{r4, r5, r6, lr}
	.cfi_def_cfa_offset 16
	.cfi_offset lr, -4
	.cfi_offset r6, -8
	.cfi_offset r5, -12
	.cfi_offset r4, -16
	@DEBUG_VALUE: HAL_SAI_Abort:hsai <- $r0
	mov	r4, r0
.Ltmp321:
	@DEBUG_VALUE: HAL_SAI_Abort:hsai <- $r4
	.loc	5 1056 3 prologue_end   @ ../Drivers/STM32F7xx_HAL_Driver/Src/stm32f7xx_hal_sai.c:1056:3
	ldrb.w	r0, [r0, #124]
.Ltmp322:
	.loc	5 1056 3 is_stmt 0      @ ../Drivers/STM32F7xx_HAL_Driver/Src/stm32f7xx_hal_sai.c:1056:3
	cmp	r0, #1
	bne	.LBB21_2
.Ltmp323:
@ %bb.1:
	@DEBUG_VALUE: HAL_SAI_Abort:hsai <- $r4
	.loc	5 0 3                   @ ../Drivers/STM32F7xx_HAL_Driver/Src/stm32f7xx_hal_sai.c:0:3
	movs	r6, #2
	b	.LBB21_9
.Ltmp324:
.LBB21_2:
	@DEBUG_VALUE: HAL_SAI_Abort:hsai <- $r4
	.loc	5 1056 3                @ ../Drivers/STM32F7xx_HAL_Driver/Src/stm32f7xx_hal_sai.c:1056:3
	movs	r5, #1
	strb.w	r5, [r4, #124]
.Ltmp325:
	.loc	5 1059 13 is_stmt 1     @ ../Drivers/STM32F7xx_HAL_Driver/Src/stm32f7xx_hal_sai.c:1059:13
	ldr	r0, [r4]
	.loc	5 1059 23 is_stmt 0     @ ../Drivers/STM32F7xx_HAL_Driver/Src/stm32f7xx_hal_sai.c:1059:23
	ldr	r1, [r0]
.Ltmp326:
	.loc	5 1059 6                @ ../Drivers/STM32F7xx_HAL_Driver/Src/stm32f7xx_hal_sai.c:1059:6
	tst.w	r1, #131072
	bne	.LBB21_4
.Ltmp327:
.LBB21_3:
	@DEBUG_VALUE: HAL_SAI_Abort:hsai <- $r4
	.loc	5 1082 9 is_stmt 1      @ ../Drivers/STM32F7xx_HAL_Driver/Src/stm32f7xx_hal_sai.c:1082:9
	ldr	r0, [r4]
	movs	r6, #0
	.loc	5 1083 25               @ ../Drivers/STM32F7xx_HAL_Driver/Src/stm32f7xx_hal_sai.c:1083:25
	mov.w	r1, #-1
	.loc	5 1082 23               @ ../Drivers/STM32F7xx_HAL_Driver/Src/stm32f7xx_hal_sai.c:1082:23
	str	r6, [r0, #16]
	.loc	5 1083 25               @ ../Drivers/STM32F7xx_HAL_Driver/Src/stm32f7xx_hal_sai.c:1083:25
	str	r1, [r0, #24]
	.loc	5 1086 3                @ ../Drivers/STM32F7xx_HAL_Driver/Src/stm32f7xx_hal_sai.c:1086:3
	mov	r0, r4
	bl	SAI_Disable
	.loc	5 1089 3                @ ../Drivers/STM32F7xx_HAL_Driver/Src/stm32f7xx_hal_sai.c:1089:3
	ldr	r0, [r4]
	ldr	r1, [r0, #4]
	orr	r1, r1, #8
	str	r1, [r0, #4]
.Ltmp328:
	.loc	5 1094 3                @ ../Drivers/STM32F7xx_HAL_Driver/Src/stm32f7xx_hal_sai.c:1094:3
	strb.w	r6, [r4, #124]
.Ltmp329:
	.loc	5 1091 15               @ ../Drivers/STM32F7xx_HAL_Driver/Src/stm32f7xx_hal_sai.c:1091:15
	strb.w	r5, [r4, #125]
	b	.LBB21_9
.Ltmp330:
.LBB21_4:
	@DEBUG_VALUE: HAL_SAI_Abort:hsai <- $r4
	.loc	5 1062 25               @ ../Drivers/STM32F7xx_HAL_Driver/Src/stm32f7xx_hal_sai.c:1062:25
	ldr	r1, [r0]
	bic	r1, r1, #131072
	str	r1, [r0]
.Ltmp331:
	.loc	5 1065 14               @ ../Drivers/STM32F7xx_HAL_Driver/Src/stm32f7xx_hal_sai.c:1065:14
	ldr	r0, [r4, #108]
.Ltmp332:
	.loc	5 1065 8 is_stmt 0      @ ../Drivers/STM32F7xx_HAL_Driver/Src/stm32f7xx_hal_sai.c:1065:8
	cbz	r0, .LBB21_6
.Ltmp333:
@ %bb.5:
	@DEBUG_VALUE: HAL_SAI_Abort:hsai <- $r4
	.loc	5 1067 10 is_stmt 1     @ ../Drivers/STM32F7xx_HAL_Driver/Src/stm32f7xx_hal_sai.c:1067:10
	bl	HAL_DMA_Abort
.Ltmp334:
	.loc	5 1067 10 is_stmt 0     @ ../Drivers/STM32F7xx_HAL_Driver/Src/stm32f7xx_hal_sai.c:1067:10
	cbnz	r0, .LBB21_8
.Ltmp335:
.LBB21_6:
	@DEBUG_VALUE: HAL_SAI_Abort:hsai <- $r4
	.loc	5 1073 14 is_stmt 1     @ ../Drivers/STM32F7xx_HAL_Driver/Src/stm32f7xx_hal_sai.c:1073:14
	ldr	r0, [r4, #112]
.Ltmp336:
	.loc	5 1073 8 is_stmt 0      @ ../Drivers/STM32F7xx_HAL_Driver/Src/stm32f7xx_hal_sai.c:1073:8
	cmp	r0, #0
	beq	.LBB21_3
.Ltmp337:
@ %bb.7:
	@DEBUG_VALUE: HAL_SAI_Abort:hsai <- $r4
	.loc	5 1075 10 is_stmt 1     @ ../Drivers/STM32F7xx_HAL_Driver/Src/stm32f7xx_hal_sai.c:1075:10
	bl	HAL_DMA_Abort
.Ltmp338:
	.loc	5 1075 10 is_stmt 0     @ ../Drivers/STM32F7xx_HAL_Driver/Src/stm32f7xx_hal_sai.c:1075:10
	cmp	r0, #0
	beq	.LBB21_3
.Ltmp339:
.LBB21_8:
	@DEBUG_VALUE: HAL_SAI_Abort:hsai <- $r4
	.loc	5 0 10                  @ ../Drivers/STM32F7xx_HAL_Driver/Src/stm32f7xx_hal_sai.c:0:10
	movs	r6, #1
.Ltmp340:
.LBB21_9:
	@DEBUG_VALUE: HAL_SAI_Abort:hsai <- $r4
	.loc	5 1097 1 is_stmt 1      @ ../Drivers/STM32F7xx_HAL_Driver/Src/stm32f7xx_hal_sai.c:1097:1
	uxtb	r0, r6
	pop	{r4, r5, r6, pc}
.Ltmp341:
.Lfunc_end21:
	.size	HAL_SAI_Abort, .Lfunc_end21-HAL_SAI_Abort
	.cfi_endproc
	.cantunwind
	.fnend
                                        @ -- End function
	.section	.text.HAL_SAI_Transmit_DMA,"ax",%progbits
	.hidden	HAL_SAI_Transmit_DMA    @ -- Begin function HAL_SAI_Transmit_DMA
	.globl	HAL_SAI_Transmit_DMA
	.p2align	2
	.type	HAL_SAI_Transmit_DMA,%function
	.code	16                      @ @HAL_SAI_Transmit_DMA
	.thumb_func
HAL_SAI_Transmit_DMA:
.Lfunc_begin22:
	.loc	5 1108 0                @ ../Drivers/STM32F7xx_HAL_Driver/Src/stm32f7xx_hal_sai.c:1108:0
	.fnstart
	.cfi_startproc
@ %bb.0:
	.save	{r4, r5, r6, lr}
	push	{r4, r5, r6, lr}
	.cfi_def_cfa_offset 16
	.cfi_offset lr, -4
	.cfi_offset r6, -8
	.cfi_offset r5, -12
	.cfi_offset r4, -16
	@DEBUG_VALUE: HAL_SAI_Transmit_DMA:hsai <- $r0
	@DEBUG_VALUE: HAL_SAI_Transmit_DMA:pData <- $r1
	@DEBUG_VALUE: HAL_SAI_Transmit_DMA:Size <- $r2
	mov	r3, r2
	mov	r4, r0
	movs	r5, #1
.Ltmp342:
	@DEBUG_VALUE: HAL_SAI_Transmit_DMA:Size <- $r3
	@DEBUG_VALUE: HAL_SAI_Transmit_DMA:pData <- $r1
	@DEBUG_VALUE: HAL_SAI_Transmit_DMA:hsai <- $r4
	.loc	5 1109 22 prologue_end  @ ../Drivers/STM32F7xx_HAL_Driver/Src/stm32f7xx_hal_sai.c:1109:22
	cbz	r1, .LBB22_5
.Ltmp343:
@ %bb.1:
	@DEBUG_VALUE: HAL_SAI_Transmit_DMA:hsai <- $r4
	@DEBUG_VALUE: HAL_SAI_Transmit_DMA:Size <- $r3
	@DEBUG_VALUE: HAL_SAI_Transmit_DMA:pData <- $r1
	cbz	r3, .LBB22_5
.Ltmp344:
@ %bb.2:
	@DEBUG_VALUE: HAL_SAI_Transmit_DMA:hsai <- $r4
	@DEBUG_VALUE: HAL_SAI_Transmit_DMA:Size <- $r3
	@DEBUG_VALUE: HAL_SAI_Transmit_DMA:pData <- $r1
	.loc	5 1114 12               @ ../Drivers/STM32F7xx_HAL_Driver/Src/stm32f7xx_hal_sai.c:1114:12
	ldrb.w	r0, [r4, #125]
.Ltmp345:
	.loc	5 1114 6 is_stmt 0      @ ../Drivers/STM32F7xx_HAL_Driver/Src/stm32f7xx_hal_sai.c:1114:6
	cmp	r0, #1
	bne	.LBB22_4
.Ltmp346:
@ %bb.3:
	@DEBUG_VALUE: HAL_SAI_Transmit_DMA:hsai <- $r4
	@DEBUG_VALUE: HAL_SAI_Transmit_DMA:Size <- $r3
	@DEBUG_VALUE: HAL_SAI_Transmit_DMA:pData <- $r1
	.loc	5 1117 5 is_stmt 1      @ ../Drivers/STM32F7xx_HAL_Driver/Src/stm32f7xx_hal_sai.c:1117:5
	ldrb.w	r0, [r4, #124]
.Ltmp347:
	.loc	5 1117 5 is_stmt 0      @ ../Drivers/STM32F7xx_HAL_Driver/Src/stm32f7xx_hal_sai.c:1117:5
	cmp	r0, #1
	bne	.LBB22_6
.Ltmp348:
.LBB22_4:
	@DEBUG_VALUE: HAL_SAI_Transmit_DMA:hsai <- $r4
	@DEBUG_VALUE: HAL_SAI_Transmit_DMA:Size <- $r3
	@DEBUG_VALUE: HAL_SAI_Transmit_DMA:pData <- $r1
	.loc	5 0 5                   @ ../Drivers/STM32F7xx_HAL_Driver/Src/stm32f7xx_hal_sai.c:0:5
	movs	r5, #2
.Ltmp349:
.LBB22_5:
	@DEBUG_VALUE: HAL_SAI_Transmit_DMA:hsai <- $r4
	.loc	5 1166 1 is_stmt 1      @ ../Drivers/STM32F7xx_HAL_Driver/Src/stm32f7xx_hal_sai.c:1166:1
	uxtb	r0, r5
	pop	{r4, r5, r6, pc}
.Ltmp350:
.LBB22_6:
	@DEBUG_VALUE: HAL_SAI_Transmit_DMA:hsai <- $r4
	@DEBUG_VALUE: HAL_SAI_Transmit_DMA:Size <- $r3
	@DEBUG_VALUE: HAL_SAI_Transmit_DMA:pData <- $r1
	@DEBUG_VALUE: HAL_SAI_Transmit_DMA:Size <- $r3
	.loc	5 0 1 is_stmt 0         @ ../Drivers/STM32F7xx_HAL_Driver/Src/stm32f7xx_hal_sai.c:0:1
	movs	r5, #0
	movs	r0, #1
.Ltmp351:
	.loc	5 1129 36 is_stmt 1     @ ../Drivers/STM32F7xx_HAL_Driver/Src/stm32f7xx_hal_sai.c:1129:36
	ldr	r2, __arm_cp.22_0
	.loc	5 1126 40               @ ../Drivers/STM32F7xx_HAL_Driver/Src/stm32f7xx_hal_sai.c:1126:40
	ldr	r6, __arm_cp.22_1
	.loc	5 1122 21               @ ../Drivers/STM32F7xx_HAL_Driver/Src/stm32f7xx_hal_sai.c:1122:21
	str.w	r5, [r4, #128]
	.loc	5 1119 20               @ ../Drivers/STM32F7xx_HAL_Driver/Src/stm32f7xx_hal_sai.c:1119:20
	str	r1, [r4, #100]
.Ltmp352:
	.loc	5 1117 5                @ ../Drivers/STM32F7xx_HAL_Driver/Src/stm32f7xx_hal_sai.c:1117:5
	strb.w	r0, [r4, #124]
.Ltmp353:
	.loc	5 1123 17               @ ../Drivers/STM32F7xx_HAL_Driver/Src/stm32f7xx_hal_sai.c:1123:17
	movs	r0, #18
	.loc	5 1120 20               @ ../Drivers/STM32F7xx_HAL_Driver/Src/stm32f7xx_hal_sai.c:1120:20
	strh.w	r3, [r4, #104]
	.loc	5 1121 21               @ ../Drivers/STM32F7xx_HAL_Driver/Src/stm32f7xx_hal_sai.c:1121:21
	strh.w	r3, [r4, #106]
	.loc	5 1123 17               @ ../Drivers/STM32F7xx_HAL_Driver/Src/stm32f7xx_hal_sai.c:1123:17
	strb.w	r0, [r4, #125]
	.loc	5 1126 11               @ ../Drivers/STM32F7xx_HAL_Driver/Src/stm32f7xx_hal_sai.c:1126:11
	ldr	r0, [r4, #108]
	.loc	5 1129 36               @ ../Drivers/STM32F7xx_HAL_Driver/Src/stm32f7xx_hal_sai.c:1129:36
	strd	r2, r6, [r0, #60]
	.loc	5 1132 37               @ ../Drivers/STM32F7xx_HAL_Driver/Src/stm32f7xx_hal_sai.c:1132:37
	ldr	r2, __arm_cp.22_2
	strd	r2, r5, [r0, #76]
.Ltmp354:
	.loc	5 1138 82               @ ../Drivers/STM32F7xx_HAL_Driver/Src/stm32f7xx_hal_sai.c:1138:82
	ldr	r2, [r4]
	.loc	5 1138 92 is_stmt 0     @ ../Drivers/STM32F7xx_HAL_Driver/Src/stm32f7xx_hal_sai.c:1138:92
	adds	r2, #28
	.loc	5 1138 8                @ ../Drivers/STM32F7xx_HAL_Driver/Src/stm32f7xx_hal_sai.c:1138:8
	bl	HAL_DMA_Start_IT
.Ltmp355:
	.loc	5 1138 8                @ ../Drivers/STM32F7xx_HAL_Driver/Src/stm32f7xx_hal_sai.c:1138:8
	cbz	r0, .LBB22_8
.Ltmp356:
@ %bb.7:
	@DEBUG_VALUE: HAL_SAI_Transmit_DMA:hsai <- $r4
	.loc	5 1140 7 is_stmt 1      @ ../Drivers/STM32F7xx_HAL_Driver/Src/stm32f7xx_hal_sai.c:1140:7
	strb.w	r5, [r4, #124]
	movs	r5, #1
	b	.LBB22_5
.Ltmp357:
.LBB22_8:
	@DEBUG_VALUE: HAL_SAI_Transmit_DMA:hsai <- $r4
	.loc	5 1145 15               @ ../Drivers/STM32F7xx_HAL_Driver/Src/stm32f7xx_hal_sai.c:1145:15
	ldr	r6, [r4]
.Ltmp358:
	.loc	5 1152 5                @ ../Drivers/STM32F7xx_HAL_Driver/Src/stm32f7xx_hal_sai.c:1152:5
	movs	r1, #0
	movs	r5, #0
.Ltmp359:
	.loc	5 1145 25               @ ../Drivers/STM32F7xx_HAL_Driver/Src/stm32f7xx_hal_sai.c:1145:25
	ldr	r0, [r6]
.Ltmp360:
	.loc	5 1145 8 is_stmt 0      @ ../Drivers/STM32F7xx_HAL_Driver/Src/stm32f7xx_hal_sai.c:1145:8
	tst.w	r0, #65536
.Ltmp361:
	.loc	5 1148 7 is_stmt 1      @ ../Drivers/STM32F7xx_HAL_Driver/Src/stm32f7xx_hal_sai.c:1148:7
	ittt	eq
	ldreq	r0, [r6]
	orreq	r0, r0, #65536
	streq	r0, [r6]
.Ltmp362:
	.loc	5 1152 5                @ ../Drivers/STM32F7xx_HAL_Driver/Src/stm32f7xx_hal_sai.c:1152:5
	mov	r0, r4
	bl	SAI_InterruptFlag
	ldr	r1, [r6, #16]
	orrs	r0, r1
	str	r0, [r6, #16]
	.loc	5 1155 25               @ ../Drivers/STM32F7xx_HAL_Driver/Src/stm32f7xx_hal_sai.c:1155:25
	ldr	r0, [r6]
	orr	r0, r0, #131072
	str	r0, [r6]
.Ltmp363:
	.loc	5 1158 5                @ ../Drivers/STM32F7xx_HAL_Driver/Src/stm32f7xx_hal_sai.c:1158:5
	strb.w	r5, [r4, #124]
	b	.LBB22_5
.Ltmp364:
	.p2align	2
@ %bb.9:
	.loc	5 0 5 is_stmt 0         @ ../Drivers/STM32F7xx_HAL_Driver/Src/stm32f7xx_hal_sai.c:0:5
__arm_cp.22_0:
	.long	SAI_DMATxCplt
.Lcpi_end12:
	.size	__arm_cp.22_0, .Lcpi_end12-__arm_cp.22_0
__arm_cp.22_1:
	.long	SAI_DMATxHalfCplt
.Lcpi_end13:
	.size	__arm_cp.22_1, .Lcpi_end13-__arm_cp.22_1
__arm_cp.22_2:
	.long	SAI_DMAError
.Lcpi_end14:
	.size	__arm_cp.22_2, .Lcpi_end14-__arm_cp.22_2
.Lfunc_end22:
	.size	HAL_SAI_Transmit_DMA, .Lfunc_end22-HAL_SAI_Transmit_DMA
	.cfi_endproc
	.cantunwind
	.fnend
                                        @ -- End function
	.section	.text.SAI_DMATxHalfCplt,"ax",%progbits
	.p2align	1               @ -- Begin function SAI_DMATxHalfCplt
	.type	SAI_DMATxHalfCplt,%function
	.code	16                      @ @SAI_DMATxHalfCplt
	.thumb_func
SAI_DMATxHalfCplt:
.Lfunc_begin23:
	.loc	5 2061 0 is_stmt 1      @ ../Drivers/STM32F7xx_HAL_Driver/Src/stm32f7xx_hal_sai.c:2061:0
	.fnstart
	.cfi_startproc
@ %bb.0:
	@DEBUG_VALUE: SAI_DMATxHalfCplt:hdma <- $r0
	@DEBUG_VALUE: SAI_DMATxHalfCplt:hdma <- $r0
	.loc	5 2062 77 prologue_end  @ ../Drivers/STM32F7xx_HAL_Driver/Src/stm32f7xx_hal_sai.c:2062:77
	ldr	r0, [r0, #56]
.Ltmp365:
	@DEBUG_VALUE: SAI_DMATxHalfCplt:hsai <- $r0
	.loc	5 2064 3                @ ../Drivers/STM32F7xx_HAL_Driver/Src/stm32f7xx_hal_sai.c:2064:3
	b	HAL_SAI_TxHalfCpltCallback
.Ltmp366:
.Lfunc_end23:
	.size	SAI_DMATxHalfCplt, .Lfunc_end23-SAI_DMATxHalfCplt
	.cfi_endproc
	.cantunwind
	.fnend
                                        @ -- End function
	.section	.text.SAI_DMATxCplt,"ax",%progbits
	.p2align	1               @ -- Begin function SAI_DMATxCplt
	.type	SAI_DMATxCplt,%function
	.code	16                      @ @SAI_DMATxCplt
	.thumb_func
SAI_DMATxCplt:
.Lfunc_begin24:
	.loc	5 2036 0                @ ../Drivers/STM32F7xx_HAL_Driver/Src/stm32f7xx_hal_sai.c:2036:0
	.fnstart
	.cfi_startproc
@ %bb.0:
	.save	{r4, r5, r7, lr}
	push	{r4, r5, r7, lr}
	.cfi_def_cfa_offset 16
	.cfi_offset lr, -4
	.cfi_offset r7, -8
	.cfi_offset r5, -12
	.cfi_offset r4, -16
	@DEBUG_VALUE: SAI_DMATxCplt:hdma <- $r0
	@DEBUG_VALUE: SAI_DMATxCplt:hdma <- $r0
.Ltmp367:
	.loc	5 2039 13 prologue_end  @ ../Drivers/STM32F7xx_HAL_Driver/Src/stm32f7xx_hal_sai.c:2039:13
	ldr	r1, [r0]
.Ltmp368:
	.loc	5 2037 78               @ ../Drivers/STM32F7xx_HAL_Driver/Src/stm32f7xx_hal_sai.c:2037:78
	ldr	r4, [r0, #56]
.Ltmp369:
	@DEBUG_VALUE: SAI_DMATxCplt:hsai <- $r4
	.loc	5 2039 23               @ ../Drivers/STM32F7xx_HAL_Driver/Src/stm32f7xx_hal_sai.c:2039:23
	ldr	r0, [r1]
.Ltmp370:
	.loc	5 2039 6 is_stmt 0      @ ../Drivers/STM32F7xx_HAL_Driver/Src/stm32f7xx_hal_sai.c:2039:6
	tst.w	r0, #256
	bne	.LBB24_2
.Ltmp371:
@ %bb.1:
	@DEBUG_VALUE: SAI_DMATxCplt:hsai <- $r4
	.loc	5 0 6                   @ ../Drivers/STM32F7xx_HAL_Driver/Src/stm32f7xx_hal_sai.c:0:6
	movs	r0, #0
.Ltmp372:
	.loc	5 2047 5 is_stmt 1      @ ../Drivers/STM32F7xx_HAL_Driver/Src/stm32f7xx_hal_sai.c:2047:5
	movs	r1, #0
	.loc	5 2041 21               @ ../Drivers/STM32F7xx_HAL_Driver/Src/stm32f7xx_hal_sai.c:2041:21
	strh.w	r0, [r4, #106]
	.loc	5 2044 11               @ ../Drivers/STM32F7xx_HAL_Driver/Src/stm32f7xx_hal_sai.c:2044:11
	ldr	r5, [r4]
	.loc	5 2044 25 is_stmt 0     @ ../Drivers/STM32F7xx_HAL_Driver/Src/stm32f7xx_hal_sai.c:2044:25
	ldr	r0, [r5]
	bic	r0, r0, #131072
	str	r0, [r5]
	.loc	5 2047 5 is_stmt 1      @ ../Drivers/STM32F7xx_HAL_Driver/Src/stm32f7xx_hal_sai.c:2047:5
	mov	r0, r4
	bl	SAI_InterruptFlag
	ldr	r1, [r5, #16]
	bic.w	r0, r1, r0
	str	r0, [r5, #16]
	.loc	5 2049 16               @ ../Drivers/STM32F7xx_HAL_Driver/Src/stm32f7xx_hal_sai.c:2049:16
	movs	r0, #1
	strb.w	r0, [r4, #125]
.Ltmp373:
.LBB24_2:
	@DEBUG_VALUE: SAI_DMATxCplt:hsai <- $r4
	.loc	5 2051 3                @ ../Drivers/STM32F7xx_HAL_Driver/Src/stm32f7xx_hal_sai.c:2051:3
	mov	r0, r4
	pop.w	{r4, r5, r7, lr}
.Ltmp374:
	b	HAL_SAI_TxCpltCallback
.Ltmp375:
.Lfunc_end24:
	.size	SAI_DMATxCplt, .Lfunc_end24-SAI_DMATxCplt
	.cfi_endproc
	.cantunwind
	.fnend
                                        @ -- End function
	.section	.text.SAI_DMAError,"ax",%progbits
	.p2align	1               @ -- Begin function SAI_DMAError
	.type	SAI_DMAError,%function
	.code	16                      @ @SAI_DMAError
	.thumb_func
SAI_DMAError:
.Lfunc_begin25:
	.loc	5 2109 0                @ ../Drivers/STM32F7xx_HAL_Driver/Src/stm32f7xx_hal_sai.c:2109:0
	.fnstart
	.cfi_startproc
@ %bb.0:
	.save	{r4, lr}
	push	{r4, lr}
	.cfi_def_cfa_offset 8
	.cfi_offset lr, -4
	.cfi_offset r4, -8
	@DEBUG_VALUE: SAI_DMAError:hdma <- $r0
	@DEBUG_VALUE: SAI_DMAError:hdma <- $r0
.Ltmp376:
	.loc	5 2110 80 prologue_end  @ ../Drivers/STM32F7xx_HAL_Driver/Src/stm32f7xx_hal_sai.c:2110:80
	ldr	r4, [r0, #56]
.Ltmp377:
	@DEBUG_VALUE: SAI_DMAError:hsai <- $r4
	.loc	5 2113 19               @ ../Drivers/STM32F7xx_HAL_Driver/Src/stm32f7xx_hal_sai.c:2113:19
	ldr.w	r0, [r4, #128]
.Ltmp378:
	orr	r0, r0, #128
	str.w	r0, [r4, #128]
.Ltmp379:
	.loc	5 2115 13               @ ../Drivers/STM32F7xx_HAL_Driver/Src/stm32f7xx_hal_sai.c:2115:13
	ldr	r0, [r4, #108]
	.loc	5 2115 21 is_stmt 0     @ ../Drivers/STM32F7xx_HAL_Driver/Src/stm32f7xx_hal_sai.c:2115:21
	ldr	r0, [r0, #84]
	.loc	5 2115 52               @ ../Drivers/STM32F7xx_HAL_Driver/Src/stm32f7xx_hal_sai.c:2115:52
	cmp	r0, #1
	beq	.LBB25_2
.Ltmp380:
@ %bb.1:
	@DEBUG_VALUE: SAI_DMAError:hsai <- $r4
	.loc	5 2115 62               @ ../Drivers/STM32F7xx_HAL_Driver/Src/stm32f7xx_hal_sai.c:2115:62
	ldr	r0, [r4, #112]
	.loc	5 2115 70               @ ../Drivers/STM32F7xx_HAL_Driver/Src/stm32f7xx_hal_sai.c:2115:70
	ldr	r0, [r0, #84]
.Ltmp381:
	.loc	5 2115 6                @ ../Drivers/STM32F7xx_HAL_Driver/Src/stm32f7xx_hal_sai.c:2115:6
	cmp	r0, #1
	bne	.LBB25_3
.Ltmp382:
.LBB25_2:
	@DEBUG_VALUE: SAI_DMAError:hsai <- $r4
	.loc	5 2118 11 is_stmt 1     @ ../Drivers/STM32F7xx_HAL_Driver/Src/stm32f7xx_hal_sai.c:2118:11
	ldr	r0, [r4]
	.loc	5 2118 25 is_stmt 0     @ ../Drivers/STM32F7xx_HAL_Driver/Src/stm32f7xx_hal_sai.c:2118:25
	ldr	r1, [r0]
	bic	r1, r1, #131072
	str	r1, [r0]
	.loc	5 2121 5 is_stmt 1      @ ../Drivers/STM32F7xx_HAL_Driver/Src/stm32f7xx_hal_sai.c:2121:5
	mov	r0, r4
	bl	SAI_Disable
	.loc	5 2127 21               @ ../Drivers/STM32F7xx_HAL_Driver/Src/stm32f7xx_hal_sai.c:2127:21
	movs	r0, #0
	strh.w	r0, [r4, #106]
	.loc	5 2124 17               @ ../Drivers/STM32F7xx_HAL_Driver/Src/stm32f7xx_hal_sai.c:2124:17
	movs	r0, #1
	strb.w	r0, [r4, #125]
.Ltmp383:
.LBB25_3:
	@DEBUG_VALUE: SAI_DMAError:hsai <- $r4
	.loc	5 2130 3                @ ../Drivers/STM32F7xx_HAL_Driver/Src/stm32f7xx_hal_sai.c:2130:3
	mov	r0, r4
	pop.w	{r4, lr}
.Ltmp384:
	b	HAL_SAI_ErrorCallback
.Ltmp385:
.Lfunc_end25:
	.size	SAI_DMAError, .Lfunc_end25-SAI_DMAError
	.cfi_endproc
	.cantunwind
	.fnend
                                        @ -- End function
	.section	.text.HAL_SAI_Receive_DMA,"ax",%progbits
	.hidden	HAL_SAI_Receive_DMA     @ -- Begin function HAL_SAI_Receive_DMA
	.globl	HAL_SAI_Receive_DMA
	.p2align	2
	.type	HAL_SAI_Receive_DMA,%function
	.code	16                      @ @HAL_SAI_Receive_DMA
	.thumb_func
HAL_SAI_Receive_DMA:
.Lfunc_begin26:
	.loc	5 1177 0                @ ../Drivers/STM32F7xx_HAL_Driver/Src/stm32f7xx_hal_sai.c:1177:0
	.fnstart
	.cfi_startproc
@ %bb.0:
	.save	{r4, r5, r6, lr}
	push	{r4, r5, r6, lr}
	.cfi_def_cfa_offset 16
	.cfi_offset lr, -4
	.cfi_offset r6, -8
	.cfi_offset r5, -12
	.cfi_offset r4, -16
	@DEBUG_VALUE: HAL_SAI_Receive_DMA:hsai <- $r0
	@DEBUG_VALUE: HAL_SAI_Receive_DMA:pData <- $r1
	@DEBUG_VALUE: HAL_SAI_Receive_DMA:Size <- $r2
	mov	r3, r2
	mov	r2, r1
.Ltmp386:
	mov	r4, r0
	movs	r5, #1
.Ltmp387:
	@DEBUG_VALUE: HAL_SAI_Receive_DMA:Size <- $r3
	@DEBUG_VALUE: HAL_SAI_Receive_DMA:pData <- $r2
	@DEBUG_VALUE: HAL_SAI_Receive_DMA:hsai <- $r4
	.loc	5 1179 22 prologue_end  @ ../Drivers/STM32F7xx_HAL_Driver/Src/stm32f7xx_hal_sai.c:1179:22
	cbz	r1, .LBB26_5
.Ltmp388:
@ %bb.1:
	@DEBUG_VALUE: HAL_SAI_Receive_DMA:hsai <- $r4
	@DEBUG_VALUE: HAL_SAI_Receive_DMA:pData <- $r2
	@DEBUG_VALUE: HAL_SAI_Receive_DMA:Size <- $r3
	cbz	r3, .LBB26_5
.Ltmp389:
@ %bb.2:
	@DEBUG_VALUE: HAL_SAI_Receive_DMA:hsai <- $r4
	@DEBUG_VALUE: HAL_SAI_Receive_DMA:pData <- $r2
	@DEBUG_VALUE: HAL_SAI_Receive_DMA:Size <- $r3
	.loc	5 1184 12               @ ../Drivers/STM32F7xx_HAL_Driver/Src/stm32f7xx_hal_sai.c:1184:12
	ldrb.w	r0, [r4, #125]
.Ltmp390:
	.loc	5 1184 6 is_stmt 0      @ ../Drivers/STM32F7xx_HAL_Driver/Src/stm32f7xx_hal_sai.c:1184:6
	cmp	r0, #1
	bne	.LBB26_4
.Ltmp391:
@ %bb.3:
	@DEBUG_VALUE: HAL_SAI_Receive_DMA:hsai <- $r4
	@DEBUG_VALUE: HAL_SAI_Receive_DMA:pData <- $r2
	@DEBUG_VALUE: HAL_SAI_Receive_DMA:Size <- $r3
	.loc	5 1187 5 is_stmt 1      @ ../Drivers/STM32F7xx_HAL_Driver/Src/stm32f7xx_hal_sai.c:1187:5
	ldrb.w	r0, [r4, #124]
.Ltmp392:
	.loc	5 1187 5 is_stmt 0      @ ../Drivers/STM32F7xx_HAL_Driver/Src/stm32f7xx_hal_sai.c:1187:5
	cmp	r0, #1
	bne	.LBB26_6
.Ltmp393:
.LBB26_4:
	@DEBUG_VALUE: HAL_SAI_Receive_DMA:hsai <- $r4
	@DEBUG_VALUE: HAL_SAI_Receive_DMA:pData <- $r2
	@DEBUG_VALUE: HAL_SAI_Receive_DMA:Size <- $r3
	.loc	5 0 5                   @ ../Drivers/STM32F7xx_HAL_Driver/Src/stm32f7xx_hal_sai.c:0:5
	movs	r5, #2
.Ltmp394:
.LBB26_5:
	@DEBUG_VALUE: HAL_SAI_Receive_DMA:hsai <- $r4
	.loc	5 1236 1 is_stmt 1      @ ../Drivers/STM32F7xx_HAL_Driver/Src/stm32f7xx_hal_sai.c:1236:1
	uxtb	r0, r5
	pop	{r4, r5, r6, pc}
.Ltmp395:
.LBB26_6:
	@DEBUG_VALUE: HAL_SAI_Receive_DMA:hsai <- $r4
	@DEBUG_VALUE: HAL_SAI_Receive_DMA:pData <- $r2
	@DEBUG_VALUE: HAL_SAI_Receive_DMA:Size <- $r3
	@DEBUG_VALUE: HAL_SAI_Receive_DMA:Size <- $r3
	.loc	5 0 1 is_stmt 0         @ ../Drivers/STM32F7xx_HAL_Driver/Src/stm32f7xx_hal_sai.c:0:1
	movs	r5, #0
	movs	r0, #1
.Ltmp396:
	.loc	5 1199 36 is_stmt 1     @ ../Drivers/STM32F7xx_HAL_Driver/Src/stm32f7xx_hal_sai.c:1199:36
	ldr	r1, __arm_cp.26_0
	.loc	5 1196 40               @ ../Drivers/STM32F7xx_HAL_Driver/Src/stm32f7xx_hal_sai.c:1196:40
	ldr	r6, __arm_cp.26_1
	.loc	5 1192 21               @ ../Drivers/STM32F7xx_HAL_Driver/Src/stm32f7xx_hal_sai.c:1192:21
	str.w	r5, [r4, #128]
	.loc	5 1189 20               @ ../Drivers/STM32F7xx_HAL_Driver/Src/stm32f7xx_hal_sai.c:1189:20
	str	r2, [r4, #100]
.Ltmp397:
	.loc	5 1187 5                @ ../Drivers/STM32F7xx_HAL_Driver/Src/stm32f7xx_hal_sai.c:1187:5
	strb.w	r0, [r4, #124]
.Ltmp398:
	.loc	5 1193 17               @ ../Drivers/STM32F7xx_HAL_Driver/Src/stm32f7xx_hal_sai.c:1193:17
	movs	r0, #34
	.loc	5 1190 20               @ ../Drivers/STM32F7xx_HAL_Driver/Src/stm32f7xx_hal_sai.c:1190:20
	strh.w	r3, [r4, #104]
	.loc	5 1191 21               @ ../Drivers/STM32F7xx_HAL_Driver/Src/stm32f7xx_hal_sai.c:1191:21
	strh.w	r3, [r4, #106]
	.loc	5 1193 17               @ ../Drivers/STM32F7xx_HAL_Driver/Src/stm32f7xx_hal_sai.c:1193:17
	strb.w	r0, [r4, #125]
	.loc	5 1196 11               @ ../Drivers/STM32F7xx_HAL_Driver/Src/stm32f7xx_hal_sai.c:1196:11
	ldr	r0, [r4, #112]
	.loc	5 1199 36               @ ../Drivers/STM32F7xx_HAL_Driver/Src/stm32f7xx_hal_sai.c:1199:36
	strd	r1, r6, [r0, #60]
	.loc	5 1202 37               @ ../Drivers/STM32F7xx_HAL_Driver/Src/stm32f7xx_hal_sai.c:1202:37
	ldr	r1, __arm_cp.26_2
	strd	r1, r5, [r0, #76]
.Ltmp399:
	.loc	5 1208 56               @ ../Drivers/STM32F7xx_HAL_Driver/Src/stm32f7xx_hal_sai.c:1208:56
	ldr	r1, [r4]
	.loc	5 1208 66 is_stmt 0     @ ../Drivers/STM32F7xx_HAL_Driver/Src/stm32f7xx_hal_sai.c:1208:66
	adds	r1, #28
	.loc	5 1208 8                @ ../Drivers/STM32F7xx_HAL_Driver/Src/stm32f7xx_hal_sai.c:1208:8
	bl	HAL_DMA_Start_IT
.Ltmp400:
	.loc	5 1208 8                @ ../Drivers/STM32F7xx_HAL_Driver/Src/stm32f7xx_hal_sai.c:1208:8
	cbz	r0, .LBB26_8
.Ltmp401:
@ %bb.7:
	@DEBUG_VALUE: HAL_SAI_Receive_DMA:hsai <- $r4
	.loc	5 1210 7 is_stmt 1      @ ../Drivers/STM32F7xx_HAL_Driver/Src/stm32f7xx_hal_sai.c:1210:7
	strb.w	r5, [r4, #124]
	movs	r5, #1
	b	.LBB26_5
.Ltmp402:
.LBB26_8:
	@DEBUG_VALUE: HAL_SAI_Receive_DMA:hsai <- $r4
	.loc	5 1215 15               @ ../Drivers/STM32F7xx_HAL_Driver/Src/stm32f7xx_hal_sai.c:1215:15
	ldr	r6, [r4]
.Ltmp403:
	.loc	5 1222 5                @ ../Drivers/STM32F7xx_HAL_Driver/Src/stm32f7xx_hal_sai.c:1222:5
	movs	r1, #0
	movs	r5, #0
.Ltmp404:
	.loc	5 1215 25               @ ../Drivers/STM32F7xx_HAL_Driver/Src/stm32f7xx_hal_sai.c:1215:25
	ldr	r0, [r6]
.Ltmp405:
	.loc	5 1215 8 is_stmt 0      @ ../Drivers/STM32F7xx_HAL_Driver/Src/stm32f7xx_hal_sai.c:1215:8
	tst.w	r0, #65536
.Ltmp406:
	.loc	5 1218 7 is_stmt 1      @ ../Drivers/STM32F7xx_HAL_Driver/Src/stm32f7xx_hal_sai.c:1218:7
	ittt	eq
	ldreq	r0, [r6]
	orreq	r0, r0, #65536
	streq	r0, [r6]
.Ltmp407:
	.loc	5 1222 5                @ ../Drivers/STM32F7xx_HAL_Driver/Src/stm32f7xx_hal_sai.c:1222:5
	mov	r0, r4
	bl	SAI_InterruptFlag
	ldr	r1, [r6, #16]
	orrs	r0, r1
	str	r0, [r6, #16]
	.loc	5 1225 25               @ ../Drivers/STM32F7xx_HAL_Driver/Src/stm32f7xx_hal_sai.c:1225:25
	ldr	r0, [r6]
	orr	r0, r0, #131072
	str	r0, [r6]
.Ltmp408:
	.loc	5 1228 5                @ ../Drivers/STM32F7xx_HAL_Driver/Src/stm32f7xx_hal_sai.c:1228:5
	strb.w	r5, [r4, #124]
	b	.LBB26_5
.Ltmp409:
	.p2align	2
@ %bb.9:
	.loc	5 0 5 is_stmt 0         @ ../Drivers/STM32F7xx_HAL_Driver/Src/stm32f7xx_hal_sai.c:0:5
__arm_cp.26_0:
	.long	SAI_DMARxCplt
.Lcpi_end15:
	.size	__arm_cp.26_0, .Lcpi_end15-__arm_cp.26_0
__arm_cp.26_1:
	.long	SAI_DMARxHalfCplt
.Lcpi_end16:
	.size	__arm_cp.26_1, .Lcpi_end16-__arm_cp.26_1
__arm_cp.26_2:
	.long	SAI_DMAError
.Lcpi_end17:
	.size	__arm_cp.26_2, .Lcpi_end17-__arm_cp.26_2
.Lfunc_end26:
	.size	HAL_SAI_Receive_DMA, .Lfunc_end26-HAL_SAI_Receive_DMA
	.cfi_endproc
	.cantunwind
	.fnend
                                        @ -- End function
	.section	.text.SAI_DMARxHalfCplt,"ax",%progbits
	.p2align	1               @ -- Begin function SAI_DMARxHalfCplt
	.type	SAI_DMARxHalfCplt,%function
	.code	16                      @ @SAI_DMARxHalfCplt
	.thumb_func
SAI_DMARxHalfCplt:
.Lfunc_begin27:
	.loc	5 2097 0 is_stmt 1      @ ../Drivers/STM32F7xx_HAL_Driver/Src/stm32f7xx_hal_sai.c:2097:0
	.fnstart
	.cfi_startproc
@ %bb.0:
	@DEBUG_VALUE: SAI_DMARxHalfCplt:hdma <- $r0
	@DEBUG_VALUE: SAI_DMARxHalfCplt:hdma <- $r0
	.loc	5 2098 77 prologue_end  @ ../Drivers/STM32F7xx_HAL_Driver/Src/stm32f7xx_hal_sai.c:2098:77
	ldr	r0, [r0, #56]
.Ltmp410:
	@DEBUG_VALUE: SAI_DMARxHalfCplt:hsai <- $r0
	.loc	5 2100 3                @ ../Drivers/STM32F7xx_HAL_Driver/Src/stm32f7xx_hal_sai.c:2100:3
	b	HAL_SAI_RxHalfCpltCallback
.Ltmp411:
.Lfunc_end27:
	.size	SAI_DMARxHalfCplt, .Lfunc_end27-SAI_DMARxHalfCplt
	.cfi_endproc
	.cantunwind
	.fnend
                                        @ -- End function
	.section	.text.SAI_DMARxCplt,"ax",%progbits
	.p2align	1               @ -- Begin function SAI_DMARxCplt
	.type	SAI_DMARxCplt,%function
	.code	16                      @ @SAI_DMARxCplt
	.thumb_func
SAI_DMARxCplt:
.Lfunc_begin28:
	.loc	5 2074 0                @ ../Drivers/STM32F7xx_HAL_Driver/Src/stm32f7xx_hal_sai.c:2074:0
	.fnstart
	.cfi_startproc
@ %bb.0:
	.save	{r4, r5, r7, lr}
	push	{r4, r5, r7, lr}
	.cfi_def_cfa_offset 16
	.cfi_offset lr, -4
	.cfi_offset r7, -8
	.cfi_offset r5, -12
	.cfi_offset r4, -16
	@DEBUG_VALUE: SAI_DMARxCplt:hdma <- $r0
	@DEBUG_VALUE: SAI_DMARxCplt:hdma <- $r0
.Ltmp412:
	.loc	5 2076 13 prologue_end  @ ../Drivers/STM32F7xx_HAL_Driver/Src/stm32f7xx_hal_sai.c:2076:13
	ldr	r1, [r0]
.Ltmp413:
	.loc	5 2075 80               @ ../Drivers/STM32F7xx_HAL_Driver/Src/stm32f7xx_hal_sai.c:2075:80
	ldr	r4, [r0, #56]
.Ltmp414:
	@DEBUG_VALUE: SAI_DMARxCplt:hsai <- $r4
	.loc	5 2076 23               @ ../Drivers/STM32F7xx_HAL_Driver/Src/stm32f7xx_hal_sai.c:2076:23
	ldr	r0, [r1]
.Ltmp415:
	.loc	5 2076 6 is_stmt 0      @ ../Drivers/STM32F7xx_HAL_Driver/Src/stm32f7xx_hal_sai.c:2076:6
	tst.w	r0, #256
	bne	.LBB28_2
.Ltmp416:
@ %bb.1:
	@DEBUG_VALUE: SAI_DMARxCplt:hsai <- $r4
	.loc	5 2079 11 is_stmt 1     @ ../Drivers/STM32F7xx_HAL_Driver/Src/stm32f7xx_hal_sai.c:2079:11
	ldr	r5, [r4]
	.loc	5 2083 5                @ ../Drivers/STM32F7xx_HAL_Driver/Src/stm32f7xx_hal_sai.c:2083:5
	movs	r1, #0
	.loc	5 2079 25               @ ../Drivers/STM32F7xx_HAL_Driver/Src/stm32f7xx_hal_sai.c:2079:25
	ldr	r0, [r5]
	bic	r0, r0, #131072
	str	r0, [r5]
	movs	r0, #0
	.loc	5 2080 21               @ ../Drivers/STM32F7xx_HAL_Driver/Src/stm32f7xx_hal_sai.c:2080:21
	strh.w	r0, [r4, #106]
	.loc	5 2083 5                @ ../Drivers/STM32F7xx_HAL_Driver/Src/stm32f7xx_hal_sai.c:2083:5
	mov	r0, r4
	bl	SAI_InterruptFlag
	ldr	r1, [r5, #16]
	bic.w	r0, r1, r0
	str	r0, [r5, #16]
	.loc	5 2085 17               @ ../Drivers/STM32F7xx_HAL_Driver/Src/stm32f7xx_hal_sai.c:2085:17
	movs	r0, #1
	strb.w	r0, [r4, #125]
.Ltmp417:
.LBB28_2:
	@DEBUG_VALUE: SAI_DMARxCplt:hsai <- $r4
	.loc	5 2087 3                @ ../Drivers/STM32F7xx_HAL_Driver/Src/stm32f7xx_hal_sai.c:2087:3
	mov	r0, r4
	pop.w	{r4, r5, r7, lr}
.Ltmp418:
	b	HAL_SAI_RxCpltCallback
.Ltmp419:
.Lfunc_end28:
	.size	SAI_DMARxCplt, .Lfunc_end28-SAI_DMARxCplt
	.cfi_endproc
	.cantunwind
	.fnend
                                        @ -- End function
	.section	.text.HAL_SAI_EnableTxMuteMode,"ax",%progbits
	.hidden	HAL_SAI_EnableTxMuteMode @ -- Begin function HAL_SAI_EnableTxMuteMode
	.globl	HAL_SAI_EnableTxMuteMode
	.p2align	1
	.type	HAL_SAI_EnableTxMuteMode,%function
	.code	16                      @ @HAL_SAI_EnableTxMuteMode
	.thumb_func
HAL_SAI_EnableTxMuteMode:
.Lfunc_begin29:
	.loc	5 1246 0                @ ../Drivers/STM32F7xx_HAL_Driver/Src/stm32f7xx_hal_sai.c:1246:0
	.fnstart
	.cfi_startproc
@ %bb.0:
	@DEBUG_VALUE: HAL_SAI_EnableTxMuteMode:hsai <- $r0
	@DEBUG_VALUE: HAL_SAI_EnableTxMuteMode:hsai <- $r0
	@DEBUG_VALUE: HAL_SAI_EnableTxMuteMode:val <- $r1
	@DEBUG_VALUE: HAL_SAI_EnableTxMuteMode:val <- $r1
	.loc	5 1249 12 prologue_end  @ ../Drivers/STM32F7xx_HAL_Driver/Src/stm32f7xx_hal_sai.c:1249:12
	ldrb.w	r2, [r0, #125]
.Ltmp420:
	@DEBUG_VALUE: HAL_SAI_EnableTxMuteMode:val <- undef
	.loc	5 1249 6 is_stmt 0      @ ../Drivers/STM32F7xx_HAL_Driver/Src/stm32f7xx_hal_sai.c:1249:6
	cbz	r2, .LBB29_2
.Ltmp421:
@ %bb.1:
	@DEBUG_VALUE: HAL_SAI_EnableTxMuteMode:hsai <- $r0
	.loc	5 1251 5 is_stmt 1      @ ../Drivers/STM32F7xx_HAL_Driver/Src/stm32f7xx_hal_sai.c:1251:5
	ldr	r0, [r0]
.Ltmp422:
	ldr	r2, [r0, #4]
	bic	r2, r2, #96
	str	r2, [r0, #4]
	.loc	5 1252 5                @ ../Drivers/STM32F7xx_HAL_Driver/Src/stm32f7xx_hal_sai.c:1252:5
	ldr	r2, [r0, #4]
	orrs	r1, r2
	orr	r1, r1, #32
	str	r1, [r0, #4]
	movs	r0, #0
.Ltmp423:
	.loc	5 1256 1                @ ../Drivers/STM32F7xx_HAL_Driver/Src/stm32f7xx_hal_sai.c:1256:1
	bx	lr
.LBB29_2:
.Ltmp424:
	@DEBUG_VALUE: HAL_SAI_EnableTxMuteMode:hsai <- $r0
	.loc	5 0 1 is_stmt 0         @ ../Drivers/STM32F7xx_HAL_Driver/Src/stm32f7xx_hal_sai.c:0:1
	movs	r0, #1
.Ltmp425:
	.loc	5 1256 1                @ ../Drivers/STM32F7xx_HAL_Driver/Src/stm32f7xx_hal_sai.c:1256:1
	bx	lr
.Ltmp426:
.Lfunc_end29:
	.size	HAL_SAI_EnableTxMuteMode, .Lfunc_end29-HAL_SAI_EnableTxMuteMode
	.cfi_endproc
	.cantunwind
	.fnend
                                        @ -- End function
	.section	.text.HAL_SAI_DisableTxMuteMode,"ax",%progbits
	.hidden	HAL_SAI_DisableTxMuteMode @ -- Begin function HAL_SAI_DisableTxMuteMode
	.globl	HAL_SAI_DisableTxMuteMode
	.p2align	1
	.type	HAL_SAI_DisableTxMuteMode,%function
	.code	16                      @ @HAL_SAI_DisableTxMuteMode
	.thumb_func
HAL_SAI_DisableTxMuteMode:
.Lfunc_begin30:
	.loc	5 1265 0 is_stmt 1      @ ../Drivers/STM32F7xx_HAL_Driver/Src/stm32f7xx_hal_sai.c:1265:0
	.fnstart
	.cfi_startproc
@ %bb.0:
	@DEBUG_VALUE: HAL_SAI_DisableTxMuteMode:hsai <- $r0
	@DEBUG_VALUE: HAL_SAI_DisableTxMuteMode:hsai <- $r0
	.loc	5 1266 12 prologue_end  @ ../Drivers/STM32F7xx_HAL_Driver/Src/stm32f7xx_hal_sai.c:1266:12
	ldrb.w	r1, [r0, #125]
.Ltmp427:
	.loc	5 1266 6 is_stmt 0      @ ../Drivers/STM32F7xx_HAL_Driver/Src/stm32f7xx_hal_sai.c:1266:6
	cbz	r1, .LBB30_2
.Ltmp428:
@ %bb.1:
	@DEBUG_VALUE: HAL_SAI_DisableTxMuteMode:hsai <- $r0
	.loc	5 1268 5 is_stmt 1      @ ../Drivers/STM32F7xx_HAL_Driver/Src/stm32f7xx_hal_sai.c:1268:5
	ldr	r0, [r0]
.Ltmp429:
	ldr	r1, [r0, #4]
	bic	r1, r1, #96
	str	r1, [r0, #4]
	movs	r0, #0
.Ltmp430:
	.loc	5 1272 1                @ ../Drivers/STM32F7xx_HAL_Driver/Src/stm32f7xx_hal_sai.c:1272:1
	bx	lr
.LBB30_2:
.Ltmp431:
	@DEBUG_VALUE: HAL_SAI_DisableTxMuteMode:hsai <- $r0
	.loc	5 0 1 is_stmt 0         @ ../Drivers/STM32F7xx_HAL_Driver/Src/stm32f7xx_hal_sai.c:0:1
	movs	r0, #1
.Ltmp432:
	.loc	5 1272 1                @ ../Drivers/STM32F7xx_HAL_Driver/Src/stm32f7xx_hal_sai.c:1272:1
	bx	lr
.Ltmp433:
.Lfunc_end30:
	.size	HAL_SAI_DisableTxMuteMode, .Lfunc_end30-HAL_SAI_DisableTxMuteMode
	.cfi_endproc
	.cantunwind
	.fnend
                                        @ -- End function
	.section	.text.HAL_SAI_EnableRxMuteMode,"ax",%progbits
	.hidden	HAL_SAI_EnableRxMuteMode @ -- Begin function HAL_SAI_EnableRxMuteMode
	.globl	HAL_SAI_EnableRxMuteMode
	.p2align	1
	.type	HAL_SAI_EnableRxMuteMode,%function
	.code	16                      @ @HAL_SAI_EnableRxMuteMode
	.thumb_func
HAL_SAI_EnableRxMuteMode:
.Lfunc_begin31:
	.loc	5 1283 0 is_stmt 1      @ ../Drivers/STM32F7xx_HAL_Driver/Src/stm32f7xx_hal_sai.c:1283:0
	.fnstart
	.cfi_startproc
@ %bb.0:
	@DEBUG_VALUE: HAL_SAI_EnableRxMuteMode:hsai <- $r0
	@DEBUG_VALUE: HAL_SAI_EnableRxMuteMode:hsai <- $r0
	@DEBUG_VALUE: HAL_SAI_EnableRxMuteMode:callback <- $r1
	@DEBUG_VALUE: HAL_SAI_EnableRxMuteMode:callback <- $r1
	@DEBUG_VALUE: HAL_SAI_EnableRxMuteMode:counter <- $r2
	@DEBUG_VALUE: HAL_SAI_EnableRxMuteMode:counter <- $r2
	.loc	5 1286 12 prologue_end  @ ../Drivers/STM32F7xx_HAL_Driver/Src/stm32f7xx_hal_sai.c:1286:12
	ldrb.w	r3, [r0, #125]
.Ltmp434:
	@DEBUG_VALUE: HAL_SAI_EnableRxMuteMode:counter <- undef
	.loc	5 1286 6 is_stmt 0      @ ../Drivers/STM32F7xx_HAL_Driver/Src/stm32f7xx_hal_sai.c:1286:6
	cbz	r3, .LBB31_2
.Ltmp435:
@ %bb.1:
	@DEBUG_VALUE: HAL_SAI_EnableRxMuteMode:callback <- $r1
	@DEBUG_VALUE: HAL_SAI_EnableRxMuteMode:hsai <- $r0
	.loc	5 1289 5 is_stmt 1      @ ../Drivers/STM32F7xx_HAL_Driver/Src/stm32f7xx_hal_sai.c:1289:5
	ldr.w	r12, [r0]
	ldr.w	r3, [r12, #4]
	bic	r3, r3, #8064
	str.w	r3, [r12, #4]
	.loc	5 1290 5                @ ../Drivers/STM32F7xx_HAL_Driver/Src/stm32f7xx_hal_sai.c:1290:5
	ldr.w	r3, [r12, #4]
	orr.w	r2, r3, r2, lsl #7
	str.w	r2, [r12, #4]
	.loc	5 1291 24               @ ../Drivers/STM32F7xx_HAL_Driver/Src/stm32f7xx_hal_sai.c:1291:24
	str	r1, [r0, #116]
	.loc	5 1293 5                @ ../Drivers/STM32F7xx_HAL_Driver/Src/stm32f7xx_hal_sai.c:1293:5
	ldr.w	r0, [r12, #16]
.Ltmp436:
	orr	r0, r0, #2
	str.w	r0, [r12, #16]
	movs	r0, #0
.Ltmp437:
	.loc	5 1297 1                @ ../Drivers/STM32F7xx_HAL_Driver/Src/stm32f7xx_hal_sai.c:1297:1
	bx	lr
.LBB31_2:
	@DEBUG_VALUE: HAL_SAI_EnableRxMuteMode:callback <- $r1
.Ltmp438:
	@DEBUG_VALUE: HAL_SAI_EnableRxMuteMode:hsai <- $r0
	.loc	5 0 1 is_stmt 0         @ ../Drivers/STM32F7xx_HAL_Driver/Src/stm32f7xx_hal_sai.c:0:1
	movs	r0, #1
.Ltmp439:
	.loc	5 1297 1                @ ../Drivers/STM32F7xx_HAL_Driver/Src/stm32f7xx_hal_sai.c:1297:1
	bx	lr
.Ltmp440:
.Lfunc_end31:
	.size	HAL_SAI_EnableRxMuteMode, .Lfunc_end31-HAL_SAI_EnableRxMuteMode
	.cfi_endproc
	.cantunwind
	.fnend
                                        @ -- End function
	.section	.text.HAL_SAI_DisableRxMuteMode,"ax",%progbits
	.hidden	HAL_SAI_DisableRxMuteMode @ -- Begin function HAL_SAI_DisableRxMuteMode
	.globl	HAL_SAI_DisableRxMuteMode
	.p2align	1
	.type	HAL_SAI_DisableRxMuteMode,%function
	.code	16                      @ @HAL_SAI_DisableRxMuteMode
	.thumb_func
HAL_SAI_DisableRxMuteMode:
.Lfunc_begin32:
	.loc	5 1306 0 is_stmt 1      @ ../Drivers/STM32F7xx_HAL_Driver/Src/stm32f7xx_hal_sai.c:1306:0
	.fnstart
	.cfi_startproc
@ %bb.0:
	@DEBUG_VALUE: HAL_SAI_DisableRxMuteMode:hsai <- $r0
	mov	r1, r0
.Ltmp441:
	@DEBUG_VALUE: HAL_SAI_DisableRxMuteMode:hsai <- $r1
	.loc	5 1307 12 prologue_end  @ ../Drivers/STM32F7xx_HAL_Driver/Src/stm32f7xx_hal_sai.c:1307:12
	ldrb.w	r0, [r0, #125]
.Ltmp442:
	.loc	5 1307 6 is_stmt 0      @ ../Drivers/STM32F7xx_HAL_Driver/Src/stm32f7xx_hal_sai.c:1307:6
	cbz	r0, .LBB32_2
.Ltmp443:
@ %bb.1:
	@DEBUG_VALUE: HAL_SAI_DisableRxMuteMode:hsai <- $r1
	.loc	5 0 6                   @ ../Drivers/STM32F7xx_HAL_Driver/Src/stm32f7xx_hal_sai.c:0:6
	movs	r0, #0
.Ltmp444:
	.loc	5 1310 24 is_stmt 1     @ ../Drivers/STM32F7xx_HAL_Driver/Src/stm32f7xx_hal_sai.c:1310:24
	str	r0, [r1, #116]
	.loc	5 1312 5                @ ../Drivers/STM32F7xx_HAL_Driver/Src/stm32f7xx_hal_sai.c:1312:5
	ldr	r1, [r1]
.Ltmp445:
	ldr	r2, [r1, #16]
	bic	r2, r2, #2
	str	r2, [r1, #16]
.Ltmp446:
	.loc	5 1316 1                @ ../Drivers/STM32F7xx_HAL_Driver/Src/stm32f7xx_hal_sai.c:1316:1
	bx	lr
.LBB32_2:
.Ltmp447:
	@DEBUG_VALUE: HAL_SAI_DisableRxMuteMode:hsai <- $r1
	.loc	5 0 1 is_stmt 0         @ ../Drivers/STM32F7xx_HAL_Driver/Src/stm32f7xx_hal_sai.c:0:1
	movs	r0, #1
	.loc	5 1316 1                @ ../Drivers/STM32F7xx_HAL_Driver/Src/stm32f7xx_hal_sai.c:1316:1
	bx	lr
.Ltmp448:
.Lfunc_end32:
	.size	HAL_SAI_DisableRxMuteMode, .Lfunc_end32-HAL_SAI_DisableRxMuteMode
	.cfi_endproc
	.cantunwind
	.fnend
                                        @ -- End function
	.section	.text.HAL_SAI_IRQHandler,"ax",%progbits
	.hidden	HAL_SAI_IRQHandler      @ -- Begin function HAL_SAI_IRQHandler
	.globl	HAL_SAI_IRQHandler
	.p2align	2
	.type	HAL_SAI_IRQHandler,%function
	.code	16                      @ @HAL_SAI_IRQHandler
	.thumb_func
HAL_SAI_IRQHandler:
.Lfunc_begin33:
	.loc	5 1325 0 is_stmt 1      @ ../Drivers/STM32F7xx_HAL_Driver/Src/stm32f7xx_hal_sai.c:1325:0
	.fnstart
	.cfi_startproc
@ %bb.0:
	.save	{r4, lr}
	push	{r4, lr}
	.cfi_def_cfa_offset 8
	.cfi_offset lr, -4
	.cfi_offset r4, -8
	@DEBUG_VALUE: HAL_SAI_IRQHandler:hsai <- $r0
	mov	r4, r0
.Ltmp449:
	@DEBUG_VALUE: HAL_SAI_IRQHandler:hsai <- $r4
	.loc	5 1326 12 prologue_end  @ ../Drivers/STM32F7xx_HAL_Driver/Src/stm32f7xx_hal_sai.c:1326:12
	ldrb.w	r0, [r0, #125]
.Ltmp450:
	.loc	5 1326 6 is_stmt 0      @ ../Drivers/STM32F7xx_HAL_Driver/Src/stm32f7xx_hal_sai.c:1326:6
	cmp	r0, #0
	beq	.LBB33_24
.Ltmp451:
@ %bb.1:
	@DEBUG_VALUE: HAL_SAI_IRQHandler:hsai <- $r4
	.loc	5 1328 30 is_stmt 1     @ ../Drivers/STM32F7xx_HAL_Driver/Src/stm32f7xx_hal_sai.c:1328:30
	ldr	r1, [r4]
	.loc	5 1328 40 is_stmt 0     @ ../Drivers/STM32F7xx_HAL_Driver/Src/stm32f7xx_hal_sai.c:1328:40
	ldr	r0, [r1, #20]
.Ltmp452:
	@DEBUG_VALUE: itflags <- $r0
	.loc	5 1329 42 is_stmt 1     @ ../Drivers/STM32F7xx_HAL_Driver/Src/stm32f7xx_hal_sai.c:1329:42
	ldr	r2, [r1, #16]
.Ltmp453:
	@DEBUG_VALUE: itsources <- $r2
	.loc	5 1334 51               @ ../Drivers/STM32F7xx_HAL_Driver/Src/stm32f7xx_hal_sai.c:1334:51
	ands	r2, r0
.Ltmp454:
	.loc	5 1330 42               @ ../Drivers/STM32F7xx_HAL_Driver/Src/stm32f7xx_hal_sai.c:1330:42
	ldr	r0, [r1]
.Ltmp455:
	@DEBUG_VALUE: cr1config <- $r0
	.loc	5 1334 51               @ ../Drivers/STM32F7xx_HAL_Driver/Src/stm32f7xx_hal_sai.c:1334:51
	tst.w	r2, #8
	bne	.LBB33_9
.Ltmp456:
@ %bb.2:
	@DEBUG_VALUE: cr1config <- $r0
	@DEBUG_VALUE: HAL_SAI_IRQHandler:hsai <- $r4
	.loc	5 1339 62               @ ../Drivers/STM32F7xx_HAL_Driver/Src/stm32f7xx_hal_sai.c:1339:62
	lsls	r3, r2, #31
	bne	.LBB33_10
.Ltmp457:
@ %bb.3:
	@DEBUG_VALUE: cr1config <- $r0
	@DEBUG_VALUE: HAL_SAI_IRQHandler:hsai <- $r4
	.loc	5 1351 64               @ ../Drivers/STM32F7xx_HAL_Driver/Src/stm32f7xx_hal_sai.c:1351:64
	lsls	r3, r2, #30
	bmi	.LBB33_13
.Ltmp458:
@ %bb.4:
	@DEBUG_VALUE: cr1config <- $r0
	@DEBUG_VALUE: HAL_SAI_IRQHandler:hsai <- $r4
	.loc	5 1363 62               @ ../Drivers/STM32F7xx_HAL_Driver/Src/stm32f7xx_hal_sai.c:1363:62
	lsls	r3, r2, #26
	bmi	.LBB33_15
.Ltmp459:
@ %bb.5:
	@DEBUG_VALUE: cr1config <- $r0
	@DEBUG_VALUE: HAL_SAI_IRQHandler:hsai <- $r4
	.loc	5 1397 62               @ ../Drivers/STM32F7xx_HAL_Driver/Src/stm32f7xx_hal_sai.c:1397:62
	lsls	r3, r2, #25
	bmi	.LBB33_16
.Ltmp460:
@ %bb.6:
	@DEBUG_VALUE: cr1config <- $r0
	@DEBUG_VALUE: HAL_SAI_IRQHandler:hsai <- $r4
	.loc	5 1431 62               @ ../Drivers/STM32F7xx_HAL_Driver/Src/stm32f7xx_hal_sai.c:1431:62
	lsls	r0, r2, #29
.Ltmp461:
	bmi	.LBB33_21
.Ltmp462:
@ %bb.7:
	@DEBUG_VALUE: HAL_SAI_IRQHandler:hsai <- $r4
	.loc	5 1468 60               @ ../Drivers/STM32F7xx_HAL_Driver/Src/stm32f7xx_hal_sai.c:1468:60
	lsls	r0, r2, #27
	bpl	.LBB33_24
.Ltmp463:
@ %bb.8:
	@DEBUG_VALUE: HAL_SAI_IRQHandler:hsai <- $r4
	.loc	5 1471 7                @ ../Drivers/STM32F7xx_HAL_Driver/Src/stm32f7xx_hal_sai.c:1471:7
	movs	r0, #16
	str	r0, [r1, #24]
	.loc	5 1473 23               @ ../Drivers/STM32F7xx_HAL_Driver/Src/stm32f7xx_hal_sai.c:1473:23
	ldr.w	r0, [r4, #128]
	orr	r0, r0, #16
	b	.LBB33_11
.Ltmp464:
.LBB33_9:
	@DEBUG_VALUE: cr1config <- $r0
	@DEBUG_VALUE: HAL_SAI_IRQHandler:hsai <- $r4
	.loc	5 1336 13               @ ../Drivers/STM32F7xx_HAL_Driver/Src/stm32f7xx_hal_sai.c:1336:13
	ldr	r1, [r4, #120]
	.loc	5 1336 7 is_stmt 0      @ ../Drivers/STM32F7xx_HAL_Driver/Src/stm32f7xx_hal_sai.c:1336:7
	mov	r0, r4
.Ltmp465:
	pop.w	{r4, lr}
.Ltmp466:
	bx	r1
.Ltmp467:
.LBB33_10:
	@DEBUG_VALUE: cr1config <- $r0
	@DEBUG_VALUE: HAL_SAI_IRQHandler:hsai <- $r4
	.loc	5 1342 7 is_stmt 1      @ ../Drivers/STM32F7xx_HAL_Driver/Src/stm32f7xx_hal_sai.c:1342:7
	movs	r0, #1
.Ltmp468:
	str	r0, [r1, #24]
	.loc	5 1344 19               @ ../Drivers/STM32F7xx_HAL_Driver/Src/stm32f7xx_hal_sai.c:1344:19
	movs	r1, #2
	.loc	5 1344 26 is_stmt 0     @ ../Drivers/STM32F7xx_HAL_Driver/Src/stm32f7xx_hal_sai.c:1344:26
	ldrb.w	r0, [r4, #125]
	.loc	5 1344 19               @ ../Drivers/STM32F7xx_HAL_Driver/Src/stm32f7xx_hal_sai.c:1344:19
	cmp	r0, #34
	it	eq
	moveq	r1, #1
.Ltmp469:
	@DEBUG_VALUE: tmperror <- $r1
	.loc	5 1346 23 is_stmt 1     @ ../Drivers/STM32F7xx_HAL_Driver/Src/stm32f7xx_hal_sai.c:1346:23
	ldr.w	r0, [r4, #128]
	orrs	r0, r1
.Ltmp470:
.LBB33_11:
	@DEBUG_VALUE: HAL_SAI_IRQHandler:hsai <- $r4
	.loc	5 0 23 is_stmt 0        @ ../Drivers/STM32F7xx_HAL_Driver/Src/stm32f7xx_hal_sai.c:0:23
	str.w	r0, [r4, #128]
.Ltmp471:
.LBB33_12:
	@DEBUG_VALUE: HAL_SAI_IRQHandler:hsai <- $r4
	mov	r0, r4
	pop.w	{r4, lr}
.Ltmp472:
	b	HAL_SAI_ErrorCallback
.LBB33_13:
.Ltmp473:
	@DEBUG_VALUE: cr1config <- $r0
	@DEBUG_VALUE: HAL_SAI_IRQHandler:hsai <- $r4
	.loc	5 1354 7 is_stmt 1      @ ../Drivers/STM32F7xx_HAL_Driver/Src/stm32f7xx_hal_sai.c:1354:7
	movs	r0, #2
.Ltmp474:
	str	r0, [r1, #24]
.Ltmp475:
	.loc	5 1356 16               @ ../Drivers/STM32F7xx_HAL_Driver/Src/stm32f7xx_hal_sai.c:1356:16
	ldr	r0, [r4, #116]
.Ltmp476:
	.loc	5 1356 10 is_stmt 0     @ ../Drivers/STM32F7xx_HAL_Driver/Src/stm32f7xx_hal_sai.c:1356:10
	cbz	r0, .LBB33_24
.Ltmp477:
@ %bb.14:
	@DEBUG_VALUE: HAL_SAI_IRQHandler:hsai <- $r4
	.loc	5 1359 9 is_stmt 1      @ ../Drivers/STM32F7xx_HAL_Driver/Src/stm32f7xx_hal_sai.c:1359:9
	pop.w	{r4, lr}
.Ltmp478:
	bx	r0
.Ltmp479:
.LBB33_15:
	@DEBUG_VALUE: cr1config <- $r0
	@DEBUG_VALUE: HAL_SAI_IRQHandler:hsai <- $r4
	.loc	5 1366 23               @ ../Drivers/STM32F7xx_HAL_Driver/Src/stm32f7xx_hal_sai.c:1366:23
	ldr.w	r1, [r4, #128]
	orr	r1, r1, #4
	b	.LBB33_17
.Ltmp480:
.LBB33_16:
	@DEBUG_VALUE: cr1config <- $r0
	@DEBUG_VALUE: HAL_SAI_IRQHandler:hsai <- $r4
	.loc	5 1400 23               @ ../Drivers/STM32F7xx_HAL_Driver/Src/stm32f7xx_hal_sai.c:1400:23
	ldr.w	r1, [r4, #128]
	orr	r1, r1, #8
.Ltmp481:
.LBB33_17:
	@DEBUG_VALUE: HAL_SAI_IRQHandler:hsai <- $r4
	.loc	5 0 23 is_stmt 0        @ ../Drivers/STM32F7xx_HAL_Driver/Src/stm32f7xx_hal_sai.c:0:23
	lsls	r0, r0, #14
	str.w	r1, [r4, #128]
	bmi	.LBB33_19
.Ltmp482:
@ %bb.18:
	@DEBUG_VALUE: HAL_SAI_IRQHandler:hsai <- $r4
	mov	r0, r4
	bl	HAL_SAI_Abort
	b	.LBB33_12
.Ltmp483:
.LBB33_19:
	@DEBUG_VALUE: HAL_SAI_IRQHandler:hsai <- $r4
	ldr	r0, [r4, #108]
	cbnz	r0, .LBB33_23
.Ltmp484:
@ %bb.20:
	@DEBUG_VALUE: HAL_SAI_IRQHandler:hsai <- $r4
	ldr	r0, [r4, #112]
	cbnz	r0, .LBB33_23
	b	.LBB33_24
.Ltmp485:
.LBB33_21:
	@DEBUG_VALUE: HAL_SAI_IRQHandler:hsai <- $r4
	.loc	5 1437 16 is_stmt 1     @ ../Drivers/STM32F7xx_HAL_Driver/Src/stm32f7xx_hal_sai.c:1437:16
	ldr	r0, [r4, #108]
.Ltmp486:
	.loc	5 1434 23               @ ../Drivers/STM32F7xx_HAL_Driver/Src/stm32f7xx_hal_sai.c:1434:23
	ldr.w	r2, [r4, #128]
	orr	r2, r2, #32
	.loc	5 1437 10               @ ../Drivers/STM32F7xx_HAL_Driver/Src/stm32f7xx_hal_sai.c:1437:10
	cmp	r0, #0
	.loc	5 1434 23               @ ../Drivers/STM32F7xx_HAL_Driver/Src/stm32f7xx_hal_sai.c:1434:23
	str.w	r2, [r4, #128]
	.loc	5 1437 10               @ ../Drivers/STM32F7xx_HAL_Driver/Src/stm32f7xx_hal_sai.c:1437:10
	bne	.LBB33_23
.Ltmp487:
@ %bb.22:
	@DEBUG_VALUE: HAL_SAI_IRQHandler:hsai <- $r4
	.loc	5 1444 21               @ ../Drivers/STM32F7xx_HAL_Driver/Src/stm32f7xx_hal_sai.c:1444:21
	ldr	r0, [r4, #112]
.Ltmp488:
	.loc	5 1444 15 is_stmt 0     @ ../Drivers/STM32F7xx_HAL_Driver/Src/stm32f7xx_hal_sai.c:1444:15
	cbz	r0, .LBB33_25
.Ltmp489:
.LBB33_23:
	@DEBUG_VALUE: HAL_SAI_IRQHandler:hsai <- $r4
	.loc	5 0 15                  @ ../Drivers/STM32F7xx_HAL_Driver/Src/stm32f7xx_hal_sai.c:0:15
	ldr	r1, __arm_cp.33_0
	str	r1, [r0, #80]
	bl	HAL_DMA_Abort_IT
.Ltmp490:
.LBB33_24:
	@DEBUG_VALUE: HAL_SAI_IRQHandler:hsai <- $r4
	.loc	5 1482 1 is_stmt 1      @ ../Drivers/STM32F7xx_HAL_Driver/Src/stm32f7xx_hal_sai.c:1482:1
	pop	{r4, pc}
.Ltmp491:
.LBB33_25:
	@DEBUG_VALUE: HAL_SAI_IRQHandler:hsai <- $r4
	.loc	5 0 1 is_stmt 0         @ ../Drivers/STM32F7xx_HAL_Driver/Src/stm32f7xx_hal_sai.c:0:1
	movs	r0, #0
.Ltmp492:
	.loc	5 1456 31 is_stmt 1     @ ../Drivers/STM32F7xx_HAL_Driver/Src/stm32f7xx_hal_sai.c:1456:31
	mov.w	r2, #-1
	.loc	5 1455 29               @ ../Drivers/STM32F7xx_HAL_Driver/Src/stm32f7xx_hal_sai.c:1455:29
	str	r0, [r1, #16]
	.loc	5 1456 31               @ ../Drivers/STM32F7xx_HAL_Driver/Src/stm32f7xx_hal_sai.c:1456:31
	str	r2, [r1, #24]
	.loc	5 1461 25               @ ../Drivers/STM32F7xx_HAL_Driver/Src/stm32f7xx_hal_sai.c:1461:25
	strh.w	r0, [r4, #106]
	.loc	5 1458 21               @ ../Drivers/STM32F7xx_HAL_Driver/Src/stm32f7xx_hal_sai.c:1458:21
	movs	r0, #1
	strb.w	r0, [r4, #125]
	b	.LBB33_12
.Ltmp493:
	.p2align	2
@ %bb.26:
	.loc	5 0 21 is_stmt 0        @ ../Drivers/STM32F7xx_HAL_Driver/Src/stm32f7xx_hal_sai.c:0:21
__arm_cp.33_0:
	.long	SAI_DMAAbort
.Lcpi_end18:
	.size	__arm_cp.33_0, .Lcpi_end18-__arm_cp.33_0
.Lfunc_end33:
	.size	HAL_SAI_IRQHandler, .Lfunc_end33-HAL_SAI_IRQHandler
	.cfi_endproc
	.cantunwind
	.fnend
                                        @ -- End function
	.section	.text.HAL_SAI_ErrorCallback,"ax",%progbits
	.hidden	HAL_SAI_ErrorCallback   @ -- Begin function HAL_SAI_ErrorCallback
	.weak	HAL_SAI_ErrorCallback
	.p2align	1
	.type	HAL_SAI_ErrorCallback,%function
	.code	16                      @ @HAL_SAI_ErrorCallback
	.thumb_func
HAL_SAI_ErrorCallback:
.Lfunc_begin34:
	.loc	5 1555 0 is_stmt 1      @ ../Drivers/STM32F7xx_HAL_Driver/Src/stm32f7xx_hal_sai.c:1555:0
	.fnstart
	.cfi_startproc
@ %bb.0:
	@DEBUG_VALUE: HAL_SAI_ErrorCallback:hsai <- $r0
	.loc	5 1562 1 prologue_end   @ ../Drivers/STM32F7xx_HAL_Driver/Src/stm32f7xx_hal_sai.c:1562:1
	bx	lr
.Ltmp494:
.Lfunc_end34:
	.size	HAL_SAI_ErrorCallback, .Lfunc_end34-HAL_SAI_ErrorCallback
	.cfi_endproc
	.cantunwind
	.fnend
                                        @ -- End function
	.section	.text.SAI_DMAAbort,"ax",%progbits
	.p2align	1               @ -- Begin function SAI_DMAAbort
	.type	SAI_DMAAbort,%function
	.code	16                      @ @SAI_DMAAbort
	.thumb_func
SAI_DMAAbort:
.Lfunc_begin35:
	.loc	5 2140 0                @ ../Drivers/STM32F7xx_HAL_Driver/Src/stm32f7xx_hal_sai.c:2140:0
	.fnstart
	.cfi_startproc
@ %bb.0:
	.save	{r4, r5, r7, lr}
	push	{r4, r5, r7, lr}
	.cfi_def_cfa_offset 16
	.cfi_offset lr, -4
	.cfi_offset r7, -8
	.cfi_offset r5, -12
	.cfi_offset r4, -16
	@DEBUG_VALUE: SAI_DMAAbort:hdma <- $r0
	@DEBUG_VALUE: SAI_DMAAbort:hdma <- $r0
.Ltmp495:
	.loc	5 2141 80 prologue_end  @ ../Drivers/STM32F7xx_HAL_Driver/Src/stm32f7xx_hal_sai.c:2141:80
	ldr	r4, [r0, #56]
.Ltmp496:
	@DEBUG_VALUE: SAI_DMAAbort:hsai <- $r4
	.loc	5 0 80 is_stmt 0        @ ../Drivers/STM32F7xx_HAL_Driver/Src/stm32f7xx_hal_sai.c:0:80
	movs	r5, #0
	.loc	5 2144 9 is_stmt 1      @ ../Drivers/STM32F7xx_HAL_Driver/Src/stm32f7xx_hal_sai.c:2144:9
	ldr	r0, [r4]
.Ltmp497:
	.loc	5 2144 23 is_stmt 0     @ ../Drivers/STM32F7xx_HAL_Driver/Src/stm32f7xx_hal_sai.c:2144:23
	ldr	r1, [r0]
	bic	r1, r1, #131072
	str	r1, [r0]
	.loc	5 2148 25 is_stmt 1     @ ../Drivers/STM32F7xx_HAL_Driver/Src/stm32f7xx_hal_sai.c:2148:25
	mov.w	r1, #-1
	.loc	5 2147 23               @ ../Drivers/STM32F7xx_HAL_Driver/Src/stm32f7xx_hal_sai.c:2147:23
	str	r5, [r0, #16]
	.loc	5 2148 25               @ ../Drivers/STM32F7xx_HAL_Driver/Src/stm32f7xx_hal_sai.c:2148:25
	str	r1, [r0, #24]
.Ltmp498:
	.loc	5 2150 12               @ ../Drivers/STM32F7xx_HAL_Driver/Src/stm32f7xx_hal_sai.c:2150:12
	ldr.w	r0, [r4, #128]
.Ltmp499:
	.loc	5 2150 6 is_stmt 0      @ ../Drivers/STM32F7xx_HAL_Driver/Src/stm32f7xx_hal_sai.c:2150:6
	cmp	r0, #32
	beq	.LBB35_2
.Ltmp500:
@ %bb.1:
	@DEBUG_VALUE: SAI_DMAAbort:hsai <- $r4
	.loc	5 2153 5 is_stmt 1      @ ../Drivers/STM32F7xx_HAL_Driver/Src/stm32f7xx_hal_sai.c:2153:5
	mov	r0, r4
	bl	SAI_Disable
	.loc	5 2156 5                @ ../Drivers/STM32F7xx_HAL_Driver/Src/stm32f7xx_hal_sai.c:2156:5
	ldr	r0, [r4]
	ldr	r1, [r0, #4]
	orr	r1, r1, #8
	str	r1, [r0, #4]
.Ltmp501:
.LBB35_2:
	@DEBUG_VALUE: SAI_DMAAbort:hsai <- $r4
	.loc	5 2159 15               @ ../Drivers/STM32F7xx_HAL_Driver/Src/stm32f7xx_hal_sai.c:2159:15
	movs	r0, #1
	.loc	5 2162 19               @ ../Drivers/STM32F7xx_HAL_Driver/Src/stm32f7xx_hal_sai.c:2162:19
	strh.w	r5, [r4, #106]
	.loc	5 2159 15               @ ../Drivers/STM32F7xx_HAL_Driver/Src/stm32f7xx_hal_sai.c:2159:15
	strb.w	r0, [r4, #125]
	.loc	5 2165 3                @ ../Drivers/STM32F7xx_HAL_Driver/Src/stm32f7xx_hal_sai.c:2165:3
	mov	r0, r4
	pop.w	{r4, r5, r7, lr}
.Ltmp502:
	b	HAL_SAI_ErrorCallback
.Ltmp503:
.Lfunc_end35:
	.size	SAI_DMAAbort, .Lfunc_end35-SAI_DMAAbort
	.cfi_endproc
	.cantunwind
	.fnend
                                        @ -- End function
	.section	.text.HAL_SAI_TxCpltCallback,"ax",%progbits
	.hidden	HAL_SAI_TxCpltCallback  @ -- Begin function HAL_SAI_TxCpltCallback
	.weak	HAL_SAI_TxCpltCallback
	.p2align	1
	.type	HAL_SAI_TxCpltCallback,%function
	.code	16                      @ @HAL_SAI_TxCpltCallback
	.thumb_func
HAL_SAI_TxCpltCallback:
.Lfunc_begin36:
	.loc	5 1491 0                @ ../Drivers/STM32F7xx_HAL_Driver/Src/stm32f7xx_hal_sai.c:1491:0
	.fnstart
	.cfi_startproc
@ %bb.0:
	@DEBUG_VALUE: HAL_SAI_TxCpltCallback:hsai <- $r0
	.loc	5 1498 1 prologue_end   @ ../Drivers/STM32F7xx_HAL_Driver/Src/stm32f7xx_hal_sai.c:1498:1
	bx	lr
.Ltmp504:
.Lfunc_end36:
	.size	HAL_SAI_TxCpltCallback, .Lfunc_end36-HAL_SAI_TxCpltCallback
	.cfi_endproc
	.cantunwind
	.fnend
                                        @ -- End function
	.section	.text.HAL_SAI_TxHalfCpltCallback,"ax",%progbits
	.hidden	HAL_SAI_TxHalfCpltCallback @ -- Begin function HAL_SAI_TxHalfCpltCallback
	.weak	HAL_SAI_TxHalfCpltCallback
	.p2align	1
	.type	HAL_SAI_TxHalfCpltCallback,%function
	.code	16                      @ @HAL_SAI_TxHalfCpltCallback
	.thumb_func
HAL_SAI_TxHalfCpltCallback:
.Lfunc_begin37:
	.loc	5 1507 0                @ ../Drivers/STM32F7xx_HAL_Driver/Src/stm32f7xx_hal_sai.c:1507:0
	.fnstart
	.cfi_startproc
@ %bb.0:
	@DEBUG_VALUE: HAL_SAI_TxHalfCpltCallback:hsai <- $r0
	.loc	5 1514 1 prologue_end   @ ../Drivers/STM32F7xx_HAL_Driver/Src/stm32f7xx_hal_sai.c:1514:1
	bx	lr
.Ltmp505:
.Lfunc_end37:
	.size	HAL_SAI_TxHalfCpltCallback, .Lfunc_end37-HAL_SAI_TxHalfCpltCallback
	.cfi_endproc
	.cantunwind
	.fnend
                                        @ -- End function
	.section	.text.HAL_SAI_RxCpltCallback,"ax",%progbits
	.hidden	HAL_SAI_RxCpltCallback  @ -- Begin function HAL_SAI_RxCpltCallback
	.weak	HAL_SAI_RxCpltCallback
	.p2align	1
	.type	HAL_SAI_RxCpltCallback,%function
	.code	16                      @ @HAL_SAI_RxCpltCallback
	.thumb_func
HAL_SAI_RxCpltCallback:
.Lfunc_begin38:
	.loc	5 1523 0                @ ../Drivers/STM32F7xx_HAL_Driver/Src/stm32f7xx_hal_sai.c:1523:0
	.fnstart
	.cfi_startproc
@ %bb.0:
	@DEBUG_VALUE: HAL_SAI_RxCpltCallback:hsai <- $r0
	.loc	5 1530 1 prologue_end   @ ../Drivers/STM32F7xx_HAL_Driver/Src/stm32f7xx_hal_sai.c:1530:1
	bx	lr
.Ltmp506:
.Lfunc_end38:
	.size	HAL_SAI_RxCpltCallback, .Lfunc_end38-HAL_SAI_RxCpltCallback
	.cfi_endproc
	.cantunwind
	.fnend
                                        @ -- End function
	.section	.text.HAL_SAI_RxHalfCpltCallback,"ax",%progbits
	.hidden	HAL_SAI_RxHalfCpltCallback @ -- Begin function HAL_SAI_RxHalfCpltCallback
	.weak	HAL_SAI_RxHalfCpltCallback
	.p2align	1
	.type	HAL_SAI_RxHalfCpltCallback,%function
	.code	16                      @ @HAL_SAI_RxHalfCpltCallback
	.thumb_func
HAL_SAI_RxHalfCpltCallback:
.Lfunc_begin39:
	.loc	5 1539 0                @ ../Drivers/STM32F7xx_HAL_Driver/Src/stm32f7xx_hal_sai.c:1539:0
	.fnstart
	.cfi_startproc
@ %bb.0:
	@DEBUG_VALUE: HAL_SAI_RxHalfCpltCallback:hsai <- $r0
	.loc	5 1546 1 prologue_end   @ ../Drivers/STM32F7xx_HAL_Driver/Src/stm32f7xx_hal_sai.c:1546:1
	bx	lr
.Ltmp507:
.Lfunc_end39:
	.size	HAL_SAI_RxHalfCpltCallback, .Lfunc_end39-HAL_SAI_RxHalfCpltCallback
	.cfi_endproc
	.cantunwind
	.fnend
                                        @ -- End function
	.section	.text.HAL_SAI_GetState,"ax",%progbits
	.hidden	HAL_SAI_GetState        @ -- Begin function HAL_SAI_GetState
	.globl	HAL_SAI_GetState
	.p2align	1
	.type	HAL_SAI_GetState,%function
	.code	16                      @ @HAL_SAI_GetState
	.thumb_func
HAL_SAI_GetState:
.Lfunc_begin40:
	.loc	5 1591 0                @ ../Drivers/STM32F7xx_HAL_Driver/Src/stm32f7xx_hal_sai.c:1591:0
	.fnstart
	.cfi_startproc
@ %bb.0:
	@DEBUG_VALUE: HAL_SAI_GetState:hsai <- $r0
	@DEBUG_VALUE: HAL_SAI_GetState:hsai <- $r0
	.loc	5 1592 3 prologue_end   @ ../Drivers/STM32F7xx_HAL_Driver/Src/stm32f7xx_hal_sai.c:1592:3
	ldrb.w	r0, [r0, #125]
	bx	lr
.Ltmp508:
.Lfunc_end40:
	.size	HAL_SAI_GetState, .Lfunc_end40-HAL_SAI_GetState
	.cfi_endproc
	.cantunwind
	.fnend
                                        @ -- End function
	.section	.text.HAL_SAI_GetError,"ax",%progbits
	.hidden	HAL_SAI_GetError        @ -- Begin function HAL_SAI_GetError
	.globl	HAL_SAI_GetError
	.p2align	1
	.type	HAL_SAI_GetError,%function
	.code	16                      @ @HAL_SAI_GetError
	.thumb_func
HAL_SAI_GetError:
.Lfunc_begin41:
	.loc	5 1602 0                @ ../Drivers/STM32F7xx_HAL_Driver/Src/stm32f7xx_hal_sai.c:1602:0
	.fnstart
	.cfi_startproc
@ %bb.0:
	@DEBUG_VALUE: HAL_SAI_GetError:hsai <- $r0
	@DEBUG_VALUE: HAL_SAI_GetError:hsai <- $r0
	.loc	5 1603 16 prologue_end  @ ../Drivers/STM32F7xx_HAL_Driver/Src/stm32f7xx_hal_sai.c:1603:16
	ldr.w	r0, [r0, #128]
.Ltmp509:
	.loc	5 1603 3 is_stmt 0      @ ../Drivers/STM32F7xx_HAL_Driver/Src/stm32f7xx_hal_sai.c:1603:3
	bx	lr
.Ltmp510:
.Lfunc_end41:
	.size	HAL_SAI_GetError, .Lfunc_end41-HAL_SAI_GetError
	.cfi_endproc
	.cantunwind
	.fnend
                                        @ -- End function
	.section	".note.GNU-stack","",%progbits
	.eabi_attribute	30, 4	@ Tag_ABI_optimization_goals
	.ARM_attribute	16, 1	@ Tag_AV_eba