	.text
	.syntax unified
	.eabi_attribute	67, "2.09"	@ Tag_conformance
	.cpu	cortex-m7
	.eabi_attribute	6, 13	@ Tag_CPU_arch
	.eabi_attribute	7, 77	@ Tag_CPU_arch_profile
	.eabi_attribute	8, 0	@ Tag_ARM_ISA_use
	.eabi_attribute	9, 2	@ Tag_THUMB_ISA_use
	.fpu	fpv5-sp-d16
	.eabi_attribute	27, 1	@ Tag_ABI_HardFP_use
	.eabi_attribute	36, 1	@ Tag_FP_HP_extension
	.eabi_attribute	34, 1	@ Tag_CPU_unaligned_access
	.eabi_attribute	17, 1	@ Tag_ABI_PCS_GOT_use
	.eabi_attribute	20, 2	@ Tag_ABI_FP_denormal
	.eabi_attribute	21, 0	@ Tag_ABI_FP_exceptions
	.eabi_attribute	23, 1	@ Tag_ABI_FP_number_model
	.eabi_attribute	24, 1	@ Tag_ABI_align_needed
	.eabi_attribute	25, 1	@ Tag_ABI_align_preserved
	.eabi_attribute	28, 1	@ Tag_ABI_VFP_args
	.eabi_attribute	38, 1	@ Tag_ABI_FP_16bit_format
	.eabi_attribute	18, 2	@ Tag_ABI_PCS_wchar_t
	.eabi_attribute	26, 1	@ Tag_ABI_enum_size
	.eabi_attribute	14, 0	@ Tag_ABI_PCS_R9_use
	.file	"stm32f7xx_hal_tim.c"
	.file	1 "../Drivers/STM32F7xx_HAL_Driver/Inc" "stm32f7xx_hal_def.h"
	.file	2 "../Drivers/STM32F7xx_HAL_Driver/Inc" "stm32f7xx_hal_tim.h"
	.file	3 "../Drivers/STM32F7xx_HAL_Driver/Inc" "stm32f7xx_hal_dma.h"
	.file	4 "../Drivers/CMSIS/Device/ST/STM32F7xx/Include" "stm32f7xx.h"
	.file	5 "C:\\Keil\\ARM\\ARMCLANG\\Bin\\..\\include" "stdint.h"
	.file	6 "../Drivers/CMSIS/Device/ST/STM32F7xx/Include" "stm32f746xx.h"
	.section	.text.HAL_TIM_Base_Init,"ax",%progbits
	.hidden	HAL_TIM_Base_Init       @ -- Begin function HAL_TIM_Base_Init
	.globl	HAL_TIM_Base_Init
	.p2align	1
	.type	HAL_TIM_Base_Init,%function
	.code	16                      @ @HAL_TIM_Base_Init
	.thumb_func
HAL_TIM_Base_Init:
.Lfunc_begin0:
	.file	7 "../Drivers/STM32F7xx_HAL_Driver/Src" "stm32f7xx_hal_tim.c"
	.loc	7 200 0                 @ ../Drivers/STM32F7xx_HAL_Driver/Src/stm32f7xx_hal_tim.c:200:0
	.fnstart
	.cfi_sections .debug_frame
	.cfi_startproc
@ %bb.0:
	.save	{r4, lr}
	push	{r4, lr}
	.cfi_def_cfa_offset 8
	.cfi_offset lr, -4
	.cfi_offset r4, -8
	@DEBUG_VALUE: HAL_TIM_Base_Init:htim <- $r0
	mov	r4, r0
.Ltmp0:
	@DEBUG_VALUE: HAL_TIM_Base_Init:htim <- $r4
	.loc	7 202 6 prologue_end    @ ../Drivers/STM32F7xx_HAL_Driver/Src/stm32f7xx_hal_tim.c:202:6
	cbz	r0, .LBB0_4
.Ltmp1:
@ %bb.1:
	@DEBUG_VALUE: HAL_TIM_Base_Init:htim <- $r4
	.loc	7 213 12                @ ../Drivers/STM32F7xx_HAL_Driver/Src/stm32f7xx_hal_tim.c:213:12
	ldrb.w	r0, [r4, #61]
.Ltmp2:
	.loc	7 213 6 is_stmt 0       @ ../Drivers/STM32F7xx_HAL_Driver/Src/stm32f7xx_hal_tim.c:213:6
	cbnz	r0, .LBB0_3
.Ltmp3:
@ %bb.2:
	@DEBUG_VALUE: HAL_TIM_Base_Init:htim <- $r4
	.loc	7 216 16 is_stmt 1      @ ../Drivers/STM32F7xx_HAL_Driver/Src/stm32f7xx_hal_tim.c:216:16
	movs	r0, #0
	strb.w	r0, [r4, #60]
	.loc	7 218 5                 @ ../Drivers/STM32F7xx_HAL_Driver/Src/stm32f7xx_hal_tim.c:218:5
	mov	r0, r4
	bl	HAL_TIM_Base_MspInit
.Ltmp4:
.LBB0_3:
	@DEBUG_VALUE: HAL_TIM_Base_Init:htim <- $r4
	.loc	7 222 14                @ ../Drivers/STM32F7xx_HAL_Driver/Src/stm32f7xx_hal_tim.c:222:14
	movs	r0, #2
	.loc	7 225 45                @ ../Drivers/STM32F7xx_HAL_Driver/Src/stm32f7xx_hal_tim.c:225:45
	adds	r1, r4, #4
	.loc	7 222 14                @ ../Drivers/STM32F7xx_HAL_Driver/Src/stm32f7xx_hal_tim.c:222:14
	strb.w	r0, [r4, #61]
	.loc	7 225 28                @ ../Drivers/STM32F7xx_HAL_Driver/Src/stm32f7xx_hal_tim.c:225:28
	ldr	r0, [r4]
	.loc	7 225 3 is_stmt 0       @ ../Drivers/STM32F7xx_HAL_Driver/Src/stm32f7xx_hal_tim.c:225:3
	bl	TIM_Base_SetConfig
	.loc	7 228 14 is_stmt 1      @ ../Drivers/STM32F7xx_HAL_Driver/Src/stm32f7xx_hal_tim.c:228:14
	movs	r0, #1
	strb.w	r0, [r4, #61]
	movs	r0, #0
	.loc	7 231 1                 @ ../Drivers/STM32F7xx_HAL_Driver/Src/stm32f7xx_hal_tim.c:231:1
	pop	{r4, pc}
.Ltmp5:
.LBB0_4:
	@DEBUG_VALUE: HAL_TIM_Base_Init:htim <- $r4
	.loc	7 0 1 is_stmt 0         @ ../Drivers/STM32F7xx_HAL_Driver/Src/stm32f7xx_hal_tim.c:0:1
	movs	r0, #1
	.loc	7 231 1                 @ ../Drivers/STM32F7xx_HAL_Driver/Src/stm32f7xx_hal_tim.c:231:1
	pop	{r4, pc}
.Ltmp6:
.Lfunc_end0:
	.size	HAL_TIM_Base_Init, .Lfunc_end0-HAL_TIM_Base_Init
	.cfi_endproc
	.cantunwind
	.fnend
                                        @ -- End function
	.section	.text.HAL_TIM_Base_MspInit,"ax",%progbits
	.hidden	HAL_TIM_Base_MspInit    @ -- Begin function HAL_TIM_Base_MspInit
	.weak	HAL_TIM_Base_MspInit
	.p2align	1
	.type	HAL_TIM_Base_MspInit,%function
	.code	16                      @ @HAL_TIM_Base_MspInit
	.thumb_func
HAL_TIM_Base_MspInit:
.Lfunc_begin1:
	.loc	7 268 0 is_stmt 1       @ ../Drivers/STM32F7xx_HAL_Driver/Src/stm32f7xx_hal_tim.c:268:0
	.fnstart
	.cfi_startproc
@ %bb.0:
	@DEBUG_VALUE: HAL_TIM_Base_MspInit:htim <- $r0
	.loc	7 275 1 prologue_end    @ ../Drivers/STM32F7xx_HAL_Driver/Src/stm32f7xx_hal_tim.c:275:1
	bx	lr
.Ltmp7:
.Lfunc_end1:
	.size	HAL_TIM_Base_MspInit, .Lfunc_end1-HAL_TIM_Base_MspInit
	.cfi_endproc
	.cantunwind
	.fnend
                                        @ -- End function
	.section	.text.TIM_Base_SetConfig,"ax",%progbits
	.hidden	TIM_Base_SetConfig      @ -- Begin function TIM_Base_SetConfig
	.globl	TIM_Base_SetConfig
	.p2align	2
	.type	TIM_Base_SetConfig,%function
	.code	16                      @ @TIM_Base_SetConfig
	.thumb_func
TIM_Base_SetConfig:
.Lfunc_begin2:
	.loc	7 4729 0                @ ../Drivers/STM32F7xx_HAL_Driver/Src/stm32f7xx_hal_tim.c:4729:0
	.fnstart
	.cfi_startproc
@ %bb.0:
	@DEBUG_VALUE: TIM_Base_SetConfig:TIMx <- $r0
	@DEBUG_VALUE: TIM_Base_SetConfig:TIMx <- $r0
	@DEBUG_VALUE: TIM_Base_SetConfig:Structure <- $r1
	@DEBUG_VALUE: TIM_Base_SetConfig:Structure <- $r1
	@DEBUG_VALUE: TIM_Base_SetConfig:tmpcr1 <- 0
	.loc	7 4731 18 prologue_end  @ ../Drivers/STM32F7xx_HAL_Driver/Src/stm32f7xx_hal_tim.c:4731:18
	ldr	r2, [r0]
.Ltmp8:
	@DEBUG_VALUE: TIM_Base_SetConfig:tmpcr1 <- $r2
	.loc	7 4734 6                @ ../Drivers/STM32F7xx_HAL_Driver/Src/stm32f7xx_hal_tim.c:4734:6
	cmp.w	r0, #1073741824
	beq	.LBB2_3
.Ltmp9:
@ %bb.1:
	@DEBUG_VALUE: TIM_Base_SetConfig:tmpcr1 <- $r2
	@DEBUG_VALUE: TIM_Base_SetConfig:Structure <- $r1
	@DEBUG_VALUE: TIM_Base_SetConfig:TIMx <- $r0
	.loc	7 0 6 is_stmt 0         @ ../Drivers/STM32F7xx_HAL_Driver/Src/stm32f7xx_hal_tim.c:0:6
	ldr	r3, __arm_cp.2_0
	.loc	7 4734 6                @ ../Drivers/STM32F7xx_HAL_Driver/Src/stm32f7xx_hal_tim.c:4734:6
	cmp	r0, r3
	itt	ne
	ldrne	r3, __arm_cp.2_1
	cmpne	r0, r3
	beq	.LBB2_3
.Ltmp10:
@ %bb.2:
	@DEBUG_VALUE: TIM_Base_SetConfig:tmpcr1 <- $r2
	@DEBUG_VALUE: TIM_Base_SetConfig:Structure <- $r1
	@DEBUG_VALUE: TIM_Base_SetConfig:TIMx <- $r0
	.loc	7 0 6                   @ ../Drivers/STM32F7xx_HAL_Driver/Src/stm32f7xx_hal_tim.c:0:6
	ldr	r3, __arm_cp.2_2
	.loc	7 4734 6                @ ../Drivers/STM32F7xx_HAL_Driver/Src/stm32f7xx_hal_tim.c:4734:6
	cmp	r0, r3
	itt	ne
	ldrne	r3, __arm_cp.2_3
	cmpne	r0, r3
	bne	.LBB2_12
.Ltmp11:
.LBB2_3:
	@DEBUG_VALUE: TIM_Base_SetConfig:tmpcr1 <- $r2
	@DEBUG_VALUE: TIM_Base_SetConfig:Structure <- $r1
	@DEBUG_VALUE: TIM_Base_SetConfig:TIMx <- $r0
	.loc	7 4738 26 is_stmt 1     @ ../Drivers/STM32F7xx_HAL_Driver/Src/stm32f7xx_hal_tim.c:4738:26
	ldr	r3, [r1, #4]
	.loc	7 4737 12               @ ../Drivers/STM32F7xx_HAL_Driver/Src/stm32f7xx_hal_tim.c:4737:12
	bic	r2, r2, #112
.Ltmp12:
	@DEBUG_VALUE: TIM_Base_SetConfig:tmpcr1 <- $r2
	.loc	7 4738 12               @ ../Drivers/STM32F7xx_HAL_Driver/Src/stm32f7xx_hal_tim.c:4738:12
	orrs	r2, r3
.Ltmp13:
	@DEBUG_VALUE: TIM_Base_SetConfig:tmpcr1 <- $r2
.LBB2_4:
	@DEBUG_VALUE: TIM_Base_SetConfig:tmpcr1 <- $r2
	@DEBUG_VALUE: TIM_Base_SetConfig:Structure <- $r1
	@DEBUG_VALUE: TIM_Base_SetConfig:TIMx <- $r0
	.loc	7 4741 6                @ ../Drivers/STM32F7xx_HAL_Driver/Src/stm32f7xx_hal_tim.c:4741:6
	cmp.w	r0, #1073741824
	beq	.LBB2_10
.Ltmp14:
@ %bb.5:
	@DEBUG_VALUE: TIM_Base_SetConfig:tmpcr1 <- $r2
	@DEBUG_VALUE: TIM_Base_SetConfig:Structure <- $r1
	@DEBUG_VALUE: TIM_Base_SetConfig:TIMx <- $r0
	.loc	7 0 6 is_stmt 0         @ ../Drivers/STM32F7xx_HAL_Driver/Src/stm32f7xx_hal_tim.c:0:6
	ldr	r3, __arm_cp.2_0
	.loc	7 4741 6                @ ../Drivers/STM32F7xx_HAL_Driver/Src/stm32f7xx_hal_tim.c:4741:6
	cmp	r0, r3
	itt	ne
	ldrne	r3, __arm_cp.2_1
	cmpne	r0, r3
	beq	.LBB2_10
.Ltmp15:
@ %bb.6:
	@DEBUG_VALUE: TIM_Base_SetConfig:tmpcr1 <- $r2
	@DEBUG_VALUE: TIM_Base_SetConfig:Structure <- $r1
	@DEBUG_VALUE: TIM_Base_SetConfig:TIMx <- $r0
	.loc	7 0 6                   @ ../Drivers/STM32F7xx_HAL_Driver/Src/stm32f7xx_hal_tim.c:0:6
	ldr	r3, __arm_cp.2_2
	.loc	7 4741 6                @ ../Drivers/STM32F7xx_HAL_Driver/Src/stm32f7xx_hal_tim.c:4741:6
	cmp	r0, r3
	itt	ne
	ldrne	r3, __arm_cp.2_5
	cmpne	r0, r3
	beq	.LBB2_10
.Ltmp16:
@ %bb.7:
	@DEBUG_VALUE: TIM_Base_SetConfig:tmpcr1 <- $r2
	@DEBUG_VALUE: TIM_Base_SetConfig:Structure <- $r1
	@DEBUG_VALUE: TIM_Base_SetConfig:TIMx <- $r0
	.loc	7 0 6                   @ ../Drivers/STM32F7xx_HAL_Driver/Src/stm32f7xx_hal_tim.c:0:6
	ldr	r3, __arm_cp.2_6
	.loc	7 4741 6                @ ../Drivers/STM32F7xx_HAL_Driver/Src/stm32f7xx_hal_tim.c:4741:6
	cmp	r0, r3
	itt	ne
	ldrne	r3, __arm_cp.2_7
	cmpne	r0, r3
	beq	.LBB2_10
.Ltmp17:
@ %bb.8:
	@DEBUG_VALUE: TIM_Base_SetConfig:tmpcr1 <- $r2
	@DEBUG_VALUE: TIM_Base_SetConfig:Structure <- $r1
	@DEBUG_VALUE: TIM_Base_SetConfig:TIMx <- $r0
	.loc	7 0 6                   @ ../Drivers/STM32F7xx_HAL_Driver/Src/stm32f7xx_hal_tim.c:0:6
	ldr	r3, __arm_cp.2_4
	.loc	7 4741 6                @ ../Drivers/STM32F7xx_HAL_Driver/Src/stm32f7xx_hal_tim.c:4741:6
	cmp	r0, r3
	itt	ne
	ldrne	r3, __arm_cp.2_3
	cmpne	r0, r3
	beq	.LBB2_10
.Ltmp18:
@ %bb.9:
	@DEBUG_VALUE: TIM_Base_SetConfig:tmpcr1 <- $r2
	@DEBUG_VALUE: TIM_Base_SetConfig:Structure <- $r1
	@DEBUG_VALUE: TIM_Base_SetConfig:TIMx <- $r0
	.loc	7 0 6                   @ ../Drivers/STM32F7xx_HAL_Driver/Src/stm32f7xx_hal_tim.c:0:6
	ldr	r3, __arm_cp.2_8
	.loc	7 4741 6                @ ../Drivers/STM32F7xx_HAL_Driver/Src/stm32f7xx_hal_tim.c:4741:6
	cmp	r0, r3
	itt	ne
	ldrne	r3, __arm_cp.2_9
	cmpne	r0, r3
	bne	.LBB2_13
.Ltmp19:
.LBB2_10:
	@DEBUG_VALUE: TIM_Base_SetConfig:tmpcr1 <- $r2
	@DEBUG_VALUE: TIM_Base_SetConfig:Structure <- $r1
	@DEBUG_VALUE: TIM_Base_SetConfig:TIMx <- $r0
	.loc	7 4745 36 is_stmt 1     @ ../Drivers/STM32F7xx_HAL_Driver/Src/stm32f7xx_hal_tim.c:4745:36
	ldr	r3, [r1, #12]
	@DEBUG_VALUE: TIM_Base_SetConfig:tmpcr1 <- $r2
	.loc	7 4744 12               @ ../Drivers/STM32F7xx_HAL_Driver/Src/stm32f7xx_hal_tim.c:4744:12
	bic	r2, r2, #768
.Ltmp20:
	@DEBUG_VALUE: TIM_Base_SetConfig:tmpcr1 <- $r2
	.loc	7 4745 12               @ ../Drivers/STM32F7xx_HAL_Driver/Src/stm32f7xx_hal_tim.c:4745:12
	orrs	r2, r3
.Ltmp21:
	@DEBUG_VALUE: TIM_Base_SetConfig:tmpcr1 <- $r2
.LBB2_11:
	@DEBUG_VALUE: TIM_Base_SetConfig:tmpcr1 <- $r2
	@DEBUG_VALUE: TIM_Base_SetConfig:Structure <- $r1
	@DEBUG_VALUE: TIM_Base_SetConfig:TIMx <- $r0
	@DEBUG_VALUE: TIM_Base_SetConfig:tmpcr1 <- $r2
	.loc	7 4749 3                @ ../Drivers/STM32F7xx_HAL_Driver/Src/stm32f7xx_hal_tim.c:4749:3
	ldr	r3, [r1, #20]
	bic	r2, r2, #128
.Ltmp22:
	orrs	r2, r3
.Ltmp23:
	@DEBUG_VALUE: TIM_Base_SetConfig:tmpcr1 <- $r2
	.loc	7 4759 6                @ ../Drivers/STM32F7xx_HAL_Driver/Src/stm32f7xx_hal_tim.c:4759:6
	ldr	r3, __arm_cp.2_3
	.loc	7 4751 13               @ ../Drivers/STM32F7xx_HAL_Driver/Src/stm32f7xx_hal_tim.c:4751:13
	str	r2, [r0]
	.loc	7 4754 36               @ ../Drivers/STM32F7xx_HAL_Driver/Src/stm32f7xx_hal_tim.c:4754:36
	ldr	r2, [r1, #8]
.Ltmp24:
	.loc	7 4754 13 is_stmt 0     @ ../Drivers/STM32F7xx_HAL_Driver/Src/stm32f7xx_hal_tim.c:4754:13
	str	r2, [r0, #44]
	.loc	7 4757 36 is_stmt 1     @ ../Drivers/STM32F7xx_HAL_Driver/Src/stm32f7xx_hal_tim.c:4757:36
	ldr	r2, [r1]
	.loc	7 4757 13 is_stmt 0     @ ../Drivers/STM32F7xx_HAL_Driver/Src/stm32f7xx_hal_tim.c:4757:13
	str	r2, [r0, #40]
	.loc	7 4759 6 is_stmt 1      @ ../Drivers/STM32F7xx_HAL_Driver/Src/stm32f7xx_hal_tim.c:4759:6
	orr	r2, r0, #1024
	cmp	r2, r3
.Ltmp25:
	.loc	7 4762 28               @ ../Drivers/STM32F7xx_HAL_Driver/Src/stm32f7xx_hal_tim.c:4762:28
	itt	eq
	ldreq	r1, [r1, #16]
.Ltmp26:
	.loc	7 4762 15 is_stmt 0     @ ../Drivers/STM32F7xx_HAL_Driver/Src/stm32f7xx_hal_tim.c:4762:15
	streq	r1, [r0, #48]
.Ltmp27:
	.loc	7 4767 13 is_stmt 1     @ ../Drivers/STM32F7xx_HAL_Driver/Src/stm32f7xx_hal_tim.c:4767:13
	movs	r1, #1
	str	r1, [r0, #20]
	.loc	7 4768 1                @ ../Drivers/STM32F7xx_HAL_Driver/Src/stm32f7xx_hal_tim.c:4768:1
	bx	lr
.LBB2_12:
.Ltmp28:
	@DEBUG_VALUE: TIM_Base_SetConfig:tmpcr1 <- $r2
	@DEBUG_VALUE: TIM_Base_SetConfig:Structure <- $r1
	@DEBUG_VALUE: TIM_Base_SetConfig:TIMx <- $r0
	.loc	7 0 1 is_stmt 0         @ ../Drivers/STM32F7xx_HAL_Driver/Src/stm32f7xx_hal_tim.c:0:1
	ldr	r3, __arm_cp.2_4
.Ltmp29:
	.loc	7 4734 6 is_stmt 1      @ ../Drivers/STM32F7xx_HAL_Driver/Src/stm32f7xx_hal_tim.c:4734:6
	cmp	r0, r3
	beq	.LBB2_3
	b	.LBB2_4
.Ltmp30:
.LBB2_13:
	@DEBUG_VALUE: TIM_Base_SetConfig:tmpcr1 <- $r2
	@DEBUG_VALUE: TIM_Base_SetConfig:Structure <- $r1
	@DEBUG_VALUE: TIM_Base_SetConfig:TIMx <- $r0
	.loc	7 0 6 is_stmt 0         @ ../Drivers/STM32F7xx_HAL_Driver/Src/stm32f7xx_hal_tim.c:0:6
	ldr	r3, __arm_cp.2_10
.Ltmp31:
	.loc	7 4741 6 is_stmt 1      @ ../Drivers/STM32F7xx_HAL_Driver/Src/stm32f7xx_hal_tim.c:4741:6
	cmp	r0, r3
	beq	.LBB2_10
	b	.LBB2_11
.Ltmp32:
	.p2align	2
@ %bb.14:
	.loc	7 0 6 is_stmt 0         @ ../Drivers/STM32F7xx_HAL_Driver/Src/stm32f7xx_hal_tim.c:0:6
__arm_cp.2_0:
	.long	1073742848              @ 0x40000400
.Lcpi_end0:
	.size	__arm_cp.2_0, .Lcpi_end0-__arm_cp.2_0
__arm_cp.2_1:
	.long	1073743872              @ 0x40000800
.Lcpi_end1:
	.size	__arm_cp.2_1, .Lcpi_end1-__arm_cp.2_1
__arm_cp.2_2:
	.long	1073744896              @ 0x40000c00
.Lcpi_end2:
	.size	__arm_cp.2_2, .Lcpi_end2-__arm_cp.2_2
__arm_cp.2_3:
	.long	1073808384              @ 0x40010400
.Lcpi_end3:
	.size	__arm_cp.2_3, .Lcpi_end3-__arm_cp.2_3
__arm_cp.2_4:
	.long	1073807360              @ 0x40010000
.Lcpi_end4:
	.size	__arm_cp.2_4, .Lcpi_end4-__arm_cp.2_4
__arm_cp.2_5:
	.long	1073747968              @ 0x40001800
.Lcpi_end5:
	.size	__arm_cp.2_5, .Lcpi_end5-__arm_cp.2_5
__arm_cp.2_6:
	.long	1073748992              @ 0x40001c00
.Lcpi_end6:
	.size	__arm_cp.2_6, .Lcpi_end6-__arm_cp.2_6
__arm_cp.2_7:
	.long	1073750016              @ 0x40002000
.Lcpi_end7:
	.size	__arm_cp.2_7, .Lcpi_end7-__arm_cp.2_7
__arm_cp.2_8:
	.long	1073823744              @ 0x40014000
.Lcpi_end8:
	.size	__arm_cp.2_8, .Lcpi_end8-__arm_cp.2_8
__arm_cp.2_9:
	.long	1073825792              @ 0x40014800
.Lcpi_end9:
	.size	__arm_cp.2_9, .Lcpi_end9-__arm_cp.2_9
__arm_cp.2_10:
	.long	1073824768              @ 0x40014400
.Lcpi_end10:
	.size	__arm_cp.2_10, .Lcpi_end10-__arm_cp.2_10
.Lfunc_end2:
	.size	TIM_Base_SetConfig, .Lfunc_end2-TIM_Base_SetConfig
	.cfi_endproc
	.cantunwind
	.fnend
                                        @ -- End function
	.section	.text.HAL_TIM_Base_DeInit,"ax",%progbits
	.hidden	HAL_TIM_Base_DeInit     @ -- Begin function HAL_TIM_Base_DeInit
	.globl	HAL_TIM_Base_DeInit
	.p2align	1
	.type	HAL_TIM_Base_DeInit,%function
	.code	16                      @ @HAL_TIM_Base_DeInit
	.thumb_func
HAL_TIM_Base_DeInit:
.Lfunc_begin3:
	.loc	7 240 0 is_stmt 1       @ ../Drivers/STM32F7xx_HAL_Driver/Src/stm32f7xx_hal_tim.c:240:0
	.fnstart
	.cfi_startproc
@ %bb.0:
	.save	{r4, lr}
	push	{r4, lr}
	.cfi_def_cfa_offset 8
	.cfi_offset lr, -4
	.cfi_offset r4, -8
	@DEBUG_VALUE: HAL_TIM_Base_DeInit:htim <- $r0
	mov	r4, r0
.Ltmp33:
	@DEBUG_VALUE: HAL_TIM_Base_DeInit:htim <- $r4
	.loc	7 244 15 prologue_end   @ ../Drivers/STM32F7xx_HAL_Driver/Src/stm32f7xx_hal_tim.c:244:15
	movs	r0, #2
.Ltmp34:
	.loc	7 247 3                 @ ../Drivers/STM32F7xx_HAL_Driver/Src/stm32f7xx_hal_tim.c:247:3
	movw	r2, #4369
.Ltmp35:
	.loc	7 244 15                @ ../Drivers/STM32F7xx_HAL_Driver/Src/stm32f7xx_hal_tim.c:244:15
	strb.w	r0, [r4, #61]
.Ltmp36:
	.loc	7 247 3                 @ ../Drivers/STM32F7xx_HAL_Driver/Src/stm32f7xx_hal_tim.c:247:3
	ldr	r0, [r4]
	ldr	r1, [r0, #32]
.Ltmp37:
	.loc	7 247 3 is_stmt 0       @ ../Drivers/STM32F7xx_HAL_Driver/Src/stm32f7xx_hal_tim.c:247:3
	tst	r1, r2
	bne	.LBB3_2
.Ltmp38:
@ %bb.1:
	@DEBUG_VALUE: HAL_TIM_Base_DeInit:htim <- $r4
	.loc	7 247 3                 @ ../Drivers/STM32F7xx_HAL_Driver/Src/stm32f7xx_hal_tim.c:247:3
	ldr	r1, [r0, #32]
	movw	r2, #1092
.Ltmp39:
	.loc	7 247 3                 @ ../Drivers/STM32F7xx_HAL_Driver/Src/stm32f7xx_hal_tim.c:247:3
	tst	r1, r2
.Ltmp40:
	.loc	7 247 3                 @ ../Drivers/STM32F7xx_HAL_Driver/Src/stm32f7xx_hal_tim.c:247:3
	ittt	eq
	ldreq	r1, [r0]
	biceq	r1, r1, #1
	streq	r1, [r0]
.Ltmp41:
.LBB3_2:
	@DEBUG_VALUE: HAL_TIM_Base_DeInit:htim <- $r4
	.loc	7 250 3 is_stmt 1       @ ../Drivers/STM32F7xx_HAL_Driver/Src/stm32f7xx_hal_tim.c:250:3
	mov	r0, r4
	bl	HAL_TIM_Base_MspDeInit
	movs	r0, #0
.Ltmp42:
	.loc	7 256 3                 @ ../Drivers/STM32F7xx_HAL_Driver/Src/stm32f7xx_hal_tim.c:256:3
	strb.w	r0, [r4, #60]
.Ltmp43:
	.loc	7 253 15                @ ../Drivers/STM32F7xx_HAL_Driver/Src/stm32f7xx_hal_tim.c:253:15
	strb.w	r0, [r4, #61]
	.loc	7 258 3                 @ ../Drivers/STM32F7xx_HAL_Driver/Src/stm32f7xx_hal_tim.c:258:3
	movs	r0, #0
	pop	{r4, pc}
.Ltmp44:
.Lfunc_end3:
	.size	HAL_TIM_Base_DeInit, .Lfunc_end3-HAL_TIM_Base_DeInit
	.cfi_endproc
	.cantunwind
	.fnend
                                        @ -- End function
	.section	.text.HAL_TIM_Base_MspDeInit,"ax",%progbits
	.hidden	HAL_TIM_Base_MspDeInit  @ -- Begin function HAL_TIM_Base_MspDeInit
	.weak	HAL_TIM_Base_MspDeInit
	.p2align	1
	.type	HAL_TIM_Base_MspDeInit,%function
	.code	16                      @ @HAL_TIM_Base_MspDeInit
	.thumb_func
HAL_TIM_Base_MspDeInit:
.Lfunc_begin4:
	.loc	7 284 0                 @ ../Drivers/STM32F7xx_HAL_Driver/Src/stm32f7xx_hal_tim.c:284:0
	.fnstart
	.cfi_startproc
@ %bb.0:
	@DEBUG_VALUE: HAL_TIM_Base_MspDeInit:htim <- $r0
	.loc	7 291 1 prologue_end    @ ../Drivers/STM32F7xx_HAL_Driver/Src/stm32f7xx_hal_tim.c:291:1
	bx	lr
.Ltmp45:
.Lfunc_end4:
	.size	HAL_TIM_Base_MspDeInit, .Lfunc_end4-HAL_TIM_Base_MspDeInit
	.cfi_endproc
	.cantunwind
	.fnend
                                        @ -- End function
	.section	.text.HAL_TIM_Base_Start,"ax",%progbits
	.hidden	HAL_TIM_Base_Start      @ -- Begin function HAL_TIM_Base_Start
	.globl	HAL_TIM_Base_Start
	.p2align	1
	.type	HAL_TIM_Base_Start,%function
	.code	16                      @ @HAL_TIM_Base_Start
	.thumb_func
HAL_TIM_Base_Start:
.Lfunc_begin5:
	.loc	7 300 0                 @ ../Drivers/STM32F7xx_HAL_Driver/Src/stm32f7xx_hal_tim.c:300:0
	.fnstart
	.cfi_startproc
@ %bb.0:
	@DEBUG_VALUE: HAL_TIM_Base_Start:htim <- $r0
	@DEBUG_VALUE: HAL_TIM_Base_Start:htim <- $r0
	.loc	7 305 14 prologue_end   @ ../Drivers/STM32F7xx_HAL_Driver/Src/stm32f7xx_hal_tim.c:305:14
	movs	r1, #2
	strb.w	r1, [r0, #61]
	.loc	7 308 3                 @ ../Drivers/STM32F7xx_HAL_Driver/Src/stm32f7xx_hal_tim.c:308:3
	ldr	r1, [r0]
	ldr	r2, [r1]
	orr	r2, r2, #1
	str	r2, [r1]
	movs	r1, #1
	.loc	7 311 14                @ ../Drivers/STM32F7xx_HAL_Driver/Src/stm32f7xx_hal_tim.c:311:14
	strb.w	r1, [r0, #61]
	.loc	7 314 3                 @ ../Drivers/STM32F7xx_HAL_Driver/Src/stm32f7xx_hal_tim.c:314:3
	movs	r0, #0
	bx	lr
.Ltmp46:
.Lfunc_end5:
	.size	HAL_TIM_Base_Start, .Lfunc_end5-HAL_TIM_Base_Start
	.cfi_endproc
	.cantunwind
	.fnend
                                        @ -- End function
	.section	.text.HAL_TIM_Base_Stop,"ax",%progbits
	.hidden	HAL_TIM_Base_Stop       @ -- Begin function HAL_TIM_Base_Stop
	.globl	HAL_TIM_Base_Stop
	.p2align	1
	.type	HAL_TIM_Base_Stop,%function
	.code	16                      @ @HAL_TIM_Base_Stop
	.thumb_func
HAL_TIM_Base_Stop:
.Lfunc_begin6:
	.loc	7 324 0                 @ ../Drivers/STM32F7xx_HAL_Driver/Src/stm32f7xx_hal_tim.c:324:0
	.fnstart
	.cfi_startproc
@ %bb.0:
	@DEBUG_VALUE: HAL_TIM_Base_Stop:htim <- $r0
	@DEBUG_VALUE: HAL_TIM_Base_Stop:htim <- $r0
	.loc	7 329 14 prologue_end   @ ../Drivers/STM32F7xx_HAL_Driver/Src/stm32f7xx_hal_tim.c:329:14
	movs	r1, #2
.Ltmp47:
	.loc	7 332 3                 @ ../Drivers/STM32F7xx_HAL_Driver/Src/stm32f7xx_hal_tim.c:332:3
	movw	r3, #4369
.Ltmp48:
	.loc	7 329 14                @ ../Drivers/STM32F7xx_HAL_Driver/Src/stm32f7xx_hal_tim.c:329:14
	strb.w	r1, [r0, #61]
.Ltmp49:
	.loc	7 332 3                 @ ../Drivers/STM32F7xx_HAL_Driver/Src/stm32f7xx_hal_tim.c:332:3
	ldr	r1, [r0]
	ldr	r2, [r1, #32]
.Ltmp50:
	.loc	7 332 3 is_stmt 0       @ ../Drivers/STM32F7xx_HAL_Driver/Src/stm32f7xx_hal_tim.c:332:3
	tst	r2, r3
	bne	.LBB6_2
@ %bb.1:
	@DEBUG_VALUE: HAL_TIM_Base_Stop:htim <- $r0
.Ltmp51:
	.loc	7 332 3                 @ ../Drivers/STM32F7xx_HAL_Driver/Src/stm32f7xx_hal_tim.c:332:3
	ldr	r2, [r1, #32]
	movw	r3, #1092
.Ltmp52:
	.loc	7 332 3                 @ ../Drivers/STM32F7xx_HAL_Driver/Src/stm32f7xx_hal_tim.c:332:3
	tst	r2, r3
.Ltmp53:
	.loc	7 332 3                 @ ../Drivers/STM32F7xx_HAL_Driver/Src/stm32f7xx_hal_tim.c:332:3
	ittt	eq
	ldreq	r2, [r1]
	biceq	r2, r2, #1
	streq	r2, [r1]
.Ltmp54:
.LBB6_2:
	@DEBUG_VALUE: HAL_TIM_Base_Stop:htim <- $r0
	.loc	7 335 14 is_stmt 1      @ ../Drivers/STM32F7xx_HAL_Driver/Src/stm32f7xx_hal_tim.c:335:14
	movs	r1, #1
	strb.w	r1, [r0, #61]
	.loc	7 338 3                 @ ../Drivers/STM32F7xx_HAL_Driver/Src/stm32f7xx_hal_tim.c:338:3
	movs	r0, #0
	bx	lr
.Ltmp55:
.Lfunc_end6:
	.size	HAL_TIM_Base_Stop, .Lfunc_end6-HAL_TIM_Base_Stop
	.cfi_endproc
	.cantunwind
	.fnend
                                        @ -- End function
	.section	.text.HAL_TIM_Base_Start_IT,"ax",%progbits
	.hidden	HAL_TIM_Base_Start_IT   @ -- Begin function HAL_TIM_Base_Start_IT
	.globl	HAL_TIM_Base_Start_IT
	.p2align	1
	.type	HAL_TIM_Base_Start_IT,%function
	.code	16                      @ @HAL_TIM_Base_Start_IT
	.thumb_func
HAL_TIM_Base_Start_IT:
.Lfunc_begin7:
	.loc	7 348 0                 @ ../Drivers/STM32F7xx_HAL_Driver/Src/stm32f7xx_hal_tim.c:348:0
	.fnstart
	.cfi_startproc
@ %bb.0:
	@DEBUG_VALUE: HAL_TIM_Base_Start_IT:htim <- $r0
	@DEBUG_VALUE: HAL_TIM_Base_Start_IT:htim <- $r0
	.loc	7 353 3 prologue_end    @ ../Drivers/STM32F7xx_HAL_Driver/Src/stm32f7xx_hal_tim.c:353:3
	ldr	r0, [r0]
.Ltmp56:
	ldr	r1, [r0, #12]
	orr	r1, r1, #1
	str	r1, [r0, #12]
	.loc	7 356 3                 @ ../Drivers/STM32F7xx_HAL_Driver/Src/stm32f7xx_hal_tim.c:356:3
	ldr	r1, [r0]
	orr	r1, r1, #1
	str	r1, [r0]
	.loc	7 359 3                 @ ../Drivers/STM32F7xx_HAL_Driver/Src/stm32f7xx_hal_tim.c:359:3
	movs	r0, #0
	bx	lr
.Ltmp57:
.Lfunc_end7:
	.size	HAL_TIM_Base_Start_IT, .Lfunc_end7-HAL_TIM_Base_Start_IT
	.cfi_endproc
	.cantunwind
	.fnend
                                        @ -- End function
	.section	.text.HAL_TIM_Base_Stop_IT,"ax",%progbits
	.hidden	HAL_TIM_Base_Stop_IT    @ -- Begin function HAL_TIM_Base_Stop_IT
	.globl	HAL_TIM_Base_Stop_IT
	.p2align	1
	.type	HAL_TIM_Base_Stop_IT,%function
	.code	16                      @ @HAL_TIM_Base_Stop_IT
	.thumb_func
HAL_TIM_Base_Stop_IT:
.Lfunc_begin8:
	.loc	7 369 0                 @ ../Drivers/STM32F7xx_HAL_Driver/Src/stm32f7xx_hal_tim.c:369:0
	.fnstart
	.cfi_startproc
@ %bb.0:
	@DEBUG_VALUE: HAL_TIM_Base_Stop_IT:htim <- $r0
	@DEBUG_VALUE: HAL_TIM_Base_Stop_IT:htim <- $r0
	.loc	7 373 3 prologue_end    @ ../Drivers/STM32F7xx_HAL_Driver/Src/stm32f7xx_hal_tim.c:373:3
	ldr	r0, [r0]
.Ltmp58:
	.loc	7 376 3                 @ ../Drivers/STM32F7xx_HAL_Driver/Src/stm32f7xx_hal_tim.c:376:3
	movw	r2, #4369
.Ltmp59:
	.loc	7 373 3                 @ ../Drivers/STM32F7xx_HAL_Driver/Src/stm32f7xx_hal_tim.c:373:3
	ldr	r1, [r0, #12]
	bic	r1, r1, #1
	str	r1, [r0, #12]
.Ltmp60:
	.loc	7 376 3                 @ ../Drivers/STM32F7xx_HAL_Driver/Src/stm32f7xx_hal_tim.c:376:3
	ldr	r1, [r0, #32]
.Ltmp61:
	.loc	7 376 3 is_stmt 0       @ ../Drivers/STM32F7xx_HAL_Driver/Src/stm32f7xx_hal_tim.c:376:3
	tst	r1, r2
	bne	.LBB8_2
@ %bb.1:
.Ltmp62:
	.loc	7 376 3                 @ ../Drivers/STM32F7xx_HAL_Driver/Src/stm32f7xx_hal_tim.c:376:3
	ldr	r1, [r0, #32]
	movw	r2, #1092
.Ltmp63:
	.loc	7 376 3                 @ ../Drivers/STM32F7xx_HAL_Driver/Src/stm32f7xx_hal_tim.c:376:3
	tst	r1, r2
.Ltmp64:
	.loc	7 376 3                 @ ../Drivers/STM32F7xx_HAL_Driver/Src/stm32f7xx_hal_tim.c:376:3
	ittt	eq
	ldreq	r1, [r0]
	biceq	r1, r1, #1
	streq	r1, [r0]
.Ltmp65:
.LBB8_2:
	.loc	7 379 3 is_stmt 1       @ ../Drivers/STM32F7xx_HAL_Driver/Src/stm32f7xx_hal_tim.c:379:3
	movs	r0, #0
	bx	lr
.Ltmp66:
.Lfunc_end8:
	.size	HAL_TIM_Base_Stop_IT, .Lfunc_end8-HAL_TIM_Base_Stop_IT
	.cfi_endproc
	.cantunwind
	.fnend
                                        @ -- End function
	.section	.text.HAL_TIM_Base_Start_DMA,"ax",%progbits
	.hidden	HAL_TIM_Base_Start_DMA  @ -- Begin function HAL_TIM_Base_Start_DMA
	.globl	HAL_TIM_Base_Start_DMA
	.p2align	2
	.type	HAL_TIM_Base_Start_DMA,%function
	.code	16                      @ @HAL_TIM_Base_Start_DMA
	.thumb_func
HAL_TIM_Base_Start_DMA:
.Lfunc_begin9:
	.loc	7 391 0                 @ ../Drivers/STM32F7xx_HAL_Driver/Src/stm32f7xx_hal_tim.c:391:0
	.fnstart
	.cfi_startproc
@ %bb.0:
	.save	{r4, lr}
	push	{r4, lr}
	.cfi_def_cfa_offset 8
	.cfi_offset lr, -4
	.cfi_offset r4, -8
	@DEBUG_VALUE: HAL_TIM_Base_Start_DMA:htim <- $r0
	@DEBUG_VALUE: HAL_TIM_Base_Start_DMA:pData <- $r1
	@DEBUG_VALUE: HAL_TIM_Base_Start_DMA:Length <- $r2
	mov	r4, r0
.Ltmp67:
	@DEBUG_VALUE: HAL_TIM_Base_Start_DMA:Length <- $r3
	@DEBUG_VALUE: HAL_TIM_Base_Start_DMA:pData <- $r1
	@DEBUG_VALUE: HAL_TIM_Base_Start_DMA:htim <- $r4
	.loc	7 395 13 prologue_end   @ ../Drivers/STM32F7xx_HAL_Driver/Src/stm32f7xx_hal_tim.c:395:13
	ldrb.w	r0, [r0, #61]
	mov	r3, r2
.Ltmp68:
	.loc	7 395 6 is_stmt 0       @ ../Drivers/STM32F7xx_HAL_Driver/Src/stm32f7xx_hal_tim.c:395:6
	cmp	r0, #2
	bne	.LBB9_2
.Ltmp69:
@ %bb.1:
	@DEBUG_VALUE: HAL_TIM_Base_Start_DMA:htim <- $r4
	@DEBUG_VALUE: HAL_TIM_Base_Start_DMA:pData <- $r1
	.loc	7 0 6                   @ ../Drivers/STM32F7xx_HAL_Driver/Src/stm32f7xx_hal_tim.c:0:6
	movs	r0, #2
	b	.LBB9_8
.Ltmp70:
.LBB9_2:
	@DEBUG_VALUE: HAL_TIM_Base_Start_DMA:htim <- $r4
	@DEBUG_VALUE: HAL_TIM_Base_Start_DMA:pData <- $r1
	.loc	7 399 18 is_stmt 1      @ ../Drivers/STM32F7xx_HAL_Driver/Src/stm32f7xx_hal_tim.c:399:18
	ldrb.w	r0, [r4, #61]
.Ltmp71:
	.loc	7 399 11 is_stmt 0      @ ../Drivers/STM32F7xx_HAL_Driver/Src/stm32f7xx_hal_tim.c:399:11
	cmp	r0, #1
	bne	.LBB9_7
.Ltmp72:
@ %bb.3:
	@DEBUG_VALUE: HAL_TIM_Base_Start_DMA:htim <- $r4
	@DEBUG_VALUE: HAL_TIM_Base_Start_DMA:pData <- $r1
	.loc	7 401 22 is_stmt 1      @ ../Drivers/STM32F7xx_HAL_Driver/Src/stm32f7xx_hal_tim.c:401:22
	cbnz	r1, .LBB9_6
.Ltmp73:
@ %bb.4:
	@DEBUG_VALUE: HAL_TIM_Base_Start_DMA:htim <- $r4
	@DEBUG_VALUE: HAL_TIM_Base_Start_DMA:pData <- $r1
	cbz	r3, .LBB9_6
.Ltmp74:
@ %bb.5:
	@DEBUG_VALUE: HAL_TIM_Base_Start_DMA:htim <- $r4
	@DEBUG_VALUE: HAL_TIM_Base_Start_DMA:pData <- $r1
	.loc	7 0 22 is_stmt 0        @ ../Drivers/STM32F7xx_HAL_Driver/Src/stm32f7xx_hal_tim.c:0:22
	movs	r0, #1
	b	.LBB9_8
.Ltmp75:
.LBB9_6:
	@DEBUG_VALUE: HAL_TIM_Base_Start_DMA:htim <- $r4
	@DEBUG_VALUE: HAL_TIM_Base_Start_DMA:pData <- $r1
	.loc	7 407 19 is_stmt 1      @ ../Drivers/STM32F7xx_HAL_Driver/Src/stm32f7xx_hal_tim.c:407:19
	movs	r0, #2
	strb.w	r0, [r4, #61]
.Ltmp76:
.LBB9_7:
	@DEBUG_VALUE: HAL_TIM_Base_Start_DMA:htim <- $r4
	@DEBUG_VALUE: HAL_TIM_Base_Start_DMA:pData <- $r1
	@DEBUG_VALUE: HAL_TIM_Base_Start_DMA:Length <- $r3
	.loc	7 411 3                 @ ../Drivers/STM32F7xx_HAL_Driver/Src/stm32f7xx_hal_tim.c:411:3
	ldr	r0, [r4, #32]
	.loc	7 411 51 is_stmt 0      @ ../Drivers/STM32F7xx_HAL_Driver/Src/stm32f7xx_hal_tim.c:411:51
	ldr	r2, __arm_cp.9_0
	str	r2, [r0, #60]
	.loc	7 414 52 is_stmt 1      @ ../Drivers/STM32F7xx_HAL_Driver/Src/stm32f7xx_hal_tim.c:414:52
	ldr	r2, __arm_cp.9_1
	.loc	7 414 3 is_stmt 0       @ ../Drivers/STM32F7xx_HAL_Driver/Src/stm32f7xx_hal_tim.c:414:3
	ldr	r0, [r4, #32]
	.loc	7 414 52                @ ../Drivers/STM32F7xx_HAL_Driver/Src/stm32f7xx_hal_tim.c:414:52
	str	r2, [r0, #76]
	.loc	7 417 85 is_stmt 1      @ ../Drivers/STM32F7xx_HAL_Driver/Src/stm32f7xx_hal_tim.c:417:85
	ldr	r2, [r4]
	.loc	7 417 20 is_stmt 0      @ ../Drivers/STM32F7xx_HAL_Driver/Src/stm32f7xx_hal_tim.c:417:20
	ldr	r0, [r4, #32]
	.loc	7 417 95                @ ../Drivers/STM32F7xx_HAL_Driver/Src/stm32f7xx_hal_tim.c:417:95
	adds	r2, #44
	.loc	7 417 3                 @ ../Drivers/STM32F7xx_HAL_Driver/Src/stm32f7xx_hal_tim.c:417:3
	bl	HAL_DMA_Start_IT
.Ltmp77:
	.loc	7 420 3 is_stmt 1       @ ../Drivers/STM32F7xx_HAL_Driver/Src/stm32f7xx_hal_tim.c:420:3
	ldr	r0, [r4]
	ldr	r1, [r0, #12]
	orr	r1, r1, #256
	str	r1, [r0, #12]
	.loc	7 423 3                 @ ../Drivers/STM32F7xx_HAL_Driver/Src/stm32f7xx_hal_tim.c:423:3
	ldr	r1, [r0]
	orr	r1, r1, #1
	str	r1, [r0]
	movs	r0, #0
.Ltmp78:
.LBB9_8:
	@DEBUG_VALUE: HAL_TIM_Base_Start_DMA:htim <- $r4
	.loc	7 427 1                 @ ../Drivers/STM32F7xx_HAL_Driver/Src/stm32f7xx_hal_tim.c:427:1
	uxtb	r0, r0
	pop	{r4, pc}
.Ltmp79:
	.p2align	2
@ %bb.9:
	.loc	7 0 1 is_stmt 0         @ ../Drivers/STM32F7xx_HAL_Driver/Src/stm32f7xx_hal_tim.c:0:1
__arm_cp.9_0:
	.long	TIM_DMAPeriodElapsedCplt
.Lcpi_end11:
	.size	__arm_cp.9_0, .Lcpi_end11-__arm_cp.9_0
__arm_cp.9_1:
	.long	TIM_DMAError
.Lcpi_end12:
	.size	__arm_cp.9_1, .Lcpi_end12-__arm_cp.9_1
.Lfunc_end9:
	.size	HAL_TIM_Base_Start_DMA, .Lfunc_end9-HAL_TIM_Base_Start_DMA
	.cfi_endproc
	.cantunwind
	.fnend
                                        @ -- End function
	.section	.text.TIM_DMAPeriodElapsedCplt,"ax",%progbits
	.p2align	1               @ -- Begin function TIM_DMAPeriodElapsedCplt
	.type	TIM_DMAPeriodElapsedCplt,%function
	.code	16                      @ @TIM_DMAPeriodElapsedCplt
	.thumb_func
TIM_DMAPeriodElapsedCplt:
.Lfunc_begin10:
	.loc	7 4699 0 is_stmt 1      @ ../Drivers/STM32F7xx_HAL_Driver/Src/stm32f7xx_hal_tim.c:4699:0
	.fnstart
	.cfi_startproc
@ %bb.0:
	@DEBUG_VALUE: TIM_DMAPeriodElapsedCplt:hdma <- $r0
	@DEBUG_VALUE: TIM_DMAPeriodElapsedCplt:hdma <- $r0
	.loc	7 4700 80 prologue_end  @ ../Drivers/STM32F7xx_HAL_Driver/Src/stm32f7xx_hal_tim.c:4700:80
	ldr	r0, [r0, #56]
.Ltmp80:
	@DEBUG_VALUE: TIM_DMAPeriodElapsedCplt:htim <- $r0
	.loc	7 4702 14               @ ../Drivers/STM32F7xx_HAL_Driver/Src/stm32f7xx_hal_tim.c:4702:14
	movs	r1, #1
	strb.w	r1, [r0, #61]
	.loc	7 4704 3                @ ../Drivers/STM32F7xx_HAL_Driver/Src/stm32f7xx_hal_tim.c:4704:3
	b	HAL_TIM_PeriodElapsedCallback
.Ltmp81:
.Lfunc_end10:
	.size	TIM_DMAPeriodElapsedCplt, .Lfunc_end10-TIM_DMAPeriodElapsedCplt
	.cfi_endproc
	.cantunwind
	.fnend
                                        @ -- End function
	.section	.text.TIM_DMAError,"ax",%progbits
	.hidden	TIM_DMAError            @ -- Begin function TIM_DMAError
	.globl	TIM_DMAError
	.p2align	1
	.type	TIM_DMAError,%function
	.code	16                      @ @TIM_DMAError
	.thumb_func
TIM_DMAError:
.Lfunc_begin11:
	.loc	7 4616 0                @ ../Drivers/STM32F7xx_HAL_Driver/Src/stm32f7xx_hal_tim.c:4616:0
	.fnstart
	.cfi_startproc
@ %bb.0:
	@DEBUG_VALUE: TIM_DMAError:hdma <- $r0
	@DEBUG_VALUE: TIM_DMAError:hdma <- $r0
	.loc	7 4617 80 prologue_end  @ ../Drivers/STM32F7xx_HAL_Driver/Src/stm32f7xx_hal_tim.c:4617:80
	ldr	r0, [r0, #56]
.Ltmp82:
	@DEBUG_VALUE: TIM_DMAError:htim <- $r0
	.loc	7 4619 14               @ ../Drivers/STM32F7xx_HAL_Driver/Src/stm32f7xx_hal_tim.c:4619:14
	movs	r1, #1
	strb.w	r1, [r0, #61]
	.loc	7 4621 3                @ ../Drivers/STM32F7xx_HAL_Driver/Src/stm32f7xx_hal_tim.c:4621:3
	b	HAL_TIM_ErrorCallback
.Ltmp83:
.Lfunc_end11:
	.size	TIM_DMAError, .Lfunc_end11-TIM_DMAError
	.cfi_endproc
	.cantunwind
	.fnend
                                        @ -- End function
	.section	.text.HAL_TIM_Base_Stop_DMA,"ax",%progbits
	.hidden	HAL_TIM_Base_Stop_DMA   @ -- Begin function HAL_TIM_Base_Stop_DMA
	.globl	HAL_TIM_Base_Stop_DMA
	.p2align	1
	.type	HAL_TIM_Base_Stop_DMA,%function
	.code	16                      @ @HAL_TIM_Base_Stop_DMA
	.thumb_func
HAL_TIM_Base_Stop_DMA:
.Lfunc_begin12:
	.loc	7 436 0                 @ ../Drivers/STM32F7xx_HAL_Driver/Src/stm32f7xx_hal_tim.c:436:0
	.fnstart
	.cfi_startproc
@ %bb.0:
	@DEBUG_VALUE: HAL_TIM_Base_Stop_DMA:htim <- $r0
	@DEBUG_VALUE: HAL_TIM_Base_Stop_DMA:htim <- $r0
	.loc	7 441 3 prologue_end    @ ../Drivers/STM32F7xx_HAL_Driver/Src/stm32f7xx_hal_tim.c:441:3
	ldr	r1, [r0]
.Ltmp84:
	.loc	7 444 3                 @ ../Drivers/STM32F7xx_HAL_Driver/Src/stm32f7xx_hal_tim.c:444:3
	movw	r3, #4369
.Ltmp85:
	.loc	7 441 3                 @ ../Drivers/STM32F7xx_HAL_Driver/Src/stm32f7xx_hal_tim.c:441:3
	ldr	r2, [r1, #12]
	bic	r2, r2, #256
	str	r2, [r1, #12]
.Ltmp86:
	.loc	7 444 3                 @ ../Drivers/STM32F7xx_HAL_Driver/Src/stm32f7xx_hal_tim.c:444:3
	ldr	r2, [r1, #32]
.Ltmp87:
	.loc	7 444 3 is_stmt 0       @ ../Drivers/STM32F7xx_HAL_Driver/Src/stm32f7xx_hal_tim.c:444:3
	tst	r2, r3
	bne	.LBB12_2
@ %bb.1:
	@DEBUG_VALUE: HAL_TIM_Base_Stop_DMA:htim <- $r0
.Ltmp88:
	.loc	7 444 3                 @ ../Drivers/STM32F7xx_HAL_Driver/Src/stm32f7xx_hal_tim.c:444:3
	ldr	r2, [r1, #32]
	movw	r3, #1092
.Ltmp89:
	.loc	7 444 3                 @ ../Drivers/STM32F7xx_HAL_Driver/Src/stm32f7xx_hal_tim.c:444:3
	tst	r2, r3
.Ltmp90:
	.loc	7 444 3                 @ ../Drivers/STM32F7xx_HAL_Driver/Src/stm32f7xx_hal_tim.c:444:3
	ittt	eq
	ldreq	r2, [r1]
	biceq	r2, r2, #1
	streq	r2, [r1]
.Ltmp91:
.LBB12_2:
	@DEBUG_VALUE: HAL_TIM_Base_Stop_DMA:htim <- $r0
	.loc	7 447 15 is_stmt 1      @ ../Drivers/STM32F7xx_HAL_Driver/Src/stm32f7xx_hal_tim.c:447:15
	movs	r1, #1
	strb.w	r1, [r0, #61]
	.loc	7 450 3                 @ ../Drivers/STM32F7xx_HAL_Driver/Src/stm32f7xx_hal_tim.c:450:3
	movs	r0, #0
	bx	lr
.Ltmp92:
.Lfunc_end12:
	.size	HAL_TIM_Base_Stop_DMA, .Lfunc_end12-HAL_TIM_Base_Stop_DMA
	.cfi_endproc
	.cantunwind
	.fnend
                                        @ -- End function
	.section	.text.HAL_TIM_OC_Init,"ax",%progbits
	.hidden	HAL_TIM_OC_Init         @ -- Begin function HAL_TIM_OC_Init
	.globl	HAL_TIM_OC_Init
	.p2align	1
	.type	HAL_TIM_OC_Init,%function
	.code	16                      @ @HAL_TIM_OC_Init
	.thumb_func
HAL_TIM_OC_Init:
.Lfunc_begin13:
	.loc	7 486 0                 @ ../Drivers/STM32F7xx_HAL_Driver/Src/stm32f7xx_hal_tim.c:486:0
	.fnstart
	.cfi_startproc
@ %bb.0:
	.save	{r4, lr}
	push	{r4, lr}
	.cfi_def_cfa_offset 8
	.cfi_offset lr, -4
	.cfi_offset r4, -8
	@DEBUG_VALUE: HAL_TIM_OC_Init:htim <- $r0
	mov	r4, r0
.Ltmp93:
	@DEBUG_VALUE: HAL_TIM_OC_Init:htim <- $r4
	.loc	7 488 6 prologue_end    @ ../Drivers/STM32F7xx_HAL_Driver/Src/stm32f7xx_hal_tim.c:488:6
	cbz	r0, .LBB13_4
.Ltmp94:
@ %bb.1:
	@DEBUG_VALUE: HAL_TIM_OC_Init:htim <- $r4
	.loc	7 499 12                @ ../Drivers/STM32F7xx_HAL_Driver/Src/stm32f7xx_hal_tim.c:499:12
	ldrb.w	r0, [r4, #61]
.Ltmp95:
	.loc	7 499 6 is_stmt 0       @ ../Drivers/STM32F7xx_HAL_Driver/Src/stm32f7xx_hal_tim.c:499:6
	cbnz	r0, .LBB13_3
.Ltmp96:
@ %bb.2:
	@DEBUG_VALUE: HAL_TIM_OC_Init:htim <- $r4
	.loc	7 502 16 is_stmt 1      @ ../Drivers/STM32F7xx_HAL_Driver/Src/stm32f7xx_hal_tim.c:502:16
	movs	r0, #0
	strb.w	r0, [r4, #60]
	.loc	7 504 5                 @ ../Drivers/STM32F7xx_HAL_Driver/Src/stm32f7xx_hal_tim.c:504:5
	mov	r0, r4
	bl	HAL_TIM_OC_MspInit
.Ltmp97:
.LBB13_3:
	@DEBUG_VALUE: HAL_TIM_OC_Init:htim <- $r4
	.loc	7 508 14                @ ../Drivers/STM32F7xx_HAL_Driver/Src/stm32f7xx_hal_tim.c:508:14
	movs	r0, #2
	.loc	7 511 46                @ ../Drivers/STM32F7xx_HAL_Driver/Src/stm32f7xx_hal_tim.c:511:46
	adds	r1, r4, #4
	.loc	7 508 14                @ ../Drivers/STM32F7xx_HAL_Driver/Src/stm32f7xx_hal_tim.c:508:14
	strb.w	r0, [r4, #61]
	.loc	7 511 28                @ ../Drivers/STM32F7xx_HAL_Driver/Src/stm32f7xx_hal_tim.c:511:28
	ldr	r0, [r4]
	.loc	7 511 3 is_stmt 0       @ ../Drivers/STM32F7xx_HAL_Driver/Src/stm32f7xx_hal_tim.c:511:3
	bl	TIM_Base_SetConfig
	.loc	7 514 14 is_stmt 1      @ ../Drivers/STM32F7xx_HAL_Driver/Src/stm32f7xx_hal_tim.c:514:14
	movs	r0, #1
	strb.w	r0, [r4, #61]
	movs	r0, #0
	.loc	7 517 1                 @ ../Drivers/STM32F7xx_HAL_Driver/Src/stm32f7xx_hal_tim.c:517:1
	pop	{r4, pc}
.Ltmp98:
.LBB13_4:
	@DEBUG_VALUE: HAL_TIM_OC_Init:htim <- $r4
	.loc	7 0 1 is_stmt 0         @ ../Drivers/STM32F7xx_HAL_Driver/Src/stm32f7xx_hal_tim.c:0:1
	movs	r0, #1
	.loc	7 517 1                 @ ../Drivers/STM32F7xx_HAL_Driver/Src/stm32f7xx_hal_tim.c:517:1
	pop	{r4, pc}
.Ltmp99:
.Lfunc_end13:
	.size	HAL_TIM_OC_Init, .Lfunc_end13-HAL_TIM_OC_Init
	.cfi_endproc
	.cantunwind
	.fnend
                                        @ -- End function
	.section	.text.HAL_TIM_OC_MspInit,"ax",%progbits
	.hidden	HAL_TIM_OC_MspInit      @ -- Begin function HAL_TIM_OC_MspInit
	.weak	HAL_TIM_OC_MspInit
	.p2align	1
	.type	HAL_TIM_OC_MspInit,%function
	.code	16                      @ @HAL_TIM_OC_MspInit
	.thumb_func
HAL_TIM_OC_MspInit:
.Lfunc_begin14:
	.loc	7 554 0 is_stmt 1       @ ../Drivers/STM32F7xx_HAL_Driver/Src/stm32f7xx_hal_tim.c:554:0
	.fnstart
	.cfi_startproc
@ %bb.0:
	@DEBUG_VALUE: HAL_TIM_OC_MspInit:htim <- $r0
	.loc	7 561 1 prologue_end    @ ../Drivers/STM32F7xx_HAL_Driver/Src/stm32f7xx_hal_tim.c:561:1
	bx	lr
.Ltmp100:
.Lfunc_end14:
	.size	HAL_TIM_OC_MspInit, .Lfunc_end14-HAL_TIM_OC_MspInit
	.cfi_endproc
	.cantunwind
	.fnend
                                        @ -- End function
	.section	.text.HAL_TIM_OC_DeInit,"ax",%progbits
	.hidden	HAL_TIM_OC_DeInit       @ -- Begin function HAL_TIM_OC_DeInit
	.globl	HAL_TIM_OC_DeInit
	.p2align	1
	.type	HAL_TIM_OC_DeInit,%function
	.code	16                      @ @HAL_TIM_OC_DeInit
	.thumb_func
HAL_TIM_OC_DeInit:
.Lfunc_begin15:
	.loc	7 526 0                 @ ../Drivers/STM32F7xx_HAL_Driver/Src/stm32f7xx_hal_tim.c:526:0
	.fnstart
	.cfi_startproc
@ %bb.0:
	.save	{r4, lr}
	push	{r4, lr}
	.cfi_def_cfa_offset 8
	.cfi_offset lr, -4
	.cfi_offset r4, -8
	@DEBUG_VALUE: HAL_TIM_OC_DeInit:htim <- $r0
	mov	r4, r0
.Ltmp101:
	@DEBUG_VALUE: HAL_TIM_OC_DeInit:htim <- $r4
	.loc	7 530 16 prologue_end   @ ../Drivers/STM32F7xx_HAL_Driver/Src/stm32f7xx_hal_tim.c:530:16
	movs	r0, #2
.Ltmp102:
	.loc	7 533 3                 @ ../Drivers/STM32F7xx_HAL_Driver/Src/stm32f7xx_hal_tim.c:533:3
	movw	r2, #4369
.Ltmp103:
	.loc	7 530 16                @ ../Drivers/STM32F7xx_HAL_Driver/Src/stm32f7xx_hal_tim.c:530:16
	strb.w	r0, [r4, #61]
.Ltmp104:
	.loc	7 533 3                 @ ../Drivers/STM32F7xx_HAL_Driver/Src/stm32f7xx_hal_tim.c:533:3
	ldr	r0, [r4]
	ldr	r1, [r0, #32]
.Ltmp105:
	.loc	7 533 3 is_stmt 0       @ ../Drivers/STM32F7xx_HAL_Driver/Src/stm32f7xx_hal_tim.c:533:3
	tst	r1, r2
	bne	.LBB15_2
.Ltmp106:
@ %bb.1:
	@DEBUG_VALUE: HAL_TIM_OC_DeInit:htim <- $r4
	.loc	7 533 3                 @ ../Drivers/STM32F7xx_HAL_Driver/Src/stm32f7xx_hal_tim.c:533:3
	ldr	r1, [r0, #32]
	movw	r2, #1092
.Ltmp107:
	.loc	7 533 3                 @ ../Drivers/STM32F7xx_HAL_Driver/Src/stm32f7xx_hal_tim.c:533:3
	tst	r1, r2
.Ltmp108:
	.loc	7 533 3                 @ ../Drivers/STM32F7xx_HAL_Driver/Src/stm32f7xx_hal_tim.c:533:3
	ittt	eq
	ldreq	r1, [r0]
	biceq	r1, r1, #1
	streq	r1, [r0]
.Ltmp109:
.LBB15_2:
	@DEBUG_VALUE: HAL_TIM_OC_DeInit:htim <- $r4
	.loc	7 536 3 is_stmt 1       @ ../Drivers/STM32F7xx_HAL_Driver/Src/stm32f7xx_hal_tim.c:536:3
	mov	r0, r4
	bl	HAL_TIM_OC_MspDeInit
	movs	r0, #0
.Ltmp110:
	.loc	7 542 3                 @ ../Drivers/STM32F7xx_HAL_Driver/Src/stm32f7xx_hal_tim.c:542:3
	strb.w	r0, [r4, #60]
.Ltmp111:
	.loc	7 539 15                @ ../Drivers/STM32F7xx_HAL_Driver/Src/stm32f7xx_hal_tim.c:539:15
	strb.w	r0, [r4, #61]
	.loc	7 544 3                 @ ../Drivers/STM32F7xx_HAL_Driver/Src/stm32f7xx_hal_tim.c:544:3
	movs	r0, #0
	pop	{r4, pc}
.Ltmp112:
.Lfunc_end15:
	.size	HAL_TIM_OC_DeInit, .Lfunc_end15-HAL_TIM_OC_DeInit
	.cfi_endproc
	.cantunwind
	.fnend
                                        @ -- End function
	.section	.text.HAL_TIM_OC_MspDeInit,"ax",%progbits
	.hidden	HAL_TIM_OC_MspDeInit    @ -- Begin function HAL_TIM_OC_MspDeInit
	.weak	HAL_TIM_OC_MspDeInit
	.p2align	1
	.type	HAL_TIM_OC_MspDeInit,%function
	.code	16                      @ @HAL_TIM_OC_MspDeInit
	.thumb_func
HAL_TIM_OC_MspDeInit:
.Lfunc_begin16:
	.loc	7 570 0                 @ ../Drivers/STM32F7xx_HAL_Driver/Src/stm32f7xx_hal_tim.c:570:0
	.fnstart
	.cfi_startproc
@ %bb.0:
	@DEBUG_VALUE: HAL_TIM_OC_MspDeInit:htim <- $r0
	.loc	7 577 1 prologue_end    @ ../Drivers/STM32F7xx_HAL_Driver/Src/stm32f7xx_hal_tim.c:577:1
	bx	lr
.Ltmp113:
.Lfunc_end16:
	.size	HAL_TIM_OC_MspDeInit, .Lfunc_end16-HAL_TIM_OC_MspDeInit
	.cfi_endproc
	.cantunwind
	.fnend
                                        @ -- End function
	.section	.text.HAL_TIM_OC_Start,"ax",%progbits
	.hidden	HAL_TIM_OC_Start        @ -- Begin function HAL_TIM_OC_Start
	.globl	HAL_TIM_OC_Start
	.p2align	2
	.type	HAL_TIM_OC_Start,%function
	.code	16                      @ @HAL_TIM_OC_Start
	.thumb_func
HAL_TIM_OC_Start:
.Lfunc_begin17:
	.loc	7 592 0                 @ ../Drivers/STM32F7xx_HAL_Driver/Src/stm32f7xx_hal_tim.c:592:0
	.fnstart
	.cfi_startproc
@ %bb.0:
	.save	{r4, lr}
	push	{r4, lr}
	.cfi_def_cfa_offset 8
	.cfi_offset lr, -4
	.cfi_offset r4, -8
	@DEBUG_VALUE: HAL_TIM_OC_Start:htim <- $r0
	@DEBUG_VALUE: HAL_TIM_OC_Start:Channel <- $r1
	mov	r4, r0
	@DEBUG_VALUE: HAL_TIM_OC_Start:Channel <- $r1
.Ltmp114:
	@DEBUG_VALUE: HAL_TIM_OC_Start:htim <- $r4
	.loc	7 597 27 prologue_end   @ ../Drivers/STM32F7xx_HAL_Driver/Src/stm32f7xx_hal_tim.c:597:27
	ldr	r0, [r0]
	@DEBUG_VALUE: HAL_TIM_OC_Start:Channel <- $r1
	.loc	7 597 3 is_stmt 0       @ ../Drivers/STM32F7xx_HAL_Driver/Src/stm32f7xx_hal_tim.c:597:3
	movs	r2, #1
	bl	TIM_CCxChannelCmd
.Ltmp115:
	.loc	7 599 6 is_stmt 1       @ ../Drivers/STM32F7xx_HAL_Driver/Src/stm32f7xx_hal_tim.c:599:6
	ldr	r0, [r4]
	ldr	r2, __arm_cp.17_0
	orr	r1, r0, #1024
	cmp	r1, r2
.Ltmp116:
	.loc	7 602 5                 @ ../Drivers/STM32F7xx_HAL_Driver/Src/stm32f7xx_hal_tim.c:602:5
	ittt	eq
	ldreq	r1, [r0, #68]
	orreq	r1, r1, #32768
	streq	r1, [r0, #68]
.Ltmp117:
	.loc	7 606 3                 @ ../Drivers/STM32F7xx_HAL_Driver/Src/stm32f7xx_hal_tim.c:606:3
	ldr	r1, [r0]
	orr	r1, r1, #1
	str	r1, [r0]
	.loc	7 609 3                 @ ../Drivers/STM32F7xx_HAL_Driver/Src/stm32f7xx_hal_tim.c:609:3
	movs	r0, #0
	pop	{r4, pc}
.Ltmp118:
	.p2align	2
@ %bb.1:
	.loc	7 0 3 is_stmt 0         @ ../Drivers/STM32F7xx_HAL_Driver/Src/stm32f7xx_hal_tim.c:0:3
__arm_cp.17_0:
	.long	1073808384              @ 0x40010400
.Lcpi_end13:
	.size	__arm_cp.17_0, .Lcpi_end13-__arm_cp.17_0
.Lfunc_end17:
	.size	HAL_TIM_OC_Start, .Lfunc_end17-HAL_TIM_OC_Start
	.cfi_endproc
	.cantunwind
	.fnend
                                        @ -- End function
	.section	.text.TIM_CCxChannelCmd,"ax",%progbits
	.hidden	TIM_CCxChannelCmd       @ -- Begin function TIM_CCxChannelCmd
	.globl	TIM_CCxChannelCmd
	.p2align	1
	.type	TIM_CCxChannelCmd,%function
	.code	16                      @ @TIM_CCxChannelCmd
	.thumb_func
TIM_CCxChannelCmd:
.Lfunc_begin18:
	.loc	7 5503 0 is_stmt 1      @ ../Drivers/STM32F7xx_HAL_Driver/Src/stm32f7xx_hal_tim.c:5503:0
	.fnstart
	.cfi_startproc
@ %bb.0:
	@DEBUG_VALUE: TIM_CCxChannelCmd:TIMx <- $r0
	@DEBUG_VALUE: TIM_CCxChannelCmd:TIMx <- $r0
	@DEBUG_VALUE: TIM_CCxChannelCmd:Channel <- $r1
	@DEBUG_VALUE: TIM_CCxChannelCmd:Channel <- $r1
	@DEBUG_VALUE: TIM_CCxChannelCmd:ChannelState <- $r2
	@DEBUG_VALUE: TIM_CCxChannelCmd:ChannelState <- $r2
	@DEBUG_VALUE: TIM_CCxChannelCmd:tmp <- 0
	.loc	7 5510 23 prologue_end  @ ../Drivers/STM32F7xx_HAL_Driver/Src/stm32f7xx_hal_tim.c:5510:23
	movs	r3, #1
	lsl.w	r12, r3, r1
.Ltmp119:
	@DEBUG_VALUE: TIM_CCxChannelCmd:tmp <- $r12
	.loc	7 5513 14               @ ../Drivers/STM32F7xx_HAL_Driver/Src/stm32f7xx_hal_tim.c:5513:14
	ldr	r3, [r0, #32]
	.loc	7 5516 41               @ ../Drivers/STM32F7xx_HAL_Driver/Src/stm32f7xx_hal_tim.c:5516:41
	lsl.w	r1, r2, r1
.Ltmp120:
	.loc	7 5513 14               @ ../Drivers/STM32F7xx_HAL_Driver/Src/stm32f7xx_hal_tim.c:5513:14
	bic.w	r3, r3, r12
	str	r3, [r0, #32]
	.loc	7 5516 14               @ ../Drivers/STM32F7xx_HAL_Driver/Src/stm32f7xx_hal_tim.c:5516:14
	ldr	r2, [r0, #32]
.Ltmp121:
	orrs	r1, r2
	str	r1, [r0, #32]
	.loc	7 5517 1                @ ../Drivers/STM32F7xx_HAL_Driver/Src/stm32f7xx_hal_tim.c:5517:1
	bx	lr
.Ltmp122:
.Lfunc_end18:
	.size	TIM_CCxChannelCmd, .Lfunc_end18-TIM_CCxChannelCmd
	.cfi_endproc
	.cantunwind
	.fnend
                                        @ -- End function
	.section	.text.HAL_TIM_OC_Stop,"ax",%progbits
	.hidden	HAL_TIM_OC_Stop         @ -- Begin function HAL_TIM_OC_Stop
	.globl	HAL_TIM_OC_Stop
	.p2align	2
	.type	HAL_TIM_OC_Stop,%function
	.code	16                      @ @HAL_TIM_OC_Stop
	.thumb_func
HAL_TIM_OC_Stop:
.Lfunc_begin19:
	.loc	7 625 0                 @ ../Drivers/STM32F7xx_HAL_Driver/Src/stm32f7xx_hal_tim.c:625:0
	.fnstart
	.cfi_startproc
@ %bb.0:
	.save	{r4, lr}
	push	{r4, lr}
	.cfi_def_cfa_offset 8
	.cfi_offset lr, -4
	.cfi_offset r4, -8
	@DEBUG_VALUE: HAL_TIM_OC_Stop:htim <- $r0
	@DEBUG_VALUE: HAL_TIM_OC_Stop:Channel <- $r1
	mov	r4, r0
	@DEBUG_VALUE: HAL_TIM_OC_Stop:Channel <- $r1
.Ltmp123:
	@DEBUG_VALUE: HAL_TIM_OC_Stop:htim <- $r4
	.loc	7 630 27 prologue_end   @ ../Drivers/STM32F7xx_HAL_Driver/Src/stm32f7xx_hal_tim.c:630:27
	ldr	r0, [r0]
	@DEBUG_VALUE: HAL_TIM_OC_Stop:Channel <- $r1
	.loc	7 630 3 is_stmt 0       @ ../Drivers/STM32F7xx_HAL_Driver/Src/stm32f7xx_hal_tim.c:630:3
	movs	r2, #0
	bl	TIM_CCxChannelCmd
.Ltmp124:
	.loc	7 632 6 is_stmt 1       @ ../Drivers/STM32F7xx_HAL_Driver/Src/stm32f7xx_hal_tim.c:632:6
	ldr	r0, [r4]
	ldr	r2, __arm_cp.19_0
	orr	r1, r0, #1024
	cmp	r1, r2
	bne	.LBB19_3
.Ltmp125:
@ %bb.1:
	@DEBUG_VALUE: HAL_TIM_OC_Stop:htim <- $r4
	.loc	7 635 5                 @ ../Drivers/STM32F7xx_HAL_Driver/Src/stm32f7xx_hal_tim.c:635:5
	mov	r1, r0
	movw	r3, #4369
	ldr	r2, [r1, #32]!
.Ltmp126:
	.loc	7 635 5 is_stmt 0       @ ../Drivers/STM32F7xx_HAL_Driver/Src/stm32f7xx_hal_tim.c:635:5
	tst	r2, r3
	bne	.LBB19_4
.Ltmp127:
@ %bb.2:
	@DEBUG_VALUE: HAL_TIM_OC_Stop:htim <- $r4
	.loc	7 635 5                 @ ../Drivers/STM32F7xx_HAL_Driver/Src/stm32f7xx_hal_tim.c:635:5
	ldr	r2, [r1]
	movw	r3, #1092
.Ltmp128:
	.loc	7 635 5                 @ ../Drivers/STM32F7xx_HAL_Driver/Src/stm32f7xx_hal_tim.c:635:5
	tst	r2, r3
.Ltmp129:
	.loc	7 635 5                 @ ../Drivers/STM32F7xx_HAL_Driver/Src/stm32f7xx_hal_tim.c:635:5
	ittt	eq
	ldreq	r2, [r0, #68]
	biceq	r2, r2, #32768
	streq	r2, [r0, #68]
	b	.LBB19_4
.Ltmp130:
.LBB19_3:
	@DEBUG_VALUE: HAL_TIM_OC_Stop:htim <- $r4
	.loc	7 639 3 is_stmt 1       @ ../Drivers/STM32F7xx_HAL_Driver/Src/stm32f7xx_hal_tim.c:639:3
	add.w	r1, r0, #32
.Ltmp131:
.LBB19_4:
	@DEBUG_VALUE: HAL_TIM_OC_Stop:htim <- $r4
	ldr	r2, [r1]
	movw	r3, #4369
.Ltmp132:
	.loc	7 639 3 is_stmt 0       @ ../Drivers/STM32F7xx_HAL_Driver/Src/stm32f7xx_hal_tim.c:639:3
	tst	r2, r3
	bne	.LBB19_6
.Ltmp133:
@ %bb.5:
	@DEBUG_VALUE: HAL_TIM_OC_Stop:htim <- $r4
	.loc	7 639 3                 @ ../Drivers/STM32F7xx_HAL_Driver/Src/stm32f7xx_hal_tim.c:639:3
	ldr	r1, [r1]
	movw	r2, #1092
.Ltmp134:
	.loc	7 639 3                 @ ../Drivers/STM32F7xx_HAL_Driver/Src/stm32f7xx_hal_tim.c:639:3
	tst	r1, r2
.Ltmp135:
	.loc	7 639 3                 @ ../Drivers/STM32F7xx_HAL_Driver/Src/stm32f7xx_hal_tim.c:639:3
	ittt	eq
	ldreq	r1, [r0]
	biceq	r1, r1, #1
	streq	r1, [r0]
.Ltmp136:
.LBB19_6:
	@DEBUG_VALUE: HAL_TIM_OC_Stop:htim <- $r4
	.loc	7 642 3 is_stmt 1       @ ../Drivers/STM32F7xx_HAL_Driver/Src/stm32f7xx_hal_tim.c:642:3
	movs	r0, #0
	pop	{r4, pc}
.Ltmp137:
	.p2align	2
@ %bb.7:
	.loc	7 0 3 is_stmt 0         @ ../Drivers/STM32F7xx_HAL_Driver/Src/stm32f7xx_hal_tim.c:0:3
__arm_cp.19_0:
	.long	1073808384              @ 0x40010400
.Lcpi_end14:
	.size	__arm_cp.19_0, .Lcpi_end14-__arm_cp.19_0
.Lfunc_end19:
	.size	HAL_TIM_OC_Stop, .Lfunc_end19-HAL_TIM_OC_Stop
	.cfi_endproc
	.cantunwind
	.fnend
                                        @ -- End function
	.section	.text.HAL_TIM_OC_Start_IT,"ax",%progbits
	.hidden	HAL_TIM_OC_Start_IT     @ -- Begin function HAL_TIM_OC_Start_IT
	.globl	HAL_TIM_OC_Start_IT
	.p2align	2
	.type	HAL_TIM_OC_Start_IT,%function
	.code	16                      @ @HAL_TIM_OC_Start_IT
	.thumb_func
HAL_TIM_OC_Start_IT:
.Lfunc_begin20:
	.loc	7 658 0 is_stmt 1       @ ../Drivers/STM32F7xx_HAL_Driver/Src/stm32f7xx_hal_tim.c:658:0
	.fnstart
	.cfi_startproc
@ %bb.0:
	.save	{r4, lr}
	push	{r4, lr}
	.cfi_def_cfa_offset 8
	.cfi_offset lr, -4
	.cfi_offset r4, -8
	@DEBUG_VALUE: HAL_TIM_OC_Start_IT:htim <- $r0
	@DEBUG_VALUE: HAL_TIM_OC_Start_IT:Channel <- $r1
	mov	r4, r0
	@DEBUG_VALUE: HAL_TIM_OC_Start_IT:Channel <- $r1
.Ltmp138:
	@DEBUG_VALUE: HAL_TIM_OC_Start_IT:htim <- $r4
	.loc	7 662 3 prologue_end    @ ../Drivers/STM32F7xx_HAL_Driver/Src/stm32f7xx_hal_tim.c:662:3
	ror.w	r0, r1, #2
	cmp	r0, #3
	bhi	.LBB20_4
.Ltmp139:
@ %bb.1:
	@DEBUG_VALUE: HAL_TIM_OC_Start_IT:htim <- $r4
	@DEBUG_VALUE: HAL_TIM_OC_Start_IT:Channel <- $r1
	.loc	7 0 3 is_stmt 0         @ ../Drivers/STM32F7xx_HAL_Driver/Src/stm32f7xx_hal_tim.c:0:3
.LCPI20_1:
	tbb	[pc, r0]
.Ltmp140:
@ %bb.2:
.LJTI20_0:
	.byte	(.LBB20_3-(.LCPI20_1+4))/2
	.byte	(.LBB20_5-(.LCPI20_1+4))/2
	.byte	(.LBB20_6-(.LCPI20_1+4))/2
	.byte	(.LBB20_7-(.LCPI20_1+4))/2
	.p2align	1
.LBB20_3:
.Ltmp141:
	@DEBUG_VALUE: HAL_TIM_OC_Start_IT:htim <- $r4
	@DEBUG_VALUE: HAL_TIM_OC_Start_IT:Channel <- $r1
	.loc	7 667 7 is_stmt 1       @ ../Drivers/STM32F7xx_HAL_Driver/Src/stm32f7xx_hal_tim.c:667:7
	ldr	r0, [r4]
	ldr	r2, [r0, #12]
	orr	r2, r2, #2
	b	.LBB20_8
.Ltmp142:
.LBB20_4:
	@DEBUG_VALUE: HAL_TIM_OC_Start_IT:htim <- $r4
	@DEBUG_VALUE: HAL_TIM_OC_Start_IT:Channel <- $r1
	.loc	7 697 27                @ ../Drivers/STM32F7xx_HAL_Driver/Src/stm32f7xx_hal_tim.c:697:27
	ldr	r0, [r4]
	b	.LBB20_9
.Ltmp143:
.LBB20_5:
	@DEBUG_VALUE: HAL_TIM_OC_Start_IT:htim <- $r4
	@DEBUG_VALUE: HAL_TIM_OC_Start_IT:Channel <- $r1
	.loc	7 674 7                 @ ../Drivers/STM32F7xx_HAL_Driver/Src/stm32f7xx_hal_tim.c:674:7
	ldr	r0, [r4]
	ldr	r2, [r0, #12]
	orr	r2, r2, #4
	b	.LBB20_8
.Ltmp144:
.LBB20_6:
	@DEBUG_VALUE: HAL_TIM_OC_Start_IT:htim <- $r4
	@DEBUG_VALUE: HAL_TIM_OC_Start_IT:Channel <- $r1
	.loc	7 681 7                 @ ../Drivers/STM32F7xx_HAL_Driver/Src/stm32f7xx_hal_tim.c:681:7
	ldr	r0, [r4]
	ldr	r2, [r0, #12]
	orr	r2, r2, #8
	b	.LBB20_8
.Ltmp145:
.LBB20_7:
	@DEBUG_VALUE: HAL_TIM_OC_Start_IT:htim <- $r4
	@DEBUG_VALUE: HAL_TIM_OC_Start_IT:Channel <- $r1
	.loc	7 688 7                 @ ../Drivers/STM32F7xx_HAL_Driver/Src/stm32f7xx_hal_tim.c:688:7
	ldr	r0, [r4]
	ldr	r2, [r0, #12]
	orr	r2, r2, #16
.Ltmp146:
.LBB20_8:
	@DEBUG_VALUE: HAL_TIM_OC_Start_IT:htim <- $r4
	@DEBUG_VALUE: HAL_TIM_OC_Start_IT:Channel <- $r1
	.loc	7 0 7 is_stmt 0         @ ../Drivers/STM32F7xx_HAL_Driver/Src/stm32f7xx_hal_tim.c:0:7
	str	r2, [r0, #12]
.Ltmp147:
.LBB20_9:
	@DEBUG_VALUE: HAL_TIM_OC_Start_IT:htim <- $r4
	@DEBUG_VALUE: HAL_TIM_OC_Start_IT:Channel <- $r1
	.loc	7 697 3 is_stmt 1       @ ../Drivers/STM32F7xx_HAL_Driver/Src/stm32f7xx_hal_tim.c:697:3
	movs	r2, #1
	bl	TIM_CCxChannelCmd
.Ltmp148:
	.loc	7 699 6                 @ ../Drivers/STM32F7xx_HAL_Driver/Src/stm32f7xx_hal_tim.c:699:6
	ldr	r0, [r4]
	ldr	r2, __arm_cp.20_0
	orr	r1, r0, #1024
	cmp	r1, r2
.Ltmp149:
	.loc	7 702 5                 @ ../Drivers/STM32F7xx_HAL_Driver/Src/stm32f7xx_hal_tim.c:702:5
	ittt	eq
	ldreq	r1, [r0, #68]
	orreq	r1, r1, #32768
	streq	r1, [r0, #68]
.Ltmp150:
	.loc	7 706 3                 @ ../Drivers/STM32F7xx_HAL_Driver/Src/stm32f7xx_hal_tim.c:706:3
	ldr	r1, [r0]
	orr	r1, r1, #1
	str	r1, [r0]
	.loc	7 709 3                 @ ../Drivers/STM32F7xx_HAL_Driver/Src/stm32f7xx_hal_tim.c:709:3
	movs	r0, #0
	pop	{r4, pc}
.Ltmp151:
	.p2align	2
@ %bb.10:
	.loc	7 0 3 is_stmt 0         @ ../Drivers/STM32F7xx_HAL_Driver/Src/stm32f7xx_hal_tim.c:0:3
__arm_cp.20_0:
	.long	1073808384              @ 0x40010400
.Lcpi_end15:
	.size	__arm_cp.20_0, .Lcpi_end15-__arm_cp.20_0
.Lfunc_end20:
	.size	HAL_TIM_OC_Start_IT, .Lfunc_end20-HAL_TIM_OC_Start_IT
	.cfi_endproc
	.cantunwind
	.fnend
                                        @ -- End function
	.section	.text.HAL_TIM_OC_Stop_IT,"ax",%progbits
	.hidden	HAL_TIM_OC_Stop_IT      @ -- Begin function HAL_TIM_OC_Stop_IT
	.globl	HAL_TIM_OC_Stop_IT
	.p2align	2
	.type	HAL_TIM_OC_Stop_IT,%function
	.code	16                      @ @HAL_TIM_OC_Stop_IT
	.thumb_func
HAL_TIM_OC_Stop_IT:
.Lfunc_begin21:
	.loc	7 725 0 is_stmt 1       @ ../Drivers/STM32F7xx_HAL_Driver/Src/stm32f7xx_hal_tim.c:725:0
	.fnstart
	.cfi_startproc
@ %bb.0:
	.save	{r4, lr}
	push	{r4, lr}
	.cfi_def_cfa_offset 8
	.cfi_offset lr, -4
	.cfi_offset r4, -8
	@DEBUG_VALUE: HAL_TIM_OC_Stop_IT:htim <- $r0
	@DEBUG_VALUE: HAL_TIM_OC_Stop_IT:Channel <- $r1
	mov	r4, r0
	@DEBUG_VALUE: HAL_TIM_OC_Stop_IT:Channel <- $r1
.Ltmp152:
	@DEBUG_VALUE: HAL_TIM_OC_Stop_IT:htim <- $r4
	.loc	7 729 3 prologue_end    @ ../Drivers/STM32F7xx_HAL_Driver/Src/stm32f7xx_hal_tim.c:729:3
	ror.w	r0, r1, #2
	cmp	r0, #3
	bhi	.LBB21_4
.Ltmp153:
@ %bb.1:
	@DEBUG_VALUE: HAL_TIM_OC_Stop_IT:htim <- $r4
	@DEBUG_VALUE: HAL_TIM_OC_Stop_IT:Channel <- $r1
	.loc	7 0 3 is_stmt 0         @ ../Drivers/STM32F7xx_HAL_Driver/Src/stm32f7xx_hal_tim.c:0:3
.LCPI21_1:
	tbb	[pc, r0]
.Ltmp154:
@ %bb.2:
.LJTI21_0:
	.byte	(.LBB21_3-(.LCPI21_1+4))/2
	.byte	(.LBB21_5-(.LCPI21_1+4))/2
	.byte	(.LBB21_6-(.LCPI21_1+4))/2
	.byte	(.LBB21_7-(.LCPI21_1+4))/2
	.p2align	1
.LBB21_3:
.Ltmp155:
	@DEBUG_VALUE: HAL_TIM_OC_Stop_IT:htim <- $r4
	@DEBUG_VALUE: HAL_TIM_OC_Stop_IT:Channel <- $r1
	.loc	7 734 7 is_stmt 1       @ ../Drivers/STM32F7xx_HAL_Driver/Src/stm32f7xx_hal_tim.c:734:7
	ldr	r0, [r4]
	ldr	r2, [r0, #12]
	bic	r2, r2, #2
	b	.LBB21_8
.Ltmp156:
.LBB21_4:
	@DEBUG_VALUE: HAL_TIM_OC_Stop_IT:htim <- $r4
	@DEBUG_VALUE: HAL_TIM_OC_Stop_IT:Channel <- $r1
	.loc	7 764 27                @ ../Drivers/STM32F7xx_HAL_Driver/Src/stm32f7xx_hal_tim.c:764:27
	ldr	r0, [r4]
	b	.LBB21_9
.Ltmp157:
.LBB21_5:
	@DEBUG_VALUE: HAL_TIM_OC_Stop_IT:htim <- $r4
	@DEBUG_VALUE: HAL_TIM_OC_Stop_IT:Channel <- $r1
	.loc	7 741 7                 @ ../Drivers/STM32F7xx_HAL_Driver/Src/stm32f7xx_hal_tim.c:741:7
	ldr	r0, [r4]
	ldr	r2, [r0, #12]
	bic	r2, r2, #4
	b	.LBB21_8
.Ltmp158:
.LBB21_6:
	@DEBUG_VALUE: HAL_TIM_OC_Stop_IT:htim <- $r4
	@DEBUG_VALUE: HAL_TIM_OC_Stop_IT:Channel <- $r1
	.loc	7 748 7                 @ ../Drivers/STM32F7xx_HAL_Driver/Src/stm32f7xx_hal_tim.c:748:7
	ldr	r0, [r4]
	ldr	r2, [r0, #12]
	bic	r2, r2, #8
	b	.LBB21_8
.Ltmp159:
.LBB21_7:
	@DEBUG_VALUE: HAL_TIM_OC_Stop_IT:htim <- $r4
	@DEBUG_VALUE: HAL_TIM_OC_Stop_IT:Channel <- $r1
	.loc	7 755 7                 @ ../Drivers/STM32F7xx_HAL_Driver/Src/stm32f7xx_hal_tim.c:755:7
	ldr	r0, [r4]
	ldr	r2, [r0, #12]
	bic	r2, r2, #16
.Ltmp160:
.LBB21_8:
	@DEBUG_VALUE: HAL_TIM_OC_Stop_IT:htim <- $r4
	@DEBUG_VALUE: HAL_TIM_OC_Stop_IT:Channel <- $r1
	.loc	7 0 7 is_stmt 0         @ ../Drivers/STM32F7xx_HAL_Driver/Src/stm32f7xx_hal_tim.c:0:7
	str	r2, [r0, #12]
.Ltmp161:
.LBB21_9:
	@DEBUG_VALUE: HAL_TIM_OC_Stop_IT:htim <- $r4
	@DEBUG_VALUE: HAL_TIM_OC_Stop_IT:Channel <- $r1
	.loc	7 764 3 is_stmt 1       @ ../Drivers/STM32F7xx_HAL_Driver/Src/stm32f7xx_hal_tim.c:764:3
	movs	r2, #0
	bl	TIM_CCxChannelCmd
.Ltmp162:
	.loc	7 766 6                 @ ../Drivers/STM32F7xx_HAL_Driver/Src/stm32f7xx_hal_tim.c:766:6
	ldr	r0, [r4]
	ldr	r2, __arm_cp.21_0
	orr	r1, r0, #1024
	cmp	r1, r2
	bne	.LBB21_12
.Ltmp163:
@ %bb.10:
	@DEBUG_VALUE: HAL_TIM_OC_Stop_IT:htim <- $r4
	.loc	7 769 5                 @ ../Drivers/STM32F7xx_HAL_Driver/Src/stm32f7xx_hal_tim.c:769:5
	mov	r1, r0
	movw	r3, #4369
	ldr	r2, [r1, #32]!
.Ltmp164:
	.loc	7 769 5 is_stmt 0       @ ../Drivers/STM32F7xx_HAL_Driver/Src/stm32f7xx_hal_tim.c:769:5
	tst	r2, r3
	bne	.LBB21_13
.Ltmp165:
@ %bb.11:
	@DEBUG_VALUE: HAL_TIM_OC_Stop_IT:htim <- $r4
	.loc	7 769 5                 @ ../Drivers/STM32F7xx_HAL_Driver/Src/stm32f7xx_hal_tim.c:769:5
	ldr	r2, [r1]
	movw	r3, #1092
.Ltmp166:
	.loc	7 769 5                 @ ../Drivers/STM32F7xx_HAL_Driver/Src/stm32f7xx_hal_tim.c:769:5
	tst	r2, r3
.Ltmp167:
	.loc	7 769 5                 @ ../Drivers/STM32F7xx_HAL_Driver/Src/stm32f7xx_hal_tim.c:769:5
	ittt	eq
	ldreq	r2, [r0, #68]
	biceq	r2, r2, #32768
	streq	r2, [r0, #68]
	b	.LBB21_13
.Ltmp168:
.LBB21_12:
	@DEBUG_VALUE: HAL_TIM_OC_Stop_IT:htim <- $r4
	.loc	7 773 3 is_stmt 1       @ ../Drivers/STM32F7xx_HAL_Driver/Src/stm32f7xx_hal_tim.c:773:3
	add.w	r1, r0, #32
.Ltmp169:
.LBB21_13:
	@DEBUG_VALUE: HAL_TIM_OC_Stop_IT:htim <- $r4
	ldr	r2, [r1]
	movw	r3, #4369
.Ltmp170:
	.loc	7 773 3 is_stmt 0       @ ../Drivers/STM32F7xx_HAL_Driver/Src/stm32f7xx_hal_tim.c:773:3
	tst	r2, r3
	bne	.LBB21_15
.Ltmp171:
@ %bb.14:
	@DEBUG_VALUE: HAL_TIM_OC_Stop_IT:htim <- $r4
	.loc	7 773 3                 @ ../Drivers/STM32F7xx_HAL_Driver/Src/stm32f7xx_hal_tim.c:773:3
	ldr	r1, [r1]
	movw	r2, #1092
.Ltmp172:
	.loc	7 773 3                 @ ../Drivers/STM32F7xx_HAL_Driver/Src/stm32f7xx_hal_tim.c:773:3
	tst	r1, r2
.Ltmp173:
	.loc	7 773 3                 @ ../Drivers/STM32F7xx_HAL_Driver/Src/stm32f7xx_hal_tim.c:773:3
	ittt	eq
	ldreq	r1, [r0]
	biceq	r1, r1, #1
	streq	r1, [r0]
.Ltmp174:
.LBB21_15:
	@DEBUG_VALUE: HAL_TIM_OC_Stop_IT:htim <- $r4
	.loc	7 776 3 is_stmt 1       @ ../Drivers/STM32F7xx_HAL_Driver/Src/stm32f7xx_hal_tim.c:776:3
	movs	r0, #0
	pop	{r4, pc}
.Ltmp175:
	.p2align	2
@ %bb.16:
	.loc	7 0 3 is_stmt 0         @ ../Drivers/STM32F7xx_HAL_Driver/Src/stm32f7xx_hal_tim.c:0:3
__arm_cp.21_0:
	.long	1073808384              @ 0x40010400
.Lcpi_end16:
	.size	__arm_cp.21_0, .Lcpi_end16-__arm_cp.21_0
.Lfunc_end21:
	.size	HAL_TIM_OC_Stop_IT, .Lfunc_end21-HAL_TIM_OC_Stop_IT
	.cfi_endproc
	.cantunwind
	.fnend
                                        @ -- End function
	.section	.text.HAL_TIM_OC_Start_DMA,"ax",%progbits
	.hidden	HAL_TIM_OC_Start_DMA    @ -- Begin function HAL_TIM_OC_Start_DMA
	.globl	HAL_TIM_OC_Start_DMA
	.p2align	2
	.type	HAL_TIM_OC_Start_DMA,%function
	.code	16                      @ @HAL_TIM_OC_Start_DMA
	.thumb_func
HAL_TIM_OC_Start_DMA:
.Lfunc_begin22:
	.loc	7 794 0 is_stmt 1       @ ../Drivers/STM32F7xx_HAL_Driver/Src/stm32f7xx_hal_tim.c:794:0
	.fnstart
	.cfi_startproc
@ %bb.0:
	.save	{r4, r5, r7, lr}
	push	{r4, r5, r7, lr}
	.cfi_def_cfa_offset 16
	.cfi_offset lr, -4
	.cfi_offset r7, -8
	.cfi_offset r5, -12
	.cfi_offset r4, -16
	@DEBUG_VALUE: HAL_TIM_OC_Start_DMA:htim <- $r0
	@DEBUG_VALUE: HAL_TIM_OC_Start_DMA:Channel <- $r1
	@DEBUG_VALUE: HAL_TIM_OC_Start_DMA:pData <- $r2
	@DEBUG_VALUE: HAL_TIM_OC_Start_DMA:Length <- $r3
	mov	r4, r0
	@DEBUG_VALUE: HAL_TIM_OC_Start_DMA:Length <- $r3
	@DEBUG_VALUE: HAL_TIM_OC_Start_DMA:pData <- $r2
.Ltmp176:
	@DEBUG_VALUE: HAL_TIM_OC_Start_DMA:Channel <- $r5
	@DEBUG_VALUE: HAL_TIM_OC_Start_DMA:htim <- $r4
	.loc	7 798 13 prologue_end   @ ../Drivers/STM32F7xx_HAL_Driver/Src/stm32f7xx_hal_tim.c:798:13
	ldrb.w	r0, [r0, #61]
	mov	r5, r1
.Ltmp177:
	.loc	7 798 6 is_stmt 0       @ ../Drivers/STM32F7xx_HAL_Driver/Src/stm32f7xx_hal_tim.c:798:6
	cmp	r0, #2
	bne	.LBB22_2
.Ltmp178:
@ %bb.1:
	@DEBUG_VALUE: HAL_TIM_OC_Start_DMA:htim <- $r4
	@DEBUG_VALUE: HAL_TIM_OC_Start_DMA:Length <- $r3
	@DEBUG_VALUE: HAL_TIM_OC_Start_DMA:pData <- $r2
	.loc	7 0 6                   @ ../Drivers/STM32F7xx_HAL_Driver/Src/stm32f7xx_hal_tim.c:0:6
	movs	r0, #2
	b	.LBB22_16
.Ltmp179:
.LBB22_2:
	@DEBUG_VALUE: HAL_TIM_OC_Start_DMA:htim <- $r4
	@DEBUG_VALUE: HAL_TIM_OC_Start_DMA:Length <- $r3
	@DEBUG_VALUE: HAL_TIM_OC_Start_DMA:pData <- $r2
	.loc	7 802 18 is_stmt 1      @ ../Drivers/STM32F7xx_HAL_Driver/Src/stm32f7xx_hal_tim.c:802:18
	ldrb.w	r0, [r4, #61]
.Ltmp180:
	.loc	7 802 11 is_stmt 0      @ ../Drivers/STM32F7xx_HAL_Driver/Src/stm32f7xx_hal_tim.c:802:11
	cmp	r0, #1
	bne	.LBB22_7
.Ltmp181:
@ %bb.3:
	@DEBUG_VALUE: HAL_TIM_OC_Start_DMA:htim <- $r4
	@DEBUG_VALUE: HAL_TIM_OC_Start_DMA:Length <- $r3
	@DEBUG_VALUE: HAL_TIM_OC_Start_DMA:pData <- $r2
	.loc	7 804 32 is_stmt 1      @ ../Drivers/STM32F7xx_HAL_Driver/Src/stm32f7xx_hal_tim.c:804:32
	cbnz	r2, .LBB22_6
.Ltmp182:
@ %bb.4:
	@DEBUG_VALUE: HAL_TIM_OC_Start_DMA:htim <- $r4
	@DEBUG_VALUE: HAL_TIM_OC_Start_DMA:Length <- $r3
	@DEBUG_VALUE: HAL_TIM_OC_Start_DMA:pData <- $r2
	cbz	r3, .LBB22_6
.Ltmp183:
@ %bb.5:
	@DEBUG_VALUE: HAL_TIM_OC_Start_DMA:htim <- $r4
	@DEBUG_VALUE: HAL_TIM_OC_Start_DMA:Length <- $r3
	@DEBUG_VALUE: HAL_TIM_OC_Start_DMA:pData <- $r2
	.loc	7 0 32 is_stmt 0        @ ../Drivers/STM32F7xx_HAL_Driver/Src/stm32f7xx_hal_tim.c:0:32
	movs	r0, #1
	b	.LBB22_16
.Ltmp184:
.LBB22_6:
	@DEBUG_VALUE: HAL_TIM_OC_Start_DMA:htim <- $r4
	@DEBUG_VALUE: HAL_TIM_OC_Start_DMA:Length <- $r3
	@DEBUG_VALUE: HAL_TIM_OC_Start_DMA:pData <- $r2
	.loc	7 810 19 is_stmt 1      @ ../Drivers/STM32F7xx_HAL_Driver/Src/stm32f7xx_hal_tim.c:810:19
	movs	r0, #2
	strb.w	r0, [r4, #61]
.Ltmp185:
.LBB22_7:
	@DEBUG_VALUE: HAL_TIM_OC_Start_DMA:htim <- $r4
	@DEBUG_VALUE: HAL_TIM_OC_Start_DMA:Length <- $r3
	@DEBUG_VALUE: HAL_TIM_OC_Start_DMA:pData <- $r2
	.loc	7 813 3                 @ ../Drivers/STM32F7xx_HAL_Driver/Src/stm32f7xx_hal_tim.c:813:3
	ror.w	r0, r5, #2
	cmp	r0, #3
	bhi	.LBB22_17
.Ltmp186:
@ %bb.8:
	@DEBUG_VALUE: HAL_TIM_OC_Start_DMA:htim <- $r4
	@DEBUG_VALUE: HAL_TIM_OC_Start_DMA:Length <- $r3
	@DEBUG_VALUE: HAL_TIM_OC_Start_DMA:pData <- $r2
	@DEBUG_VALUE: HAL_TIM_OC_Start_DMA:Length <- $r3
	.loc	7 0 3 is_stmt 0         @ ../Drivers/STM32F7xx_HAL_Driver/Src/stm32f7xx_hal_tim.c:0:3
.LCPI22_3:
	tbb	[pc, r0]
.Ltmp187:
@ %bb.9:
.LJTI22_0:
	.byte	(.LBB22_10-(.LCPI22_3+4))/2
	.byte	(.LBB22_11-(.LCPI22_3+4))/2
	.byte	(.LBB22_12-(.LCPI22_3+4))/2
	.byte	(.LBB22_13-(.LCPI22_3+4))/2
	.p2align	1
.LBB22_10:
.Ltmp188:
	@DEBUG_VALUE: HAL_TIM_OC_Start_DMA:htim <- $r4
	@DEBUG_VALUE: HAL_TIM_OC_Start_DMA:Length <- $r3
	@DEBUG_VALUE: HAL_TIM_OC_Start_DMA:pData <- $r2
	.loc	7 818 7 is_stmt 1       @ ../Drivers/STM32F7xx_HAL_Driver/Src/stm32f7xx_hal_tim.c:818:7
	ldr	r0, [r4, #36]
	.loc	7 818 52 is_stmt 0      @ ../Drivers/STM32F7xx_HAL_Driver/Src/stm32f7xx_hal_tim.c:818:52
	ldr	r1, __arm_cp.22_0
	str	r1, [r0, #60]
	.loc	7 821 53 is_stmt 1      @ ../Drivers/STM32F7xx_HAL_Driver/Src/stm32f7xx_hal_tim.c:821:53
	ldr	r1, __arm_cp.22_1
	.loc	7 821 7 is_stmt 0       @ ../Drivers/STM32F7xx_HAL_Driver/Src/stm32f7xx_hal_tim.c:821:7
	ldr	r0, [r4, #36]
	.loc	7 821 53                @ ../Drivers/STM32F7xx_HAL_Driver/Src/stm32f7xx_hal_tim.c:821:53
	str	r1, [r0, #76]
	.loc	7 824 86 is_stmt 1      @ ../Drivers/STM32F7xx_HAL_Driver/Src/stm32f7xx_hal_tim.c:824:86
	ldr	r1, [r4]
	.loc	7 824 24 is_stmt 0      @ ../Drivers/STM32F7xx_HAL_Driver/Src/stm32f7xx_hal_tim.c:824:24
	ldr	r0, [r4, #36]
	.loc	7 824 96                @ ../Drivers/STM32F7xx_HAL_Driver/Src/stm32f7xx_hal_tim.c:824:96
	add.w	r12, r1, #52
	.loc	7 824 7                 @ ../Drivers/STM32F7xx_HAL_Driver/Src/stm32f7xx_hal_tim.c:824:7
	mov	r1, r2
	mov	r2, r12
.Ltmp189:
	bl	HAL_DMA_Start_IT
.Ltmp190:
	.loc	7 827 7 is_stmt 1       @ ../Drivers/STM32F7xx_HAL_Driver/Src/stm32f7xx_hal_tim.c:827:7
	ldr	r0, [r4]
	ldr	r1, [r0, #12]
	orr	r1, r1, #512
	b	.LBB22_14
.Ltmp191:
.LBB22_11:
	@DEBUG_VALUE: HAL_TIM_OC_Start_DMA:htim <- $r4
	@DEBUG_VALUE: HAL_TIM_OC_Start_DMA:Length <- $r3
	@DEBUG_VALUE: HAL_TIM_OC_Start_DMA:pData <- $r2
	.loc	7 834 7                 @ ../Drivers/STM32F7xx_HAL_Driver/Src/stm32f7xx_hal_tim.c:834:7
	ldr	r0, [r4, #40]
	.loc	7 834 52 is_stmt 0      @ ../Drivers/STM32F7xx_HAL_Driver/Src/stm32f7xx_hal_tim.c:834:52
	ldr	r1, __arm_cp.22_0
	str	r1, [r0, #60]
	.loc	7 837 53 is_stmt 1      @ ../Drivers/STM32F7xx_HAL_Driver/Src/stm32f7xx_hal_tim.c:837:53
	ldr	r1, __arm_cp.22_1
	.loc	7 837 7 is_stmt 0       @ ../Drivers/STM32F7xx_HAL_Driver/Src/stm32f7xx_hal_tim.c:837:7
	ldr	r0, [r4, #40]
	.loc	7 837 53                @ ../Drivers/STM32F7xx_HAL_Driver/Src/stm32f7xx_hal_tim.c:837:53
	str	r1, [r0, #76]
	.loc	7 840 86 is_stmt 1      @ ../Drivers/STM32F7xx_HAL_Driver/Src/stm32f7xx_hal_tim.c:840:86
	ldr	r1, [r4]
	.loc	7 840 24 is_stmt 0      @ ../Drivers/STM32F7xx_HAL_Driver/Src/stm32f7xx_hal_tim.c:840:24
	ldr	r0, [r4, #40]
	.loc	7 840 96                @ ../Drivers/STM32F7xx_HAL_Driver/Src/stm32f7xx_hal_tim.c:840:96
	add.w	r12, r1, #56
	.loc	7 840 7                 @ ../Drivers/STM32F7xx_HAL_Driver/Src/stm32f7xx_hal_tim.c:840:7
	mov	r1, r2
	mov	r2, r12
.Ltmp192:
	bl	HAL_DMA_Start_IT
.Ltmp193:
	.loc	7 843 7 is_stmt 1       @ ../Drivers/STM32F7xx_HAL_Driver/Src/stm32f7xx_hal_tim.c:843:7
	ldr	r0, [r4]
	ldr	r1, [r0, #12]
	orr	r1, r1, #1024
	b	.LBB22_14
.Ltmp194:
.LBB22_12:
	@DEBUG_VALUE: HAL_TIM_OC_Start_DMA:htim <- $r4
	@DEBUG_VALUE: HAL_TIM_OC_Start_DMA:Length <- $r3
	@DEBUG_VALUE: HAL_TIM_OC_Start_DMA:pData <- $r2
	.loc	7 850 7                 @ ../Drivers/STM32F7xx_HAL_Driver/Src/stm32f7xx_hal_tim.c:850:7
	ldr	r0, [r4, #44]
	.loc	7 850 52 is_stmt 0      @ ../Drivers/STM32F7xx_HAL_Driver/Src/stm32f7xx_hal_tim.c:850:52
	ldr	r1, __arm_cp.22_0
	str	r1, [r0, #60]
	.loc	7 853 53 is_stmt 1      @ ../Drivers/STM32F7xx_HAL_Driver/Src/stm32f7xx_hal_tim.c:853:53
	ldr	r1, __arm_cp.22_1
	.loc	7 853 7 is_stmt 0       @ ../Drivers/STM32F7xx_HAL_Driver/Src/stm32f7xx_hal_tim.c:853:7
	ldr	r0, [r4, #44]
	.loc	7 853 53                @ ../Drivers/STM32F7xx_HAL_Driver/Src/stm32f7xx_hal_tim.c:853:53
	str	r1, [r0, #76]
	.loc	7 856 86 is_stmt 1      @ ../Drivers/STM32F7xx_HAL_Driver/Src/stm32f7xx_hal_tim.c:856:86
	ldr	r1, [r4]
	.loc	7 856 24 is_stmt 0      @ ../Drivers/STM32F7xx_HAL_Driver/Src/stm32f7xx_hal_tim.c:856:24
	ldr	r0, [r4, #44]
	.loc	7 856 96                @ ../Drivers/STM32F7xx_HAL_Driver/Src/stm32f7xx_hal_tim.c:856:96
	add.w	r12, r1, #60
	.loc	7 856 7                 @ ../Drivers/STM32F7xx_HAL_Driver/Src/stm32f7xx_hal_tim.c:856:7
	mov	r1, r2
	mov	r2, r12
.Ltmp195:
	bl	HAL_DMA_Start_IT
.Ltmp196:
	.loc	7 859 7 is_stmt 1       @ ../Drivers/STM32F7xx_HAL_Driver/Src/stm32f7xx_hal_tim.c:859:7
	ldr	r0, [r4]
	ldr	r1, [r0, #12]
	orr	r1, r1, #2048
	b	.LBB22_14
.Ltmp197:
.LBB22_13:
	@DEBUG_VALUE: HAL_TIM_OC_Start_DMA:htim <- $r4
	@DEBUG_VALUE: HAL_TIM_OC_Start_DMA:Length <- $r3
	@DEBUG_VALUE: HAL_TIM_OC_Start_DMA:pData <- $r2
	.loc	7 866 7                 @ ../Drivers/STM32F7xx_HAL_Driver/Src/stm32f7xx_hal_tim.c:866:7
	ldr	r0, [r4, #48]
	.loc	7 866 52 is_stmt 0      @ ../Drivers/STM32F7xx_HAL_Driver/Src/stm32f7xx_hal_tim.c:866:52
	ldr	r1, __arm_cp.22_0
	str	r1, [r0, #60]
	.loc	7 869 53 is_stmt 1      @ ../Drivers/STM32F7xx_HAL_Driver/Src/stm32f7xx_hal_tim.c:869:53
	ldr	r1, __arm_cp.22_1
	.loc	7 869 7 is_stmt 0       @ ../Drivers/STM32F7xx_HAL_Driver/Src/stm32f7xx_hal_tim.c:869:7
	ldr	r0, [r4, #48]
	.loc	7 869 53                @ ../Drivers/STM32F7xx_HAL_Driver/Src/stm32f7xx_hal_tim.c:869:53
	str	r1, [r0, #76]
	.loc	7 872 86 is_stmt 1      @ ../Drivers/STM32F7xx_HAL_Driver/Src/stm32f7xx_hal_tim.c:872:86
	ldr	r1, [r4]
	.loc	7 872 24 is_stmt 0      @ ../Drivers/STM32F7xx_HAL_Driver/Src/stm32f7xx_hal_tim.c:872:24
	ldr	r0, [r4, #48]
	.loc	7 872 96                @ ../Drivers/STM32F7xx_HAL_Driver/Src/stm32f7xx_hal_tim.c:872:96
	add.w	r12, r1, #64
	.loc	7 872 7                 @ ../Drivers/STM32F7xx_HAL_Driver/Src/stm32f7xx_hal_tim.c:872:7
	mov	r1, r2
	mov	r2, r12
.Ltmp198:
	bl	HAL_DMA_Start_IT
.Ltmp199:
	.loc	7 875 7 is_stmt 1       @ ../Drivers/STM32F7xx_HAL_Driver/Src/stm32f7xx_hal_tim.c:875:7
	ldr	r0, [r4]
	ldr	r1, [r0, #12]
	orr	r1, r1, #4096
.Ltmp200:
.LBB22_14:
	@DEBUG_VALUE: HAL_TIM_OC_Start_DMA:htim <- $r4
	.loc	7 0 7 is_stmt 0         @ ../Drivers/STM32F7xx_HAL_Driver/Src/stm32f7xx_hal_tim.c:0:7
	str	r1, [r0, #12]
.Ltmp201:
.LBB22_15:
	@DEBUG_VALUE: HAL_TIM_OC_Start_DMA:htim <- $r4
	.loc	7 884 3 is_stmt 1       @ ../Drivers/STM32F7xx_HAL_Driver/Src/stm32f7xx_hal_tim.c:884:3
	mov	r1, r5
	movs	r2, #1
	bl	TIM_CCxChannelCmd
.Ltmp202:
	.loc	7 886 6                 @ ../Drivers/STM32F7xx_HAL_Driver/Src/stm32f7xx_hal_tim.c:886:6
	ldr	r0, [r4]
	ldr	r2, __arm_cp.22_2
	orr	r1, r0, #1024
	cmp	r1, r2
.Ltmp203:
	.loc	7 889 5                 @ ../Drivers/STM32F7xx_HAL_Driver/Src/stm32f7xx_hal_tim.c:889:5
	ittt	eq
	ldreq	r1, [r0, #68]
	orreq	r1, r1, #32768
	streq	r1, [r0, #68]
.Ltmp204:
	.loc	7 893 3                 @ ../Drivers/STM32F7xx_HAL_Driver/Src/stm32f7xx_hal_tim.c:893:3
	ldr	r1, [r0]
	orr	r1, r1, #1
	str	r1, [r0]
	movs	r0, #0
.Ltmp205:
.LBB22_16:
	@DEBUG_VALUE: HAL_TIM_OC_Start_DMA:htim <- $r4
	.loc	7 897 1                 @ ../Drivers/STM32F7xx_HAL_Driver/Src/stm32f7xx_hal_tim.c:897:1
	uxtb	r0, r0
	pop	{r4, r5, r7, pc}
.Ltmp206:
.LBB22_17:
	@DEBUG_VALUE: HAL_TIM_OC_Start_DMA:htim <- $r4
	@DEBUG_VALUE: HAL_TIM_OC_Start_DMA:Length <- $r3
	@DEBUG_VALUE: HAL_TIM_OC_Start_DMA:pData <- $r2
	.loc	7 884 27                @ ../Drivers/STM32F7xx_HAL_Driver/Src/stm32f7xx_hal_tim.c:884:27
	ldr	r0, [r4]
	b	.LBB22_15
.Ltmp207:
	.p2align	2
@ %bb.18:
	.loc	7 0 27 is_stmt 0        @ ../Drivers/STM32F7xx_HAL_Driver/Src/stm32f7xx_hal_tim.c:0:27
__arm_cp.22_0:
	.long	TIM_DMADelayPulseCplt
.Lcpi_end17:
	.size	__arm_cp.22_0, .Lcpi_end17-__arm_cp.22_0
__arm_cp.22_1:
	.long	TIM_DMAError
.Lcpi_end18:
	.size	__arm_cp.22_1, .Lcpi_end18-__arm_cp.22_1
__arm_cp.22_2:
	.long	1073808384              @ 0x40010400
.Lcpi_end19:
	.size	__arm_cp.22_2, .Lcpi_end19-__arm_cp.22_2
.Lfunc_end22:
	.size	HAL_TIM_OC_Start_DMA, .Lfunc_end22-HAL_TIM_OC_Start_DMA
	.cfi_endproc
	.cantunwind
	.fnend
                                        @ -- End function
	.section	.text.TIM_DMADelayPulseCplt,"ax",%progbits
	.hidden	TIM_DMADelayPulseCplt   @ -- Begin function TIM_DMADelayPulseCplt
	.globl	TIM_DMADelayPulseCplt
	.p2align	1
	.type	TIM_DMADelayPulseCplt,%function
	.code	16                      @ @TIM_DMADelayPulseCplt
	.thumb_func
TIM_DMADelayPulseCplt:
.Lfunc_begin23:
	.loc	7 4631 0 is_stmt 1      @ ../Drivers/STM32F7xx_HAL_Driver/Src/stm32f7xx_hal_tim.c:4631:0
	.fnstart
	.cfi_startproc
@ %bb.0:
	.save	{r4, lr}
	push	{r4, lr}
	.cfi_def_cfa_offset 8
	.cfi_offset lr, -4
	.cfi_offset r4, -8
	@DEBUG_VALUE: TIM_DMADelayPulseCplt:hdma <- $r0
	@DEBUG_VALUE: TIM_DMADelayPulseCplt:hdma <- $r0
.Ltmp208:
	.loc	7 4632 80 prologue_end  @ ../Drivers/STM32F7xx_HAL_Driver/Src/stm32f7xx_hal_tim.c:4632:80
	ldr	r4, [r0, #56]
.Ltmp209:
	@DEBUG_VALUE: TIM_DMADelayPulseCplt:htim <- $r4
	.loc	7 0 80 is_stmt 0        @ ../Drivers/STM32F7xx_HAL_Driver/Src/stm32f7xx_hal_tim.c:0:80
	movs	r1, #1
	.loc	7 4634 14 is_stmt 1     @ ../Drivers/STM32F7xx_HAL_Driver/Src/stm32f7xx_hal_tim.c:4634:14
	strb.w	r1, [r4, #61]
.Ltmp210:
	.loc	7 4636 15               @ ../Drivers/STM32F7xx_HAL_Driver/Src/stm32f7xx_hal_tim.c:4636:15
	ldr	r2, [r4, #36]
.Ltmp211:
	.loc	7 4636 7 is_stmt 0      @ ../Drivers/STM32F7xx_HAL_Driver/Src/stm32f7xx_hal_tim.c:4636:7
	cmp	r2, r0
	beq	.LBB23_5
.Ltmp212:
@ %bb.1:
	@DEBUG_VALUE: TIM_DMADelayPulseCplt:htim <- $r4
	@DEBUG_VALUE: TIM_DMADelayPulseCplt:hdma <- $r0
	.loc	7 4640 20 is_stmt 1     @ ../Drivers/STM32F7xx_HAL_Driver/Src/stm32f7xx_hal_tim.c:4640:20
	ldr	r1, [r4, #40]
.Ltmp213:
	.loc	7 4640 12 is_stmt 0     @ ../Drivers/STM32F7xx_HAL_Driver/Src/stm32f7xx_hal_tim.c:4640:12
	cmp	r1, r0
	beq	.LBB23_6
.Ltmp214:
@ %bb.2:
	@DEBUG_VALUE: TIM_DMADelayPulseCplt:htim <- $r4
	@DEBUG_VALUE: TIM_DMADelayPulseCplt:hdma <- $r0
	.loc	7 4644 20 is_stmt 1     @ ../Drivers/STM32F7xx_HAL_Driver/Src/stm32f7xx_hal_tim.c:4644:20
	ldr	r1, [r4, #44]
.Ltmp215:
	.loc	7 4644 12 is_stmt 0     @ ../Drivers/STM32F7xx_HAL_Driver/Src/stm32f7xx_hal_tim.c:4644:12
	cmp	r1, r0
	beq	.LBB23_7
.Ltmp216:
@ %bb.3:
	@DEBUG_VALUE: TIM_DMADelayPulseCplt:htim <- $r4
	@DEBUG_VALUE: TIM_DMADelayPulseCplt:hdma <- $r0
	.loc	7 4648 20 is_stmt 1     @ ../Drivers/STM32F7xx_HAL_Driver/Src/stm32f7xx_hal_tim.c:4648:20
	ldr	r1, [r4, #48]
.Ltmp217:
	.loc	7 4648 12 is_stmt 0     @ ../Drivers/STM32F7xx_HAL_Driver/Src/stm32f7xx_hal_tim.c:4648:12
	cmp	r1, r0
	bne	.LBB23_9
.Ltmp218:
@ %bb.4:
	@DEBUG_VALUE: TIM_DMADelayPulseCplt:htim <- $r4
	@DEBUG_VALUE: TIM_DMADelayPulseCplt:hdma <- $r0
	.loc	7 4650 19 is_stmt 1     @ ../Drivers/STM32F7xx_HAL_Driver/Src/stm32f7xx_hal_tim.c:4650:19
	movs	r0, #8
.Ltmp219:
	.loc	7 0 19 is_stmt 0        @ ../Drivers/STM32F7xx_HAL_Driver/Src/stm32f7xx_hal_tim.c:0:19
	b	.LBB23_8
.Ltmp220:
.LBB23_5:
	@DEBUG_VALUE: TIM_DMADelayPulseCplt:htim <- $r4
	@DEBUG_VALUE: TIM_DMADelayPulseCplt:hdma <- $r0
	.loc	7 4638 19 is_stmt 1     @ ../Drivers/STM32F7xx_HAL_Driver/Src/stm32f7xx_hal_tim.c:4638:19
	strb	r1, [r4, #28]
	b	.LBB23_9
.Ltmp221:
.LBB23_6:
	@DEBUG_VALUE: TIM_DMADelayPulseCplt:htim <- $r4
	@DEBUG_VALUE: TIM_DMADelayPulseCplt:hdma <- $r0
	.loc	7 4642 19               @ ../Drivers/STM32F7xx_HAL_Driver/Src/stm32f7xx_hal_tim.c:4642:19
	movs	r0, #2
.Ltmp222:
	.loc	7 0 19 is_stmt 0        @ ../Drivers/STM32F7xx_HAL_Driver/Src/stm32f7xx_hal_tim.c:0:19
	b	.LBB23_8
.Ltmp223:
.LBB23_7:
	@DEBUG_VALUE: TIM_DMADelayPulseCplt:htim <- $r4
	@DEBUG_VALUE: TIM_DMADelayPulseCplt:hdma <- $r0
	.loc	7 4646 19 is_stmt 1     @ ../Drivers/STM32F7xx_HAL_Driver/Src/stm32f7xx_hal_tim.c:4646:19
	movs	r0, #4
.Ltmp224:
.LBB23_8:
	@DEBUG_VALUE: TIM_DMADelayPulseCplt:htim <- $r4
	.loc	7 0 19 is_stmt 0        @ ../Drivers/STM32F7xx_HAL_Driver/Src/stm32f7xx_hal_tim.c:0:19
	strb	r0, [r4, #28]
.Ltmp225:
.LBB23_9:
	@DEBUG_VALUE: TIM_DMADelayPulseCplt:htim <- $r4
	.loc	7 4653 3 is_stmt 1      @ ../Drivers/STM32F7xx_HAL_Driver/Src/stm32f7xx_hal_tim.c:4653:3
	mov	r0, r4
	bl	HAL_TIM_PWM_PulseFinishedCallback
	.loc	7 4655 17               @ ../Drivers/STM32F7xx_HAL_Driver/Src/stm32f7xx_hal_tim.c:4655:17
	movs	r0, #0
	strb	r0, [r4, #28]
	.loc	7 4656 1                @ ../Drivers/STM32F7xx_HAL_Driver/Src/stm32f7xx_hal_tim.c:4656:1
	pop	{r4, pc}
.Ltmp226:
.Lfunc_end23:
	.size	TIM_DMADelayPulseCplt, .Lfunc_end23-TIM_DMADelayPulseCplt
	.cfi_endproc
	.cantunwind
	.fnend
                                        @ -- End function
	.section	.text.HAL_TIM_OC_Stop_DMA,"ax",%progbits
	.hidden	HAL_TIM_OC_Stop_DMA     @ -- Begin function HAL_TIM_OC_Stop_DMA
	.globl	HAL_TIM_OC_Stop_DMA
	.p2align	2
	.type	HAL_TIM_OC_Stop_DMA,%function
	.code	16                      @ @HAL_TIM_OC_Stop_DMA
	.thumb_func
HAL_TIM_OC_Stop_DMA:
.Lfunc_begin24:
	.loc	7 912 0                 @ ../Drivers/STM32F7xx_HAL_Driver/Src/stm32f7xx_hal_tim.c:912:0
	.fnstart
	.cfi_startproc
@ %bb.0:
	.save	{r4, lr}
	push	{r4, lr}
	.cfi_def_cfa_offset 8
	.cfi_offset lr, -4
	.cfi_offset r4, -8
	@DEBUG_VALUE: HAL_TIM_OC_Stop_DMA:htim <- $r0
	@DEBUG_VALUE: HAL_TIM_OC_Stop_DMA:Channel <- $r1
	mov	r4, r0
	@DEBUG_VALUE: HAL_TIM_OC_Stop_DMA:Channel <- $r1
.Ltmp227:
	@DEBUG_VALUE: HAL_TIM_OC_Stop_DMA:htim <- $r4
	.loc	7 916 3 prologue_end    @ ../Drivers/STM32F7xx_HAL_Driver/Src/stm32f7xx_hal_tim.c:916:3
	ror.w	r0, r1, #2
	cmp	r0, #3
	bhi	.LBB24_4
.Ltmp228:
@ %bb.1:
	@DEBUG_VALUE: HAL_TIM_OC_Stop_DMA:htim <- $r4
	@DEBUG_VALUE: HAL_TIM_OC_Stop_DMA:Channel <- $r1
	.loc	7 0 3 is_stmt 0         @ ../Drivers/STM32F7xx_HAL_Driver/Src/stm32f7xx_hal_tim.c:0:3
.LCPI24_1:
	tbb	[pc, r0]
.Ltmp229:
@ %bb.2:
.LJTI24_0:
	.byte	(.LBB24_3-(.LCPI24_1+4))/2
	.byte	(.LBB24_5-(.LCPI24_1+4))/2
	.byte	(.LBB24_6-(.LCPI24_1+4))/2
	.byte	(.LBB24_7-(.LCPI24_1+4))/2
	.p2align	1
.LBB24_3:
.Ltmp230:
	@DEBUG_VALUE: HAL_TIM_OC_Stop_DMA:htim <- $r4
	@DEBUG_VALUE: HAL_TIM_OC_Stop_DMA:Channel <- $r1
	.loc	7 921 7 is_stmt 1       @ ../Drivers/STM32F7xx_HAL_Driver/Src/stm32f7xx_hal_tim.c:921:7
	ldr	r0, [r4]
	ldr	r2, [r0, #12]
	bic	r2, r2, #512
	b	.LBB24_8
.Ltmp231:
.LBB24_4:
	@DEBUG_VALUE: HAL_TIM_OC_Stop_DMA:htim <- $r4
	@DEBUG_VALUE: HAL_TIM_OC_Stop_DMA:Channel <- $r1
	.loc	7 951 27                @ ../Drivers/STM32F7xx_HAL_Driver/Src/stm32f7xx_hal_tim.c:951:27
	ldr	r0, [r4]
	b	.LBB24_9
.Ltmp232:
.LBB24_5:
	@DEBUG_VALUE: HAL_TIM_OC_Stop_DMA:htim <- $r4
	@DEBUG_VALUE: HAL_TIM_OC_Stop_DMA:Channel <- $r1
	.loc	7 928 7                 @ ../Drivers/STM32F7xx_HAL_Driver/Src/stm32f7xx_hal_tim.c:928:7
	ldr	r0, [r4]
	ldr	r2, [r0, #12]
	bic	r2, r2, #1024
	b	.LBB24_8
.Ltmp233:
.LBB24_6:
	@DEBUG_VALUE: HAL_TIM_OC_Stop_DMA:htim <- $r4
	@DEBUG_VALUE: HAL_TIM_OC_Stop_DMA:Channel <- $r1
	.loc	7 935 7                 @ ../Drivers/STM32F7xx_HAL_Driver/Src/stm32f7xx_hal_tim.c:935:7
	ldr	r0, [r4]
	ldr	r2, [r0, #12]
	bic	r2, r2, #2048
	b	.LBB24_8
.Ltmp234:
.LBB24_7:
	@DEBUG_VALUE: HAL_TIM_OC_Stop_DMA:htim <- $r4
	@DEBUG_VALUE: HAL_TIM_OC_Stop_DMA:Channel <- $r1
	.loc	7 942 7                 @ ../Drivers/STM32F7xx_HAL_Driver/Src/stm32f7xx_hal_tim.c:942:7
	ldr	r0, [r4]
	ldr	r2, [r0, #12]
	bic	r2, r2, #4096
.Ltmp235:
.LBB24_8:
	@DEBUG_VALUE: HAL_TIM_OC_Stop_DMA:htim <- $r4
	@DEBUG_VALUE: HAL_TIM_OC_Stop_DMA:Channel <- $r1
	.loc	7 0 7 is_stmt 0         @ ../Drivers/STM32F7xx_HAL_Driver/Src/stm32f7xx_hal_tim.c:0:7
	str	r2, [r0, #12]
.Ltmp236:
.LBB24_9:
	@DEBUG_VALUE: HAL_TIM_OC_Stop_DMA:htim <- $r4
	@DEBUG_VALUE: HAL_TIM_OC_Stop_DMA:Channel <- $r1
	.loc	7 951 3 is_stmt 1       @ ../Drivers/STM32F7xx_HAL_Driver/Src/stm32f7xx_hal_tim.c:951:3
	movs	r2, #0
	bl	TIM_CCxChannelCmd
.Ltmp237:
	.loc	7 953 6                 @ ../Drivers/STM32F7xx_HAL_Driver/Src/stm32f7xx_hal_tim.c:953:6
	ldr	r0, [r4]
	ldr	r2, __arm_cp.24_0
	orr	r1, r0, #1024
	cmp	r1, r2
	bne	.LBB24_12
.Ltmp238:
@ %bb.10:
	@DEBUG_VALUE: HAL_TIM_OC_Stop_DMA:htim <- $r4
	.loc	7 956 5                 @ ../Drivers/STM32F7xx_HAL_Driver/Src/stm32f7xx_hal_tim.c:956:5
	mov	r1, r0
	movw	r3, #4369
	ldr	r2, [r1, #32]!
.Ltmp239:
	.loc	7 956 5 is_stmt 0       @ ../Drivers/STM32F7xx_HAL_Driver/Src/stm32f7xx_hal_tim.c:956:5
	tst	r2, r3
	bne	.LBB24_13
.Ltmp240:
@ %bb.11:
	@DEBUG_VALUE: HAL_TIM_OC_Stop_DMA:htim <- $r4
	.loc	7 956 5                 @ ../Drivers/STM32F7xx_HAL_Driver/Src/stm32f7xx_hal_tim.c:956:5
	ldr	r2, [r1]
	movw	r3, #1092
.Ltmp241:
	.loc	7 956 5                 @ ../Drivers/STM32F7xx_HAL_Driver/Src/stm32f7xx_hal_tim.c:956:5
	tst	r2, r3
.Ltmp242:
	.loc	7 956 5                 @ ../Drivers/STM32F7xx_HAL_Driver/Src/stm32f7xx_hal_tim.c:956:5
	ittt	eq
	ldreq	r2, [r0, #68]
	biceq	r2, r2, #32768
	streq	r2, [r0, #68]
	b	.LBB24_13
.Ltmp243:
.LBB24_12:
	@DEBUG_VALUE: HAL_TIM_OC_Stop_DMA:htim <- $r4
	.loc	7 960 3 is_stmt 1       @ ../Drivers/STM32F7xx_HAL_Driver/Src/stm32f7xx_hal_tim.c:960:3
	add.w	r1, r0, #32
.Ltmp244:
.LBB24_13:
	@DEBUG_VALUE: HAL_TIM_OC_Stop_DMA:htim <- $r4
	ldr	r2, [r1]
	movw	r3, #4369
.Ltmp245:
	.loc	7 960 3 is_stmt 0       @ ../Drivers/STM32F7xx_HAL_Driver/Src/stm32f7xx_hal_tim.c:960:3
	tst	r2, r3
	bne	.LBB24_15
.Ltmp246:
@ %bb.14:
	@DEBUG_VALUE: HAL_TIM_OC_Stop_DMA:htim <- $r4
	.loc	7 960 3                 @ ../Drivers/STM32F7xx_HAL_Driver/Src/stm32f7xx_hal_tim.c:960:3
	ldr	r1, [r1]
	movw	r2, #1092
.Ltmp247:
	.loc	7 960 3                 @ ../Drivers/STM32F7xx_HAL_Driver/Src/stm32f7xx_hal_tim.c:960:3
	tst	r1, r2
.Ltmp248:
	.loc	7 960 3                 @ ../Drivers/STM32F7xx_HAL_Driver/Src/stm32f7xx_hal_tim.c:960:3
	ittt	eq
	ldreq	r1, [r0]
	biceq	r1, r1, #1
	streq	r1, [r0]
.Ltmp249:
.LBB24_15:
	@DEBUG_VALUE: HAL_TIM_OC_Stop_DMA:htim <- $r4
	.loc	7 963 15 is_stmt 1      @ ../Drivers/STM32F7xx_HAL_Driver/Src/stm32f7xx_hal_tim.c:963:15
	movs	r0, #1
	strb.w	r0, [r4, #61]
	.loc	7 966 3                 @ ../Drivers/STM32F7xx_HAL_Driver/Src/stm32f7xx_hal_tim.c:966:3
	movs	r0, #0
	pop	{r4, pc}
.Ltmp250:
	.p2align	2
@ %bb.16:
	.loc	7 0 3 is_stmt 0         @ ../Drivers/STM32F7xx_HAL_Driver/Src/stm32f7xx_hal_tim.c:0:3
__arm_cp.24_0:
	.long	1073808384              @ 0x40010400
.Lcpi_end20:
	.size	__arm_cp.24_0, .Lcpi_end20-__arm_cp.24_0
.Lfunc_end24:
	.size	HAL_TIM_OC_Stop_DMA, .Lfunc_end24-HAL_TIM_OC_Stop_DMA
	.cfi_endproc
	.cantunwind
	.fnend
                                        @ -- End function
	.section	.text.HAL_TIM_PWM_Init,"ax",%progbits
	.hidden	HAL_TIM_PWM_Init        @ -- Begin function HAL_TIM_PWM_Init
	.globl	HAL_TIM_PWM_Init
	.p2align	1
	.type	HAL_TIM_PWM_Init,%function
	.code	16                      @ @HAL_TIM_PWM_Init
	.thumb_func
HAL_TIM_PWM_Init:
.Lfunc_begin25:
	.loc	7 1002 0 is_stmt 1      @ ../Drivers/STM32F7xx_HAL_Driver/Src/stm32f7xx_hal_tim.c:1002:0
	.fnstart
	.cfi_startproc
@ %bb.0:
	.save	{r4, lr}
	push	{r4, lr}
	.cfi_def_cfa_offset 8
	.cfi_offset lr, -4
	.cfi_offset r4, -8
	@DEBUG_VALUE: HAL_TIM_PWM_Init:htim <- $r0
	mov	r4, r0
.Ltmp251:
	@DEBUG_VALUE: HAL_TIM_PWM_Init:htim <- $r4
	.loc	7 1004 6 prologue_end   @ ../Drivers/STM32F7xx_HAL_Driver/Src/stm32f7xx_hal_tim.c:1004:6
	cbz	r0, .LBB25_4
.Ltmp252:
@ %bb.1:
	@DEBUG_VALUE: HAL_TIM_PWM_Init:htim <- $r4
	.loc	7 1015 12               @ ../Drivers/STM32F7xx_HAL_Driver/Src/stm32f7xx_hal_tim.c:1015:12
	ldrb.w	r0, [r4, #61]
.Ltmp253:
	.loc	7 1015 6 is_stmt 0      @ ../Drivers/STM32F7xx_HAL_Driver/Src/stm32f7xx_hal_tim.c:1015:6
	cbnz	r0, .LBB25_3
.Ltmp254:
@ %bb.2:
	@DEBUG_VALUE: HAL_TIM_PWM_Init:htim <- $r4
	.loc	7 1018 16 is_stmt 1     @ ../Drivers/STM32F7xx_HAL_Driver/Src/stm32f7xx_hal_tim.c:1018:16
	movs	r0, #0
	strb.w	r0, [r4, #60]
	.loc	7 1020 5                @ ../Drivers/STM32F7xx_HAL_Driver/Src/stm32f7xx_hal_tim.c:1020:5
	mov	r0, r4
	bl	HAL_TIM_PWM_MspInit
.Ltmp255:
.LBB25_3:
	@DEBUG_VALUE: HAL_TIM_PWM_Init:htim <- $r4
	.loc	7 1024 14               @ ../Drivers/STM32F7xx_HAL_Driver/Src/stm32f7xx_hal_tim.c:1024:14
	movs	r0, #2
	.loc	7 1027 45               @ ../Drivers/STM32F7xx_HAL_Driver/Src/stm32f7xx_hal_tim.c:1027:45
	adds	r1, r4, #4
	.loc	7 1024 14               @ ../Drivers/STM32F7xx_HAL_Driver/Src/stm32f7xx_hal_tim.c:1024:14
	strb.w	r0, [r4, #61]
	.loc	7 1027 28               @ ../Drivers/STM32F7xx_HAL_Driver/Src/stm32f7xx_hal_tim.c:1027:28
	ldr	r0, [r4]
	.loc	7 1027 3 is_stmt 0      @ ../Drivers/STM32F7xx_HAL_Driver/Src/stm32f7xx_hal_tim.c:1027:3
	bl	TIM_Base_SetConfig
	.loc	7 1030 14 is_stmt 1     @ ../Drivers/STM32F7xx_HAL_Driver/Src/stm32f7xx_hal_tim.c:1030:14
	movs	r0, #1
	strb.w	r0, [r4, #61]
	movs	r0, #0
	.loc	7 1033 1                @ ../Drivers/STM32F7xx_HAL_Driver/Src/stm32f7xx_hal_tim.c:1033:1
	pop	{r4, pc}
.Ltmp256:
.LBB25_4:
	@DEBUG_VALUE: HAL_TIM_PWM_Init:htim <- $r4
	.loc	7 0 1 is_stmt 0         @ ../Drivers/STM32F7xx_HAL_Driver/Src/stm32f7xx_hal_tim.c:0:1
	movs	r0, #1
	.loc	7 1033 1                @ ../Drivers/STM32F7xx_HAL_Driver/Src/stm32f7xx_hal_tim.c:1033:1
	pop	{r4, pc}
.Ltmp257:
.Lfunc_end25:
	.size	HAL_TIM_PWM_Init, .Lfunc_end25-HAL_TIM_PWM_Init
	.cfi_endproc
	.cantunwind
	.fnend
                                        @ -- End function
	.section	.text.HAL_TIM_PWM_MspInit,"ax",%progbits
	.hidden	HAL_TIM_PWM_MspInit     @ -- Begin function HAL_TIM_PWM_MspInit
	.weak	HAL_TIM_PWM_MspInit
	.p2align	1
	.type	HAL_TIM_PWM_MspInit,%function
	.code	16                      @ @HAL_TIM_PWM_MspInit
	.thumb_func
HAL_TIM_PWM_MspInit:
.Lfunc_begin26:
	.loc	7 1070 0 is_stmt 1      @ ../Drivers/STM32F7xx_HAL_Driver/Src/stm32f7xx_hal_tim.c:1070:0
	.fnstart
	.cfi_startproc
@ %bb.0:
	@DEBUG_VALUE: HAL_TIM_PWM_MspInit:htim <- $r0
	.loc	7 1077 1 prologue_end   @ ../Drivers/STM32F7xx_HAL_Driver/Src/stm32f7xx_hal_tim.c:1077:1
	bx	lr
.Ltmp258:
.Lfunc_end26:
	.size	HAL_TIM_PWM_MspInit, .Lfunc_end26-HAL_TIM_PWM_MspInit
	.cfi_endproc
	.cantunwind
	.fnend
                                        @ -- End function
	.section	.text.HAL_TIM_PWM_DeInit,"ax",%progbits
	.hidden	HAL_TIM_PWM_DeInit      @ -- Begin function HAL_TIM_PWM_DeInit
	.globl	HAL_TIM_PWM_DeInit
	.p2align	1
	.type	HAL_TIM_PWM_DeInit,%function
	.code	16                      @ @HAL_TIM_PWM_DeInit
	.thumb_func
HAL_TIM_PWM_DeInit:
.Lfunc_begin27:
	.loc	7 1042 0                @ ../Drivers/STM32F7xx_HAL_Driver/Src/stm32f7xx_hal_tim.c:1042:0
	.fnstart
	.cfi_startproc
@ %bb.0:
	.save	{r4, lr}
	push	{r4, lr}
	.cfi_def_cfa_offset 8
	.cfi_offset lr, -4
	.cfi_offset r4, -8
	@DEBUG_VALUE: HAL_TIM_PWM_DeInit:htim <- $r0
	mov	r4, r0
.Ltmp259:
	@DEBUG_VALUE: HAL_TIM_PWM_DeInit:htim <- $r4
	.loc	7 1046 15 prologue_end  @ ../Drivers/STM32F7xx_HAL_Driver/Src/stm32f7xx_hal_tim.c:1046:15
	movs	r0, #2
.Ltmp260:
	.loc	7 1049 3                @ ../Drivers/STM32F7xx_HAL_Driver/Src/stm32f7xx_hal_tim.c:1049:3
	movw	r2, #4369
.Ltmp261:
	.loc	7 1046 15               @ ../Drivers/STM32F7xx_HAL_Driver/Src/stm32f7xx_hal_tim.c:1046:15
	strb.w	r0, [r4, #61]
.Ltmp262:
	.loc	7 1049 3                @ ../Drivers/STM32F7xx_HAL_Driver/Src/stm32f7xx_hal_tim.c:1049:3
	ldr	r0, [r4]
	ldr	r1, [r0, #32]
.Ltmp263:
	.loc	7 1049 3 is_stmt 0      @ ../Drivers/STM32F7xx_HAL_Driver/Src/stm32f7xx_hal_tim.c:1049:3
	tst	r1, r2
	bne	.LBB27_2
.Ltmp264:
@ %bb.1:
	@DEBUG_VALUE: HAL_TIM_PWM_DeInit:htim <- $r4
	.loc	7 1049 3                @ ../Drivers/STM32F7xx_HAL_Driver/Src/stm32f7xx_hal_tim.c:1049:3
	ldr	r1, [r0, #32]
	movw	r2, #1092
.Ltmp265:
	.loc	7 1049 3                @ ../Drivers/STM32F7xx_HAL_Driver/Src/stm32f7xx_hal_tim.c:1049:3
	tst	r1, r2
.Ltmp266:
	.loc	7 1049 3                @ ../Drivers/STM32F7xx_HAL_Driver/Src/stm32f7xx_hal_tim.c:1049:3
	ittt	eq
	ldreq	r1, [r0]
	biceq	r1, r1, #1
	streq	r1, [r0]
.Ltmp267:
.LBB27_2:
	@DEBUG_VALUE: HAL_TIM_PWM_DeInit:htim <- $r4
	.loc	7 1052 3 is_stmt 1      @ ../Drivers/STM32F7xx_HAL_Driver/Src/stm32f7xx_hal_tim.c:1052:3
	mov	r0, r4
	bl	HAL_TIM_PWM_MspDeInit
	movs	r0, #0
.Ltmp268:
	.loc	7 1058 3                @ ../Drivers/STM32F7xx_HAL_Driver/Src/stm32f7xx_hal_tim.c:1058:3
	strb.w	r0, [r4, #60]
.Ltmp269:
	.loc	7 1055 15               @ ../Drivers/STM32F7xx_HAL_Driver/Src/stm32f7xx_hal_tim.c:1055:15
	strb.w	r0, [r4, #61]
	.loc	7 1060 3                @ ../Drivers/STM32F7xx_HAL_Driver/Src/stm32f7xx_hal_tim.c:1060:3
	movs	r0, #0
	pop	{r4, pc}
.Ltmp270:
.Lfunc_end27:
	.size	HAL_TIM_PWM_DeInit, .Lfunc_end27-HAL_TIM_PWM_DeInit
	.cfi_endproc
	.cantunwind
	.fnend
                                        @ -- End function
	.section	.text.HAL_TIM_PWM_MspDeInit,"ax",%progbits
	.hidden	HAL_TIM_PWM_MspDeInit   @ -- Begin function HAL_TIM_PWM_MspDeInit
	.weak	HAL_TIM_PWM_MspDeInit
	.p2align	1
	.type	HAL_TIM_PWM_MspDeInit,%function
	.code	16                      @ @HAL_TIM_PWM_MspDeInit
	.thumb_func
HAL_TIM_PWM_MspDeInit:
.Lfunc_begin28:
	.loc	7 1086 0                @ ../Drivers/STM32F7xx_HAL_Driver/Src/stm32f7xx_hal_tim.c:1086:0
	.fnstart
	.cfi_startproc
@ %bb.0:
	@DEBUG_VALUE: HAL_TIM_PWM_MspDeInit:htim <- $r0
	.loc	7 1093 1 prologue_end   @ ../Drivers/STM32F7xx_HAL_Driver/Src/stm32f7xx_hal_tim.c:1093:1
	bx	lr
.Ltmp271:
.Lfunc_end28:
	.size	HAL_TIM_PWM_MspDeInit, .Lfunc_end28-HAL_TIM_PWM_MspDeInit
	.cfi_endproc
	.cantunwind
	.fnend
                                        @ -- End function
	.section	.text.HAL_TIM_PWM_Start,"ax",%progbits
	.hidden	HAL_TIM_PWM_Start       @ -- Begin function HAL_TIM_PWM_Start
	.globl	HAL_TIM_PWM_Start
	.p2align	2
	.type	HAL_TIM_PWM_Start,%function
	.code	16                      @ @HAL_TIM_PWM_Start
	.thumb_func
HAL_TIM_PWM_Start:
.Lfunc_begin29:
	.loc	7 1108 0                @ ../Drivers/STM32F7xx_HAL_Driver/Src/stm32f7xx_hal_tim.c:1108:0
	.fnstart
	.cfi_startproc
@ %bb.0:
	.save	{r4, lr}
	push	{r4, lr}
	.cfi_def_cfa_offset 8
	.cfi_offset lr, -4
	.cfi_offset r4, -8
	@DEBUG_VALUE: HAL_TIM_PWM_Start:htim <- $r0
	@DEBUG_VALUE: HAL_TIM_PWM_Start:Channel <- $r1
	mov	r4, r0
	@DEBUG_VALUE: HAL_TIM_PWM_Start:Channel <- $r1
.Ltmp272:
	@DEBUG_VALUE: HAL_TIM_PWM_Start:htim <- $r4
	.loc	7 1113 27 prologue_end  @ ../Drivers/STM32F7xx_HAL_Driver/Src/stm32f7xx_hal_tim.c:1113:27
	ldr	r0, [r0]
	@DEBUG_VALUE: HAL_TIM_PWM_Start:Channel <- $r1
	.loc	7 1113 3 is_stmt 0      @ ../Drivers/STM32F7xx_HAL_Driver/Src/stm32f7xx_hal_tim.c:1113:3
	movs	r2, #1
	bl	TIM_CCxChannelCmd
.Ltmp273:
	.loc	7 1115 6 is_stmt 1      @ ../Drivers/STM32F7xx_HAL_Driver/Src/stm32f7xx_hal_tim.c:1115:6
	ldr	r0, [r4]
	ldr	r2, __arm_cp.29_0
	orr	r1, r0, #1024
	cmp	r1, r2
.Ltmp274:
	.loc	7 1118 5                @ ../Drivers/STM32F7xx_HAL_Driver/Src/stm32f7xx_hal_tim.c:1118:5
	ittt	eq
	ldreq	r1, [r0, #68]
	orreq	r1, r1, #32768
	streq	r1, [r0, #68]
.Ltmp275:
	.loc	7 1122 3                @ ../Drivers/STM32F7xx_HAL_Driver/Src/stm32f7xx_hal_tim.c:1122:3
	ldr	r1, [r0]
	orr	r1, r1, #1
	str	r1, [r0]
	.loc	7 1125 3                @ ../Drivers/STM32F7xx_HAL_Driver/Src/stm32f7xx_hal_tim.c:1125:3
	movs	r0, #0
	pop	{r4, pc}
.Ltmp276:
	.p2align	2
@ %bb.1:
	.loc	7 0 3 is_stmt 0         @ ../Drivers/STM32F7xx_HAL_Driver/Src/stm32f7xx_hal_tim.c:0:3
__arm_cp.29_0:
	.long	1073808384              @ 0x40010400
.Lcpi_end21:
	.size	__arm_cp.29_0, .Lcpi_end21-__arm_cp.29_0
.Lfunc_end29:
	.size	HAL_TIM_PWM_Start, .Lfunc_end29-HAL_TIM_PWM_Start
	.cfi_endproc
	.cantunwind
	.fnend
                                        @ -- End function
	.section	.text.HAL_TIM_PWM_Stop,"ax",%progbits
	.hidden	HAL_TIM_PWM_Stop        @ -- Begin function HAL_TIM_PWM_Stop
	.globl	HAL_TIM_PWM_Stop
	.p2align	2
	.type	HAL_TIM_PWM_Stop,%function
	.code	16                      @ @HAL_TIM_PWM_Stop
	.thumb_func
HAL_TIM_PWM_Stop:
.Lfunc_begin30:
	.loc	7 1141 0 is_stmt 1      @ ../Drivers/STM32F7xx_HAL_Driver/Src/stm32f7xx_hal_tim.c:1141:0
	.fnstart
	.cfi_startproc
@ %bb.0:
	.save	{r4, lr}
	push	{r4, lr}
	.cfi_def_cfa_offset 8
	.cfi_offset lr, -4
	.cfi_offset r4, -8
	@DEBUG_VALUE: HAL_TIM_PWM_Stop:htim <- $r0
	@DEBUG_VALUE: HAL_TIM_PWM_Stop:Channel <- $r1
	mov	r4, r0
	@DEBUG_VALUE: HAL_TIM_PWM_Stop:Channel <- $r1
.Ltmp277:
	@DEBUG_VALUE: HAL_TIM_PWM_Stop:htim <- $r4
	.loc	7 1146 27 prologue_end  @ ../Drivers/STM32F7xx_HAL_Driver/Src/stm32f7xx_hal_tim.c:1146:27
	ldr	r0, [r0]
	@DEBUG_VALUE: HAL_TIM_PWM_Stop:Channel <- $r1
	.loc	7 1146 3 is_stmt 0      @ ../Drivers/STM32F7xx_HAL_Driver/Src/stm32f7xx_hal_tim.c:1146:3
	movs	r2, #0
	bl	TIM_CCxChannelCmd
.Ltmp278:
	.loc	7 1148 6 is_stmt 1      @ ../Drivers/STM32F7xx_HAL_Driver/Src/stm32f7xx_hal_tim.c:1148:6
	ldr	r0, [r4]
	ldr	r2, __arm_cp.30_0
	orr	r1, r0, #1024
	cmp	r1, r2
	bne	.LBB30_3
.Ltmp279:
@ %bb.1:
	@DEBUG_VALUE: HAL_TIM_PWM_Stop:htim <- $r4
	.loc	7 1151 5                @ ../Drivers/STM32F7xx_HAL_Driver/Src/stm32f7xx_hal_tim.c:1151:5
	mov	r1, r0
	movw	r3, #4369
	ldr	r2, [r1, #32]!
.Ltmp280:
	.loc	7 1151 5 is_stmt 0      @ ../Drivers/STM32F7xx_HAL_Driver/Src/stm32f7xx_hal_tim.c:1151:5
	tst	r2, r3
	bne	.LBB30_4
.Ltmp281:
@ %bb.2:
	@DEBUG_VALUE: HAL_TIM_PWM_Stop:htim <- $r4
	.loc	7 1151 5                @ ../Drivers/STM32F7xx_HAL_Driver/Src/stm32f7xx_hal_tim.c:1151:5
	ldr	r2, [r1]
	movw	r3, #1092
.Ltmp282:
	.loc	7 1151 5                @ ../Drivers/STM32F7xx_HAL_Driver/Src/stm32f7xx_hal_tim.c:1151:5
	tst	r2, r3
.Ltmp283:
	.loc	7 1151 5                @ ../Drivers/STM32F7xx_HAL_Driver/Src/stm32f7xx_hal_tim.c:1151:5
	ittt	eq
	ldreq	r2, [r0, #68]
	biceq	r2, r2, #32768
	streq	r2, [r0, #68]
	b	.LBB30_4
.Ltmp284:
.LBB30_3:
	@DEBUG_VALUE: HAL_TIM_PWM_Stop:htim <- $r4
	.loc	7 1155 3 is_stmt 1      @ ../Drivers/STM32F7xx_HAL_Driver/Src/stm32f7xx_hal_tim.c:1155:3
	add.w	r1, r0, #32
.Ltmp285:
.LBB30_4:
	@DEBUG_VALUE: HAL_TIM_PWM_Stop:htim <- $r4
	ldr	r2, [r1]
	movw	r3, #4369
.Ltmp286:
	.loc	7 1155 3 is_stmt 0      @ ../Drivers/STM32F7xx_HAL_Driver/Src/stm32f7xx_hal_tim.c:1155:3
	tst	r2, r3
	bne	.LBB30_6
.Ltmp287:
@ %bb.5:
	@DEBUG_VALUE: HAL_TIM_PWM_Stop:htim <- $r4
	.loc	7 1155 3                @ ../Drivers/STM32F7xx_HAL_Driver/Src/stm32f7xx_hal_tim.c:1155:3
	ldr	r1, [r1]
	movw	r2, #1092
.Ltmp288:
	.loc	7 1155 3                @ ../Drivers/STM32F7xx_HAL_Driver/Src/stm32f7xx_hal_tim.c:1155:3
	tst	r1, r2
.Ltmp289:
	.loc	7 1155 3                @ ../Drivers/STM32F7xx_HAL_Driver/Src/stm32f7xx_hal_tim.c:1155:3
	ittt	eq
	ldreq	r1, [r0]
	biceq	r1, r1, #1
	streq	r1, [r0]
.Ltmp290:
.LBB30_6:
	@DEBUG_VALUE: HAL_TIM_PWM_Stop:htim <- $r4
	.loc	7 1158 15 is_stmt 1     @ ../Drivers/STM32F7xx_HAL_Driver/Src/stm32f7xx_hal_tim.c:1158:15
	movs	r0, #1
	strb.w	r0, [r4, #61]
	.loc	7 1161 3                @ ../Drivers/STM32F7xx_HAL_Driver/Src/stm32f7xx_hal_tim.c:1161:3
	movs	r0, #0
	pop	{r4, pc}
.Ltmp291:
	.p2align	2
@ %bb.7:
	.loc	7 0 3 is_stmt 0         @ ../Drivers/STM32F7xx_HAL_Driver/Src/stm32f7xx_hal_tim.c:0:3
__arm_cp.30_0:
	.long	1073808384              @ 0x40010400
.Lcpi_end22:
	.size	__arm_cp.30_0, .Lcpi_end22-__arm_cp.30_0
.Lfunc_end30:
	.size	HAL_TIM_PWM_Stop, .Lfunc_end30-HAL_TIM_PWM_Stop
	.cfi_endproc
	.cantunwind
	.fnend
                                        @ -- End function
	.section	.text.HAL_TIM_PWM_Start_IT,"ax",%progbits
	.hidden	HAL_TIM_PWM_Start_IT    @ -- Begin function HAL_TIM_PWM_Start_IT
	.globl	HAL_TIM_PWM_Start_IT
	.p2align	2
	.type	HAL_TIM_PWM_Start_IT,%function
	.code	16                      @ @HAL_TIM_PWM_Start_IT
	.thumb_func
HAL_TIM_PWM_Start_IT:
.Lfunc_begin31:
	.loc	7 1177 0 is_stmt 1      @ ../Drivers/STM32F7xx_HAL_Driver/Src/stm32f7xx_hal_tim.c:1177:0
	.fnstart
	.cfi_startproc
@ %bb.0:
	.save	{r4, lr}
	push	{r4, lr}
	.cfi_def_cfa_offset 8
	.cfi_offset lr, -4
	.cfi_offset r4, -8
	@DEBUG_VALUE: HAL_TIM_PWM_Start_IT:htim <- $r0
	@DEBUG_VALUE: HAL_TIM_PWM_Start_IT:Channel <- $r1
	mov	r4, r0
	@DEBUG_VALUE: HAL_TIM_PWM_Start_IT:Channel <- $r1
.Ltmp292:
	@DEBUG_VALUE: HAL_TIM_PWM_Start_IT:htim <- $r4
	.loc	7 1181 3 prologue_end   @ ../Drivers/STM32F7xx_HAL_Driver/Src/stm32f7xx_hal_tim.c:1181:3
	ror.w	r0, r1, #2
	cmp	r0, #3
	bhi	.LBB31_4
.Ltmp293:
@ %bb.1:
	@DEBUG_VALUE: HAL_TIM_PWM_Start_IT:htim <- $r4
	@DEBUG_VALUE: HAL_TIM_PWM_Start_IT:Channel <- $r1
	.loc	7 0 3 is_stmt 0         @ ../Drivers/STM32F7xx_HAL_Driver/Src/stm32f7xx_hal_tim.c:0:3
.LCPI31_1:
	tbb	[pc, r0]
.Ltmp294:
@ %bb.2:
.LJTI31_0:
	.byte	(.LBB31_3-(.LCPI31_1+4))/2
	.byte	(.LBB31_5-(.LCPI31_1+4))/2
	.byte	(.LBB31_6-(.LCPI31_1+4))/2
	.byte	(.LBB31_7-(.LCPI31_1+4))/2
	.p2align	1
.LBB31_3:
.Ltmp295:
	@DEBUG_VALUE: HAL_TIM_PWM_Start_IT:htim <- $r4
	@DEBUG_VALUE: HAL_TIM_PWM_Start_IT:Channel <- $r1
	.loc	7 1186 7 is_stmt 1      @ ../Drivers/STM32F7xx_HAL_Driver/Src/stm32f7xx_hal_tim.c:1186:7
	ldr	r0, [r4]
	ldr	r2, [r0, #12]
	orr	r2, r2, #2
	b	.LBB31_8
.Ltmp296:
.LBB31_4:
	@DEBUG_VALUE: HAL_TIM_PWM_Start_IT:htim <- $r4
	@DEBUG_VALUE: HAL_TIM_PWM_Start_IT:Channel <- $r1
	.loc	7 1216 27               @ ../Drivers/STM32F7xx_HAL_Driver/Src/stm32f7xx_hal_tim.c:1216:27
	ldr	r0, [r4]
	b	.LBB31_9
.Ltmp297:
.LBB31_5:
	@DEBUG_VALUE: HAL_TIM_PWM_Start_IT:htim <- $r4
	@DEBUG_VALUE: HAL_TIM_PWM_Start_IT:Channel <- $r1
	.loc	7 1193 7                @ ../Drivers/STM32F7xx_HAL_Driver/Src/stm32f7xx_hal_tim.c:1193:7
	ldr	r0, [r4]
	ldr	r2, [r0, #12]
	orr	r2, r2, #4
	b	.LBB31_8
.Ltmp298:
.LBB31_6:
	@DEBUG_VALUE: HAL_TIM_PWM_Start_IT:htim <- $r4
	@DEBUG_VALUE: HAL_TIM_PWM_Start_IT:Channel <- $r1
	.loc	7 1200 7                @ ../Drivers/STM32F7xx_HAL_Driver/Src/stm32f7xx_hal_tim.c:1200:7
	ldr	r0, [r4]
	ldr	r2, [r0, #12]
	orr	r2, r2, #8
	b	.LBB31_8
.Ltmp299:
.LBB31_7:
	@DEBUG_VALUE: HAL_TIM_PWM_Start_IT:htim <- $r4
	@DEBUG_VALUE: HAL_TIM_PWM_Start_IT:Channel <- $r1
	.loc	7 1207 7                @ ../Drivers/STM32F7xx_HAL_Driver/Src/stm32f7xx_hal_tim.c:1207:7
	ldr	r0, [r4]
	ldr	r2, [r0, #12]
	orr	r2, r2, #16
.Ltmp300:
.LBB31_8:
	@DEBUG_VALUE: HAL_TIM_PWM_Start_IT:htim <- $r4
	@DEBUG_VALUE: HAL_TIM_PWM_Start_IT:Channel <- $r1
	.loc	7 0 7 is_stmt 0         @ ../Drivers/STM32F7xx_HAL_Driver/Src/stm32f7xx_hal_tim.c:0:7
	str	r2, [r0, #12]
.Ltmp301:
.LBB31_9:
	@DEBUG_VALUE: HAL_TIM_PWM_Start_IT:htim <- $r4
	@DEBUG_VALUE: HAL_TIM_PWM_Start_IT:Channel <- $r1
	.loc	7 1216 3 is_stmt 1      @ ../Drivers/STM32F7xx_HAL_Driver/Src/stm32f7xx_hal_tim.c:1216:3
	movs	r2, #1
	bl	TIM_CCxChannelCmd
.Ltmp302:
	.loc	7 1218 6                @ ../Drivers/STM32F7xx_HAL_Driver/Src/stm32f7xx_hal_tim.c:1218:6
	ldr	r0, [r4]
	ldr	r2, __arm_cp.31_0
	orr	r1, r0, #1024
	cmp	r1, r2
.Ltmp303:
	.loc	7 1221 5                @ ../Drivers/STM32F7xx_HAL_Driver/Src/stm32f7xx_hal_tim.c:1221:5
	ittt	eq
	ldreq	r1, [r0, #68]
	orreq	r1, r1, #32768
	streq	r1, [r0, #68]
.Ltmp304:
	.loc	7 1225 3                @ ../Drivers/STM32F7xx_HAL_Driver/Src/stm32f7xx_hal_tim.c:1225:3
	ldr	r1, [r0]
	orr	r1, r1, #1
	str	r1, [r0]
	.loc	7 1228 3                @ ../Drivers/STM32F7xx_HAL_Driver/Src/stm32f7xx_hal_tim.c:1228:3
	movs	r0, #0
	pop	{r4, pc}
.Ltmp305:
	.p2align	2
@ %bb.10:
	.loc	7 0 3 is_stmt 0         @ ../Drivers/STM32F7xx_HAL_Driver/Src/stm32f7xx_hal_tim.c:0:3
__arm_cp.31_0:
	.long	1073808384              @ 0x40010400
.Lcpi_end23:
	.size	__arm_cp.31_0, .Lcpi_end23-__arm_cp.31_0
.Lfunc_end31:
	.size	HAL_TIM_PWM_Start_IT, .Lfunc_end31-HAL_TIM_PWM_Start_IT
	.cfi_endproc
	.cantunwind
	.fnend
                                        @ -- End function
	.section	.text.HAL_TIM_PWM_Stop_IT,"ax",%progbits
	.hidden	HAL_TIM_PWM_Stop_IT     @ -- Begin function HAL_TIM_PWM_Stop_IT
	.globl	HAL_TIM_PWM_Stop_IT
	.p2align	2
	.type	HAL_TIM_PWM_Stop_IT,%function
	.code	16                      @ @HAL_TIM_PWM_Stop_IT
	.thumb_func
HAL_TIM_PWM_Stop_IT:
.Lfunc_begin32:
	.loc	7 1244 0 is_stmt 1      @ ../Drivers/STM32F7xx_HAL_Driver/Src/stm32f7xx_hal_tim.c:1244:0
	.fnstart
	.cfi_startproc
@ %bb.0:
	.save	{r4, lr}
	push	{r4, lr}
	.cfi_def_cfa_offset 8
	.cfi_offset lr, -4
	.cfi_offset r4, -8
	@DEBUG_VALUE: HAL_TIM_PWM_Stop_IT:htim <- $r0
	@DEBUG_VALUE: HAL_TIM_PWM_Stop_IT:Channel <- $r1
	mov	r4, r0
	@DEBUG_VALUE: HAL_TIM_PWM_Stop_IT:Channel <- $r1
.Ltmp306:
	@DEBUG_VALUE: HAL_TIM_PWM_Stop_IT:htim <- $r4
	.loc	7 1248 3 prologue_end   @ ../Drivers/STM32F7xx_HAL_Driver/Src/stm32f7xx_hal_tim.c:1248:3
	ror.w	r0, r1, #2
	cmp	r0, #3
	bhi	.LBB32_4
.Ltmp307:
@ %bb.1:
	@DEBUG_VALUE: HAL_TIM_PWM_Stop_IT:htim <- $r4
	@DEBUG_VALUE: HAL_TIM_PWM_Stop_IT:Channel <- $r1
	.loc	7 0 3 is_stmt 0         @ ../Drivers/STM32F7xx_HAL_Driver/Src/stm32f7xx_hal_tim.c:0:3
.LCPI32_1:
	tbb	[pc, r0]
.Ltmp308:
@ %bb.2:
.LJTI32_0:
	.byte	(.LBB32_3-(.LCPI32_1+4))/2
	.byte	(.LBB32_5-(.LCPI32_1+4))/2
	.byte	(.LBB32_6-(.LCPI32_1+4))/2
	.byte	(.LBB32_7-(.LCPI32_1+4))/2
	.p2align	1
.LBB32_3:
.Ltmp309:
	@DEBUG_VALUE: HAL_TIM_PWM_Stop_IT:htim <- $r4
	@DEBUG_VALUE: HAL_TIM_PWM_Stop_IT:Channel <- $r1
	.loc	7 1253 7 is_stmt 1      @ ../Drivers/STM32F7xx_HAL_Driver/Src/stm32f7xx_hal_tim.c:1253:7
	ldr	r0, [r4]
	ldr	r2, [r0, #12]
	bic	r2, r2, #2
	b	.LBB32_8
.Ltmp310:
.LBB32_4:
	@DEBUG_VALUE: HAL_TIM_PWM_Stop_IT:htim <- $r4
	@DEBUG_VALUE: HAL_TIM_PWM_Stop_IT:Channel <- $r1
	.loc	7 1283 27               @ ../Drivers/STM32F7xx_HAL_Driver/Src/stm32f7xx_hal_tim.c:1283:27
	ldr	r0, [r4]
	b	.LBB32_9
.Ltmp311:
.LBB32_5:
	@DEBUG_VALUE: HAL_TIM_PWM_Stop_IT:htim <- $r4
	@DEBUG_VALUE: HAL_TIM_PWM_Stop_IT:Channel <- $r1
	.loc	7 1260 7                @ ../Drivers/STM32F7xx_HAL_Driver/Src/stm32f7xx_hal_tim.c:1260:7
	ldr	r0, [r4]
	ldr	r2, [r0, #12]
	bic	r2, r2, #4
	b	.LBB32_8
.Ltmp312:
.LBB32_6:
	@DEBUG_VALUE: HAL_TIM_PWM_Stop_IT:htim <- $r4
	@DEBUG_VALUE: HAL_TIM_PWM_Stop_IT:Channel <- $r1
	.loc	7 1267 7                @ ../Drivers/STM32F7xx_HAL_Driver/Src/stm32f7xx_hal_tim.c:1267:7
	ldr	r0, [r4]
	ldr	r2, [r0, #12]
	bic	r2, r2, #8
	b	.LBB32_8
.Ltmp313:
.LBB32_7:
	@DEBUG_VALUE: HAL_TIM_PWM_Stop_IT:htim <- $r4
	@DEBUG_VALUE: HAL_TIM_PWM_Stop_IT:Channel <- $r1
	.loc	7 1274 7                @ ../Drivers/STM32F7xx_HAL_Driver/Src/stm32f7xx_hal_tim.c:1274:7
	ldr	r0, [r4]
	ldr	r2, [r0, #12]
	bic	r2, r2, #16
.Ltmp314:
.LBB32_8:
	@DEBUG_VALUE: HAL_TIM_PWM_Stop_IT:htim <- $r4
	@DEBUG_VALUE: HAL_TIM_PWM_Stop_IT:Channel <- $r1
	.loc	7 0 7 is_stmt 0         @ ../Drivers/STM32F7xx_HAL_Driver/Src/stm32f7xx_hal_tim.c:0:7
	str	r2, [r0, #12]
.Ltmp315:
.LBB32_9:
	@DEBUG_VALUE: HAL_TIM_PWM_Stop_IT:htim <- $r4
	@DEBUG_VALUE: HAL_TIM_PWM_Stop_IT:Channel <- $r1
	.loc	7 1283 3 is_stmt 1      @ ../Drivers/STM32F7xx_HAL_Driver/Src/stm32f7xx_hal_tim.c:1283:3
	movs	r2, #0
	bl	TIM_CCxChannelCmd
.Ltmp316:
	.loc	7 1285 6                @ ../Drivers/STM32F7xx_HAL_Driver/Src/stm32f7xx_hal_tim.c:1285:6
	ldr	r0, [r4]
	ldr	r2, __arm_cp.32_0
	orr	r1, r0, #1024
	cmp	r1, r2
	bne	.LBB32_12
.Ltmp317:
@ %bb.10:
	@DEBUG_VALUE: HAL_TIM_PWM_Stop_IT:htim <- $r4
	.loc	7 1288 5                @ ../Drivers/STM32F7xx_HAL_Driver/Src/stm32f7xx_hal_tim.c:1288:5
	mov	r1, r0
	movw	r3, #4369
	ldr	r2, [r1, #32]!
.Ltmp318:
	.loc	7 1288 5 is_stmt 0      @ ../Drivers/STM32F7xx_HAL_Driver/Src/stm32f7xx_hal_tim.c:1288:5
	tst	r2, r3
	bne	.LBB32_13
.Ltmp319:
@ %bb.11:
	@DEBUG_VALUE: HAL_TIM_PWM_Stop_IT:htim <- $r4
	.loc	7 1288 5                @ ../Drivers/STM32F7xx_HAL_Driver/Src/stm32f7xx_hal_tim.c:1288:5
	ldr	r2, [r1]
	movw	r3, #1092
.Ltmp320:
	.loc	7 1288 5                @ ../Drivers/STM32F7xx_HAL_Driver/Src/stm32f7xx_hal_tim.c:1288:5
	tst	r2, r3
.Ltmp321:
	.loc	7 1288 5                @ ../Drivers/STM32F7xx_HAL_Driver/Src/stm32f7xx_hal_tim.c:1288:5
	ittt	eq
	ldreq	r2, [r0, #68]
	biceq	r2, r2, #32768
	streq	r2, [r0, #68]
	b	.LBB32_13
.Ltmp322:
.LBB32_12:
	@DEBUG_VALUE: HAL_TIM_PWM_Stop_IT:htim <- $r4
	.loc	7 1292 3 is_stmt 1      @ ../Drivers/STM32F7xx_HAL_Driver/Src/stm32f7xx_hal_tim.c:1292:3
	add.w	r1, r0, #32
.Ltmp323:
.LBB32_13:
	@DEBUG_VALUE: HAL_TIM_PWM_Stop_IT:htim <- $r4
	ldr	r2, [r1]
	movw	r3, #4369
.Ltmp324:
	.loc	7 1292 3 is_stmt 0      @ ../Drivers/STM32F7xx_HAL_Driver/Src/stm32f7xx_hal_tim.c:1292:3
	tst	r2, r3
	bne	.LBB32_15
.Ltmp325:
@ %bb.14:
	@DEBUG_VALUE: HAL_TIM_PWM_Stop_IT:htim <- $r4
	.loc	7 1292 3                @ ../Drivers/STM32F7xx_HAL_Driver/Src/stm32f7xx_hal_tim.c:1292:3
	ldr	r1, [r1]
	movw	r2, #1092
.Ltmp326:
	.loc	7 1292 3                @ ../Drivers/STM32F7xx_HAL_Driver/Src/stm32f7xx_hal_tim.c:1292:3
	tst	r1, r2
.Ltmp327:
	.loc	7 1292 3                @ ../Drivers/STM32F7xx_HAL_Driver/Src/stm32f7xx_hal_tim.c:1292:3
	ittt	eq
	ldreq	r1, [r0]
	biceq	r1, r1, #1
	streq	r1, [r0]
.Ltmp328:
.LBB32_15:
	@DEBUG_VALUE: HAL_TIM_PWM_Stop_IT:htim <- $r4
	.loc	7 1295 3 is_stmt 1      @ ../Drivers/STM32F7xx_HAL_Driver/Src/stm32f7xx_hal_tim.c:1295:3
	movs	r0, #0
	pop	{r4, pc}
.Ltmp329:
	.p2align	2
@ %bb.16:
	.loc	7 0 3 is_stmt 0         @ ../Drivers/STM32F7xx_HAL_Driver/Src/stm32f7xx_hal_tim.c:0:3
__arm_cp.32_0:
	.long	1073808384              @ 0x40010400
.Lcpi_end24:
	.size	__arm_cp.32_0, .Lcpi_end24-__arm_cp.32_0
.Lfunc_end32:
	.size	HAL_TIM_PWM_Stop_IT, .Lfunc_end32-HAL_TIM_PWM_Stop_IT
	.cfi_endproc
	.cantunwind
	.fnend
                                        @ -- End function
	.section	.text.HAL_TIM_PWM_Start_DMA,"ax",%progbits
	.hidden	HAL_TIM_PWM_Start_DMA   @ -- Begin function HAL_TIM_PWM_Start_DMA
	.globl	HAL_TIM_PWM_Start_DMA
	.p2align	2
	.type	HAL_TIM_PWM_Start_DMA,%function
	.code	16                      @ @HAL_TIM_PWM_Start_DMA
	.thumb_func
HAL_TIM_PWM_Start_DMA:
.Lfunc_begin33:
	.loc	7 1313 0 is_stmt 1      @ ../Drivers/STM32F7xx_HAL_Driver/Src/stm32f7xx_hal_tim.c:1313:0
	.fnstart
	.cfi_startproc
@ %bb.0:
	.save	{r4, r5, r7, lr}
	push	{r4, r5, r7, lr}
	.cfi_def_cfa_offset 16
	.cfi_offset lr, -4
	.cfi_offset r7, -8
	.cfi_offset r5, -12
	.cfi_offset r4, -16
	@DEBUG_VALUE: HAL_TIM_PWM_Start_DMA:htim <- $r0
	@DEBUG_VALUE: HAL_TIM_PWM_Start_DMA:Channel <- $r1
	@DEBUG_VALUE: HAL_TIM_PWM_Start_DMA:pData <- $r2
	@DEBUG_VALUE: HAL_TIM_PWM_Start_DMA:Length <- $r3
	mov	r4, r0
	@DEBUG_VALUE: HAL_TIM_PWM_Start_DMA:Length <- $r3
	@DEBUG_VALUE: HAL_TIM_PWM_Start_DMA:pData <- $r2
.Ltmp330:
	@DEBUG_VALUE: HAL_TIM_PWM_Start_DMA:Channel <- $r5
	@DEBUG_VALUE: HAL_TIM_PWM_Start_DMA:htim <- $r4
	.loc	7 1317 13 prologue_end  @ ../Drivers/STM32F7xx_HAL_Driver/Src/stm32f7xx_hal_tim.c:1317:13
	ldrb.w	r0, [r0, #61]
	mov	r5, r1
.Ltmp331:
	.loc	7 1317 6 is_stmt 0      @ ../Drivers/STM32F7xx_HAL_Driver/Src/stm32f7xx_hal_tim.c:1317:6
	cmp	r0, #2
	bne	.LBB33_2
.Ltmp332:
@ %bb.1:
	@DEBUG_VALUE: HAL_TIM_PWM_Start_DMA:htim <- $r4
	@DEBUG_VALUE: HAL_TIM_PWM_Start_DMA:Length <- $r3
	@DEBUG_VALUE: HAL_TIM_PWM_Start_DMA:pData <- $r2
	.loc	7 0 6                   @ ../Drivers/STM32F7xx_HAL_Driver/Src/stm32f7xx_hal_tim.c:0:6
	movs	r0, #2
	b	.LBB33_16
.Ltmp333:
.LBB33_2:
	@DEBUG_VALUE: HAL_TIM_PWM_Start_DMA:htim <- $r4
	@DEBUG_VALUE: HAL_TIM_PWM_Start_DMA:Length <- $r3
	@DEBUG_VALUE: HAL_TIM_PWM_Start_DMA:pData <- $r2
	.loc	7 1321 18 is_stmt 1     @ ../Drivers/STM32F7xx_HAL_Driver/Src/stm32f7xx_hal_tim.c:1321:18
	ldrb.w	r0, [r4, #61]
.Ltmp334:
	.loc	7 1321 11 is_stmt 0     @ ../Drivers/STM32F7xx_HAL_Driver/Src/stm32f7xx_hal_tim.c:1321:11
	cmp	r0, #1
	bne	.LBB33_7
.Ltmp335:
@ %bb.3:
	@DEBUG_VALUE: HAL_TIM_PWM_Start_DMA:htim <- $r4
	@DEBUG_VALUE: HAL_TIM_PWM_Start_DMA:Length <- $r3
	@DEBUG_VALUE: HAL_TIM_PWM_Start_DMA:pData <- $r2
	.loc	7 1323 32 is_stmt 1     @ ../Drivers/STM32F7xx_HAL_Driver/Src/stm32f7xx_hal_tim.c:1323:32
	cbnz	r2, .LBB33_6
.Ltmp336:
@ %bb.4:
	@DEBUG_VALUE: HAL_TIM_PWM_Start_DMA:htim <- $r4
	@DEBUG_VALUE: HAL_TIM_PWM_Start_DMA:Length <- $r3
	@DEBUG_VALUE: HAL_TIM_PWM_Start_DMA:pData <- $r2
	cbz	r3, .LBB33_6
.Ltmp337:
@ %bb.5:
	@DEBUG_VALUE: HAL_TIM_PWM_Start_DMA:htim <- $r4
	@DEBUG_VALUE: HAL_TIM_PWM_Start_DMA:Length <- $r3
	@DEBUG_VALUE: HAL_TIM_PWM_Start_DMA:pData <- $r2
	.loc	7 0 32 is_stmt 0        @ ../Drivers/STM32F7xx_HAL_Driver/Src/stm32f7xx_hal_tim.c:0:32
	movs	r0, #1
	b	.LBB33_16
.Ltmp338:
.LBB33_6:
	@DEBUG_VALUE: HAL_TIM_PWM_Start_DMA:htim <- $r4
	@DEBUG_VALUE: HAL_TIM_PWM_Start_DMA:Length <- $r3
	@DEBUG_VALUE: HAL_TIM_PWM_Start_DMA:pData <- $r2
	.loc	7 1329 19 is_stmt 1     @ ../Drivers/STM32F7xx_HAL_Driver/Src/stm32f7xx_hal_tim.c:1329:19
	movs	r0, #2
	strb.w	r0, [r4, #61]
.Ltmp339:
.LBB33_7:
	@DEBUG_VALUE: HAL_TIM_PWM_Start_DMA:htim <- $r4
	@DEBUG_VALUE: HAL_TIM_PWM_Start_DMA:Length <- $r3
	@DEBUG_VALUE: HAL_TIM_PWM_Start_DMA:pData <- $r2
	.loc	7 1332 3                @ ../Drivers/STM32F7xx_HAL_Driver/Src/stm32f7xx_hal_tim.c:1332:3
	ror.w	r0, r5, #2
	cmp	r0, #3
	bhi	.LBB33_17
.Ltmp340:
@ %bb.8:
	@DEBUG_VALUE: HAL_TIM_PWM_Start_DMA:htim <- $r4
	@DEBUG_VALUE: HAL_TIM_PWM_Start_DMA:Length <- $r3
	@DEBUG_VALUE: HAL_TIM_PWM_Start_DMA:pData <- $r2
	@DEBUG_VALUE: HAL_TIM_PWM_Start_DMA:Length <- $r3
	.loc	7 0 3 is_stmt 0         @ ../Drivers/STM32F7xx_HAL_Driver/Src/stm32f7xx_hal_tim.c:0:3
.LCPI33_3:
	tbb	[pc, r0]
.Ltmp341:
@ %bb.9:
.LJTI33_0:
	.byte	(.LBB33_10-(.LCPI33_3+4))/2
	.byte	(.LBB33_11-(.LCPI33_3+4))/2
	.byte	(.LBB33_12-(.LCPI33_3+4))/2
	.byte	(.LBB33_13-(.LCPI33_3+4))/2
	.p2align	1
.LBB33_10:
.Ltmp342:
	@DEBUG_VALUE: HAL_TIM_PWM_Start_DMA:htim <- $r4
	@DEBUG_VALUE: HAL_TIM_PWM_Start_DMA:Length <- $r3
	@DEBUG_VALUE: HAL_TIM_PWM_Start_DMA:pData <- $r2
	.loc	7 1337 7 is_stmt 1      @ ../Drivers/STM32F7xx_HAL_Driver/Src/stm32f7xx_hal_tim.c:1337:7
	ldr	r0, [r4, #36]
	.loc	7 1337 52 is_stmt 0     @ ../Drivers/STM32F7xx_HAL_Driver/Src/stm32f7xx_hal_tim.c:1337:52
	ldr	r1, __arm_cp.33_0
	str	r1, [r0, #60]
	.loc	7 1340 53 is_stmt 1     @ ../Drivers/STM32F7xx_HAL_Driver/Src/stm32f7xx_hal_tim.c:1340:53
	ldr	r1, __arm_cp.33_1
	.loc	7 1340 7 is_stmt 0      @ ../Drivers/STM32F7xx_HAL_Driver/Src/stm32f7xx_hal_tim.c:1340:7
	ldr	r0, [r4, #36]
	.loc	7 1340 53               @ ../Drivers/STM32F7xx_HAL_Driver/Src/stm32f7xx_hal_tim.c:1340:53
	str	r1, [r0, #76]
	.loc	7 1343 86 is_stmt 1     @ ../Drivers/STM32F7xx_HAL_Driver/Src/stm32f7xx_hal_tim.c:1343:86
	ldr	r1, [r4]
	.loc	7 1343 24 is_stmt 0     @ ../Drivers/STM32F7xx_HAL_Driver/Src/stm32f7xx_hal_tim.c:1343:24
	ldr	r0, [r4, #36]
	.loc	7 1343 96               @ ../Drivers/STM32F7xx_HAL_Driver/Src/stm32f7xx_hal_tim.c:1343:96
	add.w	r12, r1, #52
	.loc	7 1343 7                @ ../Drivers/STM32F7xx_HAL_Driver/Src/stm32f7xx_hal_tim.c:1343:7
	mov	r1, r2
	mov	r2, r12
.Ltmp343:
	bl	HAL_DMA_Start_IT
.Ltmp344:
	.loc	7 1346 7 is_stmt 1      @ ../Drivers/STM32F7xx_HAL_Driver/Src/stm32f7xx_hal_tim.c:1346:7
	ldr	r0, [r4]
	ldr	r1, [r0, #12]
	orr	r1, r1, #512
	b	.LBB33_14
.Ltmp345:
.LBB33_11:
	@DEBUG_VALUE: HAL_TIM_PWM_Start_DMA:htim <- $r4
	@DEBUG_VALUE: HAL_TIM_PWM_Start_DMA:Length <- $r3
	@DEBUG_VALUE: HAL_TIM_PWM_Start_DMA:pData <- $r2
	.loc	7 1353 7                @ ../Drivers/STM32F7xx_HAL_Driver/Src/stm32f7xx_hal_tim.c:1353:7
	ldr	r0, [r4, #40]
	.loc	7 1353 52 is_stmt 0     @ ../Drivers/STM32F7xx_HAL_Driver/Src/stm32f7xx_hal_tim.c:1353:52
	ldr	r1, __arm_cp.33_0
	str	r1, [r0, #60]
	.loc	7 1356 53 is_stmt 1     @ ../Drivers/STM32F7xx_HAL_Driver/Src/stm32f7xx_hal_tim.c:1356:53
	ldr	r1, __arm_cp.33_1
	.loc	7 1356 7 is_stmt 0      @ ../Drivers/STM32F7xx_HAL_Driver/Src/stm32f7xx_hal_tim.c:1356:7
	ldr	r0, [r4, #40]
	.loc	7 1356 53               @ ../Drivers/STM32F7xx_HAL_Driver/Src/stm32f7xx_hal_tim.c:1356:53
	str	r1, [r0, #76]
	.loc	7 1359 86 is_stmt 1     @ ../Drivers/STM32F7xx_HAL_Driver/Src/stm32f7xx_hal_tim.c:1359:86
	ldr	r1, [r4]
	.loc	7 1359 24 is_stmt 0     @ ../Drivers/STM32F7xx_HAL_Driver/Src/stm32f7xx_hal_tim.c:1359:24
	ldr	r0, [r4, #40]
	.loc	7 1359 96               @ ../Drivers/STM32F7xx_HAL_Driver/Src/stm32f7xx_hal_tim.c:1359:96
	add.w	r12, r1, #56
	.loc	7 1359 7                @ ../Drivers/STM32F7xx_HAL_Driver/Src/stm32f7xx_hal_tim.c:1359:7
	mov	r1, r2
	mov	r2, r12
.Ltmp346:
	bl	HAL_DMA_Start_IT
.Ltmp347:
	.loc	7 1362 7 is_stmt 1      @ ../Drivers/STM32F7xx_HAL_Driver/Src/stm32f7xx_hal_tim.c:1362:7
	ldr	r0, [r4]
	ldr	r1, [r0, #12]
	orr	r1, r1, #1024
	b	.LBB33_14
.Ltmp348:
.LBB33_12:
	@DEBUG_VALUE: HAL_TIM_PWM_Start_DMA:htim <- $r4
	@DEBUG_VALUE: HAL_TIM_PWM_Start_DMA:Length <- $r3
	@DEBUG_VALUE: HAL_TIM_PWM_Start_DMA:pData <- $r2
	.loc	7 1369 7                @ ../Drivers/STM32F7xx_HAL_Driver/Src/stm32f7xx_hal_tim.c:1369:7
	ldr	r0, [r4, #44]
	.loc	7 1369 52 is_stmt 0     @ ../Drivers/STM32F7xx_HAL_Driver/Src/stm32f7xx_hal_tim.c:1369:52
	ldr	r1, __arm_cp.33_0
	str	r1, [r0, #60]
	.loc	7 1372 53 is_stmt 1     @ ../Drivers/STM32F7xx_HAL_Driver/Src/stm32f7xx_hal_tim.c:1372:53
	ldr	r1, __arm_cp.33_1
	.loc	7 1372 7 is_stmt 0      @ ../Drivers/STM32F7xx_HAL_Driver/Src/stm32f7xx_hal_tim.c:1372:7
	ldr	r0, [r4, #44]
	.loc	7 1372 53               @ ../Drivers/STM32F7xx_HAL_Driver/Src/stm32f7xx_hal_tim.c:1372:53
	str	r1, [r0, #76]
	.loc	7 1375 86 is_stmt 1     @ ../Drivers/STM32F7xx_HAL_Driver/Src/stm32f7xx_hal_tim.c:1375:86
	ldr	r1, [r4]
	.loc	7 1375 24 is_stmt 0     @ ../Drivers/STM32F7xx_HAL_Driver/Src/stm32f7xx_hal_tim.c:1375:24
	ldr	r0, [r4, #44]
	.loc	7 1375 96               @ ../Drivers/STM32F7xx_HAL_Driver/Src/stm32f7xx_hal_tim.c:1375:96
	add.w	r12, r1, #60
	.loc	7 1375 7                @ ../Drivers/STM32F7xx_HAL_Driver/Src/stm32f7xx_hal_tim.c:1375:7
	mov	r1, r2
	mov	r2, r12
.Ltmp349:
	bl	HAL_DMA_Start_IT
.Ltmp350:
	.loc	7 1378 7 is_stmt 1      @ ../Drivers/STM32F7xx_HAL_Driver/Src/stm32f7xx_hal_tim.c:1378:7
	ldr	r0, [r4]
	ldr	r1, [r0, #12]
	orr	r1, r1, #2048
	b	.LBB33_14
.Ltmp351:
.LBB33_13:
	@DEBUG_VALUE: HAL_TIM_PWM_Start_DMA:htim <- $r4
	@DEBUG_VALUE: HAL_TIM_PWM_Start_DMA:Length <- $r3
	@DEBUG_VALUE: HAL_TIM_PWM_Start_DMA:pData <- $r2
	.loc	7 1385 7                @ ../Drivers/STM32F7xx_HAL_Driver/Src/stm32f7xx_hal_tim.c:1385:7
	ldr	r0, [r4, #48]
	.loc	7 1385 52 is_stmt 0     @ ../Drivers/STM32F7xx_HAL_Driver/Src/stm32f7xx_hal_tim.c:1385:52
	ldr	r1, __arm_cp.33_0
	str	r1, [r0, #60]
	.loc	7 1388 53 is_stmt 1     @ ../Drivers/STM32F7xx_HAL_Driver/Src/stm32f7xx_hal_tim.c:1388:53
	ldr	r1, __arm_cp.33_1
	.loc	7 1388 7 is_stmt 0      @ ../Drivers/STM32F7xx_HAL_Driver/Src/stm32f7xx_hal_tim.c:1388:7
	ldr	r0, [r4, #48]
	.loc	7 1388 53               @ ../Drivers/STM32F7xx_HAL_Driver/Src/stm32f7xx_hal_tim.c:1388:53
	str	r1, [r0, #76]
	.loc	7 1391 86 is_stmt 1     @ ../Drivers/STM32F7xx_HAL_Driver/Src/stm32f7xx_hal_tim.c:1391:86
	ldr	r1, [r4]
	.loc	7 1391 24 is_stmt 0     @ ../Drivers/STM32F7xx_HAL_Driver/Src/stm32f7xx_hal_tim.c:1391:24
	ldr	r0, [r4, #48]
	.loc	7 1391 96               @ ../Drivers/STM32F7xx_HAL_Driver/Src/stm32f7xx_hal_tim.c:1391:96
	add.w	r12, r1, #64
	.loc	7 1391 7                @ ../Drivers/STM32F7xx_HAL_Driver/Src/stm32f7xx_hal_tim.c:1391:7
	mov	r1, r2
	mov	r2, r12
.Ltmp352:
	bl	HAL_DMA_Start_IT
.Ltmp353:
	.loc	7 1394 7 is_stmt 1      @ ../Drivers/STM32F7xx_HAL_Driver/Src/stm32f7xx_hal_tim.c:1394:7
	ldr	r0, [r4]
	ldr	r1, [r0, #12]
	orr	r1, r1, #4096
.Ltmp354:
.LBB33_14:
	@DEBUG_VALUE: HAL_TIM_PWM_Start_DMA:htim <- $r4
	.loc	7 0 7 is_stmt 0         @ ../Drivers/STM32F7xx_HAL_Driver/Src/stm32f7xx_hal_tim.c:0:7
	str	r1, [r0, #12]
.Ltmp355:
.LBB33_15:
	@DEBUG_VALUE: HAL_TIM_PWM_Start_DMA:htim <- $r4
	.loc	7 1403 3 is_stmt 1      @ ../Drivers/STM32F7xx_HAL_Driver/Src/stm32f7xx_hal_tim.c:1403:3
	mov	r1, r5
	movs	r2, #1
	bl	TIM_CCxChannelCmd
.Ltmp356:
	.loc	7 1405 6                @ ../Drivers/STM32F7xx_HAL_Driver/Src/stm32f7xx_hal_tim.c:1405:6
	ldr	r0, [r4]
	ldr	r2, __arm_cp.33_2
	orr	r1, r0, #1024
	cmp	r1, r2
.Ltmp357:
	.loc	7 1408 5                @ ../Drivers/STM32F7xx_HAL_Driver/Src/stm32f7xx_hal_tim.c:1408:5
	ittt	eq
	ldreq	r1, [r0, #68]
	orreq	r1, r1, #32768
	streq	r1, [r0, #68]
.Ltmp358:
	.loc	7 1412 3                @ ../Drivers/STM32F7xx_HAL_Driver/Src/stm32f7xx_hal_tim.c:1412:3
	ldr	r1, [r0]
	orr	r1, r1, #1
	str	r1, [r0]
	movs	r0, #0
.Ltmp359:
.LBB33_16:
	@DEBUG_VALUE: HAL_TIM_PWM_Start_DMA:htim <- $r4
	.loc	7 1416 1                @ ../Drivers/STM32F7xx_HAL_Driver/Src/stm32f7xx_hal_tim.c:1416:1
	uxtb	r0, r0
	pop	{r4, r5, r7, pc}
.Ltmp360:
.LBB33_17:
	@DEBUG_VALUE: HAL_TIM_PWM_Start_DMA:htim <- $r4
	@DEBUG_VALUE: HAL_TIM_PWM_Start_DMA:Length <- $r3
	@DEBUG_VALUE: HAL_TIM_PWM_Start_DMA:pData <- $r2
	.loc	7 1403 27               @ ../Drivers/STM32F7xx_HAL_Driver/Src/stm32f7xx_hal_tim.c:1403:27
	ldr	r0, [r4]
	b	.LBB33_15
.Ltmp361:
	.p2align	2
@ %bb.18:
	.loc	7 0 27 is_stmt 0        @ ../Drivers/STM32F7xx_HAL_Driver/Src/stm32f7xx_hal_tim.c:0:27
__arm_cp.33_0:
	.long	TIM_DMADelayPulseCplt
.Lcpi_end25:
	.size	__arm_cp.33_0, .Lcpi_end25-__arm_cp.33_0
__arm_cp.33_1:
	.long	TIM_DMAError
.Lcpi_end26:
	.size	__arm_cp.33_1, .Lcpi_end26-__arm_cp.33_1
__arm_cp.33_2:
	.long	1073808384              @ 0x40010400
.Lcpi_end27:
	.size	__arm_cp.33_2, .Lcpi_end27-__arm_cp.33_2
.Lfunc_end33:
	.size	HAL_TIM_PWM_Start_DMA, .Lfunc_end33-HAL_TIM_PWM_Start_DMA
	.cfi_endproc
	.cantunwind
	.fnend
                                        @ -- End function
	.section	.text.HAL_TIM_PWM_Stop_DMA,"ax",%progbits
	.hidden	HAL_TIM_PWM_Stop_DMA    @ -- Begin function HAL_TIM_PWM_Stop_DMA
	.globl	HAL_TIM_PWM_Stop_DMA
	.p2align	2
	.type	HAL_TIM_PWM_Stop_DMA,%function
	.code	16                      @ @HAL_TIM_PWM_Stop_DMA
	.thumb_func
HAL_TIM_PWM_Stop_DMA:
.Lfunc_begin34:
	.loc	7 1431 0 is_stmt 1      @ ../Drivers/STM32F7xx_HAL_Driver/Src/stm32f7xx_hal_tim.c:1431:0
	.fnstart
	.cfi_startproc
@ %bb.0:
	.save	{r4, lr}
	push	{r4, lr}
	.cfi_def_cfa_offset 8
	.cfi_offset lr, -4
	.cfi_offset r4, -8
	@DEBUG_VALUE: HAL_TIM_PWM_Stop_DMA:htim <- $r0
	@DEBUG_VALUE: HAL_TIM_PWM_Stop_DMA:Channel <- $r1
	mov	r4, r0
	@DEBUG_VALUE: HAL_TIM_PWM_Stop_DMA:Channel <- $r1
.Ltmp362:
	@DEBUG_VALUE: HAL_TIM_PWM_Stop_DMA:htim <- $r4
	.loc	7 1435 3 prologue_end   @ ../Drivers/STM32F7xx_HAL_Driver/Src/stm32f7xx_hal_tim.c:1435:3
	ror.w	r0, r1, #2
	cmp	r0, #3
	bhi	.LBB34_4
.Ltmp363:
@ %bb.1:
	@DEBUG_VALUE: HAL_TIM_PWM_Stop_DMA:htim <- $r4
	@DEBUG_VALUE: HAL_TIM_PWM_Stop_DMA:Channel <- $r1
	.loc	7 0 3 is_stmt 0         @ ../Drivers/STM32F7xx_HAL_Driver/Src/stm32f7xx_hal_tim.c:0:3
.LCPI34_1:
	tbb	[pc, r0]
.Ltmp364:
@ %bb.2:
.LJTI34_0:
	.byte	(.LBB34_3-(.LCPI34_1+4))/2
	.byte	(.LBB34_5-(.LCPI34_1+4))/2
	.byte	(.LBB34_6-(.LCPI34_1+4))/2
	.byte	(.LBB34_7-(.LCPI34_1+4))/2
	.p2align	1
.LBB34_3:
.Ltmp365:
	@DEBUG_VALUE: HAL_TIM_PWM_Stop_DMA:htim <- $r4
	@DEBUG_VALUE: HAL_TIM_PWM_Stop_DMA:Channel <- $r1
	.loc	7 1440 7 is_stmt 1      @ ../Drivers/STM32F7xx_HAL_Driver/Src/stm32f7xx_hal_tim.c:1440:7
	ldr	r0, [r4]
	ldr	r2, [r0, #12]
	bic	r2, r2, #512
	b	.LBB34_8
.Ltmp366:
.LBB34_4:
	@DEBUG_VALUE: HAL_TIM_PWM_Stop_DMA:htim <- $r4
	@DEBUG_VALUE: HAL_TIM_PWM_Stop_DMA:Channel <- $r1
	.loc	7 1470 27               @ ../Drivers/STM32F7xx_HAL_Driver/Src/stm32f7xx_hal_tim.c:1470:27
	ldr	r0, [r4]
	b	.LBB34_9
.Ltmp367:
.LBB34_5:
	@DEBUG_VALUE: HAL_TIM_PWM_Stop_DMA:htim <- $r4
	@DEBUG_VALUE: HAL_TIM_PWM_Stop_DMA:Channel <- $r1
	.loc	7 1447 7                @ ../Drivers/STM32F7xx_HAL_Driver/Src/stm32f7xx_hal_tim.c:1447:7
	ldr	r0, [r4]
	ldr	r2, [r0, #12]
	bic	r2, r2, #1024
	b	.LBB34_8
.Ltmp368:
.LBB34_6:
	@DEBUG_VALUE: HAL_TIM_PWM_Stop_DMA:htim <- $r4
	@DEBUG_VALUE: HAL_TIM_PWM_Stop_DMA:Channel <- $r1
	.loc	7 1454 7                @ ../Drivers/STM32F7xx_HAL_Driver/Src/stm32f7xx_hal_tim.c:1454:7
	ldr	r0, [r4]
	ldr	r2, [r0, #12]
	bic	r2, r2, #2048
	b	.LBB34_8
.Ltmp369:
.LBB34_7:
	@DEBUG_VALUE: HAL_TIM_PWM_Stop_DMA:htim <- $r4
	@DEBUG_VALUE: HAL_TIM_PWM_Stop_DMA:Channel <- $r1
	.loc	7 1461 7                @ ../Drivers/STM32F7xx_HAL_Driver/Src/stm32f7xx_hal_tim.c:1461:7
	ldr	r0, [r4]
	ldr	r2, [r0, #12]
	bic	r2, r2, #4096
.Ltmp370:
.LBB34_8:
	@DEBUG_VALUE: HAL_TIM_PWM_Stop_DMA:htim <- $r4
	@DEBUG_VALUE: HAL_TIM_PWM_Stop_DMA:Channel <- $r1
	.loc	7 0 7 is_stmt 0         @ ../Drivers/STM32F7xx_HAL_Driver/Src/stm32f7xx_hal_tim.c:0:7
	str	r2, [r0, #12]
.Ltmp371:
.LBB34_9:
	@DEBUG_VALUE: HAL_TIM_PWM_Stop_DMA:htim <- $r4
	@DEBUG_VALUE: HAL_TIM_PWM_Stop_DMA:Channel <- $r1
	.loc	7 1470 3 is_stmt 1      @ ../Drivers/STM32F7xx_HAL_Driver/Src/stm32f7xx_hal_tim.c:1470:3
	movs	r2, #0
	bl	TIM_CCxChannelCmd
.Ltmp372:
	.loc	7 1472 6                @ ../Drivers/STM32F7xx_HAL_Driver/Src/stm32f7xx_hal_tim.c:1472:6
	ldr	r0, [r4]
	ldr	r2, __arm_cp.34_0
	orr	r1, r0, #1024
	cmp	r1, r2
	bne	.LBB34_12
.Ltmp373:
@ %bb.10:
	@DEBUG_VALUE: HAL_TIM_PWM_Stop_DMA:htim <- $r4
	.loc	7 1475 5                @ ../Drivers/STM32F7xx_HAL_Driver/Src/stm32f7xx_hal_tim.c:1475:5
	mov	r1, r0
	movw	r3, #4369
	ldr	r2, [r1, #32]!
.Ltmp374:
	.loc	7 1475 5 is_stmt 0      @ ../Drivers/STM32F7xx_HAL_Driver/Src/stm32f7xx_hal_tim.c:1475:5
	tst	r2, r3
	bne	.LBB34_13
.Ltmp375:
@ %bb.11:
	@DEBUG_VALUE: HAL_TIM_PWM_Stop_DMA:htim <- $r4
	.loc	7 1475 5                @ ../Drivers/STM32F7xx_HAL_Driver/Src/stm32f7xx_hal_tim.c:1475:5
	ldr	r2, [r1]
	movw	r3, #1092
.Ltmp376:
	.loc	7 1475 5                @ ../Drivers/STM32F7xx_HAL_Driver/Src/stm32f7xx_hal_tim.c:1475:5
	tst	r2, r3
.Ltmp377:
	.loc	7 1475 5                @ ../Drivers/STM32F7xx_HAL_Driver/Src/stm32f7xx_hal_tim.c:1475:5
	ittt	eq
	ldreq	r2, [r0, #68]
	biceq	r2, r2, #32768
	streq	r2, [r0, #68]
	b	.LBB34_13
.Ltmp378:
.LBB34_12:
	@DEBUG_VALUE: HAL_TIM_PWM_Stop_DMA:htim <- $r4
	.loc	7 1479 3 is_stmt 1      @ ../Drivers/STM32F7xx_HAL_Driver/Src/stm32f7xx_hal_tim.c:1479:3
	add.w	r1, r0, #32
.Ltmp379:
.LBB34_13:
	@DEBUG_VALUE: HAL_TIM_PWM_Stop_DMA:htim <- $r4
	ldr	r2, [r1]
	movw	r3, #4369
.Ltmp380:
	.loc	7 1479 3 is_stmt 0      @ ../Drivers/STM32F7xx_HAL_Driver/Src/stm32f7xx_hal_tim.c:1479:3
	tst	r2, r3
	bne	.LBB34_15
.Ltmp381:
@ %bb.14:
	@DEBUG_VALUE: HAL_TIM_PWM_Stop_DMA:htim <- $r4
	.loc	7 1479 3                @ ../Drivers/STM32F7xx_HAL_Driver/Src/stm32f7xx_hal_tim.c:1479:3
	ldr	r1, [r1]
	movw	r2, #1092
.Ltmp382:
	.loc	7 1479 3                @ ../Drivers/STM32F7xx_HAL_Driver/Src/stm32f7xx_hal_tim.c:1479:3
	tst	r1, r2
.Ltmp383:
	.loc	7 1479 3                @ ../Drivers/STM32F7xx_HAL_Driver/Src/stm32f7xx_hal_tim.c:1479:3
	ittt	eq
	ldreq	r1, [r0]
	biceq	r1, r1, #1
	streq	r1, [r0]
.Ltmp384:
.LBB34_15:
	@DEBUG_VALUE: HAL_TIM_PWM_Stop_DMA:htim <- $r4
	.loc	7 1482 15 is_stmt 1     @ ../Drivers/STM32F7xx_HAL_Driver/Src/stm32f7xx_hal_tim.c:1482:15
	movs	r0, #1
	strb.w	r0, [r4, #61]
	.loc	7 1485 3                @ ../Drivers/STM32F7xx_HAL_Driver/Src/stm32f7xx_hal_tim.c:1485:3
	movs	r0, #0
	pop	{r4, pc}
.Ltmp385:
	.p2align	2
@ %bb.16:
	.loc	7 0 3 is_stmt 0         @ ../Drivers/STM32F7xx_HAL_Driver/Src/stm32f7xx_hal_tim.c:0:3
__arm_cp.34_0:
	.long	1073808384              @ 0x40010400
.Lcpi_end28:
	.size	__arm_cp.34_0, .Lcpi_end28-__arm_cp.34_0
.Lfunc_end34:
	.size	HAL_TIM_PWM_Stop_DMA, .Lfunc_end34-HAL_TIM_PWM_Stop_DMA
	.cfi_endproc
	.cantunwind
	.fnend
                                        @ -- End function
	.section	.text.HAL_TIM_IC_Init,"ax",%progbits
	.hidden	HAL_TIM_IC_Init         @ -- Begin function HAL_TIM_IC_Init
	.globl	HAL_TIM_IC_Init
	.p2align	1
	.type	HAL_TIM_IC_Init,%function
	.code	16                      @ @HAL_TIM_IC_Init
	.thumb_func
HAL_TIM_IC_Init:
.Lfunc_begin35:
	.loc	7 1521 0 is_stmt 1      @ ../Drivers/STM32F7xx_HAL_Driver/Src/stm32f7xx_hal_tim.c:1521:0
	.fnstart
	.cfi_startproc
@ %bb.0:
	.save	{r4, lr}
	push	{r4, lr}
	.cfi_def_cfa_offset 8
	.cfi_offset lr, -4
	.cfi_offset r4, -8
	@DEBUG_VALUE: HAL_TIM_IC_Init:htim <- $r0
	mov	r4, r0
.Ltmp386:
	@DEBUG_VALUE: HAL_TIM_IC_Init:htim <- $r4
	.loc	7 1523 6 prologue_end   @ ../Drivers/STM32F7xx_HAL_Driver/Src/stm32f7xx_hal_tim.c:1523:6
	cbz	r0, .LBB35_4
.Ltmp387:
@ %bb.1:
	@DEBUG_VALUE: HAL_TIM_IC_Init:htim <- $r4
	.loc	7 1534 12               @ ../Drivers/STM32F7xx_HAL_Driver/Src/stm32f7xx_hal_tim.c:1534:12
	ldrb.w	r0, [r4, #61]
.Ltmp388:
	.loc	7 1534 6 is_stmt 0      @ ../Drivers/STM32F7xx_HAL_Driver/Src/stm32f7xx_hal_tim.c:1534:6
	cbnz	r0, .LBB35_3
.Ltmp389:
@ %bb.2:
	@DEBUG_VALUE: HAL_TIM_IC_Init:htim <- $r4
	.loc	7 1537 16 is_stmt 1     @ ../Drivers/STM32F7xx_HAL_Driver/Src/stm32f7xx_hal_tim.c:1537:16
	movs	r0, #0
	strb.w	r0, [r4, #60]
	.loc	7 1539 5                @ ../Drivers/STM32F7xx_HAL_Driver/Src/stm32f7xx_hal_tim.c:1539:5
	mov	r0, r4
	bl	HAL_TIM_IC_MspInit
.Ltmp390:
.LBB35_3:
	@DEBUG_VALUE: HAL_TIM_IC_Init:htim <- $r4
	.loc	7 1543 14               @ ../Drivers/STM32F7xx_HAL_Driver/Src/stm32f7xx_hal_tim.c:1543:14
	movs	r0, #2
	.loc	7 1546 45               @ ../Drivers/STM32F7xx_HAL_Driver/Src/stm32f7xx_hal_tim.c:1546:45
	adds	r1, r4, #4
	.loc	7 1543 14               @ ../Drivers/STM32F7xx_HAL_Driver/Src/stm32f7xx_hal_tim.c:1543:14
	strb.w	r0, [r4, #61]
	.loc	7 1546 28               @ ../Drivers/STM32F7xx_HAL_Driver/Src/stm32f7xx_hal_tim.c:1546:28
	ldr	r0, [r4]
	.loc	7 1546 3 is_stmt 0      @ ../Drivers/STM32F7xx_HAL_Driver/Src/stm32f7xx_hal_tim.c:1546:3
	bl	TIM_Base_SetConfig
	.loc	7 1549 14 is_stmt 1     @ ../Drivers/STM32F7xx_HAL_Driver/Src/stm32f7xx_hal_tim.c:1549:14
	movs	r0, #1
	strb.w	r0, [r4, #61]
	movs	r0, #0
	.loc	7 1552 1                @ ../Drivers/STM32F7xx_HAL_Driver/Src/stm32f7xx_hal_tim.c:1552:1
	pop	{r4, pc}
.Ltmp391:
.LBB35_4:
	@DEBUG_VALUE: HAL_TIM_IC_Init:htim <- $r4
	.loc	7 0 1 is_stmt 0         @ ../Drivers/STM32F7xx_HAL_Driver/Src/stm32f7xx_hal_tim.c:0:1
	movs	r0, #1
	.loc	7 1552 1                @ ../Drivers/STM32F7xx_HAL_Driver/Src/stm32f7xx_hal_tim.c:1552:1
	pop	{r4, pc}
.Ltmp392:
.Lfunc_end35:
	.size	HAL_TIM_IC_Init, .Lfunc_end35-HAL_TIM_IC_Init
	.cfi_endproc
	.cantunwind
	.fnend
                                        @ -- End function
	.section	.text.HAL_TIM_IC_MspInit,"ax",%progbits
	.hidden	HAL_TIM_IC_MspInit      @ -- Begin function HAL_TIM_IC_MspInit
	.weak	HAL_TIM_IC_MspInit
	.p2align	1
	.type	HAL_TIM_IC_MspInit,%function
	.code	16                      @ @HAL_TIM_IC_MspInit
	.thumb_func
HAL_TIM_IC_MspInit:
.Lfunc_begin36:
	.loc	7 1589 0 is_stmt 1      @ ../Drivers/STM32F7xx_HAL_Driver/Src/stm32f7xx_hal_tim.c:1589:0
	.fnstart
	.cfi_startproc
@ %bb.0:
	@DEBUG_VALUE: HAL_TIM_IC_MspInit:htim <- $r0
	.loc	7 1596 1 prologue_end   @ ../Drivers/STM32F7xx_HAL_Driver/Src/stm32f7xx_hal_tim.c:1596:1
	bx	lr
.Ltmp393:
.Lfunc_end36:
	.size	HAL_TIM_IC_MspInit, .Lfunc_end36-HAL_TIM_IC_MspInit
	.cfi_endproc
	.cantunwind
	.fnend
                                        @ -- End function
	.section	.text.HAL_TIM_IC_DeInit,"ax",%progbits
	.hidden	HAL_TIM_IC_DeInit       @ -- Begin function HAL_TIM_IC_DeInit
	.globl	HAL_TIM_IC_DeInit
	.p2align	1
	.type	HAL_TIM_IC_DeInit,%function
	.code	16                      @ @HAL_TIM_IC_DeInit
	.thumb_func
HAL_TIM_IC_DeInit:
.Lfunc_begin37:
	.loc	7 1561 0                @ ../Drivers/STM32F7xx_HAL_Driver/Src/stm32f7xx_hal_tim.c:1561:0
	.fnstart
	.cfi_startproc
@ %bb.0:
	.save	{r4, lr}
	push	{r4, lr}
	.cfi_def_cfa_offset 8
	.cfi_offset lr, -4
	.cfi_offset r4, -8
	@DEBUG_VALUE: HAL_TIM_IC_DeInit:htim <- $r0
	mov	r4, r0
.Ltmp394:
	@DEBUG_VALUE: HAL_TIM_IC_DeInit:htim <- $r4
	.loc	7 1565 15 prologue_end  @ ../Drivers/STM32F7xx_HAL_Driver/Src/stm32f7xx_hal_tim.c:1565:15
	movs	r0, #2
.Ltmp395:
	.loc	7 1568 3                @ ../Drivers/STM32F7xx_HAL_Driver/Src/stm32f7xx_hal_tim.c:1568:3
	movw	r2, #4369
.Ltmp396:
	.loc	7 1565 15               @ ../Drivers/STM32F7xx_HAL_Driver/Src/stm32f7xx_hal_tim.c:1565:15
	strb.w	r0, [r4, #61]
.Ltmp397:
	.loc	7 1568 3                @ ../Drivers/STM32F7xx_HAL_Driver/Src/stm32f7xx_hal_tim.c:1568:3
	ldr	r0, [r4]
	ldr	r1, [r0, #32]
.Ltmp398:
	.loc	7 1568 3 is_stmt 0      @ ../Drivers/STM32F7xx_HAL_Driver/Src/stm32f7xx_hal_tim.c:1568:3
	tst	r1, r2
	bne	.LBB37_2
.Ltmp399:
@ %bb.1:
	@DEBUG_VALUE: HAL_TIM_IC_DeInit:htim <- $r4
	.loc	7 1568 3                @ ../Drivers/STM32F7xx_HAL_Driver/Src/stm32f7xx_hal_tim.c:1568:3
	ldr	r1, [r0, #32]
	movw	r2, #1092
.Ltmp400:
	.loc	7 1568 3                @ ../Drivers/STM32F7xx_HAL_Driver/Src/stm32f7xx_hal_tim.c:1568:3
	tst	r1, r2
.Ltmp401:
	.loc	7 1568 3                @ ../Drivers/STM32F7xx_HAL_Driver/Src/stm32f7xx_hal_tim.c:1568:3
	ittt	eq
	ldreq	r1, [r0]
	biceq	r1, r1, #1
	streq	r1, [r0]
.Ltmp402:
.LBB37_2:
	@DEBUG_VALUE: HAL_TIM_IC_DeInit:htim <- $r4
	.loc	7 1571 3 is_stmt 1      @ ../Drivers/STM32F7xx_HAL_Driver/Src/stm32f7xx_hal_tim.c:1571:3
	mov	r0, r4
	bl	HAL_TIM_IC_MspDeInit
	movs	r0, #0
.Ltmp403:
	.loc	7 1577 3                @ ../Drivers/STM32F7xx_HAL_Driver/Src/stm32f7xx_hal_tim.c:1577:3
	strb.w	r0, [r4, #60]
.Ltmp404:
	.loc	7 1574 15               @ ../Drivers/STM32F7xx_HAL_Driver/Src/stm32f7xx_hal_tim.c:1574:15
	strb.w	r0, [r4, #61]
	.loc	7 1579 3                @ ../Drivers/STM32F7xx_HAL_Driver/Src/stm32f7xx_hal_tim.c:1579:3
	movs	r0, #0
	pop	{r4, pc}
.Ltmp405:
.Lfunc_end37:
	.size	HAL_TIM_IC_DeInit, .Lfunc_end37-HAL_TIM_IC_DeInit
	.cfi_endproc
	.cantunwind
	.fnend
                                        @ -- End function
	.section	.text.HAL_TIM_IC_MspDeInit,"ax",%progbits
	.hidden	HAL_TIM_IC_MspDeInit    @ -- Begin function HAL_TIM_IC_MspDeInit
	.weak	HAL_TIM_IC_MspDeInit
	.p2align	1
	.type	HAL_TIM_IC_MspDeInit,%function
	.code	16                      @ @HAL_TIM_IC_MspDeInit
	.thumb_func
HAL_TIM_IC_MspDeInit:
.Lfunc_begin38:
	.loc	7 1605 0                @ ../Drivers/STM32F7xx_HAL_Driver/Src/stm32f7xx_hal_tim.c:1605:0
	.fnstart
	.cfi_startproc
@ %bb.0:
	@DEBUG_VALUE: HAL_TIM_IC_MspDeInit:htim <- $r0
	.loc	7 1612 1 prologue_end   @ ../Drivers/STM32F7xx_HAL_Driver/Src/stm32f7xx_hal_tim.c:1612:1
	bx	lr
.Ltmp406:
.Lfunc_end38:
	.size	HAL_TIM_IC_MspDeInit, .Lfunc_end38-HAL_TIM_IC_MspDeInit
	.cfi_endproc
	.cantunwind
	.fnend
                                        @ -- End function
	.section	.text.HAL_TIM_IC_Start,"ax",%progbits
	.hidden	HAL_TIM_IC_Start        @ -- Begin function HAL_TIM_IC_Start
	.globl	HAL_TIM_IC_Start
	.p2align	1
	.type	HAL_TIM_IC_Start,%function
	.code	16                      @ @HAL_TIM_IC_Start
	.thumb_func
HAL_TIM_IC_Start:
.Lfunc_begin39:
	.loc	7 1627 0                @ ../Drivers/STM32F7xx_HAL_Driver/Src/stm32f7xx_hal_tim.c:1627:0
	.fnstart
	.cfi_startproc
@ %bb.0:
	.save	{r4, lr}
	push	{r4, lr}
	.cfi_def_cfa_offset 8
	.cfi_offset lr, -4
	.cfi_offset r4, -8
	@DEBUG_VALUE: HAL_TIM_IC_Start:htim <- $r0
	@DEBUG_VALUE: HAL_TIM_IC_Start:Channel <- $r1
	mov	r4, r0
	@DEBUG_VALUE: HAL_TIM_IC_Start:Channel <- $r1
.Ltmp407:
	@DEBUG_VALUE: HAL_TIM_IC_Start:htim <- $r4
	.loc	7 1632 27 prologue_end  @ ../Drivers/STM32F7xx_HAL_Driver/Src/stm32f7xx_hal_tim.c:1632:27
	ldr	r0, [r0]
	@DEBUG_VALUE: HAL_TIM_IC_Start:Channel <- $r1
	.loc	7 1632 3 is_stmt 0      @ ../Drivers/STM32F7xx_HAL_Driver/Src/stm32f7xx_hal_tim.c:1632:3
	movs	r2, #1
	bl	TIM_CCxChannelCmd
.Ltmp408:
	.loc	7 1635 3 is_stmt 1      @ ../Drivers/STM32F7xx_HAL_Driver/Src/stm32f7xx_hal_tim.c:1635:3
	ldr	r0, [r4]
	ldr	r1, [r0]
	orr	r1, r1, #1
	str	r1, [r0]
	.loc	7 1638 3                @ ../Drivers/STM32F7xx_HAL_Driver/Src/stm32f7xx_hal_tim.c:1638:3
	movs	r0, #0
	pop	{r4, pc}
.Ltmp409:
.Lfunc_end39:
	.size	HAL_TIM_IC_Start, .Lfunc_end39-HAL_TIM_IC_Start
	.cfi_endproc
	.cantunwind
	.fnend
                                        @ -- End function
	.section	.text.HAL_TIM_IC_Stop,"ax",%progbits
	.hidden	HAL_TIM_IC_Stop         @ -- Begin function HAL_TIM_IC_Stop
	.globl	HAL_TIM_IC_Stop
	.p2align	1
	.type	HAL_TIM_IC_Stop,%function
	.code	16                      @ @HAL_TIM_IC_Stop
	.thumb_func
HAL_TIM_IC_Stop:
.Lfunc_begin40:
	.loc	7 1654 0                @ ../Drivers/STM32F7xx_HAL_Driver/Src/stm32f7xx_hal_tim.c:1654:0
	.fnstart
	.cfi_startproc
@ %bb.0:
	.save	{r4, lr}
	push	{r4, lr}
	.cfi_def_cfa_offset 8
	.cfi_offset lr, -4
	.cfi_offset r4, -8
	@DEBUG_VALUE: HAL_TIM_IC_Stop:htim <- $r0
	@DEBUG_VALUE: HAL_TIM_IC_Stop:Channel <- $r1
	mov	r4, r0
	@DEBUG_VALUE: HAL_TIM_IC_Stop:Channel <- $r1
.Ltmp410:
	@DEBUG_VALUE: HAL_TIM_IC_Stop:htim <- $r4
	.loc	7 1659 27 prologue_end  @ ../Drivers/STM32F7xx_HAL_Driver/Src/stm32f7xx_hal_tim.c:1659:27
	ldr	r0, [r0]
	@DEBUG_VALUE: HAL_TIM_IC_Stop:Channel <- $r1
	.loc	7 1659 3 is_stmt 0      @ ../Drivers/STM32F7xx_HAL_Driver/Src/stm32f7xx_hal_tim.c:1659:3
	movs	r2, #0
	bl	TIM_CCxChannelCmd
.Ltmp411:
	.loc	7 1662 3 is_stmt 1      @ ../Drivers/STM32F7xx_HAL_Driver/Src/stm32f7xx_hal_tim.c:1662:3
	ldr	r0, [r4]
	movw	r2, #4369
	ldr	r1, [r0, #32]
.Ltmp412:
	.loc	7 1662 3 is_stmt 0      @ ../Drivers/STM32F7xx_HAL_Driver/Src/stm32f7xx_hal_tim.c:1662:3
	tst	r1, r2
	bne	.LBB40_2
.Ltmp413:
@ %bb.1:
	@DEBUG_VALUE: HAL_TIM_IC_Stop:htim <- $r4
	.loc	7 1662 3                @ ../Drivers/STM32F7xx_HAL_Driver/Src/stm32f7xx_hal_tim.c:1662:3
	ldr	r1, [r0, #32]
	movw	r2, #1092
.Ltmp414:
	.loc	7 1662 3                @ ../Drivers/STM32F7xx_HAL_Driver/Src/stm32f7xx_hal_tim.c:1662:3
	tst	r1, r2
.Ltmp415:
	.loc	7 1662 3                @ ../Drivers/STM32F7xx_HAL_Driver/Src/stm32f7xx_hal_tim.c:1662:3
	ittt	eq
	ldreq	r1, [r0]
	biceq	r1, r1, #1
	streq	r1, [r0]
.Ltmp416:
.LBB40_2:
	@DEBUG_VALUE: HAL_TIM_IC_Stop:htim <- $r4
	.loc	7 1665 3 is_stmt 1      @ ../Drivers/STM32F7xx_HAL_Driver/Src/stm32f7xx_hal_tim.c:1665:3
	movs	r0, #0
	pop	{r4, pc}
.Ltmp417:
.Lfunc_end40:
	.size	HAL_TIM_IC_Stop, .Lfunc_end40-HAL_TIM_IC_Stop
	.cfi_endproc
	.cantunwind
	.fnend
                                        @ -- End function
	.section	.text.HAL_TIM_IC_Start_IT,"ax",%progbits
	.hidden	HAL_TIM_IC_Start_IT     @ -- Begin function HAL_TIM_IC_Start_IT
	.globl	HAL_TIM_IC_Start_IT
	.p2align	2
	.type	HAL_TIM_IC_Start_IT,%function
	.code	16                      @ @HAL_TIM_IC_Start_IT
	.thumb_func
HAL_TIM_IC_Start_IT:
.Lfunc_begin41:
	.loc	7 1681 0                @ ../Drivers/STM32F7xx_HAL_Driver/Src/stm32f7xx_hal_tim.c:1681:0
	.fnstart
	.cfi_startproc
@ %bb.0:
	.save	{r4, lr}
	push	{r4, lr}
	.cfi_def_cfa_offset 8
	.cfi_offset lr, -4
	.cfi_offset r4, -8
	@DEBUG_VALUE: HAL_TIM_IC_Start_IT:htim <- $r0
	@DEBUG_VALUE: HAL_TIM_IC_Start_IT:Channel <- $r1
	mov	r4, r0
	@DEBUG_VALUE: HAL_TIM_IC_Start_IT:Channel <- $r1
.Ltmp418:
	@DEBUG_VALUE: HAL_TIM_IC_Start_IT:htim <- $r4
	.loc	7 1685 3 prologue_end   @ ../Drivers/STM32F7xx_HAL_Driver/Src/stm32f7xx_hal_tim.c:1685:3
	ror.w	r0, r1, #2
	cmp	r0, #3
	bhi	.LBB41_4
.Ltmp419:
@ %bb.1:
	@DEBUG_VALUE: HAL_TIM_IC_Start_IT:htim <- $r4
	@DEBUG_VALUE: HAL_TIM_IC_Start_IT:Channel <- $r1
	.loc	7 0 3 is_stmt 0         @ ../Drivers/STM32F7xx_HAL_Driver/Src/stm32f7xx_hal_tim.c:0:3
.LCPI41_0:
	tbb	[pc, r0]
.Ltmp420:
@ %bb.2:
.LJTI41_0:
	.byte	(.LBB41_3-(.LCPI41_0+4))/2
	.byte	(.LBB41_5-(.LCPI41_0+4))/2
	.byte	(.LBB41_6-(.LCPI41_0+4))/2
	.byte	(.LBB41_7-(.LCPI41_0+4))/2
	.p2align	1
.LBB41_3:
.Ltmp421:
	@DEBUG_VALUE: HAL_TIM_IC_Start_IT:htim <- $r4
	@DEBUG_VALUE: HAL_TIM_IC_Start_IT:Channel <- $r1
	.loc	7 1690 7 is_stmt 1      @ ../Drivers/STM32F7xx_HAL_Driver/Src/stm32f7xx_hal_tim.c:1690:7
	ldr	r0, [r4]
	ldr	r2, [r0, #12]
	orr	r2, r2, #2
	b	.LBB41_8
.Ltmp422:
.LBB41_4:
	@DEBUG_VALUE: HAL_TIM_IC_Start_IT:htim <- $r4
	@DEBUG_VALUE: HAL_TIM_IC_Start_IT:Channel <- $r1
	.loc	7 1719 27               @ ../Drivers/STM32F7xx_HAL_Driver/Src/stm32f7xx_hal_tim.c:1719:27
	ldr	r0, [r4]
	b	.LBB41_9
.Ltmp423:
.LBB41_5:
	@DEBUG_VALUE: HAL_TIM_IC_Start_IT:htim <- $r4
	@DEBUG_VALUE: HAL_TIM_IC_Start_IT:Channel <- $r1
	.loc	7 1697 7                @ ../Drivers/STM32F7xx_HAL_Driver/Src/stm32f7xx_hal_tim.c:1697:7
	ldr	r0, [r4]
	ldr	r2, [r0, #12]
	orr	r2, r2, #4
	b	.LBB41_8
.Ltmp424:
.LBB41_6:
	@DEBUG_VALUE: HAL_TIM_IC_Start_IT:htim <- $r4
	@DEBUG_VALUE: HAL_TIM_IC_Start_IT:Channel <- $r1
	.loc	7 1704 7                @ ../Drivers/STM32F7xx_HAL_Driver/Src/stm32f7xx_hal_tim.c:1704:7
	ldr	r0, [r4]
	ldr	r2, [r0, #12]
	orr	r2, r2, #8
	b	.LBB41_8
.Ltmp425:
.LBB41_7:
	@DEBUG_VALUE: HAL_TIM_IC_Start_IT:htim <- $r4
	@DEBUG_VALUE: HAL_TIM_IC_Start_IT:Channel <- $r1
	.loc	7 1711 7                @ ../Drivers/STM32F7xx_HAL_Driver/Src/stm32f7xx_hal_tim.c:1711:7
	ldr	r0, [r4]
	ldr	r2, [r0, #12]
	orr	r2, r2, #16
.Ltmp426:
.LBB41_8:
	@DEBUG_VALUE: HAL_TIM_IC_Start_IT:htim <- $r4
	@DEBUG_VALUE: HAL_TIM_IC_Start_IT:Channel <- $r1
	.loc	7 0 7 is_stmt 0         @ ../Drivers/STM32F7xx_HAL_Driver/Src/stm32f7xx_hal_tim.c:0:7
	str	r2, [r0, #12]
.Ltmp427:
.LBB41_9:
	@DEBUG_VALUE: HAL_TIM_IC_Start_IT:htim <- $r4
	@DEBUG_VALUE: HAL_TIM_IC_Start_IT:Channel <- $r1
	.loc	7 1719 3 is_stmt 1      @ ../Drivers/STM32F7xx_HAL_Driver/Src/stm32f7xx_hal_tim.c:1719:3
	movs	r2, #1
	bl	TIM_CCxChannelCmd
.Ltmp428:
	.loc	7 1722 3                @ ../Drivers/STM32F7xx_HAL_Driver/Src/stm32f7xx_hal_tim.c:1722:3
	ldr	r0, [r4]
	ldr	r1, [r0]
	orr	r1, r1, #1
	str	r1, [r0]
	.loc	7 1725 3                @ ../Drivers/STM32F7xx_HAL_Driver/Src/stm32f7xx_hal_tim.c:1725:3
	movs	r0, #0
	pop	{r4, pc}
.Ltmp429:
.Lfunc_end41:
	.size	HAL_TIM_IC_Start_IT, .Lfunc_end41-HAL_TIM_IC_Start_IT
	.cfi_endproc
	.cantunwind
	.fnend
                                        @ -- End function
	.section	.text.HAL_TIM_IC_Stop_IT,"ax",%progbits
	.hidden	HAL_TIM_IC_Stop_IT      @ -- Begin function HAL_TIM_IC_Stop_IT
	.globl	HAL_TIM_IC_Stop_IT
	.p2align	2
	.type	HAL_TIM_IC_Stop_IT,%function
	.code	16                      @ @HAL_TIM_IC_Stop_IT
	.thumb_func
HAL_TIM_IC_Stop_IT:
.Lfunc_begin42:
	.loc	7 1741 0                @ ../Drivers/STM32F7xx_HAL_Driver/Src/stm32f7xx_hal_tim.c:1741:0
	.fnstart
	.cfi_startproc
@ %bb.0:
	.save	{r4, lr}
	push	{r4, lr}
	.cfi_def_cfa_offset 8
	.cfi_offset lr, -4
	.cfi_offset r4, -8
	@DEBUG_VALUE: HAL_TIM_IC_Stop_IT:htim <- $r0
	@DEBUG_VALUE: HAL_TIM_IC_Stop_IT:Channel <- $r1
	mov	r4, r0
	@DEBUG_VALUE: HAL_TIM_IC_Stop_IT:Channel <- $r1
.Ltmp430:
	@DEBUG_VALUE: HAL_TIM_IC_Stop_IT:htim <- $r4
	.loc	7 1745 3 prologue_end   @ ../Drivers/STM32F7xx_HAL_Driver/Src/stm32f7xx_hal_tim.c:1745:3
	ror.w	r0, r1, #2
	cmp	r0, #3
	bhi	.LBB42_4
.Ltmp431:
@ %bb.1:
	@DEBUG_VALUE: HAL_TIM_IC_Stop_IT:htim <- $r4
	@DEBUG_VALUE: HAL_TIM_IC_Stop_IT:Channel <- $r1
	.loc	7 0 3 is_stmt 0         @ ../Drivers/STM32F7xx_HAL_Driver/Src/stm32f7xx_hal_tim.c:0:3
.LCPI42_0:
	tbb	[pc, r0]
.Ltmp432:
@ %bb.2:
.LJTI42_0:
	.byte	(.LBB42_3-(.LCPI42_0+4))/2
	.byte	(.LBB42_5-(.LCPI42_0+4))/2
	.byte	(.LBB42_6-(.LCPI42_0+4))/2
	.byte	(.LBB42_7-(.LCPI42_0+4))/2
	.p2align	1
.LBB42_3:
.Ltmp433:
	@DEBUG_VALUE: HAL_TIM_IC_Stop_IT:htim <- $r4
	@DEBUG_VALUE: HAL_TIM_IC_Stop_IT:Channel <- $r1
	.loc	7 1750 7 is_stmt 1      @ ../Drivers/STM32F7xx_HAL_Driver/Src/stm32f7xx_hal_tim.c:1750:7
	ldr	r0, [r4]
	ldr	r2, [r0, #12]
	bic	r2, r2, #2
	b	.LBB42_8
.Ltmp434:
.LBB42_4:
	@DEBUG_VALUE: HAL_TIM_IC_Stop_IT:htim <- $r4
	@DEBUG_VALUE: HAL_TIM_IC_Stop_IT:Channel <- $r1
	.loc	7 1780 27               @ ../Drivers/STM32F7xx_HAL_Driver/Src/stm32f7xx_hal_tim.c:1780:27
	ldr	r0, [r4]
	b	.LBB42_9
.Ltmp435:
.LBB42_5:
	@DEBUG_VALUE: HAL_TIM_IC_Stop_IT:htim <- $r4
	@DEBUG_VALUE: HAL_TIM_IC_Stop_IT:Channel <- $r1
	.loc	7 1757 7                @ ../Drivers/STM32F7xx_HAL_Driver/Src/stm32f7xx_hal_tim.c:1757:7
	ldr	r0, [r4]
	ldr	r2, [r0, #12]
	bic	r2, r2, #4
	b	.LBB42_8
.Ltmp436:
.LBB42_6:
	@DEBUG_VALUE: HAL_TIM_IC_Stop_IT:htim <- $r4
	@DEBUG_VALUE: HAL_TIM_IC_Stop_IT:Channel <- $r1
	.loc	7 1764 7                @ ../Drivers/STM32F7xx_HAL_Driver/Src/stm32f7xx_hal_tim.c:1764:7
	ldr	r0, [r4]
	ldr	r2, [r0, #12]
	bic	r2, r2, #8
	b	.LBB42_8
.Ltmp437:
.LBB42_7:
	@DEBUG_VALUE: HAL_TIM_IC_Stop_IT:htim <- $r4
	@DEBUG_VALUE: HAL_TIM_IC_Stop_IT:Channel <- $r1
	.loc	7 1771 7                @ ../Drivers/STM32F7xx_HAL_Driver/Src/stm32f7xx_hal_tim.c:1771:7
	ldr	r0, [r4]
	ldr	r2, [r0, #12]
	bic	r2, r2, #16
.Ltmp438:
.LBB42_8:
	@DEBUG_VALUE: HAL_TIM_IC_Stop_IT:htim <- $r4
	@DEBUG_VALUE: HAL_TIM_IC_Stop_IT:Channel <- $r1
	.loc	7 0 7 is_stmt 0         @ ../Drivers/STM32F7xx_HAL_Driver/Src/stm32f7xx_hal_tim.c:0:7
	str	r2, [r0, #12]
.Ltmp439:
.LBB42_9:
	@DEBUG_VALUE: HAL_TIM_IC_Stop_IT:htim <- $r4
	@DEBUG_VALUE: HAL_TIM_IC_Stop_IT:Channel <- $r1
	.loc	7 1780 3 is_stmt 1      @ ../Drivers/STM32F7xx_HAL_Driver/Src/stm32f7xx_hal_tim.c:1780:3
	movs	r2, #0
	bl	TIM_CCxChannelCmd
.Ltmp440:
	.loc	7 1783 3                @ ../Drivers/STM32F7xx_HAL_Driver/Src/stm32f7xx_hal_tim.c:1783:3
	ldr	r0, [r4]
	movw	r2, #4369
	ldr	r1, [r0, #32]
.Ltmp441:
	.loc	7 1783 3 is_stmt 0      @ ../Drivers/STM32F7xx_HAL_Driver/Src/stm32f7xx_hal_tim.c:1783:3
	tst	r1, r2
	bne	.LBB42_11
.Ltmp442:
@ %bb.10:
	@DEBUG_VALUE: HAL_TIM_IC_Stop_IT:htim <- $r4
	.loc	7 1783 3                @ ../Drivers/STM32F7xx_HAL_Driver/Src/stm32f7xx_hal_tim.c:1783:3
	ldr	r1, [r0, #32]
	movw	r2, #1092
.Ltmp443:
	.loc	7 1783 3                @ ../Drivers/STM32F7xx_HAL_Driver/Src/stm32f7xx_hal_tim.c:1783:3
	tst	r1, r2
.Ltmp444:
	.loc	7 1783 3                @ ../Drivers/STM32F7xx_HAL_Driver/Src/stm32f7xx_hal_tim.c:1783:3
	ittt	eq
	ldreq	r1, [r0]
	biceq	r1, r1, #1
	streq	r1, [r0]
.Ltmp445:
.LBB42_11:
	@DEBUG_VALUE: HAL_TIM_IC_Stop_IT:htim <- $r4
	.loc	7 1786 3 is_stmt 1      @ ../Drivers/STM32F7xx_HAL_Driver/Src/stm32f7xx_hal_tim.c:1786:3
	movs	r0, #0
	pop	{r4, pc}
.Ltmp446:
.Lfunc_end42:
	.size	HAL_TIM_IC_Stop_IT, .Lfunc_end42-HAL_TIM_IC_Stop_IT
	.cfi_endproc
	.cantunwind
	.fnend
                                        @ -- End function
	.section	.text.HAL_TIM_IC_Start_DMA,"ax",%progbits
	.hidden	HAL_TIM_IC_Start_DMA    @ -- Begin function HAL_TIM_IC_Start_DMA
	.globl	HAL_TIM_IC_Start_DMA
	.p2align	2
	.type	HAL_TIM_IC_Start_DMA,%function
	.code	16                      @ @HAL_TIM_IC_Start_DMA
	.thumb_func
HAL_TIM_IC_Start_DMA:
.Lfunc_begin43:
	.loc	7 1804 0                @ ../Drivers/STM32F7xx_HAL_Driver/Src/stm32f7xx_hal_tim.c:1804:0
	.fnstart
	.cfi_startproc
@ %bb.0:
	.save	{r4, r5, r7, lr}
	push	{r4, r5, r7, lr}
	.cfi_def_cfa_offset 16
	.cfi_offset lr, -4
	.cfi_offset r7, -8
	.cfi_offset r5, -12
	.cfi_offset r4, -16
	@DEBUG_VALUE: HAL_TIM_IC_Start_DMA:htim <- $r0
	@DEBUG_VALUE: HAL_TIM_IC_Start_DMA:Channel <- $r1
	@DEBUG_VALUE: HAL_TIM_IC_Start_DMA:pData <- $r2
	@DEBUG_VALUE: HAL_TIM_IC_Start_DMA:Length <- $r3
	mov	r4, r0
	@DEBUG_VALUE: HAL_TIM_IC_Start_DMA:Length <- $r3
	@DEBUG_VALUE: HAL_TIM_IC_Start_DMA:pData <- $r2
.Ltmp447:
	@DEBUG_VALUE: HAL_TIM_IC_Start_DMA:Channel <- $r5
	@DEBUG_VALUE: HAL_TIM_IC_Start_DMA:htim <- $r4
	.loc	7 1809 13 prologue_end  @ ../Drivers/STM32F7xx_HAL_Driver/Src/stm32f7xx_hal_tim.c:1809:13
	ldrb.w	r0, [r0, #61]
	mov	r5, r1
.Ltmp448:
	.loc	7 1809 6 is_stmt 0      @ ../Drivers/STM32F7xx_HAL_Driver/Src/stm32f7xx_hal_tim.c:1809:6
	cmp	r0, #2
	bne	.LBB43_2
.Ltmp449:
@ %bb.1:
	@DEBUG_VALUE: HAL_TIM_IC_Start_DMA:htim <- $r4
	@DEBUG_VALUE: HAL_TIM_IC_Start_DMA:Length <- $r3
	@DEBUG_VALUE: HAL_TIM_IC_Start_DMA:pData <- $r2
	.loc	7 0 6                   @ ../Drivers/STM32F7xx_HAL_Driver/Src/stm32f7xx_hal_tim.c:0:6
	movs	r0, #2
	b	.LBB43_16
.Ltmp450:
.LBB43_2:
	@DEBUG_VALUE: HAL_TIM_IC_Start_DMA:htim <- $r4
	@DEBUG_VALUE: HAL_TIM_IC_Start_DMA:Length <- $r3
	@DEBUG_VALUE: HAL_TIM_IC_Start_DMA:pData <- $r2
	.loc	7 1813 18 is_stmt 1     @ ../Drivers/STM32F7xx_HAL_Driver/Src/stm32f7xx_hal_tim.c:1813:18
	ldrb.w	r0, [r4, #61]
.Ltmp451:
	.loc	7 1813 11 is_stmt 0     @ ../Drivers/STM32F7xx_HAL_Driver/Src/stm32f7xx_hal_tim.c:1813:11
	cmp	r0, #1
	bne	.LBB43_7
.Ltmp452:
@ %bb.3:
	@DEBUG_VALUE: HAL_TIM_IC_Start_DMA:htim <- $r4
	@DEBUG_VALUE: HAL_TIM_IC_Start_DMA:Length <- $r3
	@DEBUG_VALUE: HAL_TIM_IC_Start_DMA:pData <- $r2
	.loc	7 1815 22 is_stmt 1     @ ../Drivers/STM32F7xx_HAL_Driver/Src/stm32f7xx_hal_tim.c:1815:22
	cbnz	r2, .LBB43_6
.Ltmp453:
@ %bb.4:
	@DEBUG_VALUE: HAL_TIM_IC_Start_DMA:htim <- $r4
	@DEBUG_VALUE: HAL_TIM_IC_Start_DMA:Length <- $r3
	@DEBUG_VALUE: HAL_TIM_IC_Start_DMA:pData <- $r2
	cbz	r3, .LBB43_6
.Ltmp454:
@ %bb.5:
	@DEBUG_VALUE: HAL_TIM_IC_Start_DMA:htim <- $r4
	@DEBUG_VALUE: HAL_TIM_IC_Start_DMA:Length <- $r3
	@DEBUG_VALUE: HAL_TIM_IC_Start_DMA:pData <- $r2
	.loc	7 0 22 is_stmt 0        @ ../Drivers/STM32F7xx_HAL_Driver/Src/stm32f7xx_hal_tim.c:0:22
	movs	r0, #1
	b	.LBB43_16
.Ltmp455:
.LBB43_6:
	@DEBUG_VALUE: HAL_TIM_IC_Start_DMA:htim <- $r4
	@DEBUG_VALUE: HAL_TIM_IC_Start_DMA:Length <- $r3
	@DEBUG_VALUE: HAL_TIM_IC_Start_DMA:pData <- $r2
	.loc	7 1821 19 is_stmt 1     @ ../Drivers/STM32F7xx_HAL_Driver/Src/stm32f7xx_hal_tim.c:1821:19
	movs	r0, #2
	strb.w	r0, [r4, #61]
.Ltmp456:
.LBB43_7:
	@DEBUG_VALUE: HAL_TIM_IC_Start_DMA:htim <- $r4
	@DEBUG_VALUE: HAL_TIM_IC_Start_DMA:Length <- $r3
	@DEBUG_VALUE: HAL_TIM_IC_Start_DMA:pData <- $r2
	.loc	7 1825 3                @ ../Drivers/STM32F7xx_HAL_Driver/Src/stm32f7xx_hal_tim.c:1825:3
	ror.w	r0, r5, #2
	cmp	r0, #3
	bhi	.LBB43_17
.Ltmp457:
@ %bb.8:
	@DEBUG_VALUE: HAL_TIM_IC_Start_DMA:htim <- $r4
	@DEBUG_VALUE: HAL_TIM_IC_Start_DMA:Length <- $r3
	@DEBUG_VALUE: HAL_TIM_IC_Start_DMA:pData <- $r2
	@DEBUG_VALUE: HAL_TIM_IC_Start_DMA:Length <- $r3
	.loc	7 0 3 is_stmt 0         @ ../Drivers/STM32F7xx_HAL_Driver/Src/stm32f7xx_hal_tim.c:0:3
.LCPI43_2:
	tbb	[pc, r0]
.Ltmp458:
@ %bb.9:
.LJTI43_0:
	.byte	(.LBB43_10-(.LCPI43_2+4))/2
	.byte	(.LBB43_11-(.LCPI43_2+4))/2
	.byte	(.LBB43_12-(.LCPI43_2+4))/2
	.byte	(.LBB43_13-(.LCPI43_2+4))/2
	.p2align	1
.LBB43_10:
.Ltmp459:
	@DEBUG_VALUE: HAL_TIM_IC_Start_DMA:htim <- $r4
	@DEBUG_VALUE: HAL_TIM_IC_Start_DMA:Length <- $r3
	@DEBUG_VALUE: HAL_TIM_IC_Start_DMA:pData <- $r2
	.loc	7 1830 7 is_stmt 1      @ ../Drivers/STM32F7xx_HAL_Driver/Src/stm32f7xx_hal_tim.c:1830:7
	ldr	r0, [r4, #36]
	.loc	7 1830 52 is_stmt 0     @ ../Drivers/STM32F7xx_HAL_Driver/Src/stm32f7xx_hal_tim.c:1830:52
	ldr	r1, __arm_cp.43_0
	str	r1, [r0, #60]
	.loc	7 1833 53 is_stmt 1     @ ../Drivers/STM32F7xx_HAL_Driver/Src/stm32f7xx_hal_tim.c:1833:53
	ldr	r1, __arm_cp.43_1
	.loc	7 1833 7 is_stmt 0      @ ../Drivers/STM32F7xx_HAL_Driver/Src/stm32f7xx_hal_tim.c:1833:7
	ldr	r0, [r4, #36]
	.loc	7 1833 53               @ ../Drivers/STM32F7xx_HAL_Driver/Src/stm32f7xx_hal_tim.c:1833:53
	str	r1, [r0, #76]
	.loc	7 1836 69 is_stmt 1     @ ../Drivers/STM32F7xx_HAL_Driver/Src/stm32f7xx_hal_tim.c:1836:69
	ldr	r1, [r4]
	.loc	7 1836 24 is_stmt 0     @ ../Drivers/STM32F7xx_HAL_Driver/Src/stm32f7xx_hal_tim.c:1836:24
	ldr	r0, [r4, #36]
	.loc	7 1836 79               @ ../Drivers/STM32F7xx_HAL_Driver/Src/stm32f7xx_hal_tim.c:1836:79
	adds	r1, #52
	.loc	7 1836 7                @ ../Drivers/STM32F7xx_HAL_Driver/Src/stm32f7xx_hal_tim.c:1836:7
	bl	HAL_DMA_Start_IT
.Ltmp460:
	.loc	7 1839 7 is_stmt 1      @ ../Drivers/STM32F7xx_HAL_Driver/Src/stm32f7xx_hal_tim.c:1839:7
	ldr	r0, [r4]
	ldr	r1, [r0, #12]
	orr	r1, r1, #512
	b	.LBB43_14
.Ltmp461:
.LBB43_11:
	@DEBUG_VALUE: HAL_TIM_IC_Start_DMA:htim <- $r4
	@DEBUG_VALUE: HAL_TIM_IC_Start_DMA:Length <- $r3
	@DEBUG_VALUE: HAL_TIM_IC_Start_DMA:pData <- $r2
	.loc	7 1846 7                @ ../Drivers/STM32F7xx_HAL_Driver/Src/stm32f7xx_hal_tim.c:1846:7
	ldr	r0, [r4, #40]
	.loc	7 1846 52 is_stmt 0     @ ../Drivers/STM32F7xx_HAL_Driver/Src/stm32f7xx_hal_tim.c:1846:52
	ldr	r1, __arm_cp.43_0
	str	r1, [r0, #60]
	.loc	7 1849 53 is_stmt 1     @ ../Drivers/STM32F7xx_HAL_Driver/Src/stm32f7xx_hal_tim.c:1849:53
	ldr	r1, __arm_cp.43_1
	.loc	7 1849 7 is_stmt 0      @ ../Drivers/STM32F7xx_HAL_Driver/Src/stm32f7xx_hal_tim.c:1849:7
	ldr	r0, [r4, #40]
	.loc	7 1849 53               @ ../Drivers/STM32F7xx_HAL_Driver/Src/stm32f7xx_hal_tim.c:1849:53
	str	r1, [r0, #76]
	.loc	7 1852 69 is_stmt 1     @ ../Drivers/STM32F7xx_HAL_Driver/Src/stm32f7xx_hal_tim.c:1852:69
	ldr	r1, [r4]
	.loc	7 1852 24 is_stmt 0     @ ../Drivers/STM32F7xx_HAL_Driver/Src/stm32f7xx_hal_tim.c:1852:24
	ldr	r0, [r4, #40]
	.loc	7 1852 79               @ ../Drivers/STM32F7xx_HAL_Driver/Src/stm32f7xx_hal_tim.c:1852:79
	adds	r1, #56
	.loc	7 1852 7                @ ../Drivers/STM32F7xx_HAL_Driver/Src/stm32f7xx_hal_tim.c:1852:7
	bl	HAL_DMA_Start_IT
.Ltmp462:
	.loc	7 1855 7 is_stmt 1      @ ../Drivers/STM32F7xx_HAL_Driver/Src/stm32f7xx_hal_tim.c:1855:7
	ldr	r0, [r4]
	ldr	r1, [r0, #12]
	orr	r1, r1, #1024
	b	.LBB43_14
.Ltmp463:
.LBB43_12:
	@DEBUG_VALUE: HAL_TIM_IC_Start_DMA:htim <- $r4
	@DEBUG_VALUE: HAL_TIM_IC_Start_DMA:Length <- $r3
	@DEBUG_VALUE: HAL_TIM_IC_Start_DMA:pData <- $r2
	.loc	7 1862 7                @ ../Drivers/STM32F7xx_HAL_Driver/Src/stm32f7xx_hal_tim.c:1862:7
	ldr	r0, [r4, #44]
	.loc	7 1862 52 is_stmt 0     @ ../Drivers/STM32F7xx_HAL_Driver/Src/stm32f7xx_hal_tim.c:1862:52
	ldr	r1, __arm_cp.43_0
	str	r1, [r0, #60]
	.loc	7 1865 53 is_stmt 1     @ ../Drivers/STM32F7xx_HAL_Driver/Src/stm32f7xx_hal_tim.c:1865:53
	ldr	r1, __arm_cp.43_1
	.loc	7 1865 7 is_stmt 0      @ ../Drivers/STM32F7xx_HAL_Driver/Src/stm32f7xx_hal_tim.c:1865:7
	ldr	r0, [r4, #44]
	.loc	7 1865 53               @ ../Drivers/STM32F7xx_HAL_Driver/Src/stm32f7xx_hal_tim.c:1865:53
	str	r1, [r0, #76]
	.loc	7 1868 69 is_stmt 1     @ ../Drivers/STM32F7xx_HAL_Driver/Src/stm32f7xx_hal_tim.c:1868:69
	ldr	r1, [r4]
	.loc	7 1868 24 is_stmt 0     @ ../Drivers/STM32F7xx_HAL_Driver/Src/stm32f7xx_hal_tim.c:1868:24
	ldr	r0, [r4, #44]
	.loc	7 1868 79               @ ../Drivers/STM32F7xx_HAL_Driver/Src/stm32f7xx_hal_tim.c:1868:79
	adds	r1, #60
	.loc	7 1868 7                @ ../Drivers/STM32F7xx_HAL_Driver/Src/stm32f7xx_hal_tim.c:1868:7
	bl	HAL_DMA_Start_IT
.Ltmp464:
	.loc	7 1871 7 is_stmt 1      @ ../Drivers/STM32F7xx_HAL_Driver/Src/stm32f7xx_hal_tim.c:1871:7
	ldr	r0, [r4]
	ldr	r1, [r0, #12]
	orr	r1, r1, #2048
	b	.LBB43_14
.Ltmp465:
.LBB43_13:
	@DEBUG_VALUE: HAL_TIM_IC_Start_DMA:htim <- $r4
	@DEBUG_VALUE: HAL_TIM_IC_Start_DMA:Length <- $r3
	@DEBUG_VALUE: HAL_TIM_IC_Start_DMA:pData <- $r2
	.loc	7 1878 7                @ ../Drivers/STM32F7xx_HAL_Driver/Src/stm32f7xx_hal_tim.c:1878:7
	ldr	r0, [r4, #48]
	.loc	7 1878 52 is_stmt 0     @ ../Drivers/STM32F7xx_HAL_Driver/Src/stm32f7xx_hal_tim.c:1878:52
	ldr	r1, __arm_cp.43_0
	str	r1, [r0, #60]
	.loc	7 1881 53 is_stmt 1     @ ../Drivers/STM32F7xx_HAL_Driver/Src/stm32f7xx_hal_tim.c:1881:53
	ldr	r1, __arm_cp.43_1
	.loc	7 1881 7 is_stmt 0      @ ../Drivers/STM32F7xx_HAL_Driver/Src/stm32f7xx_hal_tim.c:1881:7
	ldr	r0, [r4, #48]
	.loc	7 1881 53               @ ../Drivers/STM32F7xx_HAL_Driver/Src/stm32f7xx_hal_tim.c:1881:53
	str	r1, [r0, #76]
	.loc	7 1884 69 is_stmt 1     @ ../Drivers/STM32F7xx_HAL_Driver/Src/stm32f7xx_hal_tim.c:1884:69
	ldr	r1, [r4]
	.loc	7 1884 24 is_stmt 0     @ ../Drivers/STM32F7xx_HAL_Driver/Src/stm32f7xx_hal_tim.c:1884:24
	ldr	r0, [r4, #48]
	.loc	7 1884 79               @ ../Drivers/STM32F7xx_HAL_Driver/Src/stm32f7xx_hal_tim.c:1884:79
	adds	r1, #64
	.loc	7 1884 7                @ ../Drivers/STM32F7xx_HAL_Driver/Src/stm32f7xx_hal_tim.c:1884:7
	bl	HAL_DMA_Start_IT
.Ltmp466:
	.loc	7 1887 7 is_stmt 1      @ ../Drivers/STM32F7xx_HAL_Driver/Src/stm32f7xx_hal_tim.c:1887:7
	ldr	r0, [r4]
	ldr	r1, [r0, #12]
	orr	r1, r1, #4096
.Ltmp467:
.LBB43_14:
	@DEBUG_VALUE: HAL_TIM_IC_Start_DMA:htim <- $r4
	.loc	7 0 7 is_stmt 0         @ ../Drivers/STM32F7xx_HAL_Driver/Src/stm32f7xx_hal_tim.c:0:7
	str	r1, [r0, #12]
.Ltmp468:
.LBB43_15:
	@DEBUG_VALUE: HAL_TIM_IC_Start_DMA:htim <- $r4
	.loc	7 1896 3 is_stmt 1      @ ../Drivers/STM32F7xx_HAL_Driver/Src/stm32f7xx_hal_tim.c:1896:3
	mov	r1, r5
	movs	r2, #1
	bl	TIM_CCxChannelCmd
	.loc	7 1899 3                @ ../Drivers/STM32F7xx_HAL_Driver/Src/stm32f7xx_hal_tim.c:1899:3
	ldr	r0, [r4]
	ldr	r1, [r0]
	orr	r1, r1, #1
	str	r1, [r0]
	movs	r0, #0
.Ltmp469:
.LBB43_16:
	@DEBUG_VALUE: HAL_TIM_IC_Start_DMA:htim <- $r4
	.loc	7 1903 1                @ ../Drivers/STM32F7xx_HAL_Driver/Src/stm32f7xx_hal_tim.c:1903:1
	uxtb	r0, r0
	pop	{r4, r5, r7, pc}
.Ltmp470:
.LBB43_17:
	@DEBUG_VALUE: HAL_TIM_IC_Start_DMA:htim <- $r4
	@DEBUG_VALUE: HAL_TIM_IC_Start_DMA:Length <- $r3
	@DEBUG_VALUE: HAL_TIM_IC_Start_DMA:pData <- $r2
	.loc	7 1896 27               @ ../Drivers/STM32F7xx_HAL_Driver/Src/stm32f7xx_hal_tim.c:1896:27
	ldr	r0, [r4]
	b	.LBB43_15
.Ltmp471:
	.p2align	2
@ %bb.18:
	.loc	7 0 27 is_stmt 0        @ ../Drivers/STM32F7xx_HAL_Driver/Src/stm32f7xx_hal_tim.c:0:27
__arm_cp.43_0:
	.long	TIM_DMACaptureCplt
.Lcpi_end29:
	.size	__arm_cp.43_0, .Lcpi_end29-__arm_cp.43_0
__arm_cp.43_1:
	.long	TIM_DMAError
.Lcpi_end30:
	.size	__arm_cp.43_1, .Lcpi_end30-__arm_cp.43_1
.Lfunc_end43:
	.size	HAL_TIM_IC_Start_DMA, .Lfunc_end43-HAL_TIM_IC_Start_DMA
	.cfi_endproc
	.cantunwind
	.fnend
                                        @ -- End function
	.section	.text.TIM_DMACaptureCplt,"ax",%progbits
	.hidden	TIM_DMACaptureCplt      @ -- Begin function TIM_DMACaptureCplt
	.globl	TIM_DMACaptureCplt
	.p2align	1
	.type	TIM_DMACaptureCplt,%function
	.code	16                      @ @TIM_DMACaptureCplt
	.thumb_func
TIM_DMACaptureCplt:
.Lfunc_begin44:
	.loc	7 4664 0 is_stmt 1      @ ../Drivers/STM32F7xx_HAL_Driver/Src/stm32f7xx_hal_tim.c:4664:0
	.fnstart
	.cfi_startproc
@ %bb.0:
	.save	{r4, lr}
	push	{r4, lr}
	.cfi_def_cfa_offset 8
	.cfi_offset lr, -4
	.cfi_offset r4, -8
	@DEBUG_VALUE: TIM_DMACaptureCplt:hdma <- $r0
	@DEBUG_VALUE: TIM_DMACaptureCplt:hdma <- $r0
.Ltmp472:
	.loc	7 4665 80 prologue_end  @ ../Drivers/STM32F7xx_HAL_Driver/Src/stm32f7xx_hal_tim.c:4665:80
	ldr	r4, [r0, #56]
.Ltmp473:
	@DEBUG_VALUE: TIM_DMACaptureCplt:htim <- $r4
	.loc	7 0 80 is_stmt 0        @ ../Drivers/STM32F7xx_HAL_Driver/Src/stm32f7xx_hal_tim.c:0:80
	movs	r1, #1
	.loc	7 4667 15 is_stmt 1     @ ../Drivers/STM32F7xx_HAL_Driver/Src/stm32f7xx_hal_tim.c:4667:15
	strb.w	r1, [r4, #61]
.Ltmp474:
	.loc	7 4669 15               @ ../Drivers/STM32F7xx_HAL_Driver/Src/stm32f7xx_hal_tim.c:4669:15
	ldr	r2, [r4, #36]
.Ltmp475:
	.loc	7 4669 7 is_stmt 0      @ ../Drivers/STM32F7xx_HAL_Driver/Src/stm32f7xx_hal_tim.c:4669:7
	cmp	r2, r0
	beq	.LBB44_5
.Ltmp476:
@ %bb.1:
	@DEBUG_VALUE: TIM_DMACaptureCplt:htim <- $r4
	@DEBUG_VALUE: TIM_DMACaptureCplt:hdma <- $r0
	.loc	7 4673 20 is_stmt 1     @ ../Drivers/STM32F7xx_HAL_Driver/Src/stm32f7xx_hal_tim.c:4673:20
	ldr	r1, [r4, #40]
.Ltmp477:
	.loc	7 4673 12 is_stmt 0     @ ../Drivers/STM32F7xx_HAL_Driver/Src/stm32f7xx_hal_tim.c:4673:12
	cmp	r1, r0
	beq	.LBB44_6
.Ltmp478:
@ %bb.2:
	@DEBUG_VALUE: TIM_DMACaptureCplt:htim <- $r4
	@DEBUG_VALUE: TIM_DMACaptureCplt:hdma <- $r0
	.loc	7 4677 20 is_stmt 1     @ ../Drivers/STM32F7xx_HAL_Driver/Src/stm32f7xx_hal_tim.c:4677:20
	ldr	r1, [r4, #44]
.Ltmp479:
	.loc	7 4677 12 is_stmt 0     @ ../Drivers/STM32F7xx_HAL_Driver/Src/stm32f7xx_hal_tim.c:4677:12
	cmp	r1, r0
	beq	.LBB44_7
.Ltmp480:
@ %bb.3:
	@DEBUG_VALUE: TIM_DMACaptureCplt:htim <- $r4
	@DEBUG_VALUE: TIM_DMACaptureCplt:hdma <- $r0
	.loc	7 4681 20 is_stmt 1     @ ../Drivers/STM32F7xx_HAL_Driver/Src/stm32f7xx_hal_tim.c:4681:20
	ldr	r1, [r4, #48]
.Ltmp481:
	.loc	7 4681 12 is_stmt 0     @ ../Drivers/STM32F7xx_HAL_Driver/Src/stm32f7xx_hal_tim.c:4681:12
	cmp	r1, r0
	bne	.LBB44_9
.Ltmp482:
@ %bb.4:
	@DEBUG_VALUE: TIM_DMACaptureCplt:htim <- $r4
	@DEBUG_VALUE: TIM_DMACaptureCplt:hdma <- $r0
	.loc	7 4683 19 is_stmt 1     @ ../Drivers/STM32F7xx_HAL_Driver/Src/stm32f7xx_hal_tim.c:4683:19
	movs	r0, #8
.Ltmp483:
	.loc	7 0 19 is_stmt 0        @ ../Drivers/STM32F7xx_HAL_Driver/Src/stm32f7xx_hal_tim.c:0:19
	b	.LBB44_8
.Ltmp484:
.LBB44_5:
	@DEBUG_VALUE: TIM_DMACaptureCplt:htim <- $r4
	@DEBUG_VALUE: TIM_DMACaptureCplt:hdma <- $r0
	.loc	7 4671 19 is_stmt 1     @ ../Drivers/STM32F7xx_HAL_Driver/Src/stm32f7xx_hal_tim.c:4671:19
	strb	r1, [r4, #28]
	b	.LBB44_9
.Ltmp485:
.LBB44_6:
	@DEBUG_VALUE: TIM_DMACaptureCplt:htim <- $r4
	@DEBUG_VALUE: TIM_DMACaptureCplt:hdma <- $r0
	.loc	7 4675 19               @ ../Drivers/STM32F7xx_HAL_Driver/Src/stm32f7xx_hal_tim.c:4675:19
	movs	r0, #2
.Ltmp486:
	.loc	7 0 19 is_stmt 0        @ ../Drivers/STM32F7xx_HAL_Driver/Src/stm32f7xx_hal_tim.c:0:19
	b	.LBB44_8
.Ltmp487:
.LBB44_7:
	@DEBUG_VALUE: TIM_DMACaptureCplt:htim <- $r4
	@DEBUG_VALUE: TIM_DMACaptureCplt:hdma <- $r0
	.loc	7 4679 19 is_stmt 1     @ ../Drivers/STM32F7xx_HAL_Driver/Src/stm32f7xx_hal_tim.c:4679:19
	movs	r0, #4
.Ltmp488:
.LBB44_8:
	@DEBUG_VALUE: TIM_DMACaptureCplt:htim <- $r4
	.loc	7 0 19 is_stmt 0        @ ../Drivers/STM32F7xx_HAL_Driver/Src/stm32f7xx_hal_tim.c:0:19
	strb	r0, [r4, #28]
.Ltmp489:
.LBB44_9:
	@DEBUG_VALUE: TIM_DMACaptureCplt:htim <- $r4
	.loc	7 4686 3 is_stmt 1      @ ../Drivers/STM32F7xx_HAL_Driver/Src/stm32f7xx_hal_tim.c:4686:3
	mov	r0, r4
	bl	HAL_TIM_IC_CaptureCallback
	.loc	7 4688 17               @ ../Drivers/STM32F7xx_HAL_Driver/Src/stm32f7xx_hal_tim.c:4688:17
	movs	r0, #0
	strb	r0, [r4, #28]
	.loc	7 4690 1                @ ../Drivers/STM32F7xx_HAL_Driver/Src/stm32f7xx_hal_tim.c:4690:1
	pop	{r4, pc}
.Ltmp490:
.Lfunc_end44:
	.size	TIM_DMACaptureCplt, .Lfunc_end44-TIM_DMACaptureCplt
	.cfi_endproc
	.cantunwind
	.fnend
                                        @ -- End function
	.section	.text.HAL_TIM_IC_Stop_DMA,"ax",%progbits
	.hidden	HAL_TIM_IC_Stop_DMA     @ -- Begin function HAL_TIM_IC_Stop_DMA
	.globl	HAL_TIM_IC_Stop_DMA
	.p2align	2
	.type	HAL_TIM_IC_Stop_DMA,%function
	.code	16                      @ @HAL_TIM_IC_Stop_DMA
	.thumb_func
HAL_TIM_IC_Stop_DMA:
.Lfunc_begin45:
	.loc	7 1918 0                @ ../Drivers/STM32F7xx_HAL_Driver/Src/stm32f7xx_hal_tim.c:1918:0
	.fnstart
	.cfi_startproc
@ %bb.0:
	.save	{r4, lr}
	push	{r4, lr}
	.cfi_def_cfa_offset 8
	.cfi_offset lr, -4
	.cfi_offset r4, -8
	@DEBUG_VALUE: HAL_TIM_IC_Stop_DMA:htim <- $r0
	@DEBUG_VALUE: HAL_TIM_IC_Stop_DMA:Channel <- $r1
	mov	r4, r0
	@DEBUG_VALUE: HAL_TIM_IC_Stop_DMA:Channel <- $r1
.Ltmp491:
	@DEBUG_VALUE: HAL_TIM_IC_Stop_DMA:htim <- $r4
	.loc	7 1923 3 prologue_end   @ ../Drivers/STM32F7xx_HAL_Driver/Src/stm32f7xx_hal_tim.c:1923:3
	ror.w	r0, r1, #2
	cmp	r0, #3
	bhi	.LBB45_4
.Ltmp492:
@ %bb.1:
	@DEBUG_VALUE: HAL_TIM_IC_Stop_DMA:htim <- $r4
	@DEBUG_VALUE: HAL_TIM_IC_Stop_DMA:Channel <- $r1
	.loc	7 0 3 is_stmt 0         @ ../Drivers/STM32F7xx_HAL_Driver/Src/stm32f7xx_hal_tim.c:0:3
.LCPI45_0:
	tbb	[pc, r0]
.Ltmp493:
@ %bb.2:
.LJTI45_0:
	.byte	(.LBB45_3-(.LCPI45_0+4))/2
	.byte	(.LBB45_5-(.LCPI45_0+4))/2
	.byte	(.LBB45_6-(.LCPI45_0+4))/2
	.byte	(.LBB45_7-(.LCPI45_0+4))/2
	.p2align	1
.LBB45_3:
.Ltmp494:
	@DEBUG_VALUE: HAL_TIM_IC_Stop_DMA:htim <- $r4
	@DEBUG_VALUE: HAL_TIM_IC_Stop_DMA:Channel <- $r1
	.loc	7 1928 7 is_stmt 1      @ ../Drivers/STM32F7xx_HAL_Driver/Src/stm32f7xx_hal_tim.c:1928:7
	ldr	r0, [r4]
	ldr	r2, [r0, #12]
	bic	r2, r2, #512
	b	.LBB45_8
.Ltmp495:
.LBB45_4:
	@DEBUG_VALUE: HAL_TIM_IC_Stop_DMA:htim <- $r4
	@DEBUG_VALUE: HAL_TIM_IC_Stop_DMA:Channel <- $r1
	.loc	7 1958 27               @ ../Drivers/STM32F7xx_HAL_Driver/Src/stm32f7xx_hal_tim.c:1958:27
	ldr	r0, [r4]
	b	.LBB45_9
.Ltmp496:
.LBB45_5:
	@DEBUG_VALUE: HAL_TIM_IC_Stop_DMA:htim <- $r4
	@DEBUG_VALUE: HAL_TIM_IC_Stop_DMA:Channel <- $r1
	.loc	7 1935 7                @ ../Drivers/STM32F7xx_HAL_Driver/Src/stm32f7xx_hal_tim.c:1935:7
	ldr	r0, [r4]
	ldr	r2, [r0, #12]
	bic	r2, r2, #1024
	b	.LBB45_8
.Ltmp497:
.LBB45_6:
	@DEBUG_VALUE: HAL_TIM_IC_Stop_DMA:htim <- $r4
	@DEBUG_VALUE: HAL_TIM_IC_Stop_DMA:Channel <- $r1
	.loc	7 1942 7                @ ../Drivers/STM32F7xx_HAL_Driver/Src/stm32f7xx_hal_tim.c:1942:7
	ldr	r0, [r4]
	ldr	r2, [r0, #12]
	bic	r2, r2, #2048
	b	.LBB45_8
.Ltmp498:
.LBB45_7:
	@DEBUG_VALUE: HAL_TIM_IC_Stop_DMA:htim <- $r4
	@DEBUG_VALUE: HAL_TIM_IC_Stop_DMA:Channel <- $r1
	.loc	7 1949 7                @ ../Drivers/STM32F7xx_HAL_Driver/Src/stm32f7xx_hal_tim.c:1949:7
	ldr	r0, [r4]
	ldr	r2, [r0, #12]
	bic	r2, r2, #4096
.Ltmp499:
.LBB45_8:
	@DEBUG_VALUE: HAL_TIM_IC_Stop_DMA:htim <- $r4
	@DEBUG_VALUE: HAL_TIM_IC_Stop_DMA:Channel <- $r1
	.loc	7 0 7 is_stmt 0         @ ../Drivers/STM32F7xx_HAL_Driver/Src/stm32f7xx_hal_tim.c:0:7
	str	r2, [r0, #12]
.Ltmp500:
.LBB45_9:
	@DEBUG_VALUE: HAL_TIM_IC_Stop_DMA:htim <- $r4
	@DEBUG_VALUE: HAL_TIM_IC_Stop_DMA:Channel <- $r1
	.loc	7 1958 3 is_stmt 1      @ ../Drivers/STM32F7xx_HAL_Driver/Src/stm32f7xx_hal_tim.c:1958:3
	movs	r2, #0
	bl	TIM_CCxChannelCmd
.Ltmp501:
	.loc	7 1961 3                @ ../Drivers/STM32F7xx_HAL_Driver/Src/stm32f7xx_hal_tim.c:1961:3
	ldr	r0, [r4]
	movw	r2, #4369
	ldr	r1, [r0, #32]
.Ltmp502:
	.loc	7 1961 3 is_stmt 0      @ ../Drivers/STM32F7xx_HAL_Driver/Src/stm32f7xx_hal_tim.c:1961:3
	tst	r1, r2
	bne	.LBB45_11
.Ltmp503:
@ %bb.10:
	@DEBUG_VALUE: HAL_TIM_IC_Stop_DMA:htim <- $r4
	.loc	7 1961 3                @ ../Drivers/STM32F7xx_HAL_Driver/Src/stm32f7xx_hal_tim.c:1961:3
	ldr	r1, [r0, #32]
	movw	r2, #1092
.Ltmp504:
	.loc	7 1961 3                @ ../Drivers/STM32F7xx_HAL_Driver/Src/stm32f7xx_hal_tim.c:1961:3
	tst	r1, r2
.Ltmp505:
	.loc	7 1961 3                @ ../Drivers/STM32F7xx_HAL_Driver/Src/stm32f7xx_hal_tim.c:1961:3
	ittt	eq
	ldreq	r1, [r0]
	biceq	r1, r1, #1
	streq	r1, [r0]
.Ltmp506:
.LBB45_11:
	@DEBUG_VALUE: HAL_TIM_IC_Stop_DMA:htim <- $r4
	.loc	7 1964 15 is_stmt 1     @ ../Drivers/STM32F7xx_HAL_Driver/Src/stm32f7xx_hal_tim.c:1964:15
	movs	r0, #1
	strb.w	r0, [r4, #61]
	.loc	7 1967 3                @ ../Drivers/STM32F7xx_HAL_Driver/Src/stm32f7xx_hal_tim.c:1967:3
	movs	r0, #0
	pop	{r4, pc}
.Ltmp507:
.Lfunc_end45:
	.size	HAL_TIM_IC_Stop_DMA, .Lfunc_end45-HAL_TIM_IC_Stop_DMA
	.cfi_endproc
	.cantunwind
	.fnend
                                        @ -- End function
	.section	.text.HAL_TIM_OnePulse_Init,"ax",%progbits
	.hidden	HAL_TIM_OnePulse_Init   @ -- Begin function HAL_TIM_OnePulse_Init
	.globl	HAL_TIM_OnePulse_Init
	.p2align	1
	.type	HAL_TIM_OnePulse_Init,%function
	.code	16                      @ @HAL_TIM_OnePulse_Init
	.thumb_func
HAL_TIM_OnePulse_Init:
.Lfunc_begin46:
	.loc	7 2006 0                @ ../Drivers/STM32F7xx_HAL_Driver/Src/stm32f7xx_hal_tim.c:2006:0
	.fnstart
	.cfi_startproc
@ %bb.0:
	.save	{r4, r5, r7, lr}
	push	{r4, r5, r7, lr}
	.cfi_def_cfa_offset 16
	.cfi_offset lr, -4
	.cfi_offset r7, -8
	.cfi_offset r5, -12
	.cfi_offset r4, -16
	@DEBUG_VALUE: HAL_TIM_OnePulse_Init:htim <- $r0
	@DEBUG_VALUE: HAL_TIM_OnePulse_Init:OnePulseMode <- $r1
	mov	r5, r1
	mov	r4, r0
.Ltmp508:
	@DEBUG_VALUE: HAL_TIM_OnePulse_Init:OnePulseMode <- $r5
	@DEBUG_VALUE: HAL_TIM_OnePulse_Init:htim <- $r4
	.loc	7 2008 6 prologue_end   @ ../Drivers/STM32F7xx_HAL_Driver/Src/stm32f7xx_hal_tim.c:2008:6
	cbz	r0, .LBB46_4
.Ltmp509:
@ %bb.1:
	@DEBUG_VALUE: HAL_TIM_OnePulse_Init:htim <- $r4
	@DEBUG_VALUE: HAL_TIM_OnePulse_Init:OnePulseMode <- $r5
	.loc	7 2020 12               @ ../Drivers/STM32F7xx_HAL_Driver/Src/stm32f7xx_hal_tim.c:2020:12
	ldrb.w	r0, [r4, #61]
.Ltmp510:
	.loc	7 2020 6 is_stmt 0      @ ../Drivers/STM32F7xx_HAL_Driver/Src/stm32f7xx_hal_tim.c:2020:6
	cbnz	r0, .LBB46_3
.Ltmp511:
@ %bb.2:
	@DEBUG_VALUE: HAL_TIM_OnePulse_Init:htim <- $r4
	@DEBUG_VALUE: HAL_TIM_OnePulse_Init:OnePulseMode <- $r5
	.loc	7 2023 16 is_stmt 1     @ ../Drivers/STM32F7xx_HAL_Driver/Src/stm32f7xx_hal_tim.c:2023:16
	movs	r0, #0
	strb.w	r0, [r4, #60]
	.loc	7 2025 5                @ ../Drivers/STM32F7xx_HAL_Driver/Src/stm32f7xx_hal_tim.c:2025:5
	mov	r0, r4
	bl	HAL_TIM_OnePulse_MspInit
.Ltmp512:
.LBB46_3:
	@DEBUG_VALUE: HAL_TIM_OnePulse_Init:htim <- $r4
	@DEBUG_VALUE: HAL_TIM_OnePulse_Init:OnePulseMode <- $r5
	.loc	7 2029 14               @ ../Drivers/STM32F7xx_HAL_Driver/Src/stm32f7xx_hal_tim.c:2029:14
	movs	r0, #2
	.loc	7 2032 45               @ ../Drivers/STM32F7xx_HAL_Driver/Src/stm32f7xx_hal_tim.c:2032:45
	adds	r1, r4, #4
	.loc	7 2029 14               @ ../Drivers/STM32F7xx_HAL_Driver/Src/stm32f7xx_hal_tim.c:2029:14
	strb.w	r0, [r4, #61]
	.loc	7 2032 28               @ ../Drivers/STM32F7xx_HAL_Driver/Src/stm32f7xx_hal_tim.c:2032:28
	ldr	r0, [r4]
	.loc	7 2032 3 is_stmt 0      @ ../Drivers/STM32F7xx_HAL_Driver/Src/stm32f7xx_hal_tim.c:2032:3
	bl	TIM_Base_SetConfig
	.loc	7 2035 9 is_stmt 1      @ ../Drivers/STM32F7xx_HAL_Driver/Src/stm32f7xx_hal_tim.c:2035:9
	ldr	r0, [r4]
	.loc	7 2035 23 is_stmt 0     @ ../Drivers/STM32F7xx_HAL_Driver/Src/stm32f7xx_hal_tim.c:2035:23
	ldr	r1, [r0]
	bic	r1, r1, #8
	str	r1, [r0]
	.loc	7 2038 23 is_stmt 1     @ ../Drivers/STM32F7xx_HAL_Driver/Src/stm32f7xx_hal_tim.c:2038:23
	ldr	r1, [r0]
	orrs	r1, r5
	str	r1, [r0]
	.loc	7 2041 14               @ ../Drivers/STM32F7xx_HAL_Driver/Src/stm32f7xx_hal_tim.c:2041:14
	movs	r0, #1
	strb.w	r0, [r4, #61]
	movs	r0, #0
	.loc	7 2044 1                @ ../Drivers/STM32F7xx_HAL_Driver/Src/stm32f7xx_hal_tim.c:2044:1
	pop	{r4, r5, r7, pc}
.Ltmp513:
.LBB46_4:
	@DEBUG_VALUE: HAL_TIM_OnePulse_Init:htim <- $r4
	@DEBUG_VALUE: HAL_TIM_OnePulse_Init:OnePulseMode <- $r5
	.loc	7 0 1 is_stmt 0         @ ../Drivers/STM32F7xx_HAL_Driver/Src/stm32f7xx_hal_tim.c:0:1
	movs	r0, #1
	.loc	7 2044 1                @ ../Drivers/STM32F7xx_HAL_Driver/Src/stm32f7xx_hal_tim.c:2044:1
	pop	{r4, r5, r7, pc}
.Ltmp514:
.Lfunc_end46:
	.size	HAL_TIM_OnePulse_Init, .Lfunc_end46-HAL_TIM_OnePulse_Init
	.cfi_endproc
	.cantunwind
	.fnend
                                        @ -- End function
	.section	.text.HAL_TIM_OnePulse_MspInit,"ax",%progbits
	.hidden	HAL_TIM_OnePulse_MspInit @ -- Begin function HAL_TIM_OnePulse_MspInit
	.weak	HAL_TIM_OnePulse_MspInit
	.p2align	1
	.type	HAL_TIM_OnePulse_MspInit,%function
	.code	16                      @ @HAL_TIM_OnePulse_MspInit
	.thumb_func
HAL_TIM_OnePulse_MspInit:
.Lfunc_begin47:
	.loc	7 2081 0 is_stmt 1      @ ../Drivers/STM32F7xx_HAL_Driver/Src/stm32f7xx_hal_tim.c:2081:0
	.fnstart
	.cfi_startproc
@ %bb.0:
	@DEBUG_VALUE: HAL_TIM_OnePulse_MspInit:htim <- $r0
	.loc	7 2088 1 prologue_end   @ ../Drivers/STM32F7xx_HAL_Driver/Src/stm32f7xx_hal_tim.c:2088:1
	bx	lr
.Ltmp515:
.Lfunc_end47:
	.size	HAL_TIM_OnePulse_MspInit, .Lfunc_end47-HAL_TIM_OnePulse_MspInit
	.cfi_endproc
	.cantunwind
	.fnend
                                        @ -- End function
	.section	.text.HAL_TIM_OnePulse_DeInit,"ax",%progbits
	.hidden	HAL_TIM_OnePulse_DeInit @ -- Begin function HAL_TIM_OnePulse_DeInit
	.globl	HAL_TIM_OnePulse_DeInit
	.p2align	1
	.type	HAL_TIM_OnePulse_DeInit,%function
	.code	16                      @ @HAL_TIM_OnePulse_DeInit
	.thumb_func
HAL_TIM_OnePulse_DeInit:
.Lfunc_begin48:
	.loc	7 2053 0                @ ../Drivers/STM32F7xx_HAL_Driver/Src/stm32f7xx_hal_tim.c:2053:0
	.fnstart
	.cfi_startproc
@ %bb.0:
	.save	{r4, lr}
	push	{r4, lr}
	.cfi_def_cfa_offset 8
	.cfi_offset lr, -4
	.cfi_offset r4, -8
	@DEBUG_VALUE: HAL_TIM_OnePulse_DeInit:htim <- $r0
	mov	r4, r0
.Ltmp516:
	@DEBUG_VALUE: HAL_TIM_OnePulse_DeInit:htim <- $r4
	.loc	7 2057 15 prologue_end  @ ../Drivers/STM32F7xx_HAL_Driver/Src/stm32f7xx_hal_tim.c:2057:15
	movs	r0, #2
.Ltmp517:
	.loc	7 2060 3                @ ../Drivers/STM32F7xx_HAL_Driver/Src/stm32f7xx_hal_tim.c:2060:3
	movw	r2, #4369
.Ltmp518:
	.loc	7 2057 15               @ ../Drivers/STM32F7xx_HAL_Driver/Src/stm32f7xx_hal_tim.c:2057:15
	strb.w	r0, [r4, #61]
.Ltmp519:
	.loc	7 2060 3                @ ../Drivers/STM32F7xx_HAL_Driver/Src/stm32f7xx_hal_tim.c:2060:3
	ldr	r0, [r4]
	ldr	r1, [r0, #32]
.Ltmp520:
	.loc	7 2060 3 is_stmt 0      @ ../Drivers/STM32F7xx_HAL_Driver/Src/stm32f7xx_hal_tim.c:2060:3
	tst	r1, r2
	bne	.LBB48_2
.Ltmp521:
@ %bb.1:
	@DEBUG_VALUE: HAL_TIM_OnePulse_DeInit:htim <- $r4
	.loc	7 2060 3                @ ../Drivers/STM32F7xx_HAL_Driver/Src/stm32f7xx_hal_tim.c:2060:3
	ldr	r1, [r0, #32]
	movw	r2, #1092
.Ltmp522:
	.loc	7 2060 3                @ ../Drivers/STM32F7xx_HAL_Driver/Src/stm32f7xx_hal_tim.c:2060:3
	tst	r1, r2
.Ltmp523:
	.loc	7 2060 3                @ ../Drivers/STM32F7xx_HAL_Driver/Src/stm32f7xx_hal_tim.c:2060:3
	ittt	eq
	ldreq	r1, [r0]
	biceq	r1, r1, #1
	streq	r1, [r0]
.Ltmp524:
.LBB48_2:
	@DEBUG_VALUE: HAL_TIM_OnePulse_DeInit:htim <- $r4
	.loc	7 2063 3 is_stmt 1      @ ../Drivers/STM32F7xx_HAL_Driver/Src/stm32f7xx_hal_tim.c:2063:3
	mov	r0, r4
	bl	HAL_TIM_OnePulse_MspDeInit
	movs	r0, #0
.Ltmp525:
	.loc	7 2069 3                @ ../Drivers/STM32F7xx_HAL_Driver/Src/stm32f7xx_hal_tim.c:2069:3
	strb.w	r0, [r4, #60]
.Ltmp526:
	.loc	7 2066 15               @ ../Drivers/STM32F7xx_HAL_Driver/Src/stm32f7xx_hal_tim.c:2066:15
	strb.w	r0, [r4, #61]
	.loc	7 2071 3                @ ../Drivers/STM32F7xx_HAL_Driver/Src/stm32f7xx_hal_tim.c:2071:3
	movs	r0, #0
	pop	{r4, pc}
.Ltmp527:
.Lfunc_end48:
	.size	HAL_TIM_OnePulse_DeInit, .Lfunc_end48-HAL_TIM_OnePulse_DeInit
	.cfi_endproc
	.cantunwind
	.fnend
                                        @ -- End function
	.section	.text.HAL_TIM_OnePulse_MspDeInit,"ax",%progbits
	.hidden	HAL_TIM_OnePulse_MspDeInit @ -- Begin function HAL_TIM_OnePulse_MspDeInit
	.weak	HAL_TIM_OnePulse_MspDeInit
	.p2align	1
	.type	HAL_TIM_OnePulse_MspDeInit,%function
	.code	16                      @ @HAL_TIM_OnePulse_MspDeInit
	.thumb_func
HAL_TIM_OnePulse_MspDeInit:
.Lfunc_begin49:
	.loc	7 2097 0                @ ../Drivers/STM32F7xx_HAL_Driver/Src/stm32f7xx_hal_tim.c:2097:0
	.fnstart
	.cfi_startproc
@ %bb.0:
	@DEBUG_VALUE: HAL_TIM_OnePulse_MspDeInit:htim <- $r0
	.loc	7 2104 1 prologue_end   @ ../Drivers/STM32F7xx_HAL_Driver/Src/stm32f7xx_hal_tim.c:2104:1
	bx	lr
.Ltmp528:
.Lfunc_end49:
	.size	HAL_TIM_OnePulse_MspDeInit, .Lfunc_end49-HAL_TIM_OnePulse_MspDeInit
	.cfi_endproc
	.cantunwind
	.fnend
                                        @ -- End function
	.section	.text.HAL_TIM_OnePulse_Start,"ax",%progbits
	.hidden	HAL_TIM_OnePulse_Start  @ -- Begin function HAL_TIM_OnePulse_Start
	.globl	HAL_TIM_OnePulse_Start
	.p2align	2
	.type	HAL_TIM_OnePulse_Start,%function
	.code	16                      @ @HAL_TIM_OnePulse_Start
	.thumb_func
HAL_TIM_OnePulse_Start:
.Lfunc_begin50:
	.loc	7 2117 0                @ ../Drivers/STM32F7xx_HAL_Driver/Src/stm32f7xx_hal_tim.c:2117:0
	.fnstart
	.cfi_startproc
@ %bb.0:
	.save	{r4, lr}
	push	{r4, lr}
	.cfi_def_cfa_offset 8
	.cfi_offset lr, -4
	.cfi_offset r4, -8
	@DEBUG_VALUE: HAL_TIM_OnePulse_Start:htim <- $r0
	@DEBUG_VALUE: HAL_TIM_OnePulse_Start:OutputChannel <- $r1
	mov	r4, r0
.Ltmp529:
	@DEBUG_VALUE: HAL_TIM_OnePulse_Start:htim <- $r4
	.loc	7 2127 27 prologue_end  @ ../Drivers/STM32F7xx_HAL_Driver/Src/stm32f7xx_hal_tim.c:2127:27
	ldr	r0, [r0]
	.loc	7 2127 3 is_stmt 0      @ ../Drivers/STM32F7xx_HAL_Driver/Src/stm32f7xx_hal_tim.c:2127:3
	movs	r1, #0
.Ltmp530:
	movs	r2, #1
	bl	TIM_CCxChannelCmd
	.loc	7 2128 27 is_stmt 1     @ ../Drivers/STM32F7xx_HAL_Driver/Src/stm32f7xx_hal_tim.c:2128:27
	ldr	r0, [r4]
	.loc	7 2128 3 is_stmt 0      @ ../Drivers/STM32F7xx_HAL_Driver/Src/stm32f7xx_hal_tim.c:2128:3
	movs	r1, #4
	movs	r2, #1
	bl	TIM_CCxChannelCmd
.Ltmp531:
	.loc	7 2130 6 is_stmt 1      @ ../Drivers/STM32F7xx_HAL_Driver/Src/stm32f7xx_hal_tim.c:2130:6
	ldr	r0, [r4]
	ldr	r2, __arm_cp.50_0
	orr	r1, r0, #1024
	cmp	r1, r2
.Ltmp532:
	.loc	7 2133 5                @ ../Drivers/STM32F7xx_HAL_Driver/Src/stm32f7xx_hal_tim.c:2133:5
	ittt	eq
	ldreq	r1, [r0, #68]
	orreq	r1, r1, #32768
	streq	r1, [r0, #68]
.Ltmp533:
	.loc	7 2137 3                @ ../Drivers/STM32F7xx_HAL_Driver/Src/stm32f7xx_hal_tim.c:2137:3
	movs	r0, #0
	pop	{r4, pc}
.Ltmp534:
	.p2align	2
@ %bb.1:
	.loc	7 0 3 is_stmt 0         @ ../Drivers/STM32F7xx_HAL_Driver/Src/stm32f7xx_hal_tim.c:0:3
__arm_cp.50_0:
	.long	1073808384              @ 0x40010400
.Lcpi_end31:
	.size	__arm_cp.50_0, .Lcpi_end31-__arm_cp.50_0
.Lfunc_end50:
	.size	HAL_TIM_OnePulse_Start, .Lfunc_end50-HAL_TIM_OnePulse_Start
	.cfi_endproc
	.cantunwind
	.fnend
                                        @ -- End function
	.section	.text.HAL_TIM_OnePulse_Stop,"ax",%progbits
	.hidden	HAL_TIM_OnePulse_Stop   @ -- Begin function HAL_TIM_OnePulse_Stop
	.globl	HAL_TIM_OnePulse_Stop
	.p2align	2
	.type	HAL_TIM_OnePulse_Stop,%function
	.code	16                      @ @HAL_TIM_OnePulse_Stop
	.thumb_func
HAL_TIM_OnePulse_Stop:
.Lfunc_begin51:
	.loc	7 2151 0 is_stmt 1      @ ../Drivers/STM32F7xx_HAL_Driver/Src/stm32f7xx_hal_tim.c:2151:0
	.fnstart
	.cfi_startproc
@ %bb.0:
	.save	{r4, lr}
	push	{r4, lr}
	.cfi_def_cfa_offset 8
	.cfi_offset lr, -4
	.cfi_offset r4, -8
	@DEBUG_VALUE: HAL_TIM_OnePulse_Stop:htim <- $r0
	@DEBUG_VALUE: HAL_TIM_OnePulse_Stop:OutputChannel <- $r1
	mov	r4, r0
.Ltmp535:
	@DEBUG_VALUE: HAL_TIM_OnePulse_Stop:htim <- $r4
	.loc	7 2158 27 prologue_end  @ ../Drivers/STM32F7xx_HAL_Driver/Src/stm32f7xx_hal_tim.c:2158:27
	ldr	r0, [r0]
	.loc	7 2158 3 is_stmt 0      @ ../Drivers/STM32F7xx_HAL_Driver/Src/stm32f7xx_hal_tim.c:2158:3
	movs	r1, #0
.Ltmp536:
	movs	r2, #0
	bl	TIM_CCxChannelCmd
	.loc	7 2159 27 is_stmt 1     @ ../Drivers/STM32F7xx_HAL_Driver/Src/stm32f7xx_hal_tim.c:2159:27
	ldr	r0, [r4]
	.loc	7 2159 3 is_stmt 0      @ ../Drivers/STM32F7xx_HAL_Driver/Src/stm32f7xx_hal_tim.c:2159:3
	movs	r1, #4
	movs	r2, #0
	bl	TIM_CCxChannelCmd
.Ltmp537:
	.loc	7 2161 6 is_stmt 1      @ ../Drivers/STM32F7xx_HAL_Driver/Src/stm32f7xx_hal_tim.c:2161:6
	ldr	r0, [r4]
	ldr	r2, __arm_cp.51_0
	orr	r1, r0, #1024
	cmp	r1, r2
	bne	.LBB51_3
.Ltmp538:
@ %bb.1:
	@DEBUG_VALUE: HAL_TIM_OnePulse_Stop:htim <- $r4
	.loc	7 2164 5                @ ../Drivers/STM32F7xx_HAL_Driver/Src/stm32f7xx_hal_tim.c:2164:5
	mov	r1, r0
	movw	r3, #4369
	ldr	r2, [r1, #32]!
.Ltmp539:
	.loc	7 2164 5 is_stmt 0      @ ../Drivers/STM32F7xx_HAL_Driver/Src/stm32f7xx_hal_tim.c:2164:5
	tst	r2, r3
	bne	.LBB51_4
.Ltmp540:
@ %bb.2:
	@DEBUG_VALUE: HAL_TIM_OnePulse_Stop:htim <- $r4
	.loc	7 2164 5                @ ../Drivers/STM32F7xx_HAL_Driver/Src/stm32f7xx_hal_tim.c:2164:5
	ldr	r2, [r1]
	movw	r3, #1092
.Ltmp541:
	.loc	7 2164 5                @ ../Drivers/STM32F7xx_HAL_Driver/Src/stm32f7xx_hal_tim.c:2164:5
	tst	r2, r3
.Ltmp542:
	.loc	7 2164 5                @ ../Drivers/STM32F7xx_HAL_Driver/Src/stm32f7xx_hal_tim.c:2164:5
	ittt	eq
	ldreq	r2, [r0, #68]
	biceq	r2, r2, #32768
	streq	r2, [r0, #68]
	b	.LBB51_4
.Ltmp543:
.LBB51_3:
	@DEBUG_VALUE: HAL_TIM_OnePulse_Stop:htim <- $r4
	.loc	7 2168 3 is_stmt 1      @ ../Drivers/STM32F7xx_HAL_Driver/Src/stm32f7xx_hal_tim.c:2168:3
	add.w	r1, r0, #32
.Ltmp544:
.LBB51_4:
	@DEBUG_VALUE: HAL_TIM_OnePulse_Stop:htim <- $r4
	ldr	r2, [r1]
	movw	r3, #4369
.Ltmp545:
	.loc	7 2168 3 is_stmt 0      @ ../Drivers/STM32F7xx_HAL_Driver/Src/stm32f7xx_hal_tim.c:2168:3
	tst	r2, r3
	bne	.LBB51_6
.Ltmp546:
@ %bb.5:
	@DEBUG_VALUE: HAL_TIM_OnePulse_Stop:htim <- $r4
	.loc	7 2168 3                @ ../Drivers/STM32F7xx_HAL_Driver/Src/stm32f7xx_hal_tim.c:2168:3
	ldr	r1, [r1]
	movw	r2, #1092
.Ltmp547:
	.loc	7 2168 3                @ ../Drivers/STM32F7xx_HAL_Driver/Src/stm32f7xx_hal_tim.c:2168:3
	tst	r1, r2
.Ltmp548:
	.loc	7 2168 3                @ ../Drivers/STM32F7xx_HAL_Driver/Src/stm32f7xx_hal_tim.c:2168:3
	ittt	eq
	ldreq	r1, [r0]
	biceq	r1, r1, #1
	streq	r1, [r0]
.Ltmp549:
.LBB51_6:
	@DEBUG_VALUE: HAL_TIM_OnePulse_Stop:htim <- $r4
	.loc	7 2171 3 is_stmt 1      @ ../Drivers/STM32F7xx_HAL_Driver/Src/stm32f7xx_hal_tim.c:2171:3
	movs	r0, #0
	pop	{r4, pc}
.Ltmp550:
	.p2align	2
@ %bb.7:
	.loc	7 0 3 is_stmt 0         @ ../Drivers/STM32F7xx_HAL_Driver/Src/stm32f7xx_hal_tim.c:0:3
__arm_cp.51_0:
	.long	1073808384              @ 0x40010400
.Lcpi_end32:
	.size	__arm_cp.51_0, .Lcpi_end32-__arm_cp.51_0
.Lfunc_end51:
	.size	HAL_TIM_OnePulse_Stop, .Lfunc_end51-HAL_TIM_OnePulse_Stop
	.cfi_endproc
	.cantunwind
	.fnend
                                        @ -- End function
	.section	.text.HAL_TIM_OnePulse_Start_IT,"ax",%progbits
	.hidden	HAL_TIM_OnePulse_Start_IT @ -- Begin function HAL_TIM_OnePulse_Start_IT
	.globl	HAL_TIM_OnePulse_Start_IT
	.p2align	2
	.type	HAL_TIM_OnePulse_Start_IT,%function
	.code	16                      @ @HAL_TIM_OnePulse_Start_IT
	.thumb_func
HAL_TIM_OnePulse_Start_IT:
.Lfunc_begin52:
	.loc	7 2185 0 is_stmt 1      @ ../Drivers/STM32F7xx_HAL_Driver/Src/stm32f7xx_hal_tim.c:2185:0
	.fnstart
	.cfi_startproc
@ %bb.0:
	.save	{r4, lr}
	push	{r4, lr}
	.cfi_def_cfa_offset 8
	.cfi_offset lr, -4
	.cfi_offset r4, -8
	@DEBUG_VALUE: HAL_TIM_OnePulse_Start_IT:htim <- $r0
	@DEBUG_VALUE: HAL_TIM_OnePulse_Start_IT:OutputChannel <- $r1
	mov	r4, r0
.Ltmp551:
	@DEBUG_VALUE: HAL_TIM_OnePulse_Start_IT:htim <- $r4
	.loc	7 2196 3 prologue_end   @ ../Drivers/STM32F7xx_HAL_Driver/Src/stm32f7xx_hal_tim.c:2196:3
	ldr	r0, [r0]
	.loc	7 2201 3                @ ../Drivers/STM32F7xx_HAL_Driver/Src/stm32f7xx_hal_tim.c:2201:3
	movs	r2, #1
	.loc	7 2196 3                @ ../Drivers/STM32F7xx_HAL_Driver/Src/stm32f7xx_hal_tim.c:2196:3
	ldr	r1, [r0, #12]
.Ltmp552:
	orr	r1, r1, #2
	str	r1, [r0, #12]
	.loc	7 2199 3                @ ../Drivers/STM32F7xx_HAL_Driver/Src/stm32f7xx_hal_tim.c:2199:3
	ldr	r1, [r0, #12]
	orr	r1, r1, #4
	str	r1, [r0, #12]
	.loc	7 2201 3                @ ../Drivers/STM32F7xx_HAL_Driver/Src/stm32f7xx_hal_tim.c:2201:3
	movs	r1, #0
	bl	TIM_CCxChannelCmd
	.loc	7 2202 27               @ ../Drivers/STM32F7xx_HAL_Driver/Src/stm32f7xx_hal_tim.c:2202:27
	ldr	r0, [r4]
	.loc	7 2202 3 is_stmt 0      @ ../Drivers/STM32F7xx_HAL_Driver/Src/stm32f7xx_hal_tim.c:2202:3
	movs	r1, #4
	movs	r2, #1
	bl	TIM_CCxChannelCmd
.Ltmp553:
	.loc	7 2204 6 is_stmt 1      @ ../Drivers/STM32F7xx_HAL_Driver/Src/stm32f7xx_hal_tim.c:2204:6
	ldr	r0, [r4]
	ldr	r2, __arm_cp.52_0
	orr	r1, r0, #1024
	cmp	r1, r2
.Ltmp554:
	.loc	7 2207 5                @ ../Drivers/STM32F7xx_HAL_Driver/Src/stm32f7xx_hal_tim.c:2207:5
	ittt	eq
	ldreq	r1, [r0, #68]
	orreq	r1, r1, #32768
	streq	r1, [r0, #68]
.Ltmp555:
	.loc	7 2211 3                @ ../Drivers/STM32F7xx_HAL_Driver/Src/stm32f7xx_hal_tim.c:2211:3
	movs	r0, #0
	pop	{r4, pc}
.Ltmp556:
	.p2align	2
@ %bb.1:
	.loc	7 0 3 is_stmt 0         @ ../Drivers/STM32F7xx_HAL_Driver/Src/stm32f7xx_hal_tim.c:0:3
__arm_cp.52_0:
	.long	1073808384              @ 0x40010400
.Lcpi_end33:
	.size	__arm_cp.52_0, .Lcpi_end33-__arm_cp.52_0
.Lfunc_end52:
	.size	HAL_TIM_OnePulse_Start_IT, .Lfunc_end52-HAL_TIM_OnePulse_Start_IT
	.cfi_endproc
	.cantunwind
	.fnend
                                        @ -- End function
	.section	.text.HAL_TIM_OnePulse_Stop_IT,"ax",%progbits
	.hidden	HAL_TIM_OnePulse_Stop_IT @ -- Begin function HAL_TIM_OnePulse_Stop_IT
	.globl	HAL_TIM_OnePulse_Stop_IT
	.p2align	2
	.type	HAL_TIM_OnePulse_Stop_IT,%function
	.code	16                      @ @HAL_TIM_OnePulse_Stop_IT
	.thumb_func
HAL_TIM_OnePulse_Stop_IT:
.Lfunc_begin53:
	.loc	7 2225 0 is_stmt 1      @ ../Drivers/STM32F7xx_HAL_Driver/Src/stm32f7xx_hal_tim.c:2225:0
	.fnstart
	.cfi_startproc
@ %bb.0:
	.save	{r4, lr}
	push	{r4, lr}
	.cfi_def_cfa_offset 8
	.cfi_offset lr, -4
	.cfi_offset r4, -8
	@DEBUG_VALUE: HAL_TIM_OnePulse_Stop_IT:htim <- $r0
	@DEBUG_VALUE: HAL_TIM_OnePulse_Stop_IT:OutputChannel <- $r1
	mov	r4, r0
.Ltmp557:
	@DEBUG_VALUE: HAL_TIM_OnePulse_Stop_IT:htim <- $r4
	.loc	7 2227 3 prologue_end   @ ../Drivers/STM32F7xx_HAL_Driver/Src/stm32f7xx_hal_tim.c:2227:3
	ldr	r0, [r0]
	.loc	7 2237 3                @ ../Drivers/STM32F7xx_HAL_Driver/Src/stm32f7xx_hal_tim.c:2237:3
	movs	r2, #0
	.loc	7 2227 3                @ ../Drivers/STM32F7xx_HAL_Driver/Src/stm32f7xx_hal_tim.c:2227:3
	ldr	r1, [r0, #12]
.Ltmp558:
	bic	r1, r1, #2
	str	r1, [r0, #12]
	.loc	7 2230 3                @ ../Drivers/STM32F7xx_HAL_Driver/Src/stm32f7xx_hal_tim.c:2230:3
	ldr	r1, [r0, #12]
	bic	r1, r1, #4
	str	r1, [r0, #12]
	.loc	7 2237 3                @ ../Drivers/STM32F7xx_HAL_Driver/Src/stm32f7xx_hal_tim.c:2237:3
	movs	r1, #0
	bl	TIM_CCxChannelCmd
	.loc	7 2238 27               @ ../Drivers/STM32F7xx_HAL_Driver/Src/stm32f7xx_hal_tim.c:2238:27
	ldr	r0, [r4]
	.loc	7 2238 3 is_stmt 0      @ ../Drivers/STM32F7xx_HAL_Driver/Src/stm32f7xx_hal_tim.c:2238:3
	movs	r1, #4
	movs	r2, #0
	bl	TIM_CCxChannelCmd
.Ltmp559:
	.loc	7 2240 6 is_stmt 1      @ ../Drivers/STM32F7xx_HAL_Driver/Src/stm32f7xx_hal_tim.c:2240:6
	ldr	r0, [r4]
	ldr	r2, __arm_cp.53_0
	orr	r1, r0, #1024
	cmp	r1, r2
	bne	.LBB53_3
.Ltmp560:
@ %bb.1:
	@DEBUG_VALUE: HAL_TIM_OnePulse_Stop_IT:htim <- $r4
	.loc	7 2243 5                @ ../Drivers/STM32F7xx_HAL_Driver/Src/stm32f7xx_hal_tim.c:2243:5
	mov	r1, r0
	movw	r3, #4369
	ldr	r2, [r1, #32]!
.Ltmp561:
	.loc	7 2243 5 is_stmt 0      @ ../Drivers/STM32F7xx_HAL_Driver/Src/stm32f7xx_hal_tim.c:2243:5
	tst	r2, r3
	bne	.LBB53_4
.Ltmp562:
@ %bb.2:
	@DEBUG_VALUE: HAL_TIM_OnePulse_Stop_IT:htim <- $r4
	.loc	7 2243 5                @ ../Drivers/STM32F7xx_HAL_Driver/Src/stm32f7xx_hal_tim.c:2243:5
	ldr	r2, [r1]
	movw	r3, #1092
.Ltmp563:
	.loc	7 2243 5                @ ../Drivers/STM32F7xx_HAL_Driver/Src/stm32f7xx_hal_tim.c:2243:5
	tst	r2, r3
.Ltmp564:
	.loc	7 2243 5                @ ../Drivers/STM32F7xx_HAL_Driver/Src/stm32f7xx_hal_tim.c:2243:5
	ittt	eq
	ldreq	r2, [r0, #68]
	biceq	r2, r2, #32768
	streq	r2, [r0, #68]
	b	.LBB53_4
.Ltmp565:
.LBB53_3:
	@DEBUG_VALUE: HAL_TIM_OnePulse_Stop_IT:htim <- $r4
	.loc	7 2247 4 is_stmt 1      @ ../Drivers/STM32F7xx_HAL_Driver/Src/stm32f7xx_hal_tim.c:2247:4
	add.w	r1, r0, #32
.Ltmp566:
.LBB53_4:
	@DEBUG_VALUE: HAL_TIM_OnePulse_Stop_IT:htim <- $r4
	ldr	r2, [r1]
	movw	r3, #4369
.Ltmp567:
	.loc	7 2247 4 is_stmt 0      @ ../Drivers/STM32F7xx_HAL_Driver/Src/stm32f7xx_hal_tim.c:2247:4
	tst	r2, r3
	bne	.LBB53_6
.Ltmp568:
@ %bb.5:
	@DEBUG_VALUE: HAL_TIM_OnePulse_Stop_IT:htim <- $r4
	.loc	7 2247 4                @ ../Drivers/STM32F7xx_HAL_Driver/Src/stm32f7xx_hal_tim.c:2247:4
	ldr	r1, [r1]
	movw	r2, #1092
.Ltmp569:
	.loc	7 2247 4                @ ../Drivers/STM32F7xx_HAL_Driver/Src/stm32f7xx_hal_tim.c:2247:4
	tst	r1, r2
.Ltmp570:
	.loc	7 2247 4                @ ../Drivers/STM32F7xx_HAL_Driver/Src/stm32f7xx_hal_tim.c:2247:4
	ittt	eq
	ldreq	r1, [r0]
	biceq	r1, r1, #1
	streq	r1, [r0]
.Ltmp571:
.LBB53_6:
	@DEBUG_VALUE: HAL_TIM_OnePulse_Stop_IT:htim <- $r4
	.loc	7 2250 3 is_stmt 1      @ ../Drivers/STM32F7xx_HAL_Driver/Src/stm32f7xx_hal_tim.c:2250:3
	movs	r0, #0
	pop	{r4, pc}
.Ltmp572:
	.p2align	2
@ %bb.7:
	.loc	7 0 3 is_stmt 0         @ ../Drivers/STM32F7xx_HAL_Driver/Src/stm32f7xx_hal_tim.c:0:3
__arm_cp.53_0:
	.long	1073808384              @ 0x40010400
.Lcpi_end34:
	.size	__arm_cp.53_0, .Lcpi_end34-__arm_cp.53_0
.Lfunc_end53:
	.size	HAL_TIM_OnePulse_Stop_IT, .Lfunc_end53-HAL_TIM_OnePulse_Stop_IT
	.cfi_endproc
	.cantunwind
	.fnend
                                        @ -- End function
	.section	.text.HAL_TIM_Encoder_Init,"ax",%progbits
	.hidden	HAL_TIM_Encoder_Init    @ -- Begin function HAL_TIM_Encoder_Init
	.globl	HAL_TIM_Encoder_Init
	.p2align	2
	.type	HAL_TIM_Encoder_Init,%function
	.code	16                      @ @HAL_TIM_Encoder_Init
	.thumb_func
HAL_TIM_Encoder_Init:
.Lfunc_begin54:
	.loc	7 2286 0 is_stmt 1      @ ../Drivers/STM32F7xx_HAL_Driver/Src/stm32f7xx_hal_tim.c:2286:0
	.fnstart
	.cfi_startproc
@ %bb.0:
	.save	{r4, r5, r6, r7, r8, r9, r10, r11, lr}
	.pad	#4
	push.w	{r3, r4, r5, r6, r7, r8, r9, r10, r11, lr}
	.cfi_def_cfa_offset 40
	.cfi_offset lr, -4
	.cfi_offset r11, -8
	.cfi_offset r10, -12
	.cfi_offset r9, -16
	.cfi_offset r8, -20
	.cfi_offset r7, -24
	.cfi_offset r6, -28
	.cfi_offset r5, -32
	.cfi_offset r4, -36
	@DEBUG_VALUE: HAL_TIM_Encoder_Init:htim <- $r0
	@DEBUG_VALUE: HAL_TIM_Encoder_Init:sConfig <- $r1
	mov	r5, r1
	mov	r4, r0
.Ltmp573:
	@DEBUG_VALUE: HAL_TIM_Encoder_Init:tmpccer <- 0
	@DEBUG_VALUE: HAL_TIM_Encoder_Init:tmpccmr1 <- 0
	@DEBUG_VALUE: HAL_TIM_Encoder_Init:tmpsmcr <- 0
	@DEBUG_VALUE: HAL_TIM_Encoder_Init:sConfig <- $r5
	@DEBUG_VALUE: HAL_TIM_Encoder_Init:htim <- $r4
	.loc	7 2292 6 prologue_end   @ ../Drivers/STM32F7xx_HAL_Driver/Src/stm32f7xx_hal_tim.c:2292:6
	cmp	r0, #0
	beq	.LBB54_4
.Ltmp574:
@ %bb.1:
	@DEBUG_VALUE: HAL_TIM_Encoder_Init:htim <- $r4
	@DEBUG_VALUE: HAL_TIM_Encoder_Init:sConfig <- $r5
	.loc	7 2312 12               @ ../Drivers/STM32F7xx_HAL_Driver/Src/stm32f7xx_hal_tim.c:2312:12
	ldrb.w	r0, [r4, #61]
.Ltmp575:
	.loc	7 2312 6 is_stmt 0      @ ../Drivers/STM32F7xx_HAL_Driver/Src/stm32f7xx_hal_tim.c:2312:6
	cbnz	r0, .LBB54_3
.Ltmp576:
@ %bb.2:
	@DEBUG_VALUE: HAL_TIM_Encoder_Init:htim <- $r4
	@DEBUG_VALUE: HAL_TIM_Encoder_Init:sConfig <- $r5
	.loc	7 2315 16 is_stmt 1     @ ../Drivers/STM32F7xx_HAL_Driver/Src/stm32f7xx_hal_tim.c:2315:16
	movs	r0, #0
	strb.w	r0, [r4, #60]
	.loc	7 2317 5                @ ../Drivers/STM32F7xx_HAL_Driver/Src/stm32f7xx_hal_tim.c:2317:5
	mov	r0, r4
	bl	HAL_TIM_Encoder_MspInit
.Ltmp577:
.LBB54_3:
	@DEBUG_VALUE: HAL_TIM_Encoder_Init:htim <- $r4
	@DEBUG_VALUE: HAL_TIM_Encoder_Init:sConfig <- $r5
	.loc	7 2321 14               @ ../Drivers/STM32F7xx_HAL_Driver/Src/stm32f7xx_hal_tim.c:2321:14
	movs	r0, #2
	.loc	7 2324 24               @ ../Drivers/STM32F7xx_HAL_Driver/Src/stm32f7xx_hal_tim.c:2324:24
	ldr	r2, __arm_cp.54_0
	.loc	7 2321 14               @ ../Drivers/STM32F7xx_HAL_Driver/Src/stm32f7xx_hal_tim.c:2321:14
	strb.w	r0, [r4, #61]
	.loc	7 2324 9                @ ../Drivers/STM32F7xx_HAL_Driver/Src/stm32f7xx_hal_tim.c:2324:9
	ldr	r0, [r4]
	.loc	7 2324 24 is_stmt 0     @ ../Drivers/STM32F7xx_HAL_Driver/Src/stm32f7xx_hal_tim.c:2324:24
	ldr	r1, [r0, #8]
	ands	r1, r2
	str	r1, [r0, #8]
	.loc	7 2327 45 is_stmt 1     @ ../Drivers/STM32F7xx_HAL_Driver/Src/stm32f7xx_hal_tim.c:2327:45
	adds	r1, r4, #4
	.loc	7 2327 3 is_stmt 0      @ ../Drivers/STM32F7xx_HAL_Driver/Src/stm32f7xx_hal_tim.c:2327:3
	bl	TIM_Base_SetConfig
	.loc	7 2330 19 is_stmt 1     @ ../Drivers/STM32F7xx_HAL_Driver/Src/stm32f7xx_hal_tim.c:2330:19
	ldr	r0, [r4]
	.loc	7 2330 29 is_stmt 0     @ ../Drivers/STM32F7xx_HAL_Driver/Src/stm32f7xx_hal_tim.c:2330:29
	ldr	r1, [r0, #8]
.Ltmp578:
	@DEBUG_VALUE: HAL_TIM_Encoder_Init:tmpsmcr <- $r1
	.loc	7 2333 30 is_stmt 1     @ ../Drivers/STM32F7xx_HAL_Driver/Src/stm32f7xx_hal_tim.c:2333:30
	ldr.w	r10, [r0, #24]
.Ltmp579:
	@DEBUG_VALUE: HAL_TIM_Encoder_Init:tmpccmr1 <- $r10
	.loc	7 2336 29               @ ../Drivers/STM32F7xx_HAL_Driver/Src/stm32f7xx_hal_tim.c:2336:29
	ldr.w	r12, [r0, #32]
.Ltmp580:
	@DEBUG_VALUE: HAL_TIM_Encoder_Init:tmpccer <- $r12
	.loc	7 2339 23               @ ../Drivers/STM32F7xx_HAL_Driver/Src/stm32f7xx_hal_tim.c:2339:23
	ldrd	r3, lr, [r5]
	.loc	7 2343 25               @ ../Drivers/STM32F7xx_HAL_Driver/Src/stm32f7xx_hal_tim.c:2343:25
	ldrd	r11, r7, [r5, #8]
	.loc	7 2349 25               @ ../Drivers/STM32F7xx_HAL_Driver/Src/stm32f7xx_hal_tim.c:2349:25
	ldrd	r8, r9, [r5, #16]
	.loc	7 2343 50               @ ../Drivers/STM32F7xx_HAL_Driver/Src/stm32f7xx_hal_tim.c:2343:50
	ldrd	r2, r6, [r5, #24]
	.loc	7 2339 11               @ ../Drivers/STM32F7xx_HAL_Driver/Src/stm32f7xx_hal_tim.c:2339:11
	orrs	r1, r3
.Ltmp581:
	@DEBUG_VALUE: HAL_TIM_Encoder_Init:tmpsmcr <- $r1
	.loc	7 2349 53               @ ../Drivers/STM32F7xx_HAL_Driver/Src/stm32f7xx_hal_tim.c:2349:53
	ldr	r3, [r5, #32]
	.loc	7 2343 38               @ ../Drivers/STM32F7xx_HAL_Driver/Src/stm32f7xx_hal_tim.c:2343:38
	orr.w	r2, r11, r2, lsl #8
	.loc	7 2346 12               @ ../Drivers/STM32F7xx_HAL_Driver/Src/stm32f7xx_hal_tim.c:2346:12
	movw	r5, #64764
.Ltmp582:
	.loc	7 2357 24               @ ../Drivers/STM32F7xx_HAL_Driver/Src/stm32f7xx_hal_tim.c:2357:24
	str	r1, [r0, #8]
	.loc	7 2342 12               @ ../Drivers/STM32F7xx_HAL_Driver/Src/stm32f7xx_hal_tim.c:2342:12
	movw	r1, #65535
.Ltmp583:
	.loc	7 2346 12               @ ../Drivers/STM32F7xx_HAL_Driver/Src/stm32f7xx_hal_tim.c:2346:12
	bics	r2, r5
	.loc	7 2342 12               @ ../Drivers/STM32F7xx_HAL_Driver/Src/stm32f7xx_hal_tim.c:2342:12
	bic.w	r1, r10, r1
.Ltmp584:
	@DEBUG_VALUE: HAL_TIM_Encoder_Init:tmpccmr1 <- $r1
	.loc	7 2349 41               @ ../Drivers/STM32F7xx_HAL_Driver/Src/stm32f7xx_hal_tim.c:2349:41
	orrs	r1, r7
.Ltmp585:
	.loc	7 2348 37               @ ../Drivers/STM32F7xx_HAL_Driver/Src/stm32f7xx_hal_tim.c:2348:37
	orrs	r1, r2
	.loc	7 2346 12               @ ../Drivers/STM32F7xx_HAL_Driver/Src/stm32f7xx_hal_tim.c:2346:12
	orr.w	r1, r1, r6, lsl #8
.Ltmp586:
	@DEBUG_VALUE: HAL_TIM_Encoder_Init:tmpccmr1 <- $r1
	.loc	7 2348 12               @ ../Drivers/STM32F7xx_HAL_Driver/Src/stm32f7xx_hal_tim.c:2348:12
	orr.w	r1, r1, r8, lsl #4
.Ltmp587:
	@DEBUG_VALUE: HAL_TIM_Encoder_Init:tmpccmr1 <- $r1
	.loc	7 2349 12               @ ../Drivers/STM32F7xx_HAL_Driver/Src/stm32f7xx_hal_tim.c:2349:12
	orr.w	r1, r1, r3, lsl #12
.Ltmp588:
	@DEBUG_VALUE: HAL_TIM_Encoder_Init:tmpccmr1 <- $r1
	.loc	7 2360 25               @ ../Drivers/STM32F7xx_HAL_Driver/Src/stm32f7xx_hal_tim.c:2360:25
	str	r1, [r0, #24]
	.loc	7 2353 11               @ ../Drivers/STM32F7xx_HAL_Driver/Src/stm32f7xx_hal_tim.c:2353:11
	bic	r1, r12, #170
.Ltmp589:
	@DEBUG_VALUE: HAL_TIM_Encoder_Init:tmpccer <- $r1
	.loc	7 2354 35               @ ../Drivers/STM32F7xx_HAL_Driver/Src/stm32f7xx_hal_tim.c:2354:35
	orr.w	r1, r1, lr
.Ltmp590:
	.loc	7 2354 11 is_stmt 0     @ ../Drivers/STM32F7xx_HAL_Driver/Src/stm32f7xx_hal_tim.c:2354:11
	orr.w	r1, r1, r9, lsl #4
.Ltmp591:
	@DEBUG_VALUE: HAL_TIM_Encoder_Init:tmpccer <- $r1
	.loc	7 2363 24 is_stmt 1     @ ../Drivers/STM32F7xx_HAL_Driver/Src/stm32f7xx_hal_tim.c:2363:24
	str	r1, [r0, #32]
	.loc	7 2366 14               @ ../Drivers/STM32F7xx_HAL_Driver/Src/stm32f7xx_hal_tim.c:2366:14
	movs	r0, #1
	strb.w	r0, [r4, #61]
	movs	r0, #0
	b	.LBB54_5
.Ltmp592:
.LBB54_4:
	@DEBUG_VALUE: HAL_TIM_Encoder_Init:htim <- $r4
	@DEBUG_VALUE: HAL_TIM_Encoder_Init:sConfig <- $r5
	.loc	7 0 14 is_stmt 0        @ ../Drivers/STM32F7xx_HAL_Driver/Src/stm32f7xx_hal_tim.c:0:14
	movs	r0, #1
.Ltmp593:
.LBB54_5:
	@DEBUG_VALUE: HAL_TIM_Encoder_Init:htim <- $r4
	.loc	7 2369 1 is_stmt 1      @ ../Drivers/STM32F7xx_HAL_Driver/Src/stm32f7xx_hal_tim.c:2369:1
	add	sp, #4
	pop.w	{r4, r5, r6, r7, r8, r9, r10, r11, pc}
.Ltmp594:
	.p2align	2
@ %bb.6:
	.loc	7 0 1 is_stmt 0         @ ../Drivers/STM32F7xx_HAL_Driver/Src/stm32f7xx_hal_tim.c:0:1
__arm_cp.54_0:
	.long	4294901752              @ 0xfffefff8
.Lcpi_end35:
	.size	__arm_cp.54_0, .Lcpi_end35-__arm_cp.54_0
.Lfunc_end54:
	.size	HAL_TIM_Encoder_Init, .Lfunc_end54-HAL_TIM_Encoder_Init
	.cfi_endproc
	.cantunwind
	.fnend
                                        @ -- End function
	.section	.text.HAL_TIM_Encoder_MspInit,"ax",%progbits
	.hidden	HAL_TIM_Encoder_MspInit @ -- Begin function HAL_TIM_Encoder_MspInit
	.weak	HAL_TIM_Encoder_MspInit
	.p2align	1
	.type	HAL_TIM_Encoder_MspInit,%function
	.code	16                      @ @HAL_TIM_Encoder_MspInit
	.thumb_func
HAL_TIM_Encoder_MspInit:
.Lfunc_begin55:
	.loc	7 2406 0 is_stmt 1      @ ../Drivers/STM32F7xx_HAL_Driver/Src/stm32f7xx_hal_tim.c:2406:0
	.fnstart
	.cfi_startproc
@ %bb.0:
	@DEBUG_VALUE: HAL_TIM_Encoder_MspInit:htim <- $r0
	.loc	7 2413 1 prologue_end   @ ../Drivers/STM32F7xx_HAL_Driver/Src/stm32f7xx_hal_tim.c:2413:1
	bx	lr
.Ltmp595:
.Lfunc_end55:
	.size	HAL_TIM_Encoder_MspInit, .Lfunc_end55-HAL_TIM_Encoder_MspInit
	.cfi_endproc
	.cantunwind
	.fnend
                                        @ -- End function
	.section	.text.HAL_TIM_Encoder_DeInit,"ax",%progbits
	.hidden	HAL_TIM_Encoder_DeInit  @ -- Begin function HAL_TIM_Encoder_DeInit
	.globl	HAL_TIM_Encoder_DeInit
	.p2align	1
	.type	HAL_TIM_Encoder_DeInit,%function
	.code	16                      @ @HAL_TIM_Encoder_DeInit
	.thumb_func
HAL_TIM_Encoder_DeInit:
.Lfunc_begin56:
	.loc	7 2378 0                @ ../Drivers/STM32F7xx_HAL_Driver/Src/stm32f7xx_hal_tim.c:2378:0
	.fnstart
	.cfi_startproc
@ %bb.0:
	.save	{r4, lr}
	push	{r4, lr}
	.cfi_def_cfa_offset 8
	.cfi_offset lr, -4
	.cfi_offset r4, -8
	@DEBUG_VALUE: HAL_TIM_Encoder_DeInit:htim <- $r0
	mov	r4, r0
.Ltmp596:
	@DEBUG_VALUE: HAL_TIM_Encoder_DeInit:htim <- $r4
	.loc	7 2382 15 prologue_end  @ ../Drivers/STM32F7xx_HAL_Driver/Src/stm32f7xx_hal_tim.c:2382:15
	movs	r0, #2
.Ltmp597:
	.loc	7 2385 3                @ ../Drivers/STM32F7xx_HAL_Driver/Src/stm32f7xx_hal_tim.c:2385:3
	movw	r2, #4369
.Ltmp598:
	.loc	7 2382 15               @ ../Drivers/STM32F7xx_HAL_Driver/Src/stm32f7xx_hal_tim.c:2382:15
	strb.w	r0, [r4, #61]
.Ltmp599:
	.loc	7 2385 3                @ ../Drivers/STM32F7xx_HAL_Driver/Src/stm32f7xx_hal_tim.c:2385:3
	ldr	r0, [r4]
	ldr	r1, [r0, #32]
.Ltmp600:
	.loc	7 2385 3 is_stmt 0      @ ../Drivers/STM32F7xx_HAL_Driver/Src/stm32f7xx_hal_tim.c:2385:3
	tst	r1, r2
	bne	.LBB56_2
.Ltmp601:
@ %bb.1:
	@DEBUG_VALUE: HAL_TIM_Encoder_DeInit:htim <- $r4
	.loc	7 2385 3                @ ../Drivers/STM32F7xx_HAL_Driver/Src/stm32f7xx_hal_tim.c:2385:3
	ldr	r1, [r0, #32]
	movw	r2, #1092
.Ltmp602:
	.loc	7 2385 3                @ ../Drivers/STM32F7xx_HAL_Driver/Src/stm32f7xx_hal_tim.c:2385:3
	tst	r1, r2
.Ltmp603:
	.loc	7 2385 3                @ ../Drivers/STM32F7xx_HAL_Driver/Src/stm32f7xx_hal_tim.c:2385:3
	ittt	eq
	ldreq	r1, [r0]
	biceq	r1, r1, #1
	streq	r1, [r0]
.Ltmp604:
.LBB56_2:
	@DEBUG_VALUE: HAL_TIM_Encoder_DeInit:htim <- $r4
	.loc	7 2388 3 is_stmt 1      @ ../Drivers/STM32F7xx_HAL_Driver/Src/stm32f7xx_hal_tim.c:2388:3
	mov	r0, r4
	bl	HAL_TIM_Encoder_MspDeInit
	movs	r0, #0
.Ltmp605:
	.loc	7 2394 3                @ ../Drivers/STM32F7xx_HAL_Driver/Src/stm32f7xx_hal_tim.c:2394:3
	strb.w	r0, [r4, #60]
.Ltmp606:
	.loc	7 2391 15               @ ../Drivers/STM32F7xx_HAL_Driver/Src/stm32f7xx_hal_tim.c:2391:15
	strb.w	r0, [r4, #61]
	.loc	7 2396 3                @ ../Drivers/STM32F7xx_HAL_Driver/Src/stm32f7xx_hal_tim.c:2396:3
	movs	r0, #0
	pop	{r4, pc}
.Ltmp607:
.Lfunc_end56:
	.size	HAL_TIM_Encoder_DeInit, .Lfunc_end56-HAL_TIM_Encoder_DeInit
	.cfi_endproc
	.cantunwind
	.fnend
                                        @ -- End function
	.section	.text.HAL_TIM_Encoder_MspDeInit,"ax",%progbits
	.hidden	HAL_TIM_Encoder_MspDeInit @ -- Begin function HAL_TIM_Encoder_MspDeInit
	.weak	HAL_TIM_Encoder_MspDeInit
	.p2align	1
	.type	HAL_TIM_Encoder_MspDeInit,%function
	.code	16                      @ @HAL_TIM_Encoder_MspDeInit
	.thumb_func
HAL_TIM_Encoder_MspDeInit:
.Lfunc_begin57:
	.loc	7 2422 0                @ ../Drivers/STM32F7xx_HAL_Driver/Src/stm32f7xx_hal_tim.c:2422:0
	.fnstart
	.cfi_startproc
@ %bb.0:
	@DEBUG_VALUE: HAL_TIM_Encoder_MspDeInit:htim <- $r0
	.loc	7 2429 1 prologue_end   @ ../Drivers/STM32F7xx_HAL_Driver/Src/stm32f7xx_hal_tim.c:2429:1
	bx	lr
.Ltmp608:
.Lfunc_end57:
	.size	HAL_TIM_Encoder_MspDeInit, .Lfunc_end57-HAL_TIM_Encoder_MspDeInit
	.cfi_endproc
	.cantunwind
	.fnend
                                        @ -- End function
	.section	.text.HAL_TIM_Encoder_Start,"ax",%progbits
	.hidden	HAL_TIM_Encoder_Start   @ -- Begin function HAL_TIM_Encoder_Start
	.globl	HAL_TIM_Encoder_Start
	.p2align	1
	.type	HAL_TIM_Encoder_Start,%function
	.code	16                      @ @HAL_TIM_Encoder_Start
	.thumb_func
HAL_TIM_Encoder_Start:
.Lfunc_begin58:
	.loc	7 2443 0                @ ../Drivers/STM32F7xx_HAL_Driver/Src/stm32f7xx_hal_tim.c:2443:0
	.fnstart
	.cfi_startproc
@ %bb.0:
	.save	{r4, lr}
	push	{r4, lr}
	.cfi_def_cfa_offset 8
	.cfi_offset lr, -4
	.cfi_offset r4, -8
	@DEBUG_VALUE: HAL_TIM_Encoder_Start:htim <- $r0
	@DEBUG_VALUE: HAL_TIM_Encoder_Start:Channel <- $r1
	mov	r4, r0
	@DEBUG_VALUE: HAL_TIM_Encoder_Start:Channel <- $r1
.Ltmp609:
	@DEBUG_VALUE: HAL_TIM_Encoder_Start:htim <- $r4
	.loc	7 2448 3 prologue_end   @ ../Drivers/STM32F7xx_HAL_Driver/Src/stm32f7xx_hal_tim.c:2448:3
	cmp	r1, #4
	beq	.LBB58_4
.Ltmp610:
@ %bb.1:
	@DEBUG_VALUE: HAL_TIM_Encoder_Start:htim <- $r4
	@DEBUG_VALUE: HAL_TIM_Encoder_Start:Channel <- $r1
	cbnz	r1, .LBB58_3
.Ltmp611:
@ %bb.2:
	@DEBUG_VALUE: HAL_TIM_Encoder_Start:htim <- $r4
	@DEBUG_VALUE: HAL_TIM_Encoder_Start:Channel <- $r1
	.loc	7 2452 31               @ ../Drivers/STM32F7xx_HAL_Driver/Src/stm32f7xx_hal_tim.c:2452:31
	ldr	r0, [r4]
	.loc	7 2452 7 is_stmt 0      @ ../Drivers/STM32F7xx_HAL_Driver/Src/stm32f7xx_hal_tim.c:2452:7
	movs	r1, #0
.Ltmp612:
	.loc	7 0 7                   @ ../Drivers/STM32F7xx_HAL_Driver/Src/stm32f7xx_hal_tim.c:0:7
	b	.LBB58_5
.Ltmp613:
.LBB58_3:
	@DEBUG_VALUE: HAL_TIM_Encoder_Start:htim <- $r4
	@DEBUG_VALUE: HAL_TIM_Encoder_Start:Channel <- $r1
	.loc	7 2462 30 is_stmt 1     @ ../Drivers/STM32F7xx_HAL_Driver/Src/stm32f7xx_hal_tim.c:2462:30
	ldr	r0, [r4]
	.loc	7 2462 6 is_stmt 0      @ ../Drivers/STM32F7xx_HAL_Driver/Src/stm32f7xx_hal_tim.c:2462:6
	movs	r1, #0
.Ltmp614:
	movs	r2, #1
	bl	TIM_CCxChannelCmd
.Ltmp615:
.LBB58_4:
	@DEBUG_VALUE: HAL_TIM_Encoder_Start:htim <- $r4
	.loc	7 0 6                   @ ../Drivers/STM32F7xx_HAL_Driver/Src/stm32f7xx_hal_tim.c:0:6
	ldr	r0, [r4]
	movs	r1, #4
.Ltmp616:
.LBB58_5:
	@DEBUG_VALUE: HAL_TIM_Encoder_Start:htim <- $r4
	movs	r2, #1
	bl	TIM_CCxChannelCmd
	.loc	7 2468 3 is_stmt 1      @ ../Drivers/STM32F7xx_HAL_Driver/Src/stm32f7xx_hal_tim.c:2468:3
	ldr	r0, [r4]
	ldr	r1, [r0]
	orr	r1, r1, #1
	str	r1, [r0]
	.loc	7 2471 3                @ ../Drivers/STM32F7xx_HAL_Driver/Src/stm32f7xx_hal_tim.c:2471:3
	movs	r0, #0
	pop	{r4, pc}
.Ltmp617:
.Lfunc_end58:
	.size	HAL_TIM_Encoder_Start, .Lfunc_end58-HAL_TIM_Encoder_Start
	.cfi_endproc
	.cantunwind
	.fnend
                                        @ -- End function
	.section	.text.HAL_TIM_Encoder_Stop,"ax",%progbits
	.hidden	HAL_TIM_Encoder_Stop    @ -- Begin function HAL_TIM_Encoder_Stop
	.globl	HAL_TIM_Encoder_Stop
	.p2align	1
	.type	HAL_TIM_Encoder_Stop,%function
	.code	16                      @ @HAL_TIM_Encoder_Stop
	.thumb_func
HAL_TIM_Encoder_Stop:
.Lfunc_begin59:
	.loc	7 2486 0                @ ../Drivers/STM32F7xx_HAL_Driver/Src/stm32f7xx_hal_tim.c:2486:0
	.fnstart
	.cfi_startproc
@ %bb.0:
	.save	{r4, lr}
	push	{r4, lr}
	.cfi_def_cfa_offset 8
	.cfi_offset lr, -4
	.cfi_offset r4, -8
	@DEBUG_VALUE: HAL_TIM_Encoder_Stop:htim <- $r0
	@DEBUG_VALUE: HAL_TIM_Encoder_Stop:Channel <- $r1
	mov	r4, r0
	@DEBUG_VALUE: HAL_TIM_Encoder_Stop:Channel <- $r1
.Ltmp618:
	@DEBUG_VALUE: HAL_TIM_Encoder_Stop:htim <- $r4
	.loc	7 2492 3 prologue_end   @ ../Drivers/STM32F7xx_HAL_Driver/Src/stm32f7xx_hal_tim.c:2492:3
	cmp	r1, #4
	beq	.LBB59_4
.Ltmp619:
@ %bb.1:
	@DEBUG_VALUE: HAL_TIM_Encoder_Stop:htim <- $r4
	@DEBUG_VALUE: HAL_TIM_Encoder_Stop:Channel <- $r1
	cbnz	r1, .LBB59_3
.Ltmp620:
@ %bb.2:
	@DEBUG_VALUE: HAL_TIM_Encoder_Stop:htim <- $r4
	@DEBUG_VALUE: HAL_TIM_Encoder_Stop:Channel <- $r1
	.loc	7 2496 31               @ ../Drivers/STM32F7xx_HAL_Driver/Src/stm32f7xx_hal_tim.c:2496:31
	ldr	r0, [r4]
	.loc	7 2496 7 is_stmt 0      @ ../Drivers/STM32F7xx_HAL_Driver/Src/stm32f7xx_hal_tim.c:2496:7
	movs	r1, #0
.Ltmp621:
	.loc	7 0 7                   @ ../Drivers/STM32F7xx_HAL_Driver/Src/stm32f7xx_hal_tim.c:0:7
	b	.LBB59_5
.Ltmp622:
.LBB59_3:
	@DEBUG_VALUE: HAL_TIM_Encoder_Stop:htim <- $r4
	@DEBUG_VALUE: HAL_TIM_Encoder_Stop:Channel <- $r1
	.loc	7 2506 30 is_stmt 1     @ ../Drivers/STM32F7xx_HAL_Driver/Src/stm32f7xx_hal_tim.c:2506:30
	ldr	r0, [r4]
	.loc	7 2506 6 is_stmt 0      @ ../Drivers/STM32F7xx_HAL_Driver/Src/stm32f7xx_hal_tim.c:2506:6
	movs	r1, #0
.Ltmp623:
	movs	r2, #0
	bl	TIM_CCxChannelCmd
.Ltmp624:
.LBB59_4:
	@DEBUG_VALUE: HAL_TIM_Encoder_Stop:htim <- $r4
	.loc	7 0 6                   @ ../Drivers/STM32F7xx_HAL_Driver/Src/stm32f7xx_hal_tim.c:0:6
	ldr	r0, [r4]
	movs	r1, #4
.Ltmp625:
.LBB59_5:
	@DEBUG_VALUE: HAL_TIM_Encoder_Stop:htim <- $r4
	movs	r2, #0
	bl	TIM_CCxChannelCmd
.Ltmp626:
	.loc	7 2512 3 is_stmt 1      @ ../Drivers/STM32F7xx_HAL_Driver/Src/stm32f7xx_hal_tim.c:2512:3
	ldr	r0, [r4]
	movw	r2, #4369
	ldr	r1, [r0, #32]
.Ltmp627:
	.loc	7 2512 3 is_stmt 0      @ ../Drivers/STM32F7xx_HAL_Driver/Src/stm32f7xx_hal_tim.c:2512:3
	tst	r1, r2
	bne	.LBB59_7
.Ltmp628:
@ %bb.6:
	@DEBUG_VALUE: HAL_TIM_Encoder_Stop:htim <- $r4
	.loc	7 2512 3                @ ../Drivers/STM32F7xx_HAL_Driver/Src/stm32f7xx_hal_tim.c:2512:3
	ldr	r1, [r0, #32]
	movw	r2, #1092
.Ltmp629:
	.loc	7 2512 3                @ ../Drivers/STM32F7xx_HAL_Driver/Src/stm32f7xx_hal_tim.c:2512:3
	tst	r1, r2
.Ltmp630:
	.loc	7 2512 3                @ ../Drivers/STM32F7xx_HAL_Driver/Src/stm32f7xx_hal_tim.c:2512:3
	ittt	eq
	ldreq	r1, [r0]
	biceq	r1, r1, #1
	streq	r1, [r0]
.Ltmp631:
.LBB59_7:
	@DEBUG_VALUE: HAL_TIM_Encoder_Stop:htim <- $r4
	.loc	7 2515 3 is_stmt 1      @ ../Drivers/STM32F7xx_HAL_Driver/Src/stm32f7xx_hal_tim.c:2515:3
	movs	r0, #0
	pop	{r4, pc}
.Ltmp632:
.Lfunc_end59:
	.size	HAL_TIM_Encoder_Stop, .Lfunc_end59-HAL_TIM_Encoder_Stop
	.cfi_endproc
	.cantunwind
	.fnend
                                        @ -- End function
	.section	.text.HAL_TIM_Encoder_Start_IT,"ax",%progbits
	.hidden	HAL_TIM_Encoder_Start_IT @ -- Begin function HAL_TIM_Encoder_Start_IT
	.globl	HAL_TIM_Encoder_Start_IT
	.p2align	1
	.type	HAL_TIM_Encoder_Start_IT,%function
	.code	16                      @ @HAL_TIM_Encoder_Start_IT
	.thumb_func
HAL_TIM_Encoder_Start_IT:
.Lfunc_begin60:
	.loc	7 2530 0                @ ../Drivers/STM32F7xx_HAL_Driver/Src/stm32f7xx_hal_tim.c:2530:0
	.fnstart
	.cfi_startproc
@ %bb.0:
	.save	{r4, r5, r7, lr}
	push	{r4, r5, r7, lr}
	.cfi_def_cfa_offset 16
	.cfi_offset lr, -4
	.cfi_offset r7, -8
	.cfi_offset r5, -12
	.cfi_offset r4, -16
	@DEBUG_VALUE: HAL_TIM_Encoder_Start_IT:htim <- $r0
	@DEBUG_VALUE: HAL_TIM_Encoder_Start_IT:Channel <- $r1
	mov	r4, r0
	@DEBUG_VALUE: HAL_TIM_Encoder_Start_IT:Channel <- $r1
.Ltmp633:
	@DEBUG_VALUE: HAL_TIM_Encoder_Start_IT:htim <- $r4
	.loc	7 2536 3 prologue_end   @ ../Drivers/STM32F7xx_HAL_Driver/Src/stm32f7xx_hal_tim.c:2536:3
	cmp	r1, #4
	beq	.LBB60_3
.Ltmp634:
@ %bb.1:
	@DEBUG_VALUE: HAL_TIM_Encoder_Start_IT:htim <- $r4
	@DEBUG_VALUE: HAL_TIM_Encoder_Start_IT:Channel <- $r1
	cbnz	r1, .LBB60_4
.Ltmp635:
@ %bb.2:
	@DEBUG_VALUE: HAL_TIM_Encoder_Start_IT:htim <- $r4
	@DEBUG_VALUE: HAL_TIM_Encoder_Start_IT:Channel <- $r1
	.loc	7 2540 31               @ ../Drivers/STM32F7xx_HAL_Driver/Src/stm32f7xx_hal_tim.c:2540:31
	ldr	r0, [r4]
	.loc	7 2540 7 is_stmt 0      @ ../Drivers/STM32F7xx_HAL_Driver/Src/stm32f7xx_hal_tim.c:2540:7
	movs	r1, #0
.Ltmp636:
	movs	r2, #1
	bl	TIM_CCxChannelCmd
	.loc	7 2541 7 is_stmt 1      @ ../Drivers/STM32F7xx_HAL_Driver/Src/stm32f7xx_hal_tim.c:2541:7
	ldr	r0, [r4]
	movs	r5, #2
	b	.LBB60_5
.Ltmp637:
.LBB60_3:
	@DEBUG_VALUE: HAL_TIM_Encoder_Start_IT:htim <- $r4
	@DEBUG_VALUE: HAL_TIM_Encoder_Start_IT:Channel <- $r1
	.loc	7 2546 31               @ ../Drivers/STM32F7xx_HAL_Driver/Src/stm32f7xx_hal_tim.c:2546:31
	ldr	r0, [r4]
	.loc	7 2546 7 is_stmt 0      @ ../Drivers/STM32F7xx_HAL_Driver/Src/stm32f7xx_hal_tim.c:2546:7
	movs	r1, #4
.Ltmp638:
	movs	r2, #1
	movs	r5, #4
	bl	TIM_CCxChannelCmd
	.loc	7 2547 7 is_stmt 1      @ ../Drivers/STM32F7xx_HAL_Driver/Src/stm32f7xx_hal_tim.c:2547:7
	ldr	r0, [r4]
	b	.LBB60_5
.Ltmp639:
.LBB60_4:
	@DEBUG_VALUE: HAL_TIM_Encoder_Start_IT:htim <- $r4
	@DEBUG_VALUE: HAL_TIM_Encoder_Start_IT:Channel <- $r1
	.loc	7 2552 30               @ ../Drivers/STM32F7xx_HAL_Driver/Src/stm32f7xx_hal_tim.c:2552:30
	ldr	r0, [r4]
	.loc	7 2552 6 is_stmt 0      @ ../Drivers/STM32F7xx_HAL_Driver/Src/stm32f7xx_hal_tim.c:2552:6
	movs	r1, #0
.Ltmp640:
	movs	r2, #1
	bl	TIM_CCxChannelCmd
	.loc	7 2553 30 is_stmt 1     @ ../Drivers/STM32F7xx_HAL_Driver/Src/stm32f7xx_hal_tim.c:2553:30
	ldr	r0, [r4]
	.loc	7 2553 6 is_stmt 0      @ ../Drivers/STM32F7xx_HAL_Driver/Src/stm32f7xx_hal_tim.c:2553:6
	movs	r1, #4
	movs	r2, #1
	movs	r5, #4
	bl	TIM_CCxChannelCmd
	.loc	7 2554 6 is_stmt 1      @ ../Drivers/STM32F7xx_HAL_Driver/Src/stm32f7xx_hal_tim.c:2554:6
	ldr	r0, [r4]
	ldr	r1, [r0, #12]
	orr	r1, r1, #2
	str	r1, [r0, #12]
.Ltmp641:
.LBB60_5:
	@DEBUG_VALUE: HAL_TIM_Encoder_Start_IT:htim <- $r4
	.loc	7 0 6 is_stmt 0         @ ../Drivers/STM32F7xx_HAL_Driver/Src/stm32f7xx_hal_tim.c:0:6
	ldr	r1, [r0, #12]
	orrs	r1, r5
	str	r1, [r0, #12]
	.loc	7 2561 3 is_stmt 1      @ ../Drivers/STM32F7xx_HAL_Driver/Src/stm32f7xx_hal_tim.c:2561:3
	ldr	r1, [r0]
	orr	r1, r1, #1
	str	r1, [r0]
	.loc	7 2564 3                @ ../Drivers/STM32F7xx_HAL_Driver/Src/stm32f7xx_hal_tim.c:2564:3
	movs	r0, #0
	pop	{r4, r5, r7, pc}
.Ltmp642:
.Lfunc_end60:
	.size	HAL_TIM_Encoder_Start_IT, .Lfunc_end60-HAL_TIM_Encoder_Start_IT
	.cfi_endproc
	.cantunwind
	.fnend
                                        @ -- End function
	.section	.text.HAL_TIM_Encoder_Stop_IT,"ax",%progbits
	.hidden	HAL_TIM_Encoder_Stop_IT @ -- Begin function HAL_TIM_Encoder_Stop_IT
	.globl	HAL_TIM_Encoder_Stop_IT
	.p2align	1
	.type	HAL_TIM_Encoder_Stop_IT,%function
	.code	16                      @ @HAL_TIM_Encoder_Stop_IT
	.thumb_func
HAL_TIM_Encoder_Stop_IT:
.Lfunc_begin61:
	.loc	7 2579 0                @ ../Drivers/STM32F7xx_HAL_Driver/Src/stm32f7xx_hal_tim.c:2579:0
	.fnstart
	.cfi_startproc
@ %bb.0:
	.save	{r4, lr}
	push	{r4, lr}
	.cfi_def_cfa_offset 8
	.cfi_offset lr, -4
	.cfi_offset r4, -8
	@DEBUG_VALUE: HAL_TIM_Encoder_Stop_IT:htim <- $r0
	@DEBUG_VALUE: HAL_TIM_Encoder_Stop_IT:Channel <- $r1
	mov	r4, r0
	@DEBUG_VALUE: HAL_TIM_Encoder_Stop_IT:Channel <- $r1
.Ltmp643:
	@DEBUG_VALUE: HAL_TIM_Encoder_Stop_IT:htim <- $r4
	.loc	7 2585 6 prologue_end   @ ../Drivers/STM32F7xx_HAL_Driver/Src/stm32f7xx_hal_tim.c:2585:6
	cbz	r1, .LBB61_3
.Ltmp644:
@ %bb.1:
	@DEBUG_VALUE: HAL_TIM_Encoder_Stop_IT:htim <- $r4
	@DEBUG_VALUE: HAL_TIM_Encoder_Stop_IT:Channel <- $r1
	.loc	7 0 6 is_stmt 0         @ ../Drivers/STM32F7xx_HAL_Driver/Src/stm32f7xx_hal_tim.c:0:6
	ldr	r0, [r4]
.Ltmp645:
	.loc	7 2592 11 is_stmt 1     @ ../Drivers/STM32F7xx_HAL_Driver/Src/stm32f7xx_hal_tim.c:2592:11
	cmp	r1, #4
	bne	.LBB61_4
.Ltmp646:
@ %bb.2:
	@DEBUG_VALUE: HAL_TIM_Encoder_Stop_IT:htim <- $r4
	@DEBUG_VALUE: HAL_TIM_Encoder_Stop_IT:Channel <- $r1
	.loc	7 2594 5                @ ../Drivers/STM32F7xx_HAL_Driver/Src/stm32f7xx_hal_tim.c:2594:5
	movs	r1, #4
.Ltmp647:
	movs	r2, #0
	bl	TIM_CCxChannelCmd
	.loc	7 2597 3                @ ../Drivers/STM32F7xx_HAL_Driver/Src/stm32f7xx_hal_tim.c:2597:3
	ldr	r0, [r4]
	b	.LBB61_5
.Ltmp648:
.LBB61_3:
	@DEBUG_VALUE: HAL_TIM_Encoder_Stop_IT:htim <- $r4
	@DEBUG_VALUE: HAL_TIM_Encoder_Stop_IT:Channel <- $r1
	.loc	7 2587 29               @ ../Drivers/STM32F7xx_HAL_Driver/Src/stm32f7xx_hal_tim.c:2587:29
	ldr	r0, [r4]
	.loc	7 2587 5 is_stmt 0      @ ../Drivers/STM32F7xx_HAL_Driver/Src/stm32f7xx_hal_tim.c:2587:5
	movs	r1, #0
.Ltmp649:
	movs	r2, #0
	bl	TIM_CCxChannelCmd
	.loc	7 2590 3 is_stmt 1      @ ../Drivers/STM32F7xx_HAL_Driver/Src/stm32f7xx_hal_tim.c:2590:3
	ldr	r0, [r4]
	mvn	r1, #2
	b	.LBB61_6
.Ltmp650:
.LBB61_4:
	@DEBUG_VALUE: HAL_TIM_Encoder_Stop_IT:htim <- $r4
	@DEBUG_VALUE: HAL_TIM_Encoder_Stop_IT:Channel <- $r1
	.loc	7 2601 5                @ ../Drivers/STM32F7xx_HAL_Driver/Src/stm32f7xx_hal_tim.c:2601:5
	movs	r1, #0
.Ltmp651:
	movs	r2, #0
	bl	TIM_CCxChannelCmd
	.loc	7 2602 29               @ ../Drivers/STM32F7xx_HAL_Driver/Src/stm32f7xx_hal_tim.c:2602:29
	ldr	r0, [r4]
	.loc	7 2602 5 is_stmt 0      @ ../Drivers/STM32F7xx_HAL_Driver/Src/stm32f7xx_hal_tim.c:2602:5
	movs	r1, #4
	movs	r2, #0
	bl	TIM_CCxChannelCmd
	.loc	7 2605 5 is_stmt 1      @ ../Drivers/STM32F7xx_HAL_Driver/Src/stm32f7xx_hal_tim.c:2605:5
	ldr	r0, [r4]
	ldr	r1, [r0, #12]
	bic	r1, r1, #2
	str	r1, [r0, #12]
.Ltmp652:
.LBB61_5:
	@DEBUG_VALUE: HAL_TIM_Encoder_Stop_IT:htim <- $r4
	.loc	7 0 5 is_stmt 0         @ ../Drivers/STM32F7xx_HAL_Driver/Src/stm32f7xx_hal_tim.c:0:5
	mvn	r1, #4
.Ltmp653:
.LBB61_6:
	@DEBUG_VALUE: HAL_TIM_Encoder_Stop_IT:htim <- $r4
	ldr	r2, [r0, #12]
	ands	r1, r2
.Ltmp654:
	.loc	7 2610 3 is_stmt 1      @ ../Drivers/STM32F7xx_HAL_Driver/Src/stm32f7xx_hal_tim.c:2610:3
	movw	r2, #4369
	str	r1, [r0, #12]
	ldr	r1, [r0, #32]
.Ltmp655:
	.loc	7 2610 3 is_stmt 0      @ ../Drivers/STM32F7xx_HAL_Driver/Src/stm32f7xx_hal_tim.c:2610:3
	tst	r1, r2
	bne	.LBB61_8
.Ltmp656:
@ %bb.7:
	@DEBUG_VALUE: HAL_TIM_Encoder_Stop_IT:htim <- $r4
	.loc	7 2610 3                @ ../Drivers/STM32F7xx_HAL_Driver/Src/stm32f7xx_hal_tim.c:2610:3
	ldr	r1, [r0, #32]
	movw	r2, #1092
.Ltmp657:
	.loc	7 2610 3                @ ../Drivers/STM32F7xx_HAL_Driver/Src/stm32f7xx_hal_tim.c:2610:3
	tst	r1, r2
.Ltmp658:
	.loc	7 2610 3                @ ../Drivers/STM32F7xx_HAL_Driver/Src/stm32f7xx_hal_tim.c:2610:3
	ittt	eq
	ldreq	r1, [r0]
	biceq	r1, r1, #1
	streq	r1, [r0]
.Ltmp659:
.LBB61_8:
	@DEBUG_VALUE: HAL_TIM_Encoder_Stop_IT:htim <- $r4
	.loc	7 2613 15 is_stmt 1     @ ../Drivers/STM32F7xx_HAL_Driver/Src/stm32f7xx_hal_tim.c:2613:15
	movs	r0, #1
	strb.w	r0, [r4, #61]
	.loc	7 2616 3                @ ../Drivers/STM32F7xx_HAL_Driver/Src/stm32f7xx_hal_tim.c:2616:3
	movs	r0, #0
	pop	{r4, pc}
.Ltmp660:
.Lfunc_end61:
	.size	HAL_TIM_Encoder_Stop_IT, .Lfunc_end61-HAL_TIM_Encoder_Stop_IT
	.cfi_endproc
	.cantunwind
	.fnend
                                        @ -- End function
	.section	.text.HAL_TIM_Encoder_Start_DMA,"ax",%progbits
	.hidden	HAL_TIM_Encoder_Start_DMA @ -- Begin function HAL_TIM_Encoder_Start_DMA
	.globl	HAL_TIM_Encoder_Start_DMA
	.p2align	2
	.type	HAL_TIM_Encoder_Start_DMA,%function
	.code	16                      @ @HAL_TIM_Encoder_Start_DMA
	.thumb_func
HAL_TIM_Encoder_Start_DMA:
.Lfunc_begin62:
	.loc	7 2634 0                @ ../Drivers/STM32F7xx_HAL_Driver/Src/stm32f7xx_hal_tim.c:2634:0
	.fnstart
	.cfi_startproc
@ %bb.0:
	.save	{r4, r5, r6, r7, r8, lr}
	push.w	{r4, r5, r6, r7, r8, lr}
	.cfi_def_cfa_offset 24
	.cfi_offset lr, -4
	.cfi_offset r8, -8
	.cfi_offset r7, -12
	.cfi_offset r6, -16
	.cfi_offset r5, -20
	.cfi_offset r4, -24
	@DEBUG_VALUE: HAL_TIM_Encoder_Start_DMA:htim <- $r0
	@DEBUG_VALUE: HAL_TIM_Encoder_Start_DMA:Channel <- $r1
	@DEBUG_VALUE: HAL_TIM_Encoder_Start_DMA:pData1 <- $r2
	@DEBUG_VALUE: HAL_TIM_Encoder_Start_DMA:pData2 <- $r3
	mov	r4, r0
.Ltmp661:
	@DEBUG_VALUE: HAL_TIM_Encoder_Start_DMA:pData2 <- $r6
	@DEBUG_VALUE: HAL_TIM_Encoder_Start_DMA:pData1 <- $r2
	@DEBUG_VALUE: HAL_TIM_Encoder_Start_DMA:Channel <- $r1
	@DEBUG_VALUE: HAL_TIM_Encoder_Start_DMA:htim <- $r4
	.loc	7 2638 13 prologue_end  @ ../Drivers/STM32F7xx_HAL_Driver/Src/stm32f7xx_hal_tim.c:2638:13
	ldrb.w	r0, [r0, #61]
	mov	r6, r3
.Ltmp662:
	.loc	7 2638 6 is_stmt 0      @ ../Drivers/STM32F7xx_HAL_Driver/Src/stm32f7xx_hal_tim.c:2638:6
	cmp	r0, #2
	bne	.LBB62_2
.Ltmp663:
@ %bb.1:
	@DEBUG_VALUE: HAL_TIM_Encoder_Start_DMA:htim <- $r4
	@DEBUG_VALUE: HAL_TIM_Encoder_Start_DMA:pData1 <- $r2
	@DEBUG_VALUE: HAL_TIM_Encoder_Start_DMA:Channel <- $r1
	.loc	7 0 6                   @ ../Drivers/STM32F7xx_HAL_Driver/Src/stm32f7xx_hal_tim.c:0:6
	movs	r5, #2
	b	.LBB62_14
.Ltmp664:
.LBB62_2:
	@DEBUG_VALUE: HAL_TIM_Encoder_Start_DMA:htim <- $r4
	@DEBUG_VALUE: HAL_TIM_Encoder_Start_DMA:pData1 <- $r2
	@DEBUG_VALUE: HAL_TIM_Encoder_Start_DMA:Channel <- $r1
	.loc	7 2642 18 is_stmt 1     @ ../Drivers/STM32F7xx_HAL_Driver/Src/stm32f7xx_hal_tim.c:2642:18
	ldrb.w	r0, [r4, #61]
	ldr	r5, [sp, #24]
.Ltmp665:
	@DEBUG_VALUE: HAL_TIM_Encoder_Start_DMA:Length <- $r5
	.loc	7 2642 11 is_stmt 0     @ ../Drivers/STM32F7xx_HAL_Driver/Src/stm32f7xx_hal_tim.c:2642:11
	cmp	r0, #1
	bne	.LBB62_7
.Ltmp666:
@ %bb.3:
	@DEBUG_VALUE: HAL_TIM_Encoder_Start_DMA:Length <- $r5
	@DEBUG_VALUE: HAL_TIM_Encoder_Start_DMA:htim <- $r4
	@DEBUG_VALUE: HAL_TIM_Encoder_Start_DMA:pData1 <- $r2
	@DEBUG_VALUE: HAL_TIM_Encoder_Start_DMA:Channel <- $r1
	.loc	7 2644 35 is_stmt 1     @ ../Drivers/STM32F7xx_HAL_Driver/Src/stm32f7xx_hal_tim.c:2644:35
	cmp	r6, #0
	mov	r0, r6
	.loc	7 2644 18 is_stmt 0     @ ../Drivers/STM32F7xx_HAL_Driver/Src/stm32f7xx_hal_tim.c:2644:18
	mov	r3, r2
	.loc	7 2644 35               @ ../Drivers/STM32F7xx_HAL_Driver/Src/stm32f7xx_hal_tim.c:2644:35
	it	ne
	movne	r0, #1
	.loc	7 2644 18               @ ../Drivers/STM32F7xx_HAL_Driver/Src/stm32f7xx_hal_tim.c:2644:18
	cmp	r2, #0
	it	ne
	movne	r3, #1
	.loc	7 2644 24               @ ../Drivers/STM32F7xx_HAL_Driver/Src/stm32f7xx_hal_tim.c:2644:24
	tst	r3, r0
	bne	.LBB62_6
.Ltmp667:
@ %bb.4:
	@DEBUG_VALUE: HAL_TIM_Encoder_Start_DMA:Length <- $r5
	@DEBUG_VALUE: HAL_TIM_Encoder_Start_DMA:htim <- $r4
	@DEBUG_VALUE: HAL_TIM_Encoder_Start_DMA:pData1 <- $r2
	@DEBUG_VALUE: HAL_TIM_Encoder_Start_DMA:Channel <- $r1
	cbz	r5, .LBB62_6
.Ltmp668:
@ %bb.5:
	@DEBUG_VALUE: HAL_TIM_Encoder_Start_DMA:Length <- $r5
	@DEBUG_VALUE: HAL_TIM_Encoder_Start_DMA:htim <- $r4
	@DEBUG_VALUE: HAL_TIM_Encoder_Start_DMA:pData1 <- $r2
	@DEBUG_VALUE: HAL_TIM_Encoder_Start_DMA:Channel <- $r1
	.loc	7 0 24                  @ ../Drivers/STM32F7xx_HAL_Driver/Src/stm32f7xx_hal_tim.c:0:24
	movs	r5, #1
.Ltmp669:
	b	.LBB62_14
.Ltmp670:
.LBB62_6:
	@DEBUG_VALUE: HAL_TIM_Encoder_Start_DMA:Length <- $r5
	@DEBUG_VALUE: HAL_TIM_Encoder_Start_DMA:htim <- $r4
	@DEBUG_VALUE: HAL_TIM_Encoder_Start_DMA:pData1 <- $r2
	@DEBUG_VALUE: HAL_TIM_Encoder_Start_DMA:Channel <- $r1
	.loc	7 2650 19 is_stmt 1     @ ../Drivers/STM32F7xx_HAL_Driver/Src/stm32f7xx_hal_tim.c:2650:19
	movs	r0, #2
	strb.w	r0, [r4, #61]
.Ltmp671:
.LBB62_7:
	@DEBUG_VALUE: HAL_TIM_Encoder_Start_DMA:Length <- $r5
	@DEBUG_VALUE: HAL_TIM_Encoder_Start_DMA:htim <- $r4
	@DEBUG_VALUE: HAL_TIM_Encoder_Start_DMA:pData1 <- $r2
	@DEBUG_VALUE: HAL_TIM_Encoder_Start_DMA:Channel <- $r1
	.loc	7 2654 3                @ ../Drivers/STM32F7xx_HAL_Driver/Src/stm32f7xx_hal_tim.c:2654:3
	cmp	r1, #60
	beq	.LBB62_11
.Ltmp672:
@ %bb.8:
	@DEBUG_VALUE: HAL_TIM_Encoder_Start_DMA:Length <- $r5
	@DEBUG_VALUE: HAL_TIM_Encoder_Start_DMA:htim <- $r4
	@DEBUG_VALUE: HAL_TIM_Encoder_Start_DMA:pData1 <- $r2
	@DEBUG_VALUE: HAL_TIM_Encoder_Start_DMA:Channel <- $r1
	cmp	r1, #4
	beq	.LBB62_12
.Ltmp673:
@ %bb.9:
	@DEBUG_VALUE: HAL_TIM_Encoder_Start_DMA:Length <- $r5
	@DEBUG_VALUE: HAL_TIM_Encoder_Start_DMA:htim <- $r4
	@DEBUG_VALUE: HAL_TIM_Encoder_Start_DMA:pData1 <- $r2
	@DEBUG_VALUE: HAL_TIM_Encoder_Start_DMA:Channel <- $r1
	cmp	r1, #0
	bne	.LBB62_13
.Ltmp674:
@ %bb.10:
	@DEBUG_VALUE: HAL_TIM_Encoder_Start_DMA:Length <- $r5
	@DEBUG_VALUE: HAL_TIM_Encoder_Start_DMA:htim <- $r4
	@DEBUG_VALUE: HAL_TIM_Encoder_Start_DMA:pData1 <- $r2
	@DEBUG_VALUE: HAL_TIM_Encoder_Start_DMA:Channel <- $r1
	.loc	7 2659 7                @ ../Drivers/STM32F7xx_HAL_Driver/Src/stm32f7xx_hal_tim.c:2659:7
	ldr	r0, [r4, #36]
	.loc	7 2659 52 is_stmt 0     @ ../Drivers/STM32F7xx_HAL_Driver/Src/stm32f7xx_hal_tim.c:2659:52
	ldr	r1, __arm_cp.62_0
.Ltmp675:
	.loc	7 2665 7 is_stmt 1      @ ../Drivers/STM32F7xx_HAL_Driver/Src/stm32f7xx_hal_tim.c:2665:7
	mov	r3, r5
	.loc	7 2659 52               @ ../Drivers/STM32F7xx_HAL_Driver/Src/stm32f7xx_hal_tim.c:2659:52
	str	r1, [r0, #60]
	.loc	7 2662 53               @ ../Drivers/STM32F7xx_HAL_Driver/Src/stm32f7xx_hal_tim.c:2662:53
	ldr	r1, __arm_cp.62_1
	.loc	7 2662 7 is_stmt 0      @ ../Drivers/STM32F7xx_HAL_Driver/Src/stm32f7xx_hal_tim.c:2662:7
	ldr	r0, [r4, #36]
	.loc	7 2662 53               @ ../Drivers/STM32F7xx_HAL_Driver/Src/stm32f7xx_hal_tim.c:2662:53
	str	r1, [r0, #76]
	.loc	7 2665 69 is_stmt 1     @ ../Drivers/STM32F7xx_HAL_Driver/Src/stm32f7xx_hal_tim.c:2665:69
	ldr	r1, [r4]
	.loc	7 2665 24 is_stmt 0     @ ../Drivers/STM32F7xx_HAL_Driver/Src/stm32f7xx_hal_tim.c:2665:24
	ldr	r0, [r4, #36]
	.loc	7 2665 79               @ ../Drivers/STM32F7xx_HAL_Driver/Src/stm32f7xx_hal_tim.c:2665:79
	adds	r1, #52
	.loc	7 2665 7                @ ../Drivers/STM32F7xx_HAL_Driver/Src/stm32f7xx_hal_tim.c:2665:7
	bl	HAL_DMA_Start_IT
.Ltmp676:
	.loc	7 2668 7 is_stmt 1      @ ../Drivers/STM32F7xx_HAL_Driver/Src/stm32f7xx_hal_tim.c:2668:7
	ldr	r0, [r4]
	.loc	7 2674 7                @ ../Drivers/STM32F7xx_HAL_Driver/Src/stm32f7xx_hal_tim.c:2674:7
	movs	r2, #1
	movs	r5, #0
.Ltmp677:
	.loc	7 2668 7                @ ../Drivers/STM32F7xx_HAL_Driver/Src/stm32f7xx_hal_tim.c:2668:7
	ldr	r1, [r0, #12]
	orr	r1, r1, #512
	str	r1, [r0, #12]
	.loc	7 2671 7                @ ../Drivers/STM32F7xx_HAL_Driver/Src/stm32f7xx_hal_tim.c:2671:7
	ldr	r1, [r0]
	orr	r1, r1, #1
	str	r1, [r0]
	.loc	7 2674 7                @ ../Drivers/STM32F7xx_HAL_Driver/Src/stm32f7xx_hal_tim.c:2674:7
	movs	r1, #0
	bl	TIM_CCxChannelCmd
	b	.LBB62_14
.Ltmp678:
.LBB62_11:
	@DEBUG_VALUE: HAL_TIM_Encoder_Start_DMA:Length <- $r5
	@DEBUG_VALUE: HAL_TIM_Encoder_Start_DMA:htim <- $r4
	@DEBUG_VALUE: HAL_TIM_Encoder_Start_DMA:pData1 <- $r2
	@DEBUG_VALUE: HAL_TIM_Encoder_Start_DMA:Channel <- $r1
	.loc	7 2702 7                @ ../Drivers/STM32F7xx_HAL_Driver/Src/stm32f7xx_hal_tim.c:2702:7
	ldr	r0, [r4, #36]
	.loc	7 2702 52 is_stmt 0     @ ../Drivers/STM32F7xx_HAL_Driver/Src/stm32f7xx_hal_tim.c:2702:52
	ldr.w	r8, __arm_cp.62_0
	.loc	7 2705 53 is_stmt 1     @ ../Drivers/STM32F7xx_HAL_Driver/Src/stm32f7xx_hal_tim.c:2705:53
	ldr	r7, __arm_cp.62_1
	.loc	7 2708 7                @ ../Drivers/STM32F7xx_HAL_Driver/Src/stm32f7xx_hal_tim.c:2708:7
	mov	r3, r5
	.loc	7 2702 52               @ ../Drivers/STM32F7xx_HAL_Driver/Src/stm32f7xx_hal_tim.c:2702:52
	str.w	r8, [r0, #60]
	.loc	7 2705 7                @ ../Drivers/STM32F7xx_HAL_Driver/Src/stm32f7xx_hal_tim.c:2705:7
	ldr	r0, [r4, #36]
	.loc	7 2705 53 is_stmt 0     @ ../Drivers/STM32F7xx_HAL_Driver/Src/stm32f7xx_hal_tim.c:2705:53
	str	r7, [r0, #76]
	.loc	7 2708 69 is_stmt 1     @ ../Drivers/STM32F7xx_HAL_Driver/Src/stm32f7xx_hal_tim.c:2708:69
	ldr	r1, [r4]
.Ltmp679:
	.loc	7 2708 24 is_stmt 0     @ ../Drivers/STM32F7xx_HAL_Driver/Src/stm32f7xx_hal_tim.c:2708:24
	ldr	r0, [r4, #36]
	.loc	7 2708 79               @ ../Drivers/STM32F7xx_HAL_Driver/Src/stm32f7xx_hal_tim.c:2708:79
	adds	r1, #52
	.loc	7 2708 7                @ ../Drivers/STM32F7xx_HAL_Driver/Src/stm32f7xx_hal_tim.c:2708:7
	bl	HAL_DMA_Start_IT
.Ltmp680:
	.loc	7 2711 7 is_stmt 1      @ ../Drivers/STM32F7xx_HAL_Driver/Src/stm32f7xx_hal_tim.c:2711:7
	ldr	r0, [r4, #40]
	.loc	7 2717 7                @ ../Drivers/STM32F7xx_HAL_Driver/Src/stm32f7xx_hal_tim.c:2717:7
	mov	r2, r6
	mov	r3, r5
	.loc	7 2711 52               @ ../Drivers/STM32F7xx_HAL_Driver/Src/stm32f7xx_hal_tim.c:2711:52
	str.w	r8, [r0, #60]
	.loc	7 2714 7                @ ../Drivers/STM32F7xx_HAL_Driver/Src/stm32f7xx_hal_tim.c:2714:7
	ldr	r0, [r4, #40]
	.loc	7 2714 53 is_stmt 0     @ ../Drivers/STM32F7xx_HAL_Driver/Src/stm32f7xx_hal_tim.c:2714:53
	str	r7, [r0, #76]
	.loc	7 2717 69 is_stmt 1     @ ../Drivers/STM32F7xx_HAL_Driver/Src/stm32f7xx_hal_tim.c:2717:69
	ldr	r1, [r4]
	.loc	7 2717 24 is_stmt 0     @ ../Drivers/STM32F7xx_HAL_Driver/Src/stm32f7xx_hal_tim.c:2717:24
	ldr	r0, [r4, #40]
	.loc	7 2717 79               @ ../Drivers/STM32F7xx_HAL_Driver/Src/stm32f7xx_hal_tim.c:2717:79
	adds	r1, #56
	.loc	7 2717 7                @ ../Drivers/STM32F7xx_HAL_Driver/Src/stm32f7xx_hal_tim.c:2717:7
	bl	HAL_DMA_Start_IT
	.loc	7 2720 7 is_stmt 1      @ ../Drivers/STM32F7xx_HAL_Driver/Src/stm32f7xx_hal_tim.c:2720:7
	ldr	r0, [r4]
	.loc	7 2723 7                @ ../Drivers/STM32F7xx_HAL_Driver/Src/stm32f7xx_hal_tim.c:2723:7
	movs	r2, #1
	movs	r5, #0
.Ltmp681:
	.loc	7 2720 7                @ ../Drivers/STM32F7xx_HAL_Driver/Src/stm32f7xx_hal_tim.c:2720:7
	ldr	r1, [r0]
	orr	r1, r1, #1
	str	r1, [r0]
	.loc	7 2723 7                @ ../Drivers/STM32F7xx_HAL_Driver/Src/stm32f7xx_hal_tim.c:2723:7
	movs	r1, #0
	bl	TIM_CCxChannelCmd
	.loc	7 2724 31               @ ../Drivers/STM32F7xx_HAL_Driver/Src/stm32f7xx_hal_tim.c:2724:31
	ldr	r0, [r4]
	.loc	7 2724 7 is_stmt 0      @ ../Drivers/STM32F7xx_HAL_Driver/Src/stm32f7xx_hal_tim.c:2724:7
	movs	r1, #4
	movs	r2, #1
	bl	TIM_CCxChannelCmd
	.loc	7 2727 7 is_stmt 1      @ ../Drivers/STM32F7xx_HAL_Driver/Src/stm32f7xx_hal_tim.c:2727:7
	ldr	r0, [r4]
	ldr	r1, [r0, #12]
	orr	r1, r1, #512
	str	r1, [r0, #12]
	.loc	7 2729 7                @ ../Drivers/STM32F7xx_HAL_Driver/Src/stm32f7xx_hal_tim.c:2729:7
	ldr	r1, [r0, #12]
	orr	r1, r1, #1024
	str	r1, [r0, #12]
	b	.LBB62_14
.Ltmp682:
.LBB62_12:
	@DEBUG_VALUE: HAL_TIM_Encoder_Start_DMA:Length <- $r5
	@DEBUG_VALUE: HAL_TIM_Encoder_Start_DMA:htim <- $r4
	@DEBUG_VALUE: HAL_TIM_Encoder_Start_DMA:pData1 <- $r2
	@DEBUG_VALUE: HAL_TIM_Encoder_Start_DMA:Channel <- $r1
	.loc	7 2681 7                @ ../Drivers/STM32F7xx_HAL_Driver/Src/stm32f7xx_hal_tim.c:2681:7
	ldr	r0, [r4, #40]
	.loc	7 2681 52 is_stmt 0     @ ../Drivers/STM32F7xx_HAL_Driver/Src/stm32f7xx_hal_tim.c:2681:52
	ldr	r1, __arm_cp.62_0
.Ltmp683:
	.loc	7 2686 7 is_stmt 1      @ ../Drivers/STM32F7xx_HAL_Driver/Src/stm32f7xx_hal_tim.c:2686:7
	mov	r2, r6
.Ltmp684:
	mov	r3, r5
	.loc	7 2681 52               @ ../Drivers/STM32F7xx_HAL_Driver/Src/stm32f7xx_hal_tim.c:2681:52
	str	r1, [r0, #60]
	.loc	7 2684 53               @ ../Drivers/STM32F7xx_HAL_Driver/Src/stm32f7xx_hal_tim.c:2684:53
	ldr	r1, __arm_cp.62_1
	.loc	7 2684 7 is_stmt 0      @ ../Drivers/STM32F7xx_HAL_Driver/Src/stm32f7xx_hal_tim.c:2684:7
	ldr	r0, [r4, #40]
	.loc	7 2684 53               @ ../Drivers/STM32F7xx_HAL_Driver/Src/stm32f7xx_hal_tim.c:2684:53
	str	r1, [r0, #76]
	.loc	7 2686 69 is_stmt 1     @ ../Drivers/STM32F7xx_HAL_Driver/Src/stm32f7xx_hal_tim.c:2686:69
	ldr	r1, [r4]
	.loc	7 2686 24 is_stmt 0     @ ../Drivers/STM32F7xx_HAL_Driver/Src/stm32f7xx_hal_tim.c:2686:24
	ldr	r0, [r4, #40]
	.loc	7 2686 79               @ ../Drivers/STM32F7xx_HAL_Driver/Src/stm32f7xx_hal_tim.c:2686:79
	adds	r1, #56
	.loc	7 2686 7                @ ../Drivers/STM32F7xx_HAL_Driver/Src/stm32f7xx_hal_tim.c:2686:7
	bl	HAL_DMA_Start_IT
	.loc	7 2689 7 is_stmt 1      @ ../Drivers/STM32F7xx_HAL_Driver/Src/stm32f7xx_hal_tim.c:2689:7
	ldr	r0, [r4]
	.loc	7 2695 7                @ ../Drivers/STM32F7xx_HAL_Driver/Src/stm32f7xx_hal_tim.c:2695:7
	movs	r2, #1
	.loc	7 2689 7                @ ../Drivers/STM32F7xx_HAL_Driver/Src/stm32f7xx_hal_tim.c:2689:7
	ldr	r1, [r0, #12]
	orr	r1, r1, #1024
	str	r1, [r0, #12]
	.loc	7 2692 7                @ ../Drivers/STM32F7xx_HAL_Driver/Src/stm32f7xx_hal_tim.c:2692:7
	ldr	r1, [r0]
	orr	r1, r1, #1
	str	r1, [r0]
	.loc	7 2695 7                @ ../Drivers/STM32F7xx_HAL_Driver/Src/stm32f7xx_hal_tim.c:2695:7
	movs	r1, #4
	bl	TIM_CCxChannelCmd
.Ltmp685:
.LBB62_13:
	@DEBUG_VALUE: HAL_TIM_Encoder_Start_DMA:Length <- $r5
	@DEBUG_VALUE: HAL_TIM_Encoder_Start_DMA:htim <- $r4
	.loc	7 0 7 is_stmt 0         @ ../Drivers/STM32F7xx_HAL_Driver/Src/stm32f7xx_hal_tim.c:0:7
	movs	r5, #0
.Ltmp686:
.LBB62_14:
	@DEBUG_VALUE: HAL_TIM_Encoder_Start_DMA:htim <- $r4
	.loc	7 2738 1 is_stmt 1      @ ../Drivers/STM32F7xx_HAL_Driver/Src/stm32f7xx_hal_tim.c:2738:1
	uxtb	r0, r5
	pop.w	{r4, r5, r6, r7, r8, pc}
.Ltmp687:
	.p2align	2
@ %bb.15:
	.loc	7 0 1 is_stmt 0         @ ../Drivers/STM32F7xx_HAL_Driver/Src/stm32f7xx_hal_tim.c:0:1
__arm_cp.62_0:
	.long	TIM_DMACaptureCplt
.Lcpi_end36:
	.size	__arm_cp.62_0, .Lcpi_end36-__arm_cp.62_0
__arm_cp.62_1:
	.long	TIM_DMAError
.Lcpi_end37:
	.size	__arm_cp.62_1, .Lcpi_end37-__arm_cp.62_1
.Lfunc_end62:
	.size	HAL_TIM_Encoder_Start_DMA, .Lfunc_end62-HAL_TIM_Encoder_Start_DMA
	.cfi_endproc
	.cantunwind
	.fnend
                                        @ -- End function
	.section	.text.HAL_TIM_Encoder_Stop_DMA,"ax",%progbits
	.hidden	HAL_TIM_Encoder_Stop_DMA @ -- Begin function HAL_TIM_Encoder_Stop_DMA
	.globl	HAL_TIM_Encoder_Stop_DMA
	.p2align	2
	.type	HAL_TIM_Encoder_Stop_DMA,%function
	.code	16                      @ @HAL_TIM_Encoder_Stop_DMA
	.thumb_func
HAL_TIM_Encoder_Stop_DMA:
.Lfunc_begin63:
	.loc	7 2752 0 is_stmt 1      @ ../Drivers/STM32F7xx_HAL_Driver/Src/stm32f7xx_hal_tim.c:2752:0
	.fnstart
	.cfi_startproc
@ %bb.0:
	.save	{r4, lr}
	push	{r4, lr}
	.cfi_def_cfa_offset 8
	.cfi_offset lr, -4
	.cfi_offset r4, -8
	@DEBUG_VALUE: HAL_TIM_Encoder_Stop_DMA:htim <- $r0
	@DEBUG_VALUE: HAL_TIM_Encoder_Stop_DMA:Channel <- $r1
	mov	r4, r0
	@DEBUG_VALUE: HAL_TIM_Encoder_Stop_DMA:Channel <- $r1
.Ltmp688:
	@DEBUG_VALUE: HAL_TIM_Encoder_Stop_DMA:htim <- $r4
	.loc	7 2758 6 prologue_end   @ ../Drivers/STM32F7xx_HAL_Driver/Src/stm32f7xx_hal_tim.c:2758:6
	cbz	r1, .LBB63_3
.Ltmp689:
@ %bb.1:
	@DEBUG_VALUE: HAL_TIM_Encoder_Stop_DMA:htim <- $r4
	@DEBUG_VALUE: HAL_TIM_Encoder_Stop_DMA:Channel <- $r1
	.loc	7 0 6 is_stmt 0         @ ../Drivers/STM32F7xx_HAL_Driver/Src/stm32f7xx_hal_tim.c:0:6
	ldr	r0, [r4]
.Ltmp690:
	.loc	7 2765 11 is_stmt 1     @ ../Drivers/STM32F7xx_HAL_Driver/Src/stm32f7xx_hal_tim.c:2765:11
	cmp	r1, #4
	bne	.LBB63_4
.Ltmp691:
@ %bb.2:
	@DEBUG_VALUE: HAL_TIM_Encoder_Stop_DMA:htim <- $r4
	@DEBUG_VALUE: HAL_TIM_Encoder_Stop_DMA:Channel <- $r1
	.loc	7 2767 5                @ ../Drivers/STM32F7xx_HAL_Driver/Src/stm32f7xx_hal_tim.c:2767:5
	movs	r1, #4
.Ltmp692:
	movs	r2, #0
	bl	TIM_CCxChannelCmd
	.loc	7 2770 5                @ ../Drivers/STM32F7xx_HAL_Driver/Src/stm32f7xx_hal_tim.c:2770:5
	ldr	r0, [r4]
	b	.LBB63_5
.Ltmp693:
.LBB63_3:
	@DEBUG_VALUE: HAL_TIM_Encoder_Stop_DMA:htim <- $r4
	@DEBUG_VALUE: HAL_TIM_Encoder_Stop_DMA:Channel <- $r1
	.loc	7 2760 29               @ ../Drivers/STM32F7xx_HAL_Driver/Src/stm32f7xx_hal_tim.c:2760:29
	ldr	r0, [r4]
	.loc	7 2760 5 is_stmt 0      @ ../Drivers/STM32F7xx_HAL_Driver/Src/stm32f7xx_hal_tim.c:2760:5
	movs	r1, #0
.Ltmp694:
	movs	r2, #0
	bl	TIM_CCxChannelCmd
	.loc	7 2763 5 is_stmt 1      @ ../Drivers/STM32F7xx_HAL_Driver/Src/stm32f7xx_hal_tim.c:2763:5
	ldr	r0, [r4]
	ldr	r1, __arm_cp.63_1
	b	.LBB63_6
.Ltmp695:
.LBB63_4:
	@DEBUG_VALUE: HAL_TIM_Encoder_Stop_DMA:htim <- $r4
	@DEBUG_VALUE: HAL_TIM_Encoder_Stop_DMA:Channel <- $r1
	.loc	7 2774 5                @ ../Drivers/STM32F7xx_HAL_Driver/Src/stm32f7xx_hal_tim.c:2774:5
	movs	r1, #0
.Ltmp696:
	movs	r2, #0
	bl	TIM_CCxChannelCmd
	.loc	7 2775 29               @ ../Drivers/STM32F7xx_HAL_Driver/Src/stm32f7xx_hal_tim.c:2775:29
	ldr	r0, [r4]
	.loc	7 2775 5 is_stmt 0      @ ../Drivers/STM32F7xx_HAL_Driver/Src/stm32f7xx_hal_tim.c:2775:5
	movs	r1, #4
	movs	r2, #0
	bl	TIM_CCxChannelCmd
	.loc	7 2778 5 is_stmt 1      @ ../Drivers/STM32F7xx_HAL_Driver/Src/stm32f7xx_hal_tim.c:2778:5
	ldr	r0, [r4]
	ldr	r1, [r0, #12]
	bic	r1, r1, #512
	str	r1, [r0, #12]
.Ltmp697:
.LBB63_5:
	@DEBUG_VALUE: HAL_TIM_Encoder_Stop_DMA:htim <- $r4
	.loc	7 0 5 is_stmt 0         @ ../Drivers/STM32F7xx_HAL_Driver/Src/stm32f7xx_hal_tim.c:0:5
	ldr	r1, __arm_cp.63_0
.Ltmp698:
.LBB63_6:
	@DEBUG_VALUE: HAL_TIM_Encoder_Stop_DMA:htim <- $r4
	ldr	r2, [r0, #12]
	ands	r1, r2
.Ltmp699:
	.loc	7 2783 3 is_stmt 1      @ ../Drivers/STM32F7xx_HAL_Driver/Src/stm32f7xx_hal_tim.c:2783:3
	movw	r2, #4369
	str	r1, [r0, #12]
	ldr	r1, [r0, #32]
.Ltmp700:
	.loc	7 2783 3 is_stmt 0      @ ../Drivers/STM32F7xx_HAL_Driver/Src/stm32f7xx_hal_tim.c:2783:3
	tst	r1, r2
	bne	.LBB63_8
.Ltmp701:
@ %bb.7:
	@DEBUG_VALUE: HAL_TIM_Encoder_Stop_DMA:htim <- $r4
	.loc	7 2783 3                @ ../Drivers/STM32F7xx_HAL_Driver/Src/stm32f7xx_hal_tim.c:2783:3
	ldr	r1, [r0, #32]
	movw	r2, #1092
.Ltmp702:
	.loc	7 2783 3                @ ../Drivers/STM32F7xx_HAL_Driver/Src/stm32f7xx_hal_tim.c:2783:3
	tst	r1, r2
.Ltmp703:
	.loc	7 2783 3                @ ../Drivers/STM32F7xx_HAL_Driver/Src/stm32f7xx_hal_tim.c:2783:3
	ittt	eq
	ldreq	r1, [r0]
	biceq	r1, r1, #1
	streq	r1, [r0]
.Ltmp704:
.LBB63_8:
	@DEBUG_VALUE: HAL_TIM_Encoder_Stop_DMA:htim <- $r4
	.loc	7 2786 15 is_stmt 1     @ ../Drivers/STM32F7xx_HAL_Driver/Src/stm32f7xx_hal_tim.c:2786:15
	movs	r0, #1
	strb.w	r0, [r4, #61]
	.loc	7 2789 3                @ ../Drivers/STM32F7xx_HAL_Driver/Src/stm32f7xx_hal_tim.c:2789:3
	movs	r0, #0
	pop	{r4, pc}
.Ltmp705:
	.p2align	2
@ %bb.9:
	.loc	7 0 3 is_stmt 0         @ ../Drivers/STM32F7xx_HAL_Driver/Src/stm32f7xx_hal_tim.c:0:3
__arm_cp.63_0:
	.long	4294966271              @ 0xfffffbff
.Lcpi_end38:
	.size	__arm_cp.63_0, .Lcpi_end38-__arm_cp.63_0
__arm_cp.63_1:
	.long	4294966783              @ 0xfffffdff
.Lcpi_end39:
	.size	__arm_cp.63_1, .Lcpi_end39-__arm_cp.63_1
.Lfunc_end63:
	.size	HAL_TIM_Encoder_Stop_DMA, .Lfunc_end63-HAL_TIM_Encoder_Stop_DMA
	.cfi_endproc
	.cantunwind
	.fnend
                                        @ -- End function
	.section	.text.HAL_TIM_IRQHandler,"ax",%progbits
	.hidden	HAL_TIM_IRQHandler      @ -- Begin function HAL_TIM_IRQHandler
	.globl	HAL_TIM_IRQHandler
	.p2align	1
	.type	HAL_TIM_IRQHandler,%function
	.code	16                      @ @HAL_TIM_IRQHandler
	.thumb_func
HAL_TIM_IRQHandler:
.Lfunc_begin64:
	.loc	7 2815 0 is_stmt 1      @ ../Drivers/STM32F7xx_HAL_Driver/Src/stm32f7xx_hal_tim.c:2815:0
	.fnstart
	.cfi_startproc
@ %bb.0:
	.save	{r4, lr}
	push	{r4, lr}
	.cfi_def_cfa_offset 8
	.cfi_offset lr, -4
	.cfi_offset r4, -8
	@DEBUG_VALUE: HAL_TIM_IRQHandler:htim <- $r0
	mov	r4, r0
.Ltmp706:
	@DEBUG_VALUE: HAL_TIM_IRQHandler:htim <- $r4
	.loc	7 2817 6 prologue_end   @ ../Drivers/STM32F7xx_HAL_Driver/Src/stm32f7xx_hal_tim.c:2817:6
	ldr	r0, [r0]
	ldr	r1, [r0, #16]
.Ltmp707:
	.loc	7 2817 6 is_stmt 0      @ ../Drivers/STM32F7xx_HAL_Driver/Src/stm32f7xx_hal_tim.c:2817:6
	tst.w	r1, #2
.Ltmp708:
	.loc	7 2819 8 is_stmt 1      @ ../Drivers/STM32F7xx_HAL_Driver/Src/stm32f7xx_hal_tim.c:2819:8
	itt	ne
	ldrne	r1, [r0, #12]
.Ltmp709:
	.loc	7 2819 8 is_stmt 0      @ ../Drivers/STM32F7xx_HAL_Driver/Src/stm32f7xx_hal_tim.c:2819:8
	tstne.w	r1, #2
	bne	.LBB64_9
.Ltmp710:
.LBB64_1:
	@DEBUG_VALUE: HAL_TIM_IRQHandler:htim <- $r4
	.loc	7 2841 6 is_stmt 1      @ ../Drivers/STM32F7xx_HAL_Driver/Src/stm32f7xx_hal_tim.c:2841:6
	ldr	r1, [r0, #16]
.Ltmp711:
	.loc	7 2841 6 is_stmt 0      @ ../Drivers/STM32F7xx_HAL_Driver/Src/stm32f7xx_hal_tim.c:2841:6
	tst.w	r1, #4
.Ltmp712:
	.loc	7 2843 8 is_stmt 1      @ ../Drivers/STM32F7xx_HAL_Driver/Src/stm32f7xx_hal_tim.c:2843:8
	itt	ne
	ldrne	r1, [r0, #12]
.Ltmp713:
	.loc	7 2843 8 is_stmt 0      @ ../Drivers/STM32F7xx_HAL_Driver/Src/stm32f7xx_hal_tim.c:2843:8
	tstne.w	r1, #4
	bne	.LBB64_11
.Ltmp714:
.LBB64_2:
	@DEBUG_VALUE: HAL_TIM_IRQHandler:htim <- $r4
	.loc	7 2862 6 is_stmt 1      @ ../Drivers/STM32F7xx_HAL_Driver/Src/stm32f7xx_hal_tim.c:2862:6
	ldr	r1, [r0, #16]
.Ltmp715:
	.loc	7 2862 6 is_stmt 0      @ ../Drivers/STM32F7xx_HAL_Driver/Src/stm32f7xx_hal_tim.c:2862:6
	tst.w	r1, #8
.Ltmp716:
	.loc	7 2864 8 is_stmt 1      @ ../Drivers/STM32F7xx_HAL_Driver/Src/stm32f7xx_hal_tim.c:2864:8
	itt	ne
	ldrne	r1, [r0, #12]
.Ltmp717:
	.loc	7 2864 8 is_stmt 0      @ ../Drivers/STM32F7xx_HAL_Driver/Src/stm32f7xx_hal_tim.c:2864:8
	tstne.w	r1, #8
	bne	.LBB64_13
.Ltmp718:
.LBB64_3:
	@DEBUG_VALUE: HAL_TIM_IRQHandler:htim <- $r4
	.loc	7 2883 6 is_stmt 1      @ ../Drivers/STM32F7xx_HAL_Driver/Src/stm32f7xx_hal_tim.c:2883:6
	ldr	r1, [r0, #16]
.Ltmp719:
	.loc	7 2883 6 is_stmt 0      @ ../Drivers/STM32F7xx_HAL_Driver/Src/stm32f7xx_hal_tim.c:2883:6
	tst.w	r1, #16
.Ltmp720:
	.loc	7 2885 8 is_stmt 1      @ ../Drivers/STM32F7xx_HAL_Driver/Src/stm32f7xx_hal_tim.c:2885:8
	itt	ne
	ldrne	r1, [r0, #12]
.Ltmp721:
	.loc	7 2885 8 is_stmt 0      @ ../Drivers/STM32F7xx_HAL_Driver/Src/stm32f7xx_hal_tim.c:2885:8
	tstne.w	r1, #16
	bne	.LBB64_15
.Ltmp722:
.LBB64_4:
	@DEBUG_VALUE: HAL_TIM_IRQHandler:htim <- $r4
	.loc	7 2904 6 is_stmt 1      @ ../Drivers/STM32F7xx_HAL_Driver/Src/stm32f7xx_hal_tim.c:2904:6
	ldr	r1, [r0, #16]
.Ltmp723:
	.loc	7 2904 6 is_stmt 0      @ ../Drivers/STM32F7xx_HAL_Driver/Src/stm32f7xx_hal_tim.c:2904:6
	tst.w	r1, #1
.Ltmp724:
	.loc	7 2906 8 is_stmt 1      @ ../Drivers/STM32F7xx_HAL_Driver/Src/stm32f7xx_hal_tim.c:2906:8
	itt	ne
	ldrne	r1, [r0, #12]
.Ltmp725:
	.loc	7 2906 8 is_stmt 0      @ ../Drivers/STM32F7xx_HAL_Driver/Src/stm32f7xx_hal_tim.c:2906:8
	tstne.w	r1, #1
	bne	.LBB64_17
.Ltmp726:
.LBB64_5:
	@DEBUG_VALUE: HAL_TIM_IRQHandler:htim <- $r4
	.loc	7 2913 6 is_stmt 1      @ ../Drivers/STM32F7xx_HAL_Driver/Src/stm32f7xx_hal_tim.c:2913:6
	ldr	r1, [r0, #16]
.Ltmp727:
	.loc	7 2913 6 is_stmt 0      @ ../Drivers/STM32F7xx_HAL_Driver/Src/stm32f7xx_hal_tim.c:2913:6
	tst.w	r1, #128
.Ltmp728:
	.loc	7 2915 8 is_stmt 1      @ ../Drivers/STM32F7xx_HAL_Driver/Src/stm32f7xx_hal_tim.c:2915:8
	itt	ne
	ldrne	r1, [r0, #12]
.Ltmp729:
	.loc	7 2915 8 is_stmt 0      @ ../Drivers/STM32F7xx_HAL_Driver/Src/stm32f7xx_hal_tim.c:2915:8
	tstne.w	r1, #128
	bne	.LBB64_18
.Ltmp730:
.LBB64_6:
	@DEBUG_VALUE: HAL_TIM_IRQHandler:htim <- $r4
	.loc	7 2923 6 is_stmt 1      @ ../Drivers/STM32F7xx_HAL_Driver/Src/stm32f7xx_hal_tim.c:2923:6
	ldr	r1, [r0, #16]
.Ltmp731:
	.loc	7 2923 6 is_stmt 0      @ ../Drivers/STM32F7xx_HAL_Driver/Src/stm32f7xx_hal_tim.c:2923:6
	tst.w	r1, #256
.Ltmp732:
	.loc	7 2925 8 is_stmt 1      @ ../Drivers/STM32F7xx_HAL_Driver/Src/stm32f7xx_hal_tim.c:2925:8
	itt	ne
	ldrne	r1, [r0, #12]
.Ltmp733:
	.loc	7 2925 8 is_stmt 0      @ ../Drivers/STM32F7xx_HAL_Driver/Src/stm32f7xx_hal_tim.c:2925:8
	tstne.w	r1, #128
	bne	.LBB64_19
.Ltmp734:
.LBB64_7:
	@DEBUG_VALUE: HAL_TIM_IRQHandler:htim <- $r4
	.loc	7 2933 6 is_stmt 1      @ ../Drivers/STM32F7xx_HAL_Driver/Src/stm32f7xx_hal_tim.c:2933:6
	ldr	r1, [r0, #16]
.Ltmp735:
	.loc	7 2933 6 is_stmt 0      @ ../Drivers/STM32F7xx_HAL_Driver/Src/stm32f7xx_hal_tim.c:2933:6
	tst.w	r1, #64
.Ltmp736:
	.loc	7 2935 8 is_stmt 1      @ ../Drivers/STM32F7xx_HAL_Driver/Src/stm32f7xx_hal_tim.c:2935:8
	itt	ne
	ldrne	r1, [r0, #12]
.Ltmp737:
	.loc	7 2935 8 is_stmt 0      @ ../Drivers/STM32F7xx_HAL_Driver/Src/stm32f7xx_hal_tim.c:2935:8
	tstne.w	r1, #64
	bne	.LBB64_20
.Ltmp738:
.LBB64_8:
	@DEBUG_VALUE: HAL_TIM_IRQHandler:htim <- $r4
	.loc	7 2942 6 is_stmt 1      @ ../Drivers/STM32F7xx_HAL_Driver/Src/stm32f7xx_hal_tim.c:2942:6
	ldr	r1, [r0, #16]
.Ltmp739:
	.loc	7 2942 6 is_stmt 0      @ ../Drivers/STM32F7xx_HAL_Driver/Src/stm32f7xx_hal_tim.c:2942:6
	tst.w	r1, #32
.Ltmp740:
	.loc	7 2944 8 is_stmt 1      @ ../Drivers/STM32F7xx_HAL_Driver/Src/stm32f7xx_hal_tim.c:2944:8
	itte	ne
	ldrne	r1, [r0, #12]
.Ltmp741:
	.loc	7 2944 8 is_stmt 0      @ ../Drivers/STM32F7xx_HAL_Driver/Src/stm32f7xx_hal_tim.c:2944:8
	tstne.w	r1, #32
.Ltmp742:
	.loc	7 2950 1 is_stmt 1      @ ../Drivers/STM32F7xx_HAL_Driver/Src/stm32f7xx_hal_tim.c:2950:1
	popeq	{r4, pc}
.Ltmp743:
	.loc	7 2946 7                @ ../Drivers/STM32F7xx_HAL_Driver/Src/stm32f7xx_hal_tim.c:2946:7
	mvn	r1, #32
	str	r1, [r0, #16]
	.loc	7 2947 7                @ ../Drivers/STM32F7xx_HAL_Driver/Src/stm32f7xx_hal_tim.c:2947:7
	mov	r0, r4
	pop.w	{r4, lr}
	b	HAL_TIMEx_CommutationCallback
.Ltmp744:
.LBB64_9:
	@DEBUG_VALUE: HAL_TIM_IRQHandler:htim <- $r4
	.loc	7 2822 9                @ ../Drivers/STM32F7xx_HAL_Driver/Src/stm32f7xx_hal_tim.c:2822:9
	mvn	r1, #2
	str	r1, [r0, #16]
	.loc	7 2823 23               @ ../Drivers/STM32F7xx_HAL_Driver/Src/stm32f7xx_hal_tim.c:2823:23
	movs	r1, #1
	strb	r1, [r4, #28]
.Ltmp745:
	.loc	7 2826 29               @ ../Drivers/STM32F7xx_HAL_Driver/Src/stm32f7xx_hal_tim.c:2826:29
	ldr	r0, [r0, #24]
.Ltmp746:
	.loc	7 2826 12 is_stmt 0     @ ../Drivers/STM32F7xx_HAL_Driver/Src/stm32f7xx_hal_tim.c:2826:12
	tst.w	r0, #3
	beq	.LBB64_21
.Ltmp747:
@ %bb.10:
	@DEBUG_VALUE: HAL_TIM_IRQHandler:htim <- $r4
	.loc	7 2828 11 is_stmt 1     @ ../Drivers/STM32F7xx_HAL_Driver/Src/stm32f7xx_hal_tim.c:2828:11
	mov	r0, r4
	bl	HAL_TIM_IC_CaptureCallback
	b	.LBB64_22
.Ltmp748:
.LBB64_11:
	@DEBUG_VALUE: HAL_TIM_IRQHandler:htim <- $r4
	.loc	7 2845 7                @ ../Drivers/STM32F7xx_HAL_Driver/Src/stm32f7xx_hal_tim.c:2845:7
	mvn	r1, #4
	str	r1, [r0, #16]
	.loc	7 2846 21               @ ../Drivers/STM32F7xx_HAL_Driver/Src/stm32f7xx_hal_tim.c:2846:21
	movs	r1, #2
	strb	r1, [r4, #28]
.Ltmp749:
	.loc	7 2848 27               @ ../Drivers/STM32F7xx_HAL_Driver/Src/stm32f7xx_hal_tim.c:2848:27
	ldr	r0, [r0, #24]
.Ltmp750:
	.loc	7 2848 10 is_stmt 0     @ ../Drivers/STM32F7xx_HAL_Driver/Src/stm32f7xx_hal_tim.c:2848:10
	tst.w	r0, #768
	beq	.LBB64_23
.Ltmp751:
@ %bb.12:
	@DEBUG_VALUE: HAL_TIM_IRQHandler:htim <- $r4
	.loc	7 2850 9 is_stmt 1      @ ../Drivers/STM32F7xx_HAL_Driver/Src/stm32f7xx_hal_tim.c:2850:9
	mov	r0, r4
	bl	HAL_TIM_IC_CaptureCallback
	b	.LBB64_24
.Ltmp752:
.LBB64_13:
	@DEBUG_VALUE: HAL_TIM_IRQHandler:htim <- $r4
	.loc	7 2866 7                @ ../Drivers/STM32F7xx_HAL_Driver/Src/stm32f7xx_hal_tim.c:2866:7
	mvn	r1, #8
	str	r1, [r0, #16]
	.loc	7 2867 21               @ ../Drivers/STM32F7xx_HAL_Driver/Src/stm32f7xx_hal_tim.c:2867:21
	movs	r1, #4
	strb	r1, [r4, #28]
.Ltmp753:
	.loc	7 2869 27               @ ../Drivers/STM32F7xx_HAL_Driver/Src/stm32f7xx_hal_tim.c:2869:27
	ldr	r0, [r0, #28]
.Ltmp754:
	.loc	7 2869 10 is_stmt 0     @ ../Drivers/STM32F7xx_HAL_Driver/Src/stm32f7xx_hal_tim.c:2869:10
	tst.w	r0, #3
	beq	.LBB64_25
.Ltmp755:
@ %bb.14:
	@DEBUG_VALUE: HAL_TIM_IRQHandler:htim <- $r4
	.loc	7 2871 9 is_stmt 1      @ ../Drivers/STM32F7xx_HAL_Driver/Src/stm32f7xx_hal_tim.c:2871:9
	mov	r0, r4
	bl	HAL_TIM_IC_CaptureCallback
	b	.LBB64_26
.Ltmp756:
.LBB64_15:
	@DEBUG_VALUE: HAL_TIM_IRQHandler:htim <- $r4
	.loc	7 2887 7                @ ../Drivers/STM32F7xx_HAL_Driver/Src/stm32f7xx_hal_tim.c:2887:7
	mvn	r1, #16
	str	r1, [r0, #16]
	.loc	7 2888 21               @ ../Drivers/STM32F7xx_HAL_Driver/Src/stm32f7xx_hal_tim.c:2888:21
	movs	r1, #8
	strb	r1, [r4, #28]
.Ltmp757:
	.loc	7 2890 27               @ ../Drivers/STM32F7xx_HAL_Driver/Src/stm32f7xx_hal_tim.c:2890:27
	ldr	r0, [r0, #28]
.Ltmp758:
	.loc	7 2890 10 is_stmt 0     @ ../Drivers/STM32F7xx_HAL_Driver/Src/stm32f7xx_hal_tim.c:2890:10
	tst.w	r0, #768
	beq	.LBB64_27
.Ltmp759:
@ %bb.16:
	@DEBUG_VALUE: HAL_TIM_IRQHandler:htim <- $r4
	.loc	7 2892 9 is_stmt 1      @ ../Drivers/STM32F7xx_HAL_Driver/Src/stm32f7xx_hal_tim.c:2892:9
	mov	r0, r4
	bl	HAL_TIM_IC_CaptureCallback
	b	.LBB64_28
.Ltmp760:
.LBB64_17:
	@DEBUG_VALUE: HAL_TIM_IRQHandler:htim <- $r4
	.loc	7 2908 7                @ ../Drivers/STM32F7xx_HAL_Driver/Src/stm32f7xx_hal_tim.c:2908:7
	mvn	r1, #1
	str	r1, [r0, #16]
	.loc	7 2909 7                @ ../Drivers/STM32F7xx_HAL_Driver/Src/stm32f7xx_hal_tim.c:2909:7
	mov	r0, r4
	bl	HAL_TIM_PeriodElapsedCallback
.Ltmp761:
	.loc	7 2913 6                @ ../Drivers/STM32F7xx_HAL_Driver/Src/stm32f7xx_hal_tim.c:2913:6
	ldr	r0, [r4]
	b	.LBB64_5
.Ltmp762:
.LBB64_18:
	@DEBUG_VALUE: HAL_TIM_IRQHandler:htim <- $r4
	.loc	7 2917 7                @ ../Drivers/STM32F7xx_HAL_Driver/Src/stm32f7xx_hal_tim.c:2917:7
	mvn	r1, #128
	str	r1, [r0, #16]
	.loc	7 2918 7                @ ../Drivers/STM32F7xx_HAL_Driver/Src/stm32f7xx_hal_tim.c:2918:7
	mov	r0, r4
	bl	HAL_TIMEx_BreakCallback
.Ltmp763:
	.loc	7 2923 6                @ ../Drivers/STM32F7xx_HAL_Driver/Src/stm32f7xx_hal_tim.c:2923:6
	ldr	r0, [r4]
	b	.LBB64_6
.Ltmp764:
.LBB64_19:
	@DEBUG_VALUE: HAL_TIM_IRQHandler:htim <- $r4
	.loc	7 2927 7                @ ../Drivers/STM32F7xx_HAL_Driver/Src/stm32f7xx_hal_tim.c:2927:7
	mvn	r1, #128
	str	r1, [r0, #16]
	.loc	7 2928 7                @ ../Drivers/STM32F7xx_HAL_Driver/Src/stm32f7xx_hal_tim.c:2928:7
	mov	r0, r4
	bl	HAL_TIMEx_BreakCallback
.Ltmp765:
	.loc	7 2933 6                @ ../Drivers/STM32F7xx_HAL_Driver/Src/stm32f7xx_hal_tim.c:2933:6
	ldr	r0, [r4]
	b	.LBB64_7
.Ltmp766:
.LBB64_20:
	@DEBUG_VALUE: HAL_TIM_IRQHandler:htim <- $r4
	.loc	7 2937 7                @ ../Drivers/STM32F7xx_HAL_Driver/Src/stm32f7xx_hal_tim.c:2937:7
	mvn	r1, #64
	str	r1, [r0, #16]
	.loc	7 2938 7                @ ../Drivers/STM32F7xx_HAL_Driver/Src/stm32f7xx_hal_tim.c:2938:7
	mov	r0, r4
	bl	HAL_TIM_TriggerCallback
.Ltmp767:
	.loc	7 2942 6                @ ../Drivers/STM32F7xx_HAL_Driver/Src/stm32f7xx_hal_tim.c:2942:6
	ldr	r0, [r4]
	b	.LBB64_8
.Ltmp768:
.LBB64_21:
	@DEBUG_VALUE: HAL_TIM_IRQHandler:htim <- $r4
	.loc	7 2833 11               @ ../Drivers/STM32F7xx_HAL_Driver/Src/stm32f7xx_hal_tim.c:2833:11
	mov	r0, r4
	bl	HAL_TIM_OC_DelayElapsedCallback
	.loc	7 2834 11               @ ../Drivers/STM32F7xx_HAL_Driver/Src/stm32f7xx_hal_tim.c:2834:11
	mov	r0, r4
	bl	HAL_TIM_PWM_PulseFinishedCallback
.Ltmp769:
.LBB64_22:
	@DEBUG_VALUE: HAL_TIM_IRQHandler:htim <- $r4
	.loc	7 2836 23               @ ../Drivers/STM32F7xx_HAL_Driver/Src/stm32f7xx_hal_tim.c:2836:23
	movs	r0, #0
	strb	r0, [r4, #28]
.Ltmp770:
	.loc	7 2841 6                @ ../Drivers/STM32F7xx_HAL_Driver/Src/stm32f7xx_hal_tim.c:2841:6
	ldr	r0, [r4]
	b	.LBB64_1
.Ltmp771:
.LBB64_23:
	@DEBUG_VALUE: HAL_TIM_IRQHandler:htim <- $r4
	.loc	7 2855 9                @ ../Drivers/STM32F7xx_HAL_Driver/Src/stm32f7xx_hal_tim.c:2855:9
	mov	r0, r4
	bl	HAL_TIM_OC_DelayElapsedCallback
	.loc	7 2856 9                @ ../Drivers/STM32F7xx_HAL_Driver/Src/stm32f7xx_hal_tim.c:2856:9
	mov	r0, r4
	bl	HAL_TIM_PWM_PulseFinishedCallback
.Ltmp772:
.LBB64_24:
	@DEBUG_VALUE: HAL_TIM_IRQHandler:htim <- $r4
	.loc	7 2858 21               @ ../Drivers/STM32F7xx_HAL_Driver/Src/stm32f7xx_hal_tim.c:2858:21
	movs	r0, #0
	strb	r0, [r4, #28]
.Ltmp773:
	.loc	7 2862 6                @ ../Drivers/STM32F7xx_HAL_Driver/Src/stm32f7xx_hal_tim.c:2862:6
	ldr	r0, [r4]
	b	.LBB64_2
.Ltmp774:
.LBB64_25:
	@DEBUG_VALUE: HAL_TIM_IRQHandler:htim <- $r4
	.loc	7 2876 9                @ ../Drivers/STM32F7xx_HAL_Driver/Src/stm32f7xx_hal_tim.c:2876:9
	mov	r0, r4
	bl	HAL_TIM_OC_DelayElapsedCallback
	.loc	7 2877 9                @ ../Drivers/STM32F7xx_HAL_Driver/Src/stm32f7xx_hal_tim.c:2877:9
	mov	r0, r4
	bl	HAL_TIM_PWM_PulseFinishedCallback
.Ltmp775:
.LBB64_26:
	@DEBUG_VALUE: HAL_TIM_IRQHandler:htim <- $r4
	.loc	7 2879 21               @ ../Drivers/STM32F7xx_HAL_Driver/Src/stm32f7xx_hal_tim.c:2879:21
	movs	r0, #0
	strb	r0, [r4, #28]
.Ltmp776:
	.loc	7 2883 6                @ ../Drivers/STM32F7xx_HAL_Driver/Src/stm32f7xx_hal_tim.c:2883:6
	ldr	r0, [r4]
	b	.LBB64_3
.Ltmp777:
.LBB64_27:
	@DEBUG_VALUE: HAL_TIM_IRQHandler:htim <- $r4
	.loc	7 2897 9                @ ../Drivers/STM32F7xx_HAL_Driver/Src/stm32f7xx_hal_tim.c:2897:9
	mov	r0, r4
	bl	HAL_TIM_OC_DelayElapsedCallback
	.loc	7 2898 9                @ ../Drivers/STM32F7xx_HAL_Driver/Src/stm32f7xx_hal_tim.c:2898:9
	mov	r0, r4
	bl	HAL_TIM_PWM_PulseFinishedCallback
.Ltmp778:
.LBB64_28:
	@DEBUG_VALUE: HAL_TIM_IRQHandler:htim <- $r4
	.loc	7 2900 21               @ ../Drivers/STM32F7xx_HAL_Driver/Src/stm32f7xx_hal_tim.c:2900:21
	movs	r0, #0
	strb	r0, [r4, #28]
.Ltmp779:
	.loc	7 2904 6                @ ../Drivers/STM32F7xx_HAL_Driver/Src/stm32f7xx_hal_tim.c:2904:6
	ldr	r0, [r4]
	b	.LBB64_4
.Ltmp780:
.Lfunc_end64:
	.size	HAL_TIM_IRQHandler, .Lfunc_end64-HAL_TIM_IRQHandler
	.cfi_endproc
	.cantunwind
	.fnend
                                        @ -- End function
	.section	.text.HAL_TIM_IC_CaptureCallback,"ax",%progbits
	.hidden	HAL_TIM_IC_CaptureCallback @ -- Begin function HAL_TIM_IC_CaptureCallback
	.weak	HAL_TIM_IC_CaptureCallback
	.p2align	1
	.type	HAL_TIM_IC_CaptureCallback,%function
	.code	16                      @ @HAL_TIM_IC_CaptureCallback
	.thumb_func
HAL_TIM_IC_CaptureCallback:
.Lfunc_begin65:
	.loc	7 4463 0                @ ../Drivers/STM32F7xx_HAL_Driver/Src/stm32f7xx_hal_tim.c:4463:0
	.fnstart
	.cfi_startproc
@ %bb.0:
	@DEBUG_VALUE: HAL_TIM_IC_CaptureCallback:htim <- $r0
	.loc	7 4470 1 prologue_end   @ ../Drivers/STM32F7xx_HAL_Driver/Src/stm32f7xx_hal_tim.c:4470:1
	bx	lr
.Ltmp781:
.Lfunc_end65:
	.size	HAL_TIM_IC_CaptureCallback, .Lfunc_end65-HAL_TIM_IC_CaptureCallback
	.cfi_endproc
	.cantunwind
	.fnend
                                        @ -- End function
	.section	.text.HAL_TIM_OC_DelayElapsedCallback,"ax",%progbits
	.hidden	HAL_TIM_OC_DelayElapsedCallback @ -- Begin function HAL_TIM_OC_DelayElapsedCallback
	.weak	HAL_TIM_OC_DelayElapsedCallback
	.p2align	1
	.type	HAL_TIM_OC_DelayElapsedCallback,%function
	.code	16                      @ @HAL_TIM_OC_DelayElapsedCallback
	.thumb_func
HAL_TIM_OC_DelayElapsedCallback:
.Lfunc_begin66:
	.loc	7 4448 0                @ ../Drivers/STM32F7xx_HAL_Driver/Src/stm32f7xx_hal_tim.c:4448:0
	.fnstart
	.cfi_startproc
@ %bb.0:
	@DEBUG_VALUE: HAL_TIM_OC_DelayElapsedCallback:htim <- $r0
	.loc	7 4455 1 prologue_end   @ ../Drivers/STM32F7xx_HAL_Driver/Src/stm32f7xx_hal_tim.c:4455:1
	bx	lr
.Ltmp782:
.Lfunc_end66:
	.size	HAL_TIM_OC_DelayElapsedCallback, .Lfunc_end66-HAL_TIM_OC_DelayElapsedCallback
	.cfi_endproc
	.cantunwind
	.fnend
                                        @ -- End function
	.section	.text.HAL_TIM_PWM_PulseFinishedCallback,"ax",%progbits
	.hidden	HAL_TIM_PWM_PulseFinishedCallback @ -- Begin function HAL_TIM_PWM_PulseFinishedCallback
	.weak	HAL_TIM_PWM_PulseFinishedCallback
	.p2align	1
	.type	HAL_TIM_PWM_PulseFinishedCallback,%function
	.code	16                      @ @HAL_TIM_PWM_PulseFinishedCallback
	.thumb_func
HAL_TIM_PWM_PulseFinishedCallback:
.Lfunc_begin67:
	.loc	7 4479 0                @ ../Drivers/STM32F7xx_HAL_Driver/Src/stm32f7xx_hal_tim.c:4479:0
	.fnstart
	.cfi_startproc
@ %bb.0:
	@DEBUG_VALUE: HAL_TIM_PWM_PulseFinishedCallback:htim <- $r0
	.loc	7 4486 1 prologue_end   @ ../Drivers/STM32F7xx_HAL_Driver/Src/stm32f7xx_hal_tim.c:4486:1
	bx	lr
.Ltmp783:
.Lfunc_end67:
	.size	HAL_TIM_PWM_PulseFinishedCallback, .Lfunc_end67-HAL_TIM_PWM_PulseFinishedCallback
	.cfi_endproc
	.cantunwind
	.fnend
                                        @ -- End function
	.section	.text.HAL_TIM_PeriodElapsedCallback,"ax",%progbits
	.hidden	HAL_TIM_PeriodElapsedCallback @ -- Begin function HAL_TIM_PeriodElapsedCallback
	.weak	HAL_TIM_PeriodElapsedCallback
	.p2align	1
	.type	HAL_TIM_PeriodElapsedCallback,%function
	.code	16                      @ @HAL_TIM_PeriodElapsedCallback
	.thumb_func
HAL_TIM_PeriodElapsedCallback:
.Lfunc_begin68:
	.loc	7 4432 0                @ ../Drivers/STM32F7xx_HAL_Driver/Src/stm32f7xx_hal_tim.c:4432:0
	.fnstart
	.cfi_startproc
@ %bb.0:
	@DEBUG_VALUE: HAL_TIM_PeriodElapsedCallback:htim <- $r0
	.loc	7 4440 1 prologue_end   @ ../Drivers/STM32F7xx_HAL_Driver/Src/stm32f7xx_hal_tim.c:4440:1
	bx	lr
.Ltmp784:
.Lfunc_end68:
	.size	HAL_TIM_PeriodElapsedCallback, .Lfunc_end68-HAL_TIM_PeriodElapsedCallback
	.cfi_endproc
	.cantunwind
	.fnend
                                        @ -- End function
	.section	.text.HAL_TIM_TriggerCallback,"ax",%progbits
	.hidden	HAL_TIM_TriggerCallback @ -- Begin function HAL_TIM_TriggerCallback
	.weak	HAL_TIM_TriggerCallback
	.p2align	1
	.type	HAL_TIM_TriggerCallback,%function
	.code	16                      @ @HAL_TIM_TriggerCallback
	.thumb_func
HAL_TIM_TriggerCallback:
.Lfunc_begin69:
	.loc	7 4495 0                @ ../Drivers/STM32F7xx_HAL_Driver/Src/stm32f7xx_hal_tim.c:4495:0
	.fnstart
	.cfi_startproc
@ %bb.0:
	@DEBUG_VALUE: HAL_TIM_TriggerCallback:htim <- $r0
	.loc	7 4502 1 prologue_end   @ ../Drivers/STM32F7xx_HAL_Driver/Src/stm32f7xx_hal_tim.c:4502:1
	bx	lr
.Ltmp785:
.Lfunc_end69:
	.size	HAL_TIM_TriggerCallback, .Lfunc_end69-HAL_TIM_TriggerCallback
	.cfi_endproc
	.cantunwind
	.fnend
                                        @ -- End function
	.section	.text.HAL_TIM_OC_ConfigChannel,"ax",%progbits
	.hidden	HAL_TIM_OC_ConfigChannel @ -- Begin function HAL_TIM_OC_ConfigChannel
	.weak	HAL_TIM_OC_ConfigChannel
	.p2align	2
	.type	HAL_TIM_OC_ConfigChannel,%function
	.code	16                      @ @HAL_TIM_OC_ConfigChannel
	.thumb_func
HAL_TIM_OC_ConfigChannel:
.Lfunc_begin70:
	.loc	7 2990 0                @ ../Drivers/STM32F7xx_HAL_Driver/Src/stm32f7xx_hal_tim.c:2990:0
	.fnstart
	.cfi_startproc
@ %bb.0:
	.save	{r4, r5, r7, lr}
	push	{r4, r5, r7, lr}
	.cfi_def_cfa_offset 16
	.cfi_offset lr, -4
	.cfi_offset r7, -8
	.cfi_offset r5, -12
	.cfi_offset r4, -16
	@DEBUG_VALUE: HAL_TIM_OC_ConfigChannel:htim <- $r0
	@DEBUG_VALUE: HAL_TIM_OC_ConfigChannel:sConfig <- $r1
	@DEBUG_VALUE: HAL_TIM_OC_ConfigChannel:Channel <- $r2
.Ltmp786:
	.loc	7 2997 3 prologue_end   @ ../Drivers/STM32F7xx_HAL_Driver/Src/stm32f7xx_hal_tim.c:2997:3
	ldrb.w	r3, [r0, #60]
	mov	r4, r0
	@DEBUG_VALUE: HAL_TIM_OC_ConfigChannel:Channel <- $r2
	@DEBUG_VALUE: HAL_TIM_OC_ConfigChannel:sConfig <- $r1
.Ltmp787:
	@DEBUG_VALUE: HAL_TIM_OC_ConfigChannel:htim <- $r4
	.loc	7 0 3 is_stmt 0         @ ../Drivers/STM32F7xx_HAL_Driver/Src/stm32f7xx_hal_tim.c:0:3
	movs	r0, #2
.Ltmp788:
	.loc	7 2997 3                @ ../Drivers/STM32F7xx_HAL_Driver/Src/stm32f7xx_hal_tim.c:2997:3
	cmp	r3, #1
	beq	.LBB70_9
.Ltmp789:
@ %bb.1:
	@DEBUG_VALUE: HAL_TIM_OC_ConfigChannel:htim <- $r4
	@DEBUG_VALUE: HAL_TIM_OC_ConfigChannel:Channel <- $r2
	@DEBUG_VALUE: HAL_TIM_OC_ConfigChannel:sConfig <- $r1
	.loc	7 2999 15 is_stmt 1     @ ../Drivers/STM32F7xx_HAL_Driver/Src/stm32f7xx_hal_tim.c:2999:15
	strb.w	r0, [r4, #61]
	.loc	7 3001 3                @ ../Drivers/STM32F7xx_HAL_Driver/Src/stm32f7xx_hal_tim.c:3001:3
	ror.w	r0, r2, #2
.Ltmp790:
	.loc	7 2997 3                @ ../Drivers/STM32F7xx_HAL_Driver/Src/stm32f7xx_hal_tim.c:2997:3
	movs	r5, #1
.Ltmp791:
	.loc	7 3001 3                @ ../Drivers/STM32F7xx_HAL_Driver/Src/stm32f7xx_hal_tim.c:3001:3
	cmp	r0, #3
.Ltmp792:
	.loc	7 2997 3                @ ../Drivers/STM32F7xx_HAL_Driver/Src/stm32f7xx_hal_tim.c:2997:3
	strb.w	r5, [r4, #60]
.Ltmp793:
	.loc	7 3001 3                @ ../Drivers/STM32F7xx_HAL_Driver/Src/stm32f7xx_hal_tim.c:3001:3
	bhi	.LBB70_8
.Ltmp794:
@ %bb.2:
	@DEBUG_VALUE: HAL_TIM_OC_ConfigChannel:htim <- $r4
	@DEBUG_VALUE: HAL_TIM_OC_ConfigChannel:Channel <- $r2
	@DEBUG_VALUE: HAL_TIM_OC_ConfigChannel:sConfig <- $r1
	.loc	7 0 3 is_stmt 0         @ ../Drivers/STM32F7xx_HAL_Driver/Src/stm32f7xx_hal_tim.c:0:3
.LCPI70_0:
	tbb	[pc, r0]
.Ltmp795:
@ %bb.3:
.LJTI70_0:
	.byte	(.LBB70_4-(.LCPI70_0+4))/2
	.byte	(.LBB70_5-(.LCPI70_0+4))/2
	.byte	(.LBB70_6-(.LCPI70_0+4))/2
	.byte	(.LBB70_7-(.LCPI70_0+4))/2
	.p2align	1
.LBB70_4:
.Ltmp796:
	@DEBUG_VALUE: HAL_TIM_OC_ConfigChannel:htim <- $r4
	@DEBUG_VALUE: HAL_TIM_OC_ConfigChannel:Channel <- $r2
	@DEBUG_VALUE: HAL_TIM_OC_ConfigChannel:sConfig <- $r1
	.loc	7 3007 31 is_stmt 1     @ ../Drivers/STM32F7xx_HAL_Driver/Src/stm32f7xx_hal_tim.c:3007:31
	ldr	r0, [r4]
	.loc	7 3007 7 is_stmt 0      @ ../Drivers/STM32F7xx_HAL_Driver/Src/stm32f7xx_hal_tim.c:3007:7
	bl	TIM_OC1_SetConfig
.Ltmp797:
	.loc	7 0 7                   @ ../Drivers/STM32F7xx_HAL_Driver/Src/stm32f7xx_hal_tim.c:0:7
	b	.LBB70_8
.Ltmp798:
.LBB70_5:
	@DEBUG_VALUE: HAL_TIM_OC_ConfigChannel:htim <- $r4
	@DEBUG_VALUE: HAL_TIM_OC_ConfigChannel:Channel <- $r2
	@DEBUG_VALUE: HAL_TIM_OC_ConfigChannel:sConfig <- $r1
	.loc	7 3015 31 is_stmt 1     @ ../Drivers/STM32F7xx_HAL_Driver/Src/stm32f7xx_hal_tim.c:3015:31
	ldr	r0, [r4]
	.loc	7 3015 7 is_stmt 0      @ ../Drivers/STM32F7xx_HAL_Driver/Src/stm32f7xx_hal_tim.c:3015:7
	bl	TIM_OC2_SetConfig
.Ltmp799:
	.loc	7 0 7                   @ ../Drivers/STM32F7xx_HAL_Driver/Src/stm32f7xx_hal_tim.c:0:7
	b	.LBB70_8
.Ltmp800:
.LBB70_6:
	@DEBUG_VALUE: HAL_TIM_OC_ConfigChannel:htim <- $r4
	@DEBUG_VALUE: HAL_TIM_OC_ConfigChannel:Channel <- $r2
	@DEBUG_VALUE: HAL_TIM_OC_ConfigChannel:sConfig <- $r1
	.loc	7 3023 31 is_stmt 1     @ ../Drivers/STM32F7xx_HAL_Driver/Src/stm32f7xx_hal_tim.c:3023:31
	ldr	r0, [r4]
	.loc	7 3023 7 is_stmt 0      @ ../Drivers/STM32F7xx_HAL_Driver/Src/stm32f7xx_hal_tim.c:3023:7
	bl	TIM_OC3_SetConfig
.Ltmp801:
	.loc	7 0 7                   @ ../Drivers/STM32F7xx_HAL_Driver/Src/stm32f7xx_hal_tim.c:0:7
	b	.LBB70_8
.Ltmp802:
.LBB70_7:
	@DEBUG_VALUE: HAL_TIM_OC_ConfigChannel:htim <- $r4
	@DEBUG_VALUE: HAL_TIM_OC_ConfigChannel:Channel <- $r2
	@DEBUG_VALUE: HAL_TIM_OC_ConfigChannel:sConfig <- $r1
	.loc	7 3031 31 is_stmt 1     @ ../Drivers/STM32F7xx_HAL_Driver/Src/stm32f7xx_hal_tim.c:3031:31
	ldr	r0, [r4]
	.loc	7 3031 7 is_stmt 0      @ ../Drivers/STM32F7xx_HAL_Driver/Src/stm32f7xx_hal_tim.c:3031:7
	bl	TIM_OC4_SetConfig
.Ltmp803:
.LBB70_8:
	@DEBUG_VALUE: HAL_TIM_OC_ConfigChannel:htim <- $r4
	.loc	7 0 7                   @ ../Drivers/STM32F7xx_HAL_Driver/Src/stm32f7xx_hal_tim.c:0:7
	movs	r0, #0
.Ltmp804:
	.loc	7 3040 3 is_stmt 1      @ ../Drivers/STM32F7xx_HAL_Driver/Src/stm32f7xx_hal_tim.c:3040:3
	strb.w	r0, [r4, #60]
.Ltmp805:
	.loc	7 3038 15               @ ../Drivers/STM32F7xx_HAL_Driver/Src/stm32f7xx_hal_tim.c:3038:15
	strb.w	r5, [r4, #61]
.Ltmp806:
.LBB70_9:
	@DEBUG_VALUE: HAL_TIM_OC_ConfigChannel:htim <- $r4
	.loc	7 3043 1                @ ../Drivers/STM32F7xx_HAL_Driver/Src/stm32f7xx_hal_tim.c:3043:1
	uxtb	r0, r0
	pop	{r4, r5, r7, pc}
.Ltmp807:
.Lfunc_end70:
	.size	HAL_TIM_OC_ConfigChannel, .Lfunc_end70-HAL_TIM_OC_ConfigChannel
	.cfi_endproc
	.cantunwind
	.fnend
                                        @ -- End function
	.section	.text.TIM_OC1_SetConfig,"ax",%progbits
	.hidden	TIM_OC1_SetConfig       @ -- Begin function TIM_OC1_SetConfig
	.globl	TIM_OC1_SetConfig
	.p2align	2
	.type	TIM_OC1_SetConfig,%function
	.code	16                      @ @TIM_OC1_SetConfig
	.thumb_func
TIM_OC1_SetConfig:
.Lfunc_begin71:
	.loc	7 4777 0                @ ../Drivers/STM32F7xx_HAL_Driver/Src/stm32f7xx_hal_tim.c:4777:0
	.fnstart
	.cfi_startproc
@ %bb.0:
	.save	{r4, r5, r6, lr}
	push	{r4, r5, r6, lr}
	.cfi_def_cfa_offset 16
	.cfi_offset lr, -4
	.cfi_offset r6, -8
	.cfi_offset r5, -12
	.cfi_offset r4, -16
	@DEBUG_VALUE: TIM_OC1_SetConfig:TIMx <- $r0
	@DEBUG_VALUE: TIM_OC1_SetConfig:TIMx <- $r0
	@DEBUG_VALUE: TIM_OC1_SetConfig:OC_Config <- $r1
	@DEBUG_VALUE: TIM_OC1_SetConfig:OC_Config <- $r1
.Ltmp808:
	@DEBUG_VALUE: TIM_OC1_SetConfig:tmpccmrx <- 0
	@DEBUG_VALUE: TIM_OC1_SetConfig:tmpccer <- 0
	@DEBUG_VALUE: TIM_OC1_SetConfig:tmpcr2 <- 0
	.loc	7 4783 14 prologue_end  @ ../Drivers/STM32F7xx_HAL_Driver/Src/stm32f7xx_hal_tim.c:4783:14
	ldr	r2, [r0, #32]
	bic	r2, r2, #1
	str	r2, [r0, #32]
	.loc	7 4786 19               @ ../Drivers/STM32F7xx_HAL_Driver/Src/stm32f7xx_hal_tim.c:4786:19
	ldr	r3, [r0, #32]
.Ltmp809:
	@DEBUG_VALUE: TIM_OC1_SetConfig:tmpccer <- $r3
	.loc	7 4788 18               @ ../Drivers/STM32F7xx_HAL_Driver/Src/stm32f7xx_hal_tim.c:4788:18
	ldr.w	lr, [r0, #4]
.Ltmp810:
	@DEBUG_VALUE: TIM_OC1_SetConfig:tmpcr2 <- $lr
	.loc	7 4791 20               @ ../Drivers/STM32F7xx_HAL_Driver/Src/stm32f7xx_hal_tim.c:4791:20
	ldr	r2, [r0, #24]
.Ltmp811:
	@DEBUG_VALUE: TIM_OC1_SetConfig:tmpccmrx <- $r2
	.loc	7 4802 25               @ ../Drivers/STM32F7xx_HAL_Driver/Src/stm32f7xx_hal_tim.c:4802:25
	ldr	r4, [r1, #8]
	.loc	7 4797 26               @ ../Drivers/STM32F7xx_HAL_Driver/Src/stm32f7xx_hal_tim.c:4797:26
	ldr.w	r12, [r1]
	.loc	7 4800 11               @ ../Drivers/STM32F7xx_HAL_Driver/Src/stm32f7xx_hal_tim.c:4800:11
	bic	r3, r3, #2
.Ltmp812:
	@DEBUG_VALUE: TIM_OC1_SetConfig:tmpccer <- $r3
	.loc	7 4802 11               @ ../Drivers/STM32F7xx_HAL_Driver/Src/stm32f7xx_hal_tim.c:4802:11
	orrs	r3, r4
.Ltmp813:
	@DEBUG_VALUE: TIM_OC1_SetConfig:tmpccer <- $r3
	.loc	7 4795 12               @ ../Drivers/STM32F7xx_HAL_Driver/Src/stm32f7xx_hal_tim.c:4795:12
	ldr	r4, __arm_cp.71_0
	ands	r2, r4
.Ltmp814:
	@DEBUG_VALUE: TIM_OC1_SetConfig:tmpccmrx <- $r2
	.loc	7 4805 6                @ ../Drivers/STM32F7xx_HAL_Driver/Src/stm32f7xx_hal_tim.c:4805:6
	ldr	r4, __arm_cp.71_1
	.loc	7 4797 12               @ ../Drivers/STM32F7xx_HAL_Driver/Src/stm32f7xx_hal_tim.c:4797:12
	orr.w	r12, r12, r2
.Ltmp815:
	@DEBUG_VALUE: TIM_OC1_SetConfig:tmpccmrx <- $r12
	.loc	7 4805 6                @ ../Drivers/STM32F7xx_HAL_Driver/Src/stm32f7xx_hal_tim.c:4805:6
	orr	r2, r0, #1024
	cmp	r2, r4
	bne	.LBB71_2
.Ltmp816:
@ %bb.1:
	@DEBUG_VALUE: TIM_OC1_SetConfig:tmpccmrx <- $r12
	@DEBUG_VALUE: TIM_OC1_SetConfig:tmpcr2 <- $lr
	@DEBUG_VALUE: TIM_OC1_SetConfig:tmpccer <- $r3
	@DEBUG_VALUE: TIM_OC1_SetConfig:OC_Config <- $r1
	@DEBUG_VALUE: TIM_OC1_SetConfig:TIMx <- $r0
	.loc	7 4810 27               @ ../Drivers/STM32F7xx_HAL_Driver/Src/stm32f7xx_hal_tim.c:4810:27
	ldr	r6, [r1, #12]
	.loc	7 4818 26               @ ../Drivers/STM32F7xx_HAL_Driver/Src/stm32f7xx_hal_tim.c:4818:26
	ldrd	r4, r5, [r1, #20]
	.loc	7 4816 12               @ ../Drivers/STM32F7xx_HAL_Driver/Src/stm32f7xx_hal_tim.c:4816:12
	bic	r2, lr, #768
.Ltmp817:
	@DEBUG_VALUE: TIM_OC1_SetConfig:tmpcr2 <- $r2
	.loc	7 4818 12               @ ../Drivers/STM32F7xx_HAL_Driver/Src/stm32f7xx_hal_tim.c:4818:12
	orrs	r2, r4
.Ltmp818:
	@DEBUG_VALUE: TIM_OC1_SetConfig:tmpcr2 <- $r2
	.loc	7 4820 12               @ ../Drivers/STM32F7xx_HAL_Driver/Src/stm32f7xx_hal_tim.c:4820:12
	orr.w	lr, r2, r5
.Ltmp819:
	@DEBUG_VALUE: TIM_OC1_SetConfig:tmpcr2 <- $lr
	.loc	7 4808 13               @ ../Drivers/STM32F7xx_HAL_Driver/Src/stm32f7xx_hal_tim.c:4808:13
	bic	r2, r3, #12
.Ltmp820:
	@DEBUG_VALUE: TIM_OC1_SetConfig:tmpccer <- $r2
	.loc	7 4812 13               @ ../Drivers/STM32F7xx_HAL_Driver/Src/stm32f7xx_hal_tim.c:4812:13
	bic	r3, r6, #4
	orrs	r3, r2
.Ltmp821:
	@DEBUG_VALUE: TIM_OC1_SetConfig:tmpccer <- $r3
.LBB71_2:
	@DEBUG_VALUE: TIM_OC1_SetConfig:tmpccmrx <- $r12
	@DEBUG_VALUE: TIM_OC1_SetConfig:tmpcr2 <- $lr
	@DEBUG_VALUE: TIM_OC1_SetConfig:tmpccer <- $r3
	@DEBUG_VALUE: TIM_OC1_SetConfig:OC_Config <- $r1
	@DEBUG_VALUE: TIM_OC1_SetConfig:TIMx <- $r0
	@DEBUG_VALUE: TIM_OC1_SetConfig:tmpccer <- $r3
	@DEBUG_VALUE: TIM_OC1_SetConfig:tmpcr2 <- $lr
	.loc	7 4823 13               @ ../Drivers/STM32F7xx_HAL_Driver/Src/stm32f7xx_hal_tim.c:4823:13
	str.w	lr, [r0, #4]
	.loc	7 4826 15               @ ../Drivers/STM32F7xx_HAL_Driver/Src/stm32f7xx_hal_tim.c:4826:15
	str.w	r12, [r0, #24]
	.loc	7 4829 27               @ ../Drivers/STM32F7xx_HAL_Driver/Src/stm32f7xx_hal_tim.c:4829:27
	ldr	r1, [r1, #4]
.Ltmp822:
	.loc	7 4829 14 is_stmt 0     @ ../Drivers/STM32F7xx_HAL_Driver/Src/stm32f7xx_hal_tim.c:4829:14
	str	r1, [r0, #52]
	.loc	7 4832 14 is_stmt 1     @ ../Drivers/STM32F7xx_HAL_Driver/Src/stm32f7xx_hal_tim.c:4832:14
	str	r3, [r0, #32]
	.loc	7 4833 1                @ ../Drivers/STM32F7xx_HAL_Driver/Src/stm32f7xx_hal_tim.c:4833:1
	pop	{r4, r5, r6, pc}
.Ltmp823:
	.p2align	2
@ %bb.3:
	.loc	7 0 1 is_stmt 0         @ ../Drivers/STM32F7xx_HAL_Driver/Src/stm32f7xx_hal_tim.c:0:1
__arm_cp.71_0:
	.long	4294901644              @ 0xfffeff8c
.Lcpi_end40:
	.size	__arm_cp.71_0, .Lcpi_end40-__arm_cp.71_0
__arm_cp.71_1:
	.long	1073808384              @ 0x40010400
.Lcpi_end41:
	.size	__arm_cp.71_1, .Lcpi_end41-__arm_cp.71_1
