	.text
	.syntax unified
	.eabi_attribute	67, "2.09"	@ Tag_conformance
	.cpu	cortex-m7
	.eabi_attribute	6, 13	@ Tag_CPU_arch
	.eabi_attribute	7, 77	@ Tag_CPU_arch_profile
	.eabi_attribute	8, 0	@ Tag_ARM_ISA_use
	.eabi_attribute	9, 2	@ Tag_THUMB_ISA_use
	.fpu	fpv5-sp-d16
	.eabi_attribute	27, 1	@ Tag_ABI_HardFP_use
	.eabi_attribute	36, 1	@ Tag_FP_HP_extension
	.eabi_attribute	34, 1	@ Tag_CPU_unaligned_access
	.eabi_attribute	17, 1	@ Tag_ABI_PCS_GOT_use
	.eabi_attribute	20, 2	@ Tag_ABI_FP_denormal
	.eabi_attribute	21, 0	@ Tag_ABI_FP_exceptions
	.eabi_attribute	23, 1	@ Tag_ABI_FP_number_model
	.eabi_attribute	24, 1	@ Tag_ABI_align_needed
	.eabi_attribute	25, 1	@ Tag_ABI_align_preserved
	.eabi_attribute	28, 1	@ Tag_ABI_VFP_args
	.eabi_attribute	38, 1	@ Tag_ABI_FP_16bit_format
	.eabi_attribute	18, 2	@ Tag_ABI_PCS_wchar_t
	.eabi_attribute	26, 1	@ Tag_ABI_enum_size
	.eabi_attribute	14, 0	@ Tag_ABI_PCS_R9_use
	.file	"thermostat.c"
	.file	1 "C:\\Keil\\ARM\\ARMCLANG\\Bin\\..\\include" "stdint.h"
	.file	2 "../Src" "thermostat.c"
	.file	3 "../Inc" "thermostat.h"
	.file	4 "../Drivers/STM32F7xx_HAL_Driver/Inc" "stm32f7xx_hal_gpio.h"
	.file	5 "../Drivers/CMSIS/Device/ST/STM32F7xx/Include" "stm32f746xx.h"
	.section	.text.THERMOSTAT_Init,"ax",%progbits
	.hidden	THERMOSTAT_Init         @ -- Begin function THERMOSTAT_Init
	.globl	THERMOSTAT_Init
	.p2align	2
	.type	THERMOSTAT_Init,%function
	.code	16                      @ @THERMOSTAT_Init
	.thumb_func
THERMOSTAT_Init:
.Lfunc_begin0:
	.loc	2 67 0                  @ ../Src/thermostat.c:67:0
	.fnstart
	.cfi_sections .debug_frame
	.cfi_startproc
@ %bb.0:
	.save	{r4, r5, r6, r7, r8, r9, lr}
	push.w	{r4, r5, r6, r7, r8, r9, lr}
	.cfi_def_cfa_offset 28
	.cfi_offset lr, -4
	.cfi_offset r9, -8
	.cfi_offset r8, -12
	.cfi_offset r7, -16
	.cfi_offset r6, -20
	.cfi_offset r5, -24
	.cfi_offset r4, -28
	.pad	#20
	sub	sp, #20
	.cfi_def_cfa_offset 48
	ldr	r0, __arm_cp.0_0
	ldr	r4, __arm_cp.0_1
.Ltmp0:
	.loc	2 73 2 prologue_end     @ ../Src/thermostat.c:73:2
	movs	r2, #0
	mov.w	r6, #7168
	mov.w	r9, #0
.Ltmp1:
	.loc	2 70 2                  @ ../Src/thermostat.c:70:2
	ldr	r1, [r0]
	orr	r1, r1, #4
	str	r1, [r0]
	ldr	r1, [r0]
	and	r1, r1, #4
.Ltmp2:
	@DEBUG_VALUE: tmpreg <- $r1
	str	r1, [sp]
	ldr	r1, [sp]
.Ltmp3:
	@DEBUG_VALUE: tmpreg <- $r1
	.loc	2 71 2                  @ ../Src/thermostat.c:71:2
	ldr	r1, [r0]
.Ltmp4:
	orr	r1, r1, #8
	str	r1, [r0]
.Ltmp5:
	.loc	2 73 2                  @ ../Src/thermostat.c:73:2
	mov.w	r1, #7168
.Ltmp6:
	.loc	2 71 2                  @ ../Src/thermostat.c:71:2
	ldr	r0, [r0]
	and	r0, r0, #8
.Ltmp7:
	@DEBUG_VALUE: tmpreg <- $r0
	str	r0, [sp]
	ldr	r0, [sp]
.Ltmp8:
	@DEBUG_VALUE: tmpreg <- $r0
	.loc	2 73 2                  @ ../Src/thermostat.c:73:2
	mov	r0, r4
.Ltmp9:
	bl	HAL_GPIO_WritePin
	.loc	2 74 2                  @ ../Src/thermostat.c:74:2
	add.w	r5, r4, #1024
	movs	r1, #20
	movs	r2, #0
	mov.w	r8, #20
	mov	r0, r5
	bl	HAL_GPIO_WritePin
	.loc	2 77 26                 @ ../Src/thermostat.c:77:26
	movs	r7, #1
	.loc	2 80 5                  @ ../Src/thermostat.c:80:5
	mov	r0, r4
	.loc	2 76 25                 @ ../Src/thermostat.c:76:25
	strd	r6, r7, [sp]
	mov	r6, sp
.Ltmp10:
	@DEBUG_VALUE: THERMOSTAT_Init:GPIO_InitStruct <- [$sp+0]
	.loc	2 78 26                 @ ../Src/thermostat.c:78:26
	strd	r7, r9, [sp, #8]
	.loc	2 80 5                  @ ../Src/thermostat.c:80:5
	mov	r1, r6
	bl	HAL_GPIO_Init
	.loc	2 86 5                  @ ../Src/thermostat.c:86:5
	mov	r0, r5
	mov	r1, r6
	.loc	2 82 22                 @ ../Src/thermostat.c:82:22
	strd	r8, r7, [sp]
	.loc	2 84 26                 @ ../Src/thermostat.c:84:26
	strd	r7, r9, [sp, #8]
	.loc	2 86 5                  @ ../Src/thermostat.c:86:5
	bl	HAL_GPIO_Init
	.loc	2 89 24                 @ ../Src/thermostat.c:89:24
	ldr	r0, __arm_cp.0_2
	.loc	2 94 36                 @ ../Src/thermostat.c:94:36
	ldr	r2, __arm_cp.0_3
	.loc	2 92 34                 @ ../Src/thermostat.c:92:34
	mov.w	r1, #13762770
	.loc	2 89 24                 @ ../Src/thermostat.c:89:24
	strd	r9, r1, [r0]
	.loc	2 94 36                 @ ../Src/thermostat.c:94:36
	str	r2, [r0, #8]
	.loc	2 98 1                  @ ../Src/thermostat.c:98:1
	add	sp, #20
.Ltmp11:
	pop.w	{r4, r5, r6, r7, r8, r9, pc}
.Ltmp12:
	.p2align	2
@ %bb.1:
	.loc	2 0 1 is_stmt 0         @ ../Src/thermostat.c:0:1
__arm_cp.0_0:
	.long	1073887280              @ 0x40023830
.Lcpi_end0:
	.size	__arm_cp.0_0, .Lcpi_end0-__arm_cp.0_0
__arm_cp.0_1:
	.long	1073874944              @ 0x40020800
.Lcpi_end1:
	.size	__arm_cp.0_1, .Lcpi_end1-__arm_cp.0_1
__arm_cp.0_2:
	.long	Thermostat_1
.Lcpi_end2:
	.size	__arm_cp.0_2, .Lcpi_end2-__arm_cp.0_2
__arm_cp.0_3:
	.long	51644943                @ 0x3140a0f
.Lcpi_end3:
	.size	__arm_cp.0_3, .Lcpi_end3-__arm_cp.0_3
.Lfunc_end0:
	.size	THERMOSTAT_Init, .Lfunc_end0-THERMOSTAT_Init
	.cfi_endproc
	.cantunwind
	.fnend
                                        @ -- End function
	.section	.text.THERMOSTAT_Service,"ax",%progbits
	.hidden	THERMOSTAT_Service      @ -- Begin function THERMOSTAT_Service
	.globl	THERMOSTAT_Service
	.p2align	2
	.type	THERMOSTAT_Service,%function
	.code	16                      @ @THERMOSTAT_Service
	.thumb_func
THERMOSTAT_Service:
.Lfunc_begin1:
	.loc	2 102 0 is_stmt 1       @ ../Src/thermostat.c:102:0
	.fnstart
	.cfi_startproc
@ %bb.0:
	.save	{r4, r5, r6, lr}
	push	{r4, r5, r6, lr}
	.cfi_def_cfa_offset 16
	.cfi_offset lr, -4
	.cfi_offset r6, -8
	.cfi_offset r5, -12
	.cfi_offset r4, -16
.Ltmp13:
	.loc	2 110 5 prologue_end    @ ../Src/thermostat.c:110:5
	ldr	r1, __arm_cp.1_1
	ldr	r4, __arm_cp.1_0
.Ltmp14:
	.loc	2 110 5 is_stmt 0       @ ../Src/thermostat.c:110:5
	ldrb	r1, [r1]
	ldrh	r0, [r4, #4]
	lsls	r1, r1, #30
	bmi	.LBB1_3
@ %bb.1:
.Ltmp15:
	.loc	2 126 41 is_stmt 1      @ ../Src/thermostat.c:126:41
	ldr	r1, __arm_cp.1_6
	ldrh	r1, [r1]
.Ltmp16:
	.loc	2 126 6 is_stmt 0       @ ../Src/thermostat.c:126:6
	cmp	r0, r1
	beq	.LBB1_6
@ %bb.2:
.Ltmp17:
	.loc	2 129 4 is_stmt 1       @ ../Src/thermostat.c:129:4
	ldr	r0, __arm_cp.1_3
	.loc	2 128 36                @ ../Src/thermostat.c:128:36
	strh	r1, [r4, #4]
	.loc	2 129 4                 @ ../Src/thermostat.c:129:4
	ldr	r2, [r0]
	orr	r2, r2, #1
	str	r2, [r0]
.Ltmp18:
	.loc	2 131 66                @ ../Src/thermostat.c:131:66
	movs	r0, #10
	udiv	r0, r1, r0
	.loc	2 131 7 is_stmt 0       @ ../Src/thermostat.c:131:7
	ldr	r1, __arm_cp.1_4
	ldrb	r2, [r1]
.Ltmp19:
	.loc	2 131 7                 @ ../Src/thermostat.c:131:7
	cmp	r2, r0
	bne	.LBB1_5
	b	.LBB1_6
.Ltmp20:
.LBB1_3:
	.loc	2 112 51 is_stmt 1      @ ../Src/thermostat.c:112:51
	ldr	r1, __arm_cp.1_2
	ldr	r1, [r1, #12]
.Ltmp21:
	.loc	2 112 6 is_stmt 0       @ ../Src/thermostat.c:112:6
	cmp	r1, r0
	beq	.LBB1_6
@ %bb.4:
.Ltmp22:
	.loc	2 115 4 is_stmt 1       @ ../Src/thermostat.c:115:4
	ldr	r0, __arm_cp.1_3
	.loc	2 114 36                @ ../Src/thermostat.c:114:36
	strh	r1, [r4, #4]
	.loc	2 115 4                 @ ../Src/thermostat.c:115:4
	ldr	r2, [r0]
	orr	r2, r2, #1
	str	r2, [r0]
.Ltmp23:
	.loc	2 117 34                @ ../Src/thermostat.c:117:34
	uxth	r0, r1
	.loc	2 117 66 is_stmt 0      @ ../Src/thermostat.c:117:66
	movs	r1, #10
	udiv	r0, r0, r1
	.loc	2 117 7                 @ ../Src/thermostat.c:117:7
	ldr	r1, __arm_cp.1_4
	ldrb	r2, [r1]
.Ltmp24:
	.loc	2 117 7                 @ ../Src/thermostat.c:117:7
	cmp	r0, r2
	beq	.LBB1_6
.Ltmp25:
.LBB1_5:
	.loc	2 0 7                   @ ../Src/thermostat.c:0:7
	strb	r0, [r1]
	ldr	r0, __arm_cp.1_5
	ldr	r1, [r0]
	orr	r1, r1, #4
	str	r1, [r0]
.LBB1_6:
.Ltmp26:
	.loc	2 141 31 is_stmt 1      @ ../Src/thermostat.c:141:31
	ldr	r5, __arm_cp.1_4
	.loc	2 141 18 is_stmt 0      @ ../Src/thermostat.c:141:18
	ldrb	r0, [r4, #2]
	.loc	2 141 31                @ ../Src/thermostat.c:141:31
	ldrb	r1, [r5, #1]
.Ltmp27:
	.loc	2 141 5                 @ ../Src/thermostat.c:141:5
	cmp	r0, r1
	beq	.LBB1_24
@ %bb.7:
.Ltmp28:
	.loc	2 143 7 is_stmt 1       @ ../Src/thermostat.c:143:7
	ldrb	r1, [r5, #2]
	.loc	2 143 22 is_stmt 0      @ ../Src/thermostat.c:143:22
	cmp	r1, #1
	beq	.LBB1_13
@ %bb.8:
	cbnz	r1, .LBB1_24
@ %bb.9:
	.loc	2 143 25                @ ../Src/thermostat.c:143:25
	ldr	r6, __arm_cp.1_3
	ldr	r0, [r6, #4]
.Ltmp29:
	.loc	2 143 6                 @ ../Src/thermostat.c:143:6
	cbnz	r0, .LBB1_24
@ %bb.10:
	.loc	2 0 6                   @ ../Src/thermostat.c:0:6
	ldr	r0, __arm_cp.1_7
.Ltmp30:
	.loc	2 145 4 is_stmt 1       @ ../Src/thermostat.c:145:4
	mov.w	r1, #7168
	movs	r2, #0
	bl	HAL_GPIO_WritePin
	.loc	2 146 4                 @ ../Src/thermostat.c:146:4
	movs	r0, #0
	bl	FAN_SetSpeed
.Ltmp31:
	.loc	2 147 7                 @ ../Src/thermostat.c:147:7
	ldrb	r0, [r5, #1]
.Ltmp32:
	.loc	2 147 7 is_stmt 0       @ ../Src/thermostat.c:147:7
	cbz	r0, .LBB1_12
@ %bb.11:
.Ltmp33:
	.loc	2 147 27                @ ../Src/thermostat.c:147:27
	mov.w	r0, #1560
	str	r0, [r6, #4]
.Ltmp34:
.LBB1_12:
	.loc	2 148 12 is_stmt 1      @ ../Src/thermostat.c:148:12
	ldrb	r0, [r5, #2]
	adds	r0, #1
	strb	r0, [r5, #2]
	b	.LBB1_24
.Ltmp35:
.LBB1_13:
	.loc	2 150 30                @ ../Src/thermostat.c:150:30
	ldr	r6, __arm_cp.1_3
	ldr	r1, [r6, #4]
.Ltmp36:
	.loc	2 150 11 is_stmt 0      @ ../Src/thermostat.c:150:11
	cbnz	r1, .LBB1_24
@ %bb.14:
.Ltmp37:
	.loc	2 152 7 is_stmt 1       @ ../Src/thermostat.c:152:7
	cmp	r0, #3
	beq	.LBB1_18
@ %bb.15:
	cmp	r0, #2
	beq	.LBB1_19
@ %bb.16:
	cmp	r0, #1
	bne	.LBB1_21
@ %bb.17:
	.loc	2 0 7 is_stmt 0         @ ../Src/thermostat.c:0:7
	ldr	r0, __arm_cp.1_7
.Ltmp38:
	.loc	2 154 5 is_stmt 1       @ ../Src/thermostat.c:154:5
	mov.w	r1, #1024
	movs	r2, #1
	bl	HAL_GPIO_WritePin
	.loc	2 155 5                 @ ../Src/thermostat.c:155:5
	movs	r0, #52
	b	.LBB1_20
.Ltmp39:
.LBB1_18:
	.loc	2 0 5 is_stmt 0         @ ../Src/thermostat.c:0:5
	ldr	r0, __arm_cp.1_7
.Ltmp40:
	.loc	2 164 5 is_stmt 1       @ ../Src/thermostat.c:164:5
	mov.w	r1, #4096
	movs	r2, #1
	bl	HAL_GPIO_WritePin
	.loc	2 165 5                 @ ../Src/thermostat.c:165:5
	movs	r0, #42
	b	.LBB1_20
.Ltmp41:
.LBB1_19:
	.loc	2 0 5 is_stmt 0         @ ../Src/thermostat.c:0:5
	ldr	r0, __arm_cp.1_7
.Ltmp42:
	.loc	2 159 5 is_stmt 1       @ ../Src/thermostat.c:159:5
	mov.w	r1, #2048
	movs	r2, #1
	bl	HAL_GPIO_WritePin
	.loc	2 160 5                 @ ../Src/thermostat.c:160:5
	movs	r0, #47
.Ltmp43:
.LBB1_20:
	.loc	2 0 5 is_stmt 0         @ ../Src/thermostat.c:0:5
	bl	FAN_SetSpeed
.LBB1_21:
.Ltmp44:
	.loc	2 168 20 is_stmt 1      @ ../Src/thermostat.c:168:20
	ldrb	r0, [r4, #2]
.Ltmp45:
	.loc	2 168 7 is_stmt 0       @ ../Src/thermostat.c:168:7
	cbz	r0, .LBB1_23
@ %bb.22:
.Ltmp46:
	.loc	2 168 36                @ ../Src/thermostat.c:168:36
	mov.w	r1, #1560
	str	r1, [r6, #4]
.Ltmp47:
.LBB1_23:
	.loc	2 170 13 is_stmt 1      @ ../Src/thermostat.c:170:13
	movs	r1, #0
	strb	r1, [r5, #2]
	.loc	2 169 18                @ ../Src/thermostat.c:169:18
	strb	r0, [r5, #1]
.Ltmp48:
.LBB1_24:
	.loc	2 176 18                @ ../Src/thermostat.c:176:18
	ldrb	r0, [r4]
	.loc	2 176 40 is_stmt 0      @ ../Src/thermostat.c:176:40
	ldrb	r1, [r4, #3]
.Ltmp49:
	.loc	2 176 5                 @ ../Src/thermostat.c:176:5
	cmp	r0, r1
	beq	.LBB1_27
@ %bb.25:
.Ltmp50:
	.loc	2 178 6 is_stmt 1       @ ../Src/thermostat.c:178:6
	ldr	r5, __arm_cp.1_3
	ldr	r0, [r5, #8]
.Ltmp51:
	.loc	2 178 6 is_stmt 0       @ ../Src/thermostat.c:178:6
	cmp	r0, #0
.Ltmp52:
	.loc	2 189 18 is_stmt 1      @ ../Src/thermostat.c:189:18
	mov	r0, r1
.Ltmp53:
	.loc	2 178 6                 @ ../Src/thermostat.c:178:6
	bne	.LBB1_27
@ %bb.26:
	.loc	2 0 6 is_stmt 0         @ ../Src/thermostat.c:0:6
	ldr	r0, __arm_cp.1_7
.Ltmp54:
	.loc	2 180 7 is_stmt 1       @ ../Src/thermostat.c:180:7
	cmp	r1, #1
.Ltmp55:
	.loc	2 181 9                 @ ../Src/thermostat.c:181:9
	mov.w	r1, #4
	ite	ne
	movne	r2, #0
	.loc	2 180 66                @ ../Src/thermostat.c:180:66
	moveq	r2, #1
	.loc	2 181 9                 @ ../Src/thermostat.c:181:9
	add.w	r0, r0, #1024
	bl	HAL_GPIO_WritePin
.Ltmp56:
	.loc	2 182 4                 @ ../Src/thermostat.c:182:4
	movw	r0, #5678
	str	r0, [r5, #8]
	.loc	2 183 38                @ ../Src/thermostat.c:183:38
	ldrb	r0, [r4, #3]
	.loc	2 183 23 is_stmt 0      @ ../Src/thermostat.c:183:23
	strb	r0, [r4]
.Ltmp57:
.LBB1_27:
	.loc	2 189 5 is_stmt 1       @ ../Src/thermostat.c:189:5
	cmp	r0, #2
	beq	.LBB1_31
@ %bb.28:
	cmp	r0, #1
	beq	.LBB1_34
@ %bb.29:
	cmp	r0, #0
	bne.w	.LBB1_71
@ %bb.30:
	.loc	2 0 5 is_stmt 0         @ ../Src/thermostat.c:0:5
	movs	r0, #0
.Ltmp58:
	.loc	2 193 3 is_stmt 1       @ ../Src/thermostat.c:193:3
	mov.w	r1, #7168
	movs	r2, #0
	.loc	2 192 26                @ ../Src/thermostat.c:192:26
	strb	r0, [r4, #2]
	.loc	2 191 22                @ ../Src/thermostat.c:191:22
	strb	r0, [r4]
	ldr	r0, __arm_cp.1_7
	.loc	2 193 3                 @ ../Src/thermostat.c:193:3
	bl	HAL_GPIO_WritePin
	.loc	2 194 3                 @ ../Src/thermostat.c:194:3
	movs	r0, #0
	pop.w	{r4, r5, r6, lr}
	b	FAN_SetSpeed
.Ltmp59:
.LBB1_31:
	.loc	2 263 19                @ ../Src/thermostat.c:263:19
	ldrb	r0, [r4, #1]
.Ltmp60:
	.loc	2 263 6 is_stmt 0       @ ../Src/thermostat.c:263:6
	cbz	r0, .LBB1_37
@ %bb.32:
.Ltmp61:
	.loc	2 316 56 is_stmt 1      @ ../Src/thermostat.c:316:56
	ldrh	r1, [r4, #6]
	.loc	2 316 21 is_stmt 0      @ ../Src/thermostat.c:316:21
	ldrh	r2, [r4, #4]
.Ltmp62:
	.loc	2 316 8                 @ ../Src/thermostat.c:316:8
	cmp	r2, r1
	bhs.w	.LBB1_69
@ %bb.33:
.Ltmp63:
	.loc	2 321 38 is_stmt 1      @ ../Src/thermostat.c:321:38
	ldrb	r3, [r4, #8]
	.loc	2 321 36 is_stmt 0      @ ../Src/thermostat.c:321:36
	subs	r1, r1, r3
.Ltmp64:
	.loc	2 320 12 is_stmt 1      @ ../Src/thermostat.c:320:12
	cmp	r1, r2
	bgt.w	.LBB1_70
	b	.LBB1_71
.Ltmp65:
.LBB1_34:
	.loc	2 198 19                @ ../Src/thermostat.c:198:19
	ldrb	r0, [r4, #1]
.Ltmp66:
	.loc	2 198 6 is_stmt 0       @ ../Src/thermostat.c:198:6
	cbz	r0, .LBB1_42
@ %bb.35:
.Ltmp67:
	.loc	2 250 56 is_stmt 1      @ ../Src/thermostat.c:250:56
	ldrh	r1, [r4, #6]
	.loc	2 250 21 is_stmt 0      @ ../Src/thermostat.c:250:21
	ldrh	r2, [r4, #4]
.Ltmp68:
	.loc	2 250 8                 @ ../Src/thermostat.c:250:8
	cmp	r2, r1
	bls	.LBB1_69
@ %bb.36:
.Ltmp69:
	.loc	2 255 38 is_stmt 1      @ ../Src/thermostat.c:255:38
	ldrb	r3, [r4, #8]
	.loc	2 255 36 is_stmt 0      @ ../Src/thermostat.c:255:36
	add	r1, r3
.Ltmp70:
	.loc	2 254 12 is_stmt 1      @ ../Src/thermostat.c:254:12
	cmp	r1, r2
	it	lo
	strblo	r0, [r4, #2]
.Ltmp71:
	.loc	2 327 1                 @ ../Src/thermostat.c:327:1
	pop	{r4, r5, r6, pc}
.LBB1_37:
.Ltmp72:
	.loc	2 265 21                @ ../Src/thermostat.c:265:21
	ldrb	r0, [r4, #2]
	.loc	2 265 37 is_stmt 0      @ ../Src/thermostat.c:265:37
	cmp	r0, #3
	bhi	.LBB1_71
@ %bb.38:
	.loc	2 0 37                  @ ../Src/thermostat.c:0:37
.LCPI1_8:
	tbb	[pc, r0]
@ %bb.39:
.LJTI1_0:
	.byte	(.LBB1_40-(.LCPI1_8+4))/2
	.byte	(.LBB1_57-(.LCPI1_8+4))/2
	.byte	(.LBB1_47-(.LCPI1_8+4))/2
	.byte	(.LBB1_48-(.LCPI1_8+4))/2
	.p2align	1
.LBB1_40:
	.loc	2 268 5 is_stmt 1       @ ../Src/thermostat.c:268:5
	ldrb	r1, [r4, #9]
	.loc	2 267 19                @ ../Src/thermostat.c:267:19
	ldrh	r0, [r4, #6]
	.loc	2 267 35 is_stmt 0      @ ../Src/thermostat.c:267:35
	subs	r2, r0, r1
	.loc	2 266 19 is_stmt 1      @ ../Src/thermostat.c:266:19
	ldrh	r1, [r4, #4]
.Ltmp73:
	.loc	2 265 7                 @ ../Src/thermostat.c:265:7
	cmp	r2, r1
	ble	.LBB1_71
@ %bb.41:
.Ltmp74:
	.loc	2 270 28                @ ../Src/thermostat.c:270:28
	movs	r2, #1
	strb	r2, [r4, #2]
	b	.LBB1_58
.Ltmp75:
.LBB1_42:
	.loc	2 200 21                @ ../Src/thermostat.c:200:21
	ldrb	r0, [r4, #2]
	.loc	2 200 37 is_stmt 0      @ ../Src/thermostat.c:200:37
	cmp	r0, #3
	bhi	.LBB1_71
@ %bb.43:
	.loc	2 0 37                  @ ../Src/thermostat.c:0:37
.LCPI1_9:
	tbb	[pc, r0]
@ %bb.44:
.LJTI1_1:
	.byte	(.LBB1_45-(.LCPI1_9+4))/2
	.byte	(.LBB1_49-(.LCPI1_9+4))/2
	.byte	(.LBB1_52-(.LCPI1_9+4))/2
	.byte	(.LBB1_55-(.LCPI1_9+4))/2
	.p2align	1
.LBB1_45:
	.loc	2 202 19 is_stmt 1      @ ../Src/thermostat.c:202:19
	ldrh	r0, [r4, #6]
	.loc	2 203 5                 @ ../Src/thermostat.c:203:5
	ldrb	r1, [r4, #9]
	.loc	2 202 35                @ ../Src/thermostat.c:202:35
	adds	r2, r1, r0
	.loc	2 201 19                @ ../Src/thermostat.c:201:19
	ldrh	r1, [r4, #4]
.Ltmp76:
	.loc	2 200 7                 @ ../Src/thermostat.c:200:7
	cmp	r2, r1
	bhs	.LBB1_71
@ %bb.46:
.Ltmp77:
	.loc	2 205 28                @ ../Src/thermostat.c:205:28
	movs	r2, #1
	strb	r2, [r4, #2]
	b	.LBB1_50
.Ltmp78:
.LBB1_47:
	.loc	2 293 19                @ ../Src/thermostat.c:293:19
	ldrb	r2, [r4, #10]
	.loc	2 291 20                @ ../Src/thermostat.c:291:20
	ldrh	r0, [r4, #6]
	.loc	2 290 22                @ ../Src/thermostat.c:290:22
	ldrh	r1, [r4, #4]
	b	.LBB1_60
.Ltmp79:
.LBB1_48:
	.loc	2 308 5                 @ ../Src/thermostat.c:308:5
	ldrb	r2, [r4, #10]
	.loc	2 307 6                 @ ../Src/thermostat.c:307:6
	ldrh	r0, [r4, #6]
	.loc	2 306 6                 @ ../Src/thermostat.c:306:6
	ldrh	r1, [r4, #4]
	b	.LBB1_62
.Ltmp80:
.LBB1_49:
	.loc	2 211 20                @ ../Src/thermostat.c:211:20
	ldrh	r0, [r4, #6]
	.loc	2 210 22                @ ../Src/thermostat.c:210:22
	ldrh	r1, [r4, #4]
.LBB1_50:
	.loc	2 212 19                @ ../Src/thermostat.c:212:19
	ldrb	r2, [r4, #10]
	.loc	2 211 36                @ ../Src/thermostat.c:211:36
	adds	r3, r2, r0
.Ltmp81:
	.loc	2 210 9                 @ ../Src/thermostat.c:210:9
	cmp	r3, r1
	bhs	.LBB1_67
@ %bb.51:
.Ltmp82:
	.loc	2 214 29                @ ../Src/thermostat.c:214:29
	movs	r3, #2
	strb	r3, [r4, #2]
	b	.LBB1_53
.Ltmp83:
.LBB1_52:
	.loc	2 228 19                @ ../Src/thermostat.c:228:19
	ldrb	r2, [r4, #10]
	.loc	2 226 20                @ ../Src/thermostat.c:226:20
	ldrh	r0, [r4, #6]
	.loc	2 225 22                @ ../Src/thermostat.c:225:22
	ldrh	r1, [r4, #4]
.LBB1_53:
	.loc	2 227 6                 @ ../Src/thermostat.c:227:6
	ldrb	r3, [r4, #9]
	.loc	2 226 36                @ ../Src/thermostat.c:226:36
	add	r3, r0
	.loc	2 227 38                @ ../Src/thermostat.c:227:38
	adds	r6, r3, r2
.Ltmp84:
	.loc	2 225 9                 @ ../Src/thermostat.c:225:9
	cmp	r6, r1
	bhs	.LBB1_64
@ %bb.54:
.Ltmp85:
	.loc	2 230 29                @ ../Src/thermostat.c:230:29
	movs	r3, #3
	strb	r3, [r4, #2]
	b	.LBB1_56
.Ltmp86:
.LBB1_55:
	.loc	2 243 5                 @ ../Src/thermostat.c:243:5
	ldrb	r2, [r4, #10]
	.loc	2 242 6                 @ ../Src/thermostat.c:242:6
	ldrh	r0, [r4, #6]
	.loc	2 241 6                 @ ../Src/thermostat.c:241:6
	ldrh	r1, [r4, #4]
.LBB1_56:
	.loc	2 242 35                @ ../Src/thermostat.c:242:35
	add	r0, r2
.Ltmp87:
	.loc	2 240 7                 @ ../Src/thermostat.c:240:7
	cmp	r0, r1
	bhs	.LBB1_63
	b	.LBB1_71
.Ltmp88:
.LBB1_57:
	.loc	2 276 20                @ ../Src/thermostat.c:276:20
	ldrh	r0, [r4, #6]
	.loc	2 275 22                @ ../Src/thermostat.c:275:22
	ldrh	r1, [r4, #4]
.LBB1_58:
	.loc	2 277 19                @ ../Src/thermostat.c:277:19
	ldrb	r2, [r4, #10]
	.loc	2 276 36                @ ../Src/thermostat.c:276:36
	subs	r3, r0, r2
.Ltmp89:
	.loc	2 275 9                 @ ../Src/thermostat.c:275:9
	cmp	r3, r1
	ble	.LBB1_68
@ %bb.59:
.Ltmp90:
	.loc	2 279 29                @ ../Src/thermostat.c:279:29
	movs	r3, #2
	strb	r3, [r4, #2]
.Ltmp91:
.LBB1_60:
	.loc	2 292 6                 @ ../Src/thermostat.c:292:6
	ldrb	r3, [r4, #9]
	.loc	2 291 36                @ ../Src/thermostat.c:291:36
	subs	r3, r0, r3
	.loc	2 292 38                @ ../Src/thermostat.c:292:38
	subs	r6, r3, r2
.Ltmp92:
	.loc	2 290 9                 @ ../Src/thermostat.c:290:9
	cmp	r6, r1
	ble	.LBB1_65
@ %bb.61:
.Ltmp93:
	.loc	2 295 29                @ ../Src/thermostat.c:295:29
	movs	r3, #3
	strb	r3, [r4, #2]
.Ltmp94:
.LBB1_62:
	.loc	2 307 35                @ ../Src/thermostat.c:307:35
	subs	r0, r0, r2
.Ltmp95:
	.loc	2 305 7                 @ ../Src/thermostat.c:305:7
	cmp	r0, r1
	bgt	.LBB1_71
.Ltmp96:
.LBB1_63:
	.loc	2 0 7 is_stmt 0         @ ../Src/thermostat.c:0:7
	movs	r0, #2
	b	.LBB1_70
.LBB1_64:
.Ltmp97:
	.loc	2 232 14 is_stmt 1      @ ../Src/thermostat.c:232:14
	cmp	r3, r1
	bhs	.LBB1_66
	b	.LBB1_71
.Ltmp98:
.LBB1_65:
	.loc	2 297 14                @ ../Src/thermostat.c:297:14
	cmp	r3, r1
	bgt	.LBB1_71
.Ltmp99:
.LBB1_66:
	.loc	2 0 14 is_stmt 0        @ ../Src/thermostat.c:0:14
	movs	r0, #1
	b	.LBB1_70
.LBB1_67:
.Ltmp100:
	.loc	2 216 13 is_stmt 1      @ ../Src/thermostat.c:216:13
	cmp	r1, r0
	bls	.LBB1_69
	b	.LBB1_71
.Ltmp101:
.LBB1_68:
	.loc	2 281 13                @ ../Src/thermostat.c:281:13
	cmp	r1, r0
	blo	.LBB1_71
.Ltmp102:
.LBB1_69:
	.loc	2 0 13 is_stmt 0        @ ../Src/thermostat.c:0:13
	movs	r0, #0
.LBB1_70:
	strb	r0, [r4, #2]
.LBB1_71:
	.loc	2 327 1 is_stmt 1       @ ../Src/thermostat.c:327:1
	pop	{r4, r5, r6, pc}
.Ltmp103:
	.p2align	2
@ %bb.72:
	.loc	2 0 1 is_stmt 0         @ ../Src/thermostat.c:0:1
__arm_cp.1_0:
	.long	Thermostat_1
.Lcpi_end4:
	.size	__arm_cp.1_0, .Lcpi_end4-__arm_cp.1_0
__arm_cp.1_1:
	.long	onewire_flags
.Lcpi_end5:
	.size	__arm_cp.1_1, .Lcpi_end5-__arm_cp.1_1
__arm_cp.1_2:
	.long	ds18b20_1
.Lcpi_end6:
	.size	__arm_cp.1_2, .Lcpi_end6-__arm_cp.1_2
__arm_cp.1_3:
	.long	.L_MergedGlobals
.Lcpi_end7:
	.size	__arm_cp.1_3, .Lcpi_end7-__arm_cp.1_3
__arm_cp.1_4:
	.long	.L_MergedGlobals.1
.Lcpi_end8:
	.size	__arm_cp.1_4, .Lcpi_end8-__arm_cp.1_4
__arm_cp.1_5:
	.long	display_flags
.Lcpi_end9:
	.size	__arm_cp.1_5, .Lcpi_end9-__arm_cp.1_5
__arm_cp.1_6:
	.long	ntc_temperature
.Lcpi_end10:
	.size	__arm_cp.1_6, .Lcpi_end10-__arm_cp.1_6
__arm_cp.1_7:
	.long	1073874944              @ 0x40020800
.Lcpi_end11:
	.size	__arm_cp.1_7, .Lcpi_end11-__arm_cp.1_7
.Lfunc_end1:
	.size	THERMOSTAT_Service, .Lfunc_end1-THERMOSTAT_Service
	.cfi_endproc
	.cantunwind
	.fnend
                                        @ -- End function
	.hidden	Thermostat_1            @ @Thermostat_1
	.type	Thermostat_1,%object
	.section	.bss.Thermostat_1,"aw",%nobits
	.globl	Thermostat_1
	.p2align	2
Thermostat_1:
	.zero	12
	.size	Thermostat_1, 12

	.hidden	thermostat_timer        @ @thermostat_timer
	.type	thermostat_timer,%object
	.section	.bss.thermostat_timer,"aw",%nobits
	.globl	thermostat_timer
	.p2align	2
thermostat_timer:
	.long	0                       @ 0x0
	.size	thermostat_timer, 4

	.type	.L_MergedGlobals,%object @ @_MergedGlobals
	.section	.bss..L_MergedGlobals,"aw",%nobits
	.p2align	2
.L_MergedGlobals:
	.zero	12
	.size	.L_MergedGlobals, 12

	.type	.L_MergedGlobals.1,%object @ @_MergedGlobals.1
	.section	.bss..L_MergedGlobals.1,"aw",%nobits
	.p2align	2
.L_MergedGlobals.1:
	.zero	3
	.size	.L_MergedGlobals.1, 3

	.section	".note.GNU-stack","",%progbits
	.eabi_attribute	30, 4	@ Tag_ABI_optimization_goals
	.ARM_attribute	16, 1	@ Tag_AV_eba